
/home/alan/Project/ysyx/ysyx-workbench/am-kernels/tests/cpu-tests/build/crc32-riscv32-nemu.elf:     file format elf32-littleriscv


Disassembly of section .text:

80000000 <_start>:
80000000:	00000413          	li	s0,0
80000004:	00009117          	auipc	sp,0x9
80000008:	ffc10113          	addi	sp,sp,-4 # 80009000 <_end>
8000000c:	108000ef          	jal	ra,80000114 <_trm_init>

80000010 <check>:
80000010:	00050463          	beqz	a0,80000018 <check+0x8>
80000014:	00008067          	ret
80000018:	ff010113          	addi	sp,sp,-16
8000001c:	00100513          	li	a0,1
80000020:	00112623          	sw	ra,12(sp)
80000024:	0e4000ef          	jal	ra,80000108 <halt>

80000028 <rc_crc32>:
80000028:	80000eb7          	lui	t4,0x80000
8000002c:	564e8e93          	addi	t4,t4,1380 # 80000564 <_end+0xffff7564>
80000030:	000ea803          	lw	a6,0(t4)
80000034:	04081863          	bnez	a6,80000084 <rc_crc32+0x5c>
80000038:	800007b7          	lui	a5,0x80000
8000003c:	edb888b7          	lui	a7,0xedb88
80000040:	16478313          	addi	t1,a5,356 # 80000164 <_end+0xffff7164>
80000044:	32088893          	addi	a7,a7,800 # edb88320 <_end+0x6db7f320>
80000048:	10000e13          	li	t3,256
8000004c:	00080793          	mv	a5,a6
80000050:	00800713          	li	a4,8
80000054:	0017f693          	andi	a3,a5,1
80000058:	fff70713          	addi	a4,a4,-1
8000005c:	0017d793          	srli	a5,a5,0x1
80000060:	00068463          	beqz	a3,80000068 <rc_crc32+0x40>
80000064:	0117c7b3          	xor	a5,a5,a7
80000068:	fe0716e3          	bnez	a4,80000054 <rc_crc32+0x2c>
8000006c:	00f32023          	sw	a5,0(t1)
80000070:	00180813          	addi	a6,a6,1
80000074:	00430313          	addi	t1,t1,4
80000078:	fdc81ae3          	bne	a6,t3,8000004c <rc_crc32+0x24>
8000007c:	00100793          	li	a5,1
80000080:	00fea023          	sw	a5,0(t4)
80000084:	00c58833          	add	a6,a1,a2
80000088:	fff54693          	not	a3,a0
8000008c:	0305fc63          	bgeu	a1,a6,800000c4 <rc_crc32+0x9c>
80000090:	800007b7          	lui	a5,0x80000
80000094:	16478793          	addi	a5,a5,356 # 80000164 <_end+0xffff7164>
80000098:	0005c603          	lbu	a2,0(a1)
8000009c:	0ff6f713          	zext.b	a4,a3
800000a0:	00158593          	addi	a1,a1,1
800000a4:	00c74733          	xor	a4,a4,a2
800000a8:	00271713          	slli	a4,a4,0x2
800000ac:	00e78733          	add	a4,a5,a4
800000b0:	00072703          	lw	a4,0(a4)
800000b4:	0086d693          	srli	a3,a3,0x8
800000b8:	00e6c6b3          	xor	a3,a3,a4
800000bc:	fcb81ee3          	bne	a6,a1,80000098 <rc_crc32+0x70>
800000c0:	fff6c513          	not	a0,a3
800000c4:	00008067          	ret

800000c8 <main>:
800000c8:	800005b7          	lui	a1,0x80000
800000cc:	ff010113          	addi	sp,sp,-16
800000d0:	02b00613          	li	a2,43
800000d4:	13458593          	addi	a1,a1,308 # 80000134 <_end+0xffff7134>
800000d8:	00000513          	li	a0,0
800000dc:	00112623          	sw	ra,12(sp)
800000e0:	f49ff0ef          	jal	ra,80000028 <rc_crc32>
800000e4:	beb067b7          	lui	a5,0xbeb06
800000e8:	cc778793          	addi	a5,a5,-825 # beb05cc7 <_end+0x3eafccc7>
800000ec:	00f50533          	add	a0,a0,a5
800000f0:	00153513          	seqz	a0,a0
800000f4:	f1dff0ef          	jal	ra,80000010 <check>
800000f8:	00c12083          	lw	ra,12(sp)
800000fc:	00000513          	li	a0,0
80000100:	01010113          	addi	sp,sp,16
80000104:	00008067          	ret

80000108 <halt>:
80000108:	00050513          	mv	a0,a0
8000010c:	00100073          	ebreak
80000110:	0000006f          	j	80000110 <halt+0x8>

80000114 <_trm_init>:
80000114:	80000537          	lui	a0,0x80000
80000118:	ff010113          	addi	sp,sp,-16
8000011c:	16050513          	addi	a0,a0,352 # 80000160 <_end+0xffff7160>
80000120:	00112623          	sw	ra,12(sp)
80000124:	fa5ff0ef          	jal	ra,800000c8 <main>
80000128:	00050513          	mv	a0,a0
8000012c:	00100073          	ebreak
80000130:	0000006f          	j	80000130 <_trm_init+0x1c>
