
/home/alan/Project/ysyx/ysyx-workbench/am-kernels/tests/cpu-tests/build/hello-str-riscv32-nemu.elf:     file format elf32-littleriscv


Disassembly of section .text:

80000000 <_start>:
80000000:	00000413          	li	s0,0
80000004:	00009117          	auipc	sp,0x9
80000008:	ffc10113          	addi	sp,sp,-4 # 80009000 <_end>
8000000c:	0e4000ef          	jal	ra,800000f0 <_trm_init>

80000010 <check>:
80000010:	00050463          	beqz	a0,80000018 <check+0x8>
80000014:	00008067          	ret
80000018:	ff010113          	addi	sp,sp,-16
8000001c:	00100513          	li	a0,1
80000020:	00112623          	sw	ra,12(sp)
80000024:	0c0000ef          	jal	ra,800000e4 <halt>

80000028 <main>:
80000028:	ff010113          	addi	sp,sp,-16
8000002c:	00812423          	sw	s0,8(sp)
80000030:	00912223          	sw	s1,4(sp)
80000034:	80000437          	lui	s0,0x80000
80000038:	800004b7          	lui	s1,0x80000
8000003c:	800005b7          	lui	a1,0x80000
80000040:	3fc48613          	addi	a2,s1,1020 # 800003fc <_end+0xffff73fc>
80000044:	40c58593          	addi	a1,a1,1036 # 8000040c <_end+0xffff740c>
80000048:	44040513          	addi	a0,s0,1088 # 80000440 <_end+0xffff7440>
8000004c:	00112623          	sw	ra,12(sp)
80000050:	0c0000ef          	jal	ra,80000110 <sprintf>
80000054:	3fc48593          	addi	a1,s1,1020
80000058:	44040513          	addi	a0,s0,1088
8000005c:	318000ef          	jal	ra,80000374 <strcmp>
80000060:	00153513          	seqz	a0,a0
80000064:	fadff0ef          	jal	ra,80000010 <check>
80000068:	800004b7          	lui	s1,0x80000
8000006c:	00200713          	li	a4,2
80000070:	00100693          	li	a3,1
80000074:	00100613          	li	a2,1
80000078:	41048593          	addi	a1,s1,1040 # 80000410 <_end+0xffff7410>
8000007c:	44040513          	addi	a0,s0,1088
80000080:	090000ef          	jal	ra,80000110 <sprintf>
80000084:	800005b7          	lui	a1,0x80000
80000088:	42058593          	addi	a1,a1,1056 # 80000420 <_end+0xffff7420>
8000008c:	44040513          	addi	a0,s0,1088
80000090:	2e4000ef          	jal	ra,80000374 <strcmp>
80000094:	00153513          	seqz	a0,a0
80000098:	f79ff0ef          	jal	ra,80000010 <check>
8000009c:	00c00713          	li	a4,12
800000a0:	00a00693          	li	a3,10
800000a4:	00200613          	li	a2,2
800000a8:	41048593          	addi	a1,s1,1040
800000ac:	44040513          	addi	a0,s0,1088
800000b0:	060000ef          	jal	ra,80000110 <sprintf>
800000b4:	800005b7          	lui	a1,0x80000
800000b8:	42c58593          	addi	a1,a1,1068 # 8000042c <_end+0xffff742c>
800000bc:	44040513          	addi	a0,s0,1088
800000c0:	2b4000ef          	jal	ra,80000374 <strcmp>
800000c4:	00153513          	seqz	a0,a0
800000c8:	f49ff0ef          	jal	ra,80000010 <check>
800000cc:	00c12083          	lw	ra,12(sp)
800000d0:	00812403          	lw	s0,8(sp)
800000d4:	00412483          	lw	s1,4(sp)
800000d8:	00000513          	li	a0,0
800000dc:	01010113          	addi	sp,sp,16
800000e0:	00008067          	ret

800000e4 <halt>:
800000e4:	00050513          	mv	a0,a0
800000e8:	00100073          	ebreak
800000ec:	0000006f          	j	800000ec <halt+0x8>

800000f0 <_trm_init>:
800000f0:	80000537          	lui	a0,0x80000
800000f4:	ff010113          	addi	sp,sp,-16
800000f8:	43c50513          	addi	a0,a0,1084 # 8000043c <_end+0xffff743c>
800000fc:	00112623          	sw	ra,12(sp)
80000100:	f29ff0ef          	jal	ra,80000028 <main>
80000104:	00050513          	mv	a0,a0
80000108:	00100073          	ebreak
8000010c:	0000006f          	j	8000010c <_trm_init+0x1c>

80000110 <sprintf>:
80000110:	fa010113          	addi	sp,sp,-96
80000114:	03612023          	sw	s6,32(sp)
80000118:	04e12823          	sw	a4,80(sp)
8000011c:	02112e23          	sw	ra,60(sp)
80000120:	02812c23          	sw	s0,56(sp)
80000124:	02912a23          	sw	s1,52(sp)
80000128:	03212823          	sw	s2,48(sp)
8000012c:	03312623          	sw	s3,44(sp)
80000130:	03412423          	sw	s4,40(sp)
80000134:	03512223          	sw	s5,36(sp)
80000138:	01712e23          	sw	s7,28(sp)
8000013c:	01812c23          	sw	s8,24(sp)
80000140:	01912a23          	sw	s9,20(sp)
80000144:	04c12423          	sw	a2,72(sp)
80000148:	04d12623          	sw	a3,76(sp)
8000014c:	04f12a23          	sw	a5,84(sp)
80000150:	05012c23          	sw	a6,88(sp)
80000154:	05112e23          	sw	a7,92(sp)
80000158:	0005c783          	lbu	a5,0(a1)
8000015c:	04810713          	addi	a4,sp,72
80000160:	00e12623          	sw	a4,12(sp)
80000164:	00050b13          	mv	s6,a0
80000168:	16078663          	beqz	a5,800002d4 <sprintf+0x1c4>
8000016c:	00058413          	mv	s0,a1
80000170:	00050493          	mv	s1,a0
80000174:	02500a13          	li	s4,37
80000178:	06400c13          	li	s8,100
8000017c:	00a00a93          	li	s5,10
80000180:	00100913          	li	s2,1
80000184:	03000993          	li	s3,48
80000188:	07300b93          	li	s7,115
8000018c:	00140713          	addi	a4,s0,1
80000190:	05479c63          	bne	a5,s4,800001e8 <sprintf+0xd8>
80000194:	00144783          	lbu	a5,1(s0)
80000198:	0b878063          	beq	a5,s8,80000238 <sprintf+0x128>
8000019c:	07778263          	beq	a5,s7,80000200 <sprintf+0xf0>
800001a0:	05478463          	beq	a5,s4,800001e8 <sprintf+0xd8>
800001a4:	00070413          	mv	s0,a4
800001a8:	fe0792e3          	bnez	a5,8000018c <sprintf+0x7c>
800001ac:	41648533          	sub	a0,s1,s6
800001b0:	00048023          	sb	zero,0(s1)
800001b4:	03c12083          	lw	ra,60(sp)
800001b8:	03812403          	lw	s0,56(sp)
800001bc:	03412483          	lw	s1,52(sp)
800001c0:	03012903          	lw	s2,48(sp)
800001c4:	02c12983          	lw	s3,44(sp)
800001c8:	02812a03          	lw	s4,40(sp)
800001cc:	02412a83          	lw	s5,36(sp)
800001d0:	02012b03          	lw	s6,32(sp)
800001d4:	01c12b83          	lw	s7,28(sp)
800001d8:	01812c03          	lw	s8,24(sp)
800001dc:	01412c83          	lw	s9,20(sp)
800001e0:	06010113          	addi	sp,sp,96
800001e4:	00008067          	ret
800001e8:	00f48023          	sb	a5,0(s1)
800001ec:	00144783          	lbu	a5,1(s0)
800001f0:	00148493          	addi	s1,s1,1
800001f4:	00070413          	mv	s0,a4
800001f8:	f8079ae3          	bnez	a5,8000018c <sprintf+0x7c>
800001fc:	fb1ff06f          	j	800001ac <sprintf+0x9c>
80000200:	00c12783          	lw	a5,12(sp)
80000204:	00048513          	mv	a0,s1
80000208:	00240413          	addi	s0,s0,2
8000020c:	0007ac83          	lw	s9,0(a5)
80000210:	00478793          	addi	a5,a5,4
80000214:	00f12623          	sw	a5,12(sp)
80000218:	000c8593          	mv	a1,s9
8000021c:	0f8000ef          	jal	ra,80000314 <strcpy>
80000220:	000c8513          	mv	a0,s9
80000224:	0bc000ef          	jal	ra,800002e0 <strlen>
80000228:	00044783          	lbu	a5,0(s0)
8000022c:	00a484b3          	add	s1,s1,a0
80000230:	f4079ee3          	bnez	a5,8000018c <sprintf+0x7c>
80000234:	f79ff06f          	j	800001ac <sprintf+0x9c>
80000238:	00c12783          	lw	a5,12(sp)
8000023c:	0007a683          	lw	a3,0(a5)
80000240:	00478793          	addi	a5,a5,4
80000244:	00f12623          	sw	a5,12(sp)
80000248:	06068e63          	beqz	a3,800002c4 <sprintf+0x1b4>
8000024c:	41f6d793          	srai	a5,a3,0x1f
80000250:	00d7c6b3          	xor	a3,a5,a3
80000254:	40f686b3          	sub	a3,a3,a5
80000258:	00048613          	mv	a2,s1
8000025c:	40990533          	sub	a0,s2,s1
80000260:	0356e733          	rem	a4,a3,s5
80000264:	00060793          	mv	a5,a2
80000268:	00a605b3          	add	a1,a2,a0
8000026c:	00160613          	addi	a2,a2,1
80000270:	0356c6b3          	div	a3,a3,s5
80000274:	03070713          	addi	a4,a4,48
80000278:	0ff77713          	zext.b	a4,a4
8000027c:	fee60fa3          	sb	a4,-1(a2)
80000280:	fe0690e3          	bnez	a3,80000260 <sprintf+0x150>
80000284:	02f4f463          	bgeu	s1,a5,800002ac <sprintf+0x19c>
80000288:	00048693          	mv	a3,s1
8000028c:	0080006f          	j	80000294 <sprintf+0x184>
80000290:	0007c703          	lbu	a4,0(a5)
80000294:	0006c603          	lbu	a2,0(a3)
80000298:	fff78793          	addi	a5,a5,-1
8000029c:	00168693          	addi	a3,a3,1
800002a0:	fee68fa3          	sb	a4,-1(a3)
800002a4:	00c780a3          	sb	a2,1(a5)
800002a8:	fef6e4e3          	bltu	a3,a5,80000290 <sprintf+0x180>
800002ac:	00b484b3          	add	s1,s1,a1
800002b0:	00048023          	sb	zero,0(s1)
800002b4:	00244783          	lbu	a5,2(s0)
800002b8:	00240413          	addi	s0,s0,2
800002bc:	ec0798e3          	bnez	a5,8000018c <sprintf+0x7c>
800002c0:	eedff06f          	j	800001ac <sprintf+0x9c>
800002c4:	01348023          	sb	s3,0(s1)
800002c8:	000480a3          	sb	zero,1(s1)
800002cc:	00148493          	addi	s1,s1,1
800002d0:	fe5ff06f          	j	800002b4 <sprintf+0x1a4>
800002d4:	00050493          	mv	s1,a0
800002d8:	00000513          	li	a0,0
800002dc:	ed5ff06f          	j	800001b0 <sprintf+0xa0>

800002e0 <strlen>:
800002e0:	00050713          	mv	a4,a0
800002e4:	02050263          	beqz	a0,80000308 <strlen+0x28>
800002e8:	00054783          	lbu	a5,0(a0)
800002ec:	00000513          	li	a0,0
800002f0:	02078063          	beqz	a5,80000310 <strlen+0x30>
800002f4:	00150513          	addi	a0,a0,1
800002f8:	00a707b3          	add	a5,a4,a0
800002fc:	0007c783          	lbu	a5,0(a5)
80000300:	fe079ae3          	bnez	a5,800002f4 <strlen+0x14>
80000304:	00008067          	ret
80000308:	00000513          	li	a0,0
8000030c:	00008067          	ret
80000310:	00008067          	ret

80000314 <strcpy>:
80000314:	04058c63          	beqz	a1,8000036c <strcpy+0x58>
80000318:	0005c683          	lbu	a3,0(a1)
8000031c:	04068263          	beqz	a3,80000360 <strcpy+0x4c>
80000320:	00000793          	li	a5,0
80000324:	00178793          	addi	a5,a5,1
80000328:	00f58733          	add	a4,a1,a5
8000032c:	00074703          	lbu	a4,0(a4)
80000330:	fe071ae3          	bnez	a4,80000324 <strcpy+0x10>
80000334:	00050713          	mv	a4,a0
80000338:	00158593          	addi	a1,a1,1
8000033c:	00a787b3          	add	a5,a5,a0
80000340:	00c0006f          	j	8000034c <strcpy+0x38>
80000344:	0005c683          	lbu	a3,0(a1)
80000348:	00158593          	addi	a1,a1,1
8000034c:	00d70023          	sb	a3,0(a4)
80000350:	00170713          	addi	a4,a4,1
80000354:	fee798e3          	bne	a5,a4,80000344 <strcpy+0x30>
80000358:	00078023          	sb	zero,0(a5)
8000035c:	00008067          	ret
80000360:	00050793          	mv	a5,a0
80000364:	00078023          	sb	zero,0(a5)
80000368:	00008067          	ret
8000036c:	00000513          	li	a0,0
80000370:	00008067          	ret

80000374 <strcmp>:
80000374:	06050a63          	beqz	a0,800003e8 <strcmp+0x74>
80000378:	06058863          	beqz	a1,800003e8 <strcmp+0x74>
8000037c:	00054603          	lbu	a2,0(a0)
80000380:	0005c683          	lbu	a3,0(a1)
80000384:	00000793          	li	a5,0
80000388:	04060e63          	beqz	a2,800003e4 <strcmp+0x70>
8000038c:	00178793          	addi	a5,a5,1
80000390:	00f50733          	add	a4,a0,a5
80000394:	00074703          	lbu	a4,0(a4)
80000398:	fe071ae3          	bnez	a4,8000038c <strcmp+0x18>
8000039c:	04068c63          	beqz	a3,800003f4 <strcmp+0x80>
800003a0:	00000713          	li	a4,0
800003a4:	00170713          	addi	a4,a4,1
800003a8:	00e586b3          	add	a3,a1,a4
800003ac:	0006c683          	lbu	a3,0(a3)
800003b0:	fe069ae3          	bnez	a3,800003a4 <strcmp+0x30>
800003b4:	02e79e63          	bne	a5,a4,800003f0 <strcmp+0x7c>
800003b8:	00150713          	addi	a4,a0,1
800003bc:	00061a63          	bnez	a2,800003d0 <strcmp+0x5c>
800003c0:	0280006f          	j	800003e8 <strcmp+0x74>
800003c4:	00074603          	lbu	a2,0(a4)
800003c8:	00170713          	addi	a4,a4,1
800003cc:	00060e63          	beqz	a2,800003e8 <strcmp+0x74>
800003d0:	0005c783          	lbu	a5,0(a1)
800003d4:	00158593          	addi	a1,a1,1
800003d8:	fec786e3          	beq	a5,a2,800003c4 <strcmp+0x50>
800003dc:	40f60533          	sub	a0,a2,a5
800003e0:	00008067          	ret
800003e4:	fa069ee3          	bnez	a3,800003a0 <strcmp+0x2c>
800003e8:	00000513          	li	a0,0
800003ec:	00008067          	ret
800003f0:	40e787b3          	sub	a5,a5,a4
800003f4:	00078513          	mv	a0,a5
800003f8:	00008067          	ret
