
/home/alan/Project/ysyx/ysyx-workbench/am-kernels/kernels/litenes/build/litenes-riscv32-nemu.elf:     file format elf32-littleriscv


Disassembly of section .text:

80000000 <_start>:
80000000:	00000413          	li	s0,0
80000004:	00183117          	auipc	sp,0x183
80000008:	ffc10113          	addi	sp,sp,-4 # 80183000 <_end>
8000000c:	038040ef          	jal	ra,80004044 <_trm_init>

80000010 <common_bit_set>:
80000010:	00100793          	li	a5,1
80000014:	00c79633          	sll	a2,a5,a2
80000018:	41f65793          	srai	a5,a2,0x1f
8000001c:	00b7f7b3          	and	a5,a5,a1
80000020:	00a67633          	and	a2,a2,a0
80000024:	00f66633          	or	a2,a2,a5
80000028:	00c03533          	snez	a0,a2
8000002c:	00008067          	ret

80000030 <common_set_bitb>:
80000030:	00054783          	lbu	a5,0(a0)
80000034:	00100713          	li	a4,1
80000038:	00b71733          	sll	a4,a4,a1
8000003c:	00e7e7b3          	or	a5,a5,a4
80000040:	00f50023          	sb	a5,0(a0)
80000044:	00008067          	ret

80000048 <common_unset_bitb>:
80000048:	00054703          	lbu	a4,0(a0)
8000004c:	00100793          	li	a5,1
80000050:	00b797b3          	sll	a5,a5,a1
80000054:	fff7c793          	not	a5,a5
80000058:	00e7f7b3          	and	a5,a5,a4
8000005c:	00f50023          	sb	a5,0(a0)
80000060:	00008067          	ret

80000064 <common_modify_bitb>:
80000064:	00100713          	li	a4,1
80000068:	00054783          	lbu	a5,0(a0)
8000006c:	00b71733          	sll	a4,a4,a1
80000070:	00060a63          	beqz	a2,80000084 <common_modify_bitb+0x20>
80000074:	00e7e7b3          	or	a5,a5,a4
80000078:	0ff7f793          	zext.b	a5,a5
8000007c:	00f50023          	sb	a5,0(a0)
80000080:	00008067          	ret
80000084:	fff74713          	not	a4,a4
80000088:	00e7f7b3          	and	a5,a5,a4
8000008c:	00f50023          	sb	a5,0(a0)
80000090:	00008067          	ret

80000094 <mmc_read>:
80000094:	8000f7b7          	lui	a5,0x8000f
80000098:	53078793          	addi	a5,a5,1328 # 8000f530 <_end+0xffe8c530>
8000009c:	00a787b3          	add	a5,a5,a0
800000a0:	0007c503          	lbu	a0,0(a5)
800000a4:	00008067          	ret

800000a8 <mmc_write>:
800000a8:	8017a7b7          	lui	a5,0x8017a
800000ac:	6187c703          	lbu	a4,1560(a5) # 8017a618 <_end+0xffff7618>
800000b0:	ff010113          	addi	sp,sp,-16
800000b4:	00812423          	sw	s0,8(sp)
800000b8:	00912223          	sw	s1,4(sp)
800000bc:	00112623          	sw	ra,12(sp)
800000c0:	00300793          	li	a5,3
800000c4:	00050493          	mv	s1,a0
800000c8:	00058413          	mv	s0,a1
800000cc:	02f70463          	beq	a4,a5,800000f4 <mmc_write+0x4c>
800000d0:	8000f7b7          	lui	a5,0x8000f
800000d4:	53078793          	addi	a5,a5,1328 # 8000f530 <_end+0xffe8c530>
800000d8:	00978533          	add	a0,a5,s1
800000dc:	00850023          	sb	s0,0(a0)
800000e0:	00c12083          	lw	ra,12(sp)
800000e4:	00812403          	lw	s0,8(sp)
800000e8:	00412483          	lw	s1,4(sp)
800000ec:	01010113          	addi	sp,sp,16
800000f0:	00008067          	ret
800000f4:	0035f793          	andi	a5,a1,3
800000f8:	8001f5b7          	lui	a1,0x8001f
800000fc:	00d79793          	slli	a5,a5,0xd
80000100:	53058593          	addi	a1,a1,1328 # 8001f530 <_end+0xffe9c530>
80000104:	00002637          	lui	a2,0x2
80000108:	00f585b3          	add	a1,a1,a5
8000010c:	00000513          	li	a0,0
80000110:	235000ef          	jal	ra,80000b44 <ppu_copy>
80000114:	fbdff06f          	j	800000d0 <mmc_write+0x28>

80000118 <mmc_copy>:
80000118:	8000f7b7          	lui	a5,0x8000f
8000011c:	53078793          	addi	a5,a5,1328 # 8000f530 <_end+0xffe8c530>
80000120:	00a78533          	add	a0,a5,a0
80000124:	46c0406f          	j	80004590 <memcpy>

80000128 <mmc_append_chr_rom_page>:
80000128:	8017a737          	lui	a4,0x8017a
8000012c:	61470713          	addi	a4,a4,1556 # 8017a614 <_end+0xffff7614>
80000130:	00072783          	lw	a5,0(a4)
80000134:	02f04463          	bgtz	a5,8000015c <mmc_append_chr_rom_page+0x34>
80000138:	8001f6b7          	lui	a3,0x8001f
8000013c:	00050593          	mv	a1,a0
80000140:	53068693          	addi	a3,a3,1328 # 8001f530 <_end+0xffe9c530>
80000144:	00d79513          	slli	a0,a5,0xd
80000148:	00002637          	lui	a2,0x2
8000014c:	00178793          	addi	a5,a5,1
80000150:	00a68533          	add	a0,a3,a0
80000154:	00f72023          	sw	a5,0(a4)
80000158:	4380406f          	j	80004590 <memcpy>
8000015c:	800055b7          	lui	a1,0x80005
80000160:	80005537          	lui	a0,0x80005
80000164:	ff010113          	addi	sp,sp,-16
80000168:	01d00613          	li	a2,29
8000016c:	a3458593          	addi	a1,a1,-1484 # 80004a34 <_end+0xffe81a34>
80000170:	a8050513          	addi	a0,a0,-1408 # 80004a80 <_end+0xffe81a80>
80000174:	00112623          	sw	ra,12(sp)
80000178:	2c8040ef          	jal	ra,80004440 <printf>
8000017c:	00100513          	li	a0,1
80000180:	6b9030ef          	jal	ra,80004038 <halt>

80000184 <ppu_generates_nmi>:
80000184:	800257b7          	lui	a5,0x80025
80000188:	6307c503          	lbu	a0,1584(a5) # 80025630 <_end+0xffea2630>
8000018c:	00700613          	li	a2,7
80000190:	00000593          	li	a1,0
80000194:	e7dff06f          	j	80000010 <common_bit_set>

80000198 <ppu_get_real_ram_address>:
80000198:	000047b7          	lui	a5,0x4
8000019c:	eff78713          	addi	a4,a5,-257 # 3eff <_entry_offset+0x3eff>
800001a0:	00a76463          	bltu	a4,a0,800001a8 <ppu_get_real_ram_address+0x10>
800001a4:	00008067          	ret
800001a8:	00f56863          	bltu	a0,a5,800001b8 <ppu_get_real_ram_address+0x20>
800001ac:	00010537          	lui	a0,0x10
800001b0:	fff50513          	addi	a0,a0,-1 # ffff <_entry_offset+0xffff>
800001b4:	00008067          	ret
800001b8:	f0078713          	addi	a4,a5,-256
800001bc:	01f57513          	andi	a0,a0,31
800001c0:	00e56533          	or	a0,a0,a4
800001c4:	01051693          	slli	a3,a0,0x10
800001c8:	4106d693          	srai	a3,a3,0x10
800001cc:	01069513          	slli	a0,a3,0x10
800001d0:	f1078793          	addi	a5,a5,-240
800001d4:	01055513          	srli	a0,a0,0x10
800001d8:	00f68c63          	beq	a3,a5,800001f0 <ppu_get_real_ram_address+0x58>
800001dc:	40e50733          	sub	a4,a0,a4
800001e0:	111007b7          	lui	a5,0x11100
800001e4:	00e7d7b3          	srl	a5,a5,a4
800001e8:	0017f793          	andi	a5,a5,1
800001ec:	fa078ce3          	beqz	a5,800001a4 <ppu_get_real_ram_address+0xc>
800001f0:	ff050513          	addi	a0,a0,-16
800001f4:	01051513          	slli	a0,a0,0x10
800001f8:	01055513          	srli	a0,a0,0x10
800001fc:	00008067          	ret

80000200 <ppu_ram_read>:
80000200:	000047b7          	lui	a5,0x4
80000204:	eff78713          	addi	a4,a5,-257 # 3eff <_entry_offset+0x3eff>
80000208:	00a76c63          	bltu	a4,a0,80000220 <ppu_ram_read+0x20>
8000020c:	800217b7          	lui	a5,0x80021
80000210:	53078793          	addi	a5,a5,1328 # 80021530 <_end+0xffe9e530>
80000214:	00a787b3          	add	a5,a5,a0
80000218:	0007c503          	lbu	a0,0(a5)
8000021c:	00008067          	ret
80000220:	02f56063          	bltu	a0,a5,80000240 <ppu_ram_read+0x40>
80000224:	00010537          	lui	a0,0x10
80000228:	800217b7          	lui	a5,0x80021
8000022c:	fff50513          	addi	a0,a0,-1 # ffff <_entry_offset+0xffff>
80000230:	53078793          	addi	a5,a5,1328 # 80021530 <_end+0xffe9e530>
80000234:	00a787b3          	add	a5,a5,a0
80000238:	0007c503          	lbu	a0,0(a5)
8000023c:	00008067          	ret
80000240:	f0078713          	addi	a4,a5,-256
80000244:	01f57513          	andi	a0,a0,31
80000248:	00e56533          	or	a0,a0,a4
8000024c:	01051693          	slli	a3,a0,0x10
80000250:	4106d693          	srai	a3,a3,0x10
80000254:	01069513          	slli	a0,a3,0x10
80000258:	f1078793          	addi	a5,a5,-240
8000025c:	01055513          	srli	a0,a0,0x10
80000260:	00f68c63          	beq	a3,a5,80000278 <ppu_ram_read+0x78>
80000264:	40e50733          	sub	a4,a0,a4
80000268:	111007b7          	lui	a5,0x11100
8000026c:	00e7d7b3          	srl	a5,a5,a4
80000270:	0017f793          	andi	a5,a5,1
80000274:	f8078ce3          	beqz	a5,8000020c <ppu_ram_read+0xc>
80000278:	ff050513          	addi	a0,a0,-16
8000027c:	01051513          	slli	a0,a0,0x10
80000280:	800217b7          	lui	a5,0x80021
80000284:	01055513          	srli	a0,a0,0x10
80000288:	53078793          	addi	a5,a5,1328 # 80021530 <_end+0xffe9e530>
8000028c:	00a787b3          	add	a5,a5,a0
80000290:	0007c503          	lbu	a0,0(a5)
80000294:	00008067          	ret

80000298 <ppu_draw_background_scanline>:
80000298:	fa010113          	addi	sp,sp,-96
8000029c:	80025837          	lui	a6,0x80025
800002a0:	03812c23          	sw	s8,56(sp)
800002a4:	63080c13          	addi	s8,a6,1584 # 80025630 <_end+0xffea2630>
800002a8:	03b12623          	sw	s11,44(sp)
800002ac:	00050d93          	mv	s11,a0
800002b0:	001c4503          	lbu	a0,1(s8)
800002b4:	00100613          	li	a2,1
800002b8:	00000593          	li	a1,0
800002bc:	04812c23          	sw	s0,88(sp)
800002c0:	04912a23          	sw	s1,84(sp)
800002c4:	05212823          	sw	s2,80(sp)
800002c8:	05412423          	sw	s4,72(sp)
800002cc:	03a12823          	sw	s10,48(sp)
800002d0:	01b12e23          	sw	s11,28(sp)
800002d4:	04112e23          	sw	ra,92(sp)
800002d8:	05312623          	sw	s3,76(sp)
800002dc:	05512223          	sw	s5,68(sp)
800002e0:	05612023          	sw	s6,64(sp)
800002e4:	03712e23          	sw	s7,60(sp)
800002e8:	03912a23          	sw	s9,52(sp)
800002ec:	80005a37          	lui	s4,0x80005
800002f0:	d21ff0ef          	jal	ra,80000010 <common_bit_set>
800002f4:	310a0793          	addi	a5,s4,784 # 80005310 <_end+0xffe82310>
800002f8:	00154413          	xori	s0,a0,1
800002fc:	0ff47413          	zext.b	s0,s0
80000300:	00f12423          	sw	a5,8(sp)
80000304:	801257b7          	lui	a5,0x80125
80000308:	00140493          	addi	s1,s0,1
8000030c:	80021e37          	lui	t3,0x80021
80000310:	65478793          	addi	a5,a5,1620 # 80125654 <_end+0xfffa2654>
80000314:	00341913          	slli	s2,s0,0x3
80000318:	00349d13          	slli	s10,s1,0x3
8000031c:	530e0d93          	addi	s11,t3,1328 # 80021530 <_end+0xffe9e530>
80000320:	00f12c23          	sw	a5,24(sp)
80000324:	0200006f          	j	80000344 <ppu_draw_background_scanline+0xac>
80000328:	2cf05a63          	blez	a5,800005fc <ppu_draw_background_scanline+0x364>
8000032c:	02000793          	li	a5,32
80000330:	00048413          	mv	s0,s1
80000334:	00890913          	addi	s2,s2,8
80000338:	008d0d13          	addi	s10,s10,8
8000033c:	22f48c63          	beq	s1,a5,80000574 <ppu_draw_background_scanline+0x2dc>
80000340:	00148493          	addi	s1,s1,1
80000344:	008c4783          	lbu	a5,8(s8)
80000348:	01c12703          	lw	a4,28(sp)
8000034c:	40f907b3          	sub	a5,s2,a5
80000350:	fc071ce3          	bnez	a4,80000328 <ppu_draw_background_scanline+0x90>
80000354:	10000713          	li	a4,256
80000358:	fcf74ae3          	blt	a4,a5,8000032c <ppu_draw_background_scanline+0x94>
8000035c:	000c4503          	lbu	a0,0(s8)
80000360:	00812683          	lw	a3,8(sp)
80000364:	020c2783          	lw	a5,32(s8)
80000368:	00357713          	andi	a4,a0,3
8000036c:	00171713          	slli	a4,a4,0x1
80000370:	00e68733          	add	a4,a3,a4
80000374:	00075703          	lhu	a4,0(a4)
80000378:	4037d793          	srai	a5,a5,0x3
8000037c:	00579793          	slli	a5,a5,0x5
80000380:	00e787b3          	add	a5,a5,a4
80000384:	008787b3          	add	a5,a5,s0
80000388:	01079793          	slli	a5,a5,0x10
8000038c:	00004737          	lui	a4,0x4
80000390:	00012a23          	sw	zero,20(sp)
80000394:	0107d793          	srli	a5,a5,0x10
80000398:	00012823          	sw	zero,16(sp)
8000039c:	eff70693          	addi	a3,a4,-257 # 3eff <_entry_offset+0x3eff>
800003a0:	2af6e863          	bltu	a3,a5,80000650 <ppu_draw_background_scanline+0x3b8>
800003a4:	00fd87b3          	add	a5,s11,a5
800003a8:	00400613          	li	a2,4
800003ac:	00000593          	li	a1,0
800003b0:	0007c983          	lbu	s3,0(a5)
800003b4:	c5dff0ef          	jal	ra,80000010 <common_bit_set>
800003b8:	020c2783          	lw	a5,32(s8)
800003bc:	00c51513          	slli	a0,a0,0xc
800003c0:	00499993          	slli	s3,s3,0x4
800003c4:	0077f793          	andi	a5,a5,7
800003c8:	00a787b3          	add	a5,a5,a0
800003cc:	013787b3          	add	a5,a5,s3
800003d0:	01079793          	slli	a5,a5,0x10
800003d4:	0107d793          	srli	a5,a5,0x10
800003d8:	00878713          	addi	a4,a5,8
800003dc:	01071713          	slli	a4,a4,0x10
800003e0:	00fd87b3          	add	a5,s11,a5
800003e4:	01075713          	srli	a4,a4,0x10
800003e8:	0007c683          	lbu	a3,0(a5)
800003ec:	00ed87b3          	add	a5,s11,a4
800003f0:	0007c883          	lbu	a7,0(a5)
800003f4:	40245993          	srai	s3,s0,0x2
800003f8:	00869793          	slli	a5,a3,0x8
800003fc:	00f888b3          	add	a7,a7,a5
80000400:	01099793          	slli	a5,s3,0x10
80000404:	0107d793          	srli	a5,a5,0x10
80000408:	00004cb7          	lui	s9,0x4
8000040c:	00389893          	slli	a7,a7,0x3
80000410:	00f12623          	sw	a5,12(sp)
80000414:	00010b37          	lui	s6,0x10
80000418:	800a57b7          	lui	a5,0x800a5
8000041c:	41288a33          	sub	s4,a7,s2
80000420:	00090993          	mv	s3,s2
80000424:	65478b93          	addi	s7,a5,1620 # 800a5654 <_end+0xfff22654>
80000428:	00247413          	andi	s0,s0,2
8000042c:	f00c8a93          	addi	s5,s9,-256 # 3f00 <_entry_offset+0x3f00>
80000430:	fffb0b13          	addi	s6,s6,-1 # ffff <_entry_offset+0xffff>
80000434:	014987b3          	add	a5,s3,s4
80000438:	00fb87b3          	add	a5,s7,a5
8000043c:	0007c683          	lbu	a3,0(a5)
80000440:	10068c63          	beqz	a3,80000558 <ppu_draw_background_scanline+0x2c0>
80000444:	000c4783          	lbu	a5,0(s8)
80000448:	00812703          	lw	a4,8(sp)
8000044c:	020c2583          	lw	a1,32(s8)
80000450:	0037f793          	andi	a5,a5,3
80000454:	00179793          	slli	a5,a5,0x1
80000458:	00f707b3          	add	a5,a4,a5
8000045c:	0007d783          	lhu	a5,0(a5)
80000460:	4055d613          	srai	a2,a1,0x5
80000464:	00c12703          	lw	a4,12(sp)
80000468:	00361613          	slli	a2,a2,0x3
8000046c:	00c787b3          	add	a5,a5,a2
80000470:	3c078793          	addi	a5,a5,960
80000474:	00f707b3          	add	a5,a4,a5
80000478:	01012703          	lw	a4,16(sp)
8000047c:	41f5d513          	srai	a0,a1,0x1f
80000480:	01b55513          	srli	a0,a0,0x1b
80000484:	00f707b3          	add	a5,a4,a5
80000488:	00a58633          	add	a2,a1,a0
8000048c:	01079793          	slli	a5,a5,0x10
80000490:	00004737          	lui	a4,0x4
80000494:	01f67613          	andi	a2,a2,31
80000498:	0107d793          	srli	a5,a5,0x10
8000049c:	eff70713          	addi	a4,a4,-257 # 3eff <_entry_offset+0x3eff>
800004a0:	40a60633          	sub	a2,a2,a0
800004a4:	00078513          	mv	a0,a5
800004a8:	10f76463          	bltu	a4,a5,800005b0 <ppu_draw_background_scanline+0x318>
800004ac:	00ad8533          	add	a0,s11,a0
800004b0:	00f00f93          	li	t6,15
800004b4:	00054783          	lbu	a5,0(a0)
800004b8:	00cfd463          	bge	t6,a2,800004c0 <ppu_draw_background_scanline+0x228>
800004bc:	0047d793          	srli	a5,a5,0x4
800004c0:	00040463          	beqz	s0,800004c8 <ppu_draw_background_scanline+0x230>
800004c4:	0027d793          	srli	a5,a5,0x2
800004c8:	0037f793          	andi	a5,a5,3
800004cc:	01568633          	add	a2,a3,s5
800004d0:	00279793          	slli	a5,a5,0x2
800004d4:	00c787b3          	add	a5,a5,a2
800004d8:	01079793          	slli	a5,a5,0x10
800004dc:	0107d793          	srli	a5,a5,0x10
800004e0:	000b0613          	mv	a2,s6
800004e4:	0397fc63          	bgeu	a5,s9,8000051c <ppu_draw_background_scanline+0x284>
800004e8:	01f7f793          	andi	a5,a5,31
800004ec:	0157e7b3          	or	a5,a5,s5
800004f0:	01079793          	slli	a5,a5,0x10
800004f4:	4107d793          	srai	a5,a5,0x10
800004f8:	01079613          	slli	a2,a5,0x10
800004fc:	f10c8513          	addi	a0,s9,-240
80000500:	01065613          	srli	a2,a2,0x10
80000504:	18a78c63          	beq	a5,a0,8000069c <ppu_draw_background_scanline+0x404>
80000508:	41560533          	sub	a0,a2,s5
8000050c:	111007b7          	lui	a5,0x11100
80000510:	00a7d7b3          	srl	a5,a5,a0
80000514:	0017f793          	andi	a5,a5,1
80000518:	18079263          	bnez	a5,8000069c <ppu_draw_background_scanline+0x404>
8000051c:	01812703          	lw	a4,24(sp)
80000520:	00599793          	slli	a5,s3,0x5
80000524:	413787b3          	sub	a5,a5,s3
80000528:	008c4503          	lbu	a0,8(s8)
8000052c:	00379793          	slli	a5,a5,0x3
80000530:	00f707b3          	add	a5,a4,a5
80000534:	00cd8633          	add	a2,s11,a2
80000538:	01412703          	lw	a4,20(sp)
8000053c:	00064603          	lbu	a2,0(a2) # 2000 <_entry_offset+0x2000>
80000540:	00b787b3          	add	a5,a5,a1
80000544:	40a98533          	sub	a0,s3,a0
80000548:	00158593          	addi	a1,a1,1
8000054c:	00e50533          	add	a0,a0,a4
80000550:	00d78023          	sb	a3,0(a5) # 11100000 <_entry_offset+0x11100000>
80000554:	7d5000ef          	jal	ra,80001528 <draw>
80000558:	00198993          	addi	s3,s3,1
8000055c:	ed3d1ce3          	bne	s10,s3,80000434 <ppu_draw_background_scanline+0x19c>
80000560:	02000793          	li	a5,32
80000564:	00048413          	mv	s0,s1
80000568:	00890913          	addi	s2,s2,8
8000056c:	008d0d13          	addi	s10,s10,8
80000570:	dcf498e3          	bne	s1,a5,80000340 <ppu_draw_background_scanline+0xa8>
80000574:	05c12083          	lw	ra,92(sp)
80000578:	05812403          	lw	s0,88(sp)
8000057c:	05412483          	lw	s1,84(sp)
80000580:	05012903          	lw	s2,80(sp)
80000584:	04c12983          	lw	s3,76(sp)
80000588:	04812a03          	lw	s4,72(sp)
8000058c:	04412a83          	lw	s5,68(sp)
80000590:	04012b03          	lw	s6,64(sp)
80000594:	03c12b83          	lw	s7,60(sp)
80000598:	03812c03          	lw	s8,56(sp)
8000059c:	03412c83          	lw	s9,52(sp)
800005a0:	03012d03          	lw	s10,48(sp)
800005a4:	02c12d83          	lw	s11,44(sp)
800005a8:	06010113          	addi	sp,sp,96
800005ac:	00008067          	ret
800005b0:	000b0513          	mv	a0,s6
800005b4:	ef97fce3          	bgeu	a5,s9,800004ac <ppu_draw_background_scanline+0x214>
800005b8:	01f7f793          	andi	a5,a5,31
800005bc:	0157e7b3          	or	a5,a5,s5
800005c0:	01079793          	slli	a5,a5,0x10
800005c4:	4107d793          	srai	a5,a5,0x10
800005c8:	01079513          	slli	a0,a5,0x10
800005cc:	f10c8f93          	addi	t6,s9,-240
800005d0:	01055513          	srli	a0,a0,0x10
800005d4:	01f78c63          	beq	a5,t6,800005ec <ppu_draw_background_scanline+0x354>
800005d8:	41550fb3          	sub	t6,a0,s5
800005dc:	111007b7          	lui	a5,0x11100
800005e0:	01f7d7b3          	srl	a5,a5,t6
800005e4:	0017f793          	andi	a5,a5,1
800005e8:	ec0782e3          	beqz	a5,800004ac <ppu_draw_background_scanline+0x214>
800005ec:	ff050513          	addi	a0,a0,-16
800005f0:	01051513          	slli	a0,a0,0x10
800005f4:	01055513          	srli	a0,a0,0x10
800005f8:	eb5ff06f          	j	800004ac <ppu_draw_background_scanline+0x214>
800005fc:	000c4503          	lbu	a0,0(s8)
80000600:	00812683          	lw	a3,8(sp)
80000604:	10000713          	li	a4,256
80000608:	00e12a23          	sw	a4,20(sp)
8000060c:	00357713          	andi	a4,a0,3
80000610:	020c2783          	lw	a5,32(s8)
80000614:	00171713          	slli	a4,a4,0x1
80000618:	00e68733          	add	a4,a3,a4
8000061c:	00075703          	lhu	a4,0(a4)
80000620:	4037d793          	srai	a5,a5,0x3
80000624:	00579793          	slli	a5,a5,0x5
80000628:	00e787b3          	add	a5,a5,a4
8000062c:	40078793          	addi	a5,a5,1024 # 11100400 <_entry_offset+0x11100400>
80000630:	40000713          	li	a4,1024
80000634:	008787b3          	add	a5,a5,s0
80000638:	01079793          	slli	a5,a5,0x10
8000063c:	00e12823          	sw	a4,16(sp)
80000640:	00004737          	lui	a4,0x4
80000644:	0107d793          	srli	a5,a5,0x10
80000648:	eff70693          	addi	a3,a4,-257 # 3eff <_entry_offset+0x3eff>
8000064c:	d4f6fce3          	bgeu	a3,a5,800003a4 <ppu_draw_background_scanline+0x10c>
80000650:	04e7fe63          	bgeu	a5,a4,800006ac <ppu_draw_background_scanline+0x414>
80000654:	f0070693          	addi	a3,a4,-256
80000658:	01f7f793          	andi	a5,a5,31
8000065c:	00d7e7b3          	or	a5,a5,a3
80000660:	01079613          	slli	a2,a5,0x10
80000664:	41065613          	srai	a2,a2,0x10
80000668:	01061793          	slli	a5,a2,0x10
8000066c:	f1070713          	addi	a4,a4,-240
80000670:	0107d793          	srli	a5,a5,0x10
80000674:	00e60c63          	beq	a2,a4,8000068c <ppu_draw_background_scanline+0x3f4>
80000678:	40d786b3          	sub	a3,a5,a3
8000067c:	11100737          	lui	a4,0x11100
80000680:	00d75733          	srl	a4,a4,a3
80000684:	00177713          	andi	a4,a4,1
80000688:	d0070ee3          	beqz	a4,800003a4 <ppu_draw_background_scanline+0x10c>
8000068c:	ff078793          	addi	a5,a5,-16
80000690:	01079793          	slli	a5,a5,0x10
80000694:	0107d793          	srli	a5,a5,0x10
80000698:	d0dff06f          	j	800003a4 <ppu_draw_background_scanline+0x10c>
8000069c:	ff060613          	addi	a2,a2,-16
800006a0:	01061613          	slli	a2,a2,0x10
800006a4:	01065613          	srli	a2,a2,0x10
800006a8:	e75ff06f          	j	8000051c <ppu_draw_background_scanline+0x284>
800006ac:	000107b7          	lui	a5,0x10
800006b0:	fff78793          	addi	a5,a5,-1 # ffff <_entry_offset+0xffff>
800006b4:	cf1ff06f          	j	800003a4 <ppu_draw_background_scanline+0x10c>

800006b8 <ppu_draw_sprite_scanline>:
800006b8:	fa010113          	addi	sp,sp,-96
800006bc:	800257b7          	lui	a5,0x80025
800006c0:	03b12623          	sw	s11,44(sp)
800006c4:	53078d93          	addi	s11,a5,1328 # 80025530 <_end+0xffea2530>
800006c8:	801257b7          	lui	a5,0x80125
800006cc:	65478793          	addi	a5,a5,1620 # 80125654 <_end+0xfffa2654>
800006d0:	05312623          	sw	s3,76(sp)
800006d4:	800259b7          	lui	s3,0x80025
800006d8:	05412423          	sw	s4,72(sp)
800006dc:	80025837          	lui	a6,0x80025
800006e0:	00f12e23          	sw	a5,28(sp)
800006e4:	800a5a37          	lui	s4,0x800a5
800006e8:	65498793          	addi	a5,s3,1620 # 80025654 <_end+0xffea2654>
800006ec:	05212823          	sw	s2,80(sp)
800006f0:	05612023          	sw	s6,64(sp)
800006f4:	04112e23          	sw	ra,92(sp)
800006f8:	04812c23          	sw	s0,88(sp)
800006fc:	04912a23          	sw	s1,84(sp)
80000700:	05512223          	sw	s5,68(sp)
80000704:	03712e23          	sw	s7,60(sp)
80000708:	03812c23          	sw	s8,56(sp)
8000070c:	03912a23          	sw	s9,52(sp)
80000710:	03a12823          	sw	s10,48(sp)
80000714:	00000913          	li	s2,0
80000718:	00012c23          	sw	zero,24(sp)
8000071c:	63080b13          	addi	s6,a6,1584 # 80025630 <_end+0xffea2630>
80000720:	654a0a13          	addi	s4,s4,1620 # 800a5654 <_end+0xfff22654>
80000724:	00f12623          	sw	a5,12(sp)
80000728:	0140006f          	j	8000073c <ppu_draw_sprite_scanline+0x84>
8000072c:	00490913          	addi	s2,s2,4
80000730:	10000713          	li	a4,256
80000734:	004d8d93          	addi	s11,s11,4
80000738:	24e90c63          	beq	s2,a4,80000990 <ppu_draw_sprite_scanline+0x2d8>
8000073c:	000dcd03          	lbu	s10,0(s11)
80000740:	020b2703          	lw	a4,32(s6)
80000744:	ffa744e3          	blt	a4,s10,8000072c <ppu_draw_sprite_scanline+0x74>
80000748:	000b4503          	lbu	a0,0(s6)
8000074c:	00500613          	li	a2,5
80000750:	00000593          	li	a1,0
80000754:	003dc403          	lbu	s0,3(s11)
80000758:	8b9ff0ef          	jal	ra,80000010 <common_bit_set>
8000075c:	00a03533          	snez	a0,a0
80000760:	00351513          	slli	a0,a0,0x3
80000764:	020b2703          	lw	a4,32(s6)
80000768:	00850513          	addi	a0,a0,8
8000076c:	00ad0533          	add	a0,s10,a0
80000770:	fae54ee3          	blt	a0,a4,8000072c <ppu_draw_sprite_scanline+0x74>
80000774:	01812783          	lw	a5,24(sp)
80000778:	00800713          	li	a4,8
8000077c:	00178793          	addi	a5,a5,1
80000780:	00f12c23          	sw	a5,24(sp)
80000784:	1ef74c63          	blt	a4,a5,8000097c <ppu_draw_sprite_scanline+0x2c4>
80000788:	000b4503          	lbu	a0,0(s6)
8000078c:	00300613          	li	a2,3
80000790:	00000593          	li	a1,0
80000794:	002dc983          	lbu	s3,2(s11)
80000798:	879ff0ef          	jal	ra,80000010 <common_bit_set>
8000079c:	001dc683          	lbu	a3,1(s11)
800007a0:	020b2703          	lw	a4,32(s6)
800007a4:	00c51513          	slli	a0,a0,0xc
800007a8:	00469693          	slli	a3,a3,0x4
800007ac:	01899613          	slli	a2,s3,0x18
800007b0:	00a686b3          	add	a3,a3,a0
800007b4:	01069693          	slli	a3,a3,0x10
800007b8:	00777c13          	andi	s8,a4,7
800007bc:	41865613          	srai	a2,a2,0x18
800007c0:	0409f993          	andi	s3,s3,64
800007c4:	0106d693          	srli	a3,a3,0x10
800007c8:	000c0713          	mv	a4,s8
800007cc:	00065a63          	bgez	a2,800007e0 <ppu_draw_sprite_scanline+0x128>
800007d0:	00700713          	li	a4,7
800007d4:	41870733          	sub	a4,a4,s8
800007d8:	01071713          	slli	a4,a4,0x10
800007dc:	01075713          	srli	a4,a4,0x10
800007e0:	00d70733          	add	a4,a4,a3
800007e4:	01071713          	slli	a4,a4,0x10
800007e8:	01075713          	srli	a4,a4,0x10
800007ec:	00870613          	addi	a2,a4,8 # 11100008 <_entry_offset+0x11100008>
800007f0:	80021cb7          	lui	s9,0x80021
800007f4:	530c8c93          	addi	s9,s9,1328 # 80021530 <_end+0xffe9e530>
800007f8:	01061613          	slli	a2,a2,0x10
800007fc:	00ec8733          	add	a4,s9,a4
80000800:	01065613          	srli	a2,a2,0x10
80000804:	00074683          	lbu	a3,0(a4)
80000808:	00cc8733          	add	a4,s9,a2
8000080c:	00074703          	lbu	a4,0(a4)
80000810:	002dcb83          	lbu	s7,2(s11)
80000814:	00869693          	slli	a3,a3,0x8
80000818:	00e686b3          	add	a3,a3,a4
8000081c:	003bfb93          	andi	s7,s7,3
80000820:	00004737          	lui	a4,0x4
80000824:	f1070713          	addi	a4,a4,-240 # 3f10 <_entry_offset+0x3f10>
80000828:	002b9b93          	slli	s7,s7,0x2
8000082c:	00eb8bb3          	add	s7,s7,a4
80000830:	010b9793          	slli	a5,s7,0x10
80000834:	0107d793          	srli	a5,a5,0x10
80000838:	00541493          	slli	s1,s0,0x5
8000083c:	408484b3          	sub	s1,s1,s0
80000840:	00f12823          	sw	a5,16(sp)
80000844:	01c12783          	lw	a5,28(sp)
80000848:	01ac0c33          	add	s8,s8,s10
8000084c:	00349493          	slli	s1,s1,0x3
80000850:	018484b3          	add	s1,s1,s8
80000854:	00010d37          	lui	s10,0x10
80000858:	00369693          	slli	a3,a3,0x3
8000085c:	00f484b3          	add	s1,s1,a5
80000860:	fffd0793          	addi	a5,s10,-1 # ffff <_entry_offset+0xffff>
80000864:	40868ab3          	sub	s5,a3,s0
80000868:	00f12a23          	sw	a5,20(sp)
8000086c:	00840b93          	addi	s7,s0,8
80000870:	001c0c13          	addi	s8,s8,1
80000874:	008a8733          	add	a4,s5,s0
80000878:	02098463          	beqz	s3,800008a0 <ppu_draw_sprite_scanline+0x1e8>
8000087c:	00c12783          	lw	a5,12(sp)
80000880:	00f70733          	add	a4,a4,a5
80000884:	00074d03          	lbu	s10,0(a4)
80000888:	020d1263          	bnez	s10,800008ac <ppu_draw_sprite_scanline+0x1f4>
8000088c:	00140413          	addi	s0,s0,1
80000890:	0f848493          	addi	s1,s1,248
80000894:	e88b8ce3          	beq	s7,s0,8000072c <ppu_draw_sprite_scanline+0x74>
80000898:	008a8733          	add	a4,s5,s0
8000089c:	fe0990e3          	bnez	s3,8000087c <ppu_draw_sprite_scanline+0x1c4>
800008a0:	01470733          	add	a4,a4,s4
800008a4:	00074d03          	lbu	s10,0(a4)
800008a8:	fe0d02e3          	beqz	s10,8000088c <ppu_draw_sprite_scanline+0x1d4>
800008ac:	01012783          	lw	a5,16(sp)
800008b0:	00004537          	lui	a0,0x4
800008b4:	01a78633          	add	a2,a5,s10
800008b8:	01061613          	slli	a2,a2,0x10
800008bc:	01065613          	srli	a2,a2,0x10
800008c0:	0aa67263          	bgeu	a2,a0,80000964 <ppu_draw_sprite_scanline+0x2ac>
800008c4:	01f67593          	andi	a1,a2,31
800008c8:	f0050e13          	addi	t3,a0,-256 # 3f00 <_entry_offset+0x3f00>
800008cc:	01c5e5b3          	or	a1,a1,t3
800008d0:	01059593          	slli	a1,a1,0x10
800008d4:	4105d593          	srai	a1,a1,0x10
800008d8:	01059613          	slli	a2,a1,0x10
800008dc:	f1050513          	addi	a0,a0,-240
800008e0:	01065613          	srli	a2,a2,0x10
800008e4:	08a58463          	beq	a1,a0,8000096c <ppu_draw_sprite_scanline+0x2b4>
800008e8:	41c60e33          	sub	t3,a2,t3
800008ec:	111005b7          	lui	a1,0x11100
800008f0:	01c5d5b3          	srl	a1,a1,t3
800008f4:	0015f593          	andi	a1,a1,1
800008f8:	06059a63          	bnez	a1,8000096c <ppu_draw_sprite_scanline+0x2b4>
800008fc:	00cc8633          	add	a2,s9,a2
80000900:	00064603          	lbu	a2,0(a2)
80000904:	000c0593          	mv	a1,s8
80000908:	00040513          	mv	a0,s0
8000090c:	41d000ef          	jal	ra,80001528 <draw>
80000910:	001b4503          	lbu	a0,1(s6)
80000914:	00300613          	li	a2,3
80000918:	00000593          	li	a1,0
8000091c:	ef4ff0ef          	jal	ra,80000010 <common_bit_set>
80000920:	f60506e3          	beqz	a0,8000088c <ppu_draw_sprite_scanline+0x1d4>
80000924:	8017a7b7          	lui	a5,0x8017a
80000928:	61b78e13          	addi	t3,a5,1563 # 8017a61b <_end+0xffff761b>
8000092c:	000e4603          	lbu	a2,0(t3)
80000930:	f4061ee3          	bnez	a2,8000088c <ppu_draw_sprite_scanline+0x1d4>
80000934:	f4091ce3          	bnez	s2,8000088c <ppu_draw_sprite_scanline+0x1d4>
80000938:	0004c603          	lbu	a2,0(s1)
8000093c:	f5a618e3          	bne	a2,s10,8000088c <ppu_draw_sprite_scanline+0x1d4>
80000940:	00100613          	li	a2,1
80000944:	00600593          	li	a1,6
80000948:	002b0513          	addi	a0,s6,2
8000094c:	f18ff0ef          	jal	ra,80000064 <common_modify_bitb>
80000950:	8017a7b7          	lui	a5,0x8017a
80000954:	00100713          	li	a4,1
80000958:	61b78e13          	addi	t3,a5,1563 # 8017a61b <_end+0xffff761b>
8000095c:	00ee0023          	sb	a4,0(t3)
80000960:	f2dff06f          	j	8000088c <ppu_draw_sprite_scanline+0x1d4>
80000964:	01412603          	lw	a2,20(sp)
80000968:	f95ff06f          	j	800008fc <ppu_draw_sprite_scanline+0x244>
8000096c:	ff060613          	addi	a2,a2,-16
80000970:	01061613          	slli	a2,a2,0x10
80000974:	01065613          	srli	a2,a2,0x10
80000978:	f85ff06f          	j	800008fc <ppu_draw_sprite_scanline+0x244>
8000097c:	00100613          	li	a2,1
80000980:	00500593          	li	a1,5
80000984:	002b0513          	addi	a0,s6,2
80000988:	edcff0ef          	jal	ra,80000064 <common_modify_bitb>
8000098c:	dfdff06f          	j	80000788 <ppu_draw_sprite_scanline+0xd0>
80000990:	05c12083          	lw	ra,92(sp)
80000994:	05812403          	lw	s0,88(sp)
80000998:	05412483          	lw	s1,84(sp)
8000099c:	05012903          	lw	s2,80(sp)
800009a0:	04c12983          	lw	s3,76(sp)
800009a4:	04812a03          	lw	s4,72(sp)
800009a8:	04412a83          	lw	s5,68(sp)
800009ac:	04012b03          	lw	s6,64(sp)
800009b0:	03c12b83          	lw	s7,60(sp)
800009b4:	03812c03          	lw	s8,56(sp)
800009b8:	03412c83          	lw	s9,52(sp)
800009bc:	03012d03          	lw	s10,48(sp)
800009c0:	02c12d83          	lw	s11,44(sp)
800009c4:	06010113          	addi	sp,sp,96
800009c8:	00008067          	ret

800009cc <ppu_cycle>:
800009cc:	ff010113          	addi	sp,sp,-16
800009d0:	00812423          	sw	s0,8(sp)
800009d4:	80025437          	lui	s0,0x80025
800009d8:	63040413          	addi	s0,s0,1584 # 80025630 <_end+0xffea2630>
800009dc:	01044783          	lbu	a5,16(s0)
800009e0:	00112623          	sw	ra,12(sp)
800009e4:	06078063          	beqz	a5,80000a44 <ppu_cycle+0x78>
800009e8:	10000513          	li	a0,256
800009ec:	254030ef          	jal	ra,80003c40 <cpu_run>
800009f0:	02042783          	lw	a5,32(s0)
800009f4:	0ef00713          	li	a4,239
800009f8:	00178793          	addi	a5,a5,1
800009fc:	02f42023          	sw	a5,32(s0)
80000a00:	06f75e63          	bge	a4,a5,80000a7c <ppu_cycle+0xb0>
80000a04:	04500513          	li	a0,69
80000a08:	238030ef          	jal	ra,80003c40 <cpu_run>
80000a0c:	02042703          	lw	a4,32(s0)
80000a10:	0ef00793          	li	a5,239
80000a14:	0ae7d063          	bge	a5,a4,80000ab4 <ppu_cycle+0xe8>
80000a18:	01000513          	li	a0,16
80000a1c:	224030ef          	jal	ra,80003c40 <cpu_run>
80000a20:	02042783          	lw	a5,32(s0)
80000a24:	0f100713          	li	a4,241
80000a28:	0ae78c63          	beq	a5,a4,80000ae0 <ppu_cycle+0x114>
80000a2c:	10600713          	li	a4,262
80000a30:	0ee78263          	beq	a5,a4,80000b14 <ppu_cycle+0x148>
80000a34:	00c12083          	lw	ra,12(sp)
80000a38:	00812403          	lw	s0,8(sp)
80000a3c:	01010113          	addi	sp,sp,16
80000a40:	00008067          	ret
80000a44:	1ec030ef          	jal	ra,80003c30 <cpu_clock>
80000a48:	00059863          	bnez	a1,80000a58 <ppu_cycle+0x8c>
80000a4c:	000077b7          	lui	a5,0x7
80000a50:	3da78793          	addi	a5,a5,986 # 73da <_entry_offset+0x73da>
80000a54:	f8a7fae3          	bgeu	a5,a0,800009e8 <ppu_cycle+0x1c>
80000a58:	00100793          	li	a5,1
80000a5c:	10000513          	li	a0,256
80000a60:	00f40823          	sb	a5,16(s0)
80000a64:	1dc030ef          	jal	ra,80003c40 <cpu_run>
80000a68:	02042783          	lw	a5,32(s0)
80000a6c:	0ef00713          	li	a4,239
80000a70:	00178793          	addi	a5,a5,1
80000a74:	02f42023          	sw	a5,32(s0)
80000a78:	f8f746e3          	blt	a4,a5,80000a04 <ppu_cycle+0x38>
80000a7c:	00144503          	lbu	a0,1(s0)
80000a80:	00300613          	li	a2,3
80000a84:	00000593          	li	a1,0
80000a88:	d88ff0ef          	jal	ra,80000010 <common_bit_set>
80000a8c:	f6050ce3          	beqz	a0,80000a04 <ppu_cycle+0x38>
80000a90:	00000513          	li	a0,0
80000a94:	805ff0ef          	jal	ra,80000298 <ppu_draw_background_scanline>
80000a98:	00100513          	li	a0,1
80000a9c:	ffcff0ef          	jal	ra,80000298 <ppu_draw_background_scanline>
80000aa0:	04500513          	li	a0,69
80000aa4:	19c030ef          	jal	ra,80003c40 <cpu_run>
80000aa8:	02042703          	lw	a4,32(s0)
80000aac:	0ef00793          	li	a5,239
80000ab0:	f6e7c4e3          	blt	a5,a4,80000a18 <ppu_cycle+0x4c>
80000ab4:	00144503          	lbu	a0,1(s0)
80000ab8:	00400613          	li	a2,4
80000abc:	00000593          	li	a1,0
80000ac0:	d50ff0ef          	jal	ra,80000010 <common_bit_set>
80000ac4:	f4050ae3          	beqz	a0,80000a18 <ppu_cycle+0x4c>
80000ac8:	bf1ff0ef          	jal	ra,800006b8 <ppu_draw_sprite_scanline>
80000acc:	01000513          	li	a0,16
80000ad0:	170030ef          	jal	ra,80003c40 <cpu_run>
80000ad4:	02042783          	lw	a5,32(s0)
80000ad8:	0f100713          	li	a4,241
80000adc:	f4e798e3          	bne	a5,a4,80000a2c <ppu_cycle+0x60>
80000ae0:	00240413          	addi	s0,s0,2
80000ae4:	00040513          	mv	a0,s0
80000ae8:	00100613          	li	a2,1
80000aec:	00700593          	li	a1,7
80000af0:	d74ff0ef          	jal	ra,80000064 <common_modify_bitb>
80000af4:	00040513          	mv	a0,s0
80000af8:	00000613          	li	a2,0
80000afc:	00600593          	li	a1,6
80000b00:	d64ff0ef          	jal	ra,80000064 <common_modify_bitb>
80000b04:	00812403          	lw	s0,8(sp)
80000b08:	00c12083          	lw	ra,12(sp)
80000b0c:	01010113          	addi	sp,sp,16
80000b10:	0840306f          	j	80003b94 <cpu_interrupt>
80000b14:	fff00793          	li	a5,-1
80000b18:	02f42023          	sw	a5,32(s0)
80000b1c:	00240513          	addi	a0,s0,2
80000b20:	8017a7b7          	lui	a5,0x8017a
80000b24:	00000613          	li	a2,0
80000b28:	00700593          	li	a1,7
80000b2c:	60078da3          	sb	zero,1563(a5) # 8017a61b <_end+0xffff761b>
80000b30:	d34ff0ef          	jal	ra,80000064 <common_modify_bitb>
80000b34:	00812403          	lw	s0,8(sp)
80000b38:	00c12083          	lw	ra,12(sp)
80000b3c:	01010113          	addi	sp,sp,16
80000b40:	4c50006f          	j	80001804 <fce_update_screen>

80000b44 <ppu_copy>:
80000b44:	800217b7          	lui	a5,0x80021
80000b48:	53078793          	addi	a5,a5,1328 # 80021530 <_end+0xffe9e530>
80000b4c:	00a78533          	add	a0,a5,a0
80000b50:	2410306f          	j	80004590 <memcpy>

80000b54 <ppuio_read>:
80000b54:	ff010113          	addi	sp,sp,-16
80000b58:	00812423          	sw	s0,8(sp)
80000b5c:	80025437          	lui	s0,0x80025
80000b60:	63040413          	addi	s0,s0,1584 # 80025630 <_end+0xffea2630>
80000b64:	00a45783          	lhu	a5,10(s0)
80000b68:	00757713          	andi	a4,a0,7
80000b6c:	00112623          	sw	ra,12(sp)
80000b70:	01279513          	slli	a0,a5,0x12
80000b74:	01255513          	srli	a0,a0,0x12
80000b78:	00912223          	sw	s1,4(sp)
80000b7c:	01212023          	sw	s2,0(sp)
80000b80:	00a41523          	sh	a0,10(s0)
80000b84:	00400793          	li	a5,4
80000b88:	02f70a63          	beq	a4,a5,80000bbc <ppuio_read+0x68>
80000b8c:	00700793          	li	a5,7
80000b90:	0af70e63          	beq	a4,a5,80000c4c <ppuio_read+0xf8>
80000b94:	00200793          	li	a5,2
80000b98:	0ff00493          	li	s1,255
80000b9c:	04f70863          	beq	a4,a5,80000bec <ppuio_read+0x98>
80000ba0:	00c12083          	lw	ra,12(sp)
80000ba4:	00812403          	lw	s0,8(sp)
80000ba8:	00012903          	lw	s2,0(sp)
80000bac:	00048513          	mv	a0,s1
80000bb0:	00412483          	lw	s1,4(sp)
80000bb4:	01010113          	addi	sp,sp,16
80000bb8:	00008067          	ret
80000bbc:	00344703          	lbu	a4,3(s0)
80000bc0:	800257b7          	lui	a5,0x80025
80000bc4:	53078793          	addi	a5,a5,1328 # 80025530 <_end+0xffea2530>
80000bc8:	00e787b3          	add	a5,a5,a4
80000bcc:	0007c483          	lbu	s1,0(a5)
80000bd0:	00c12083          	lw	ra,12(sp)
80000bd4:	00812403          	lw	s0,8(sp)
80000bd8:	00012903          	lw	s2,0(sp)
80000bdc:	00048513          	mv	a0,s1
80000be0:	00412483          	lw	s1,4(sp)
80000be4:	01010113          	addi	sp,sp,16
80000be8:	00008067          	ret
80000bec:	00240913          	addi	s2,s0,2
80000bf0:	00090513          	mv	a0,s2
80000bf4:	00000613          	li	a2,0
80000bf8:	00700593          	li	a1,7
80000bfc:	00244483          	lbu	s1,2(s0)
80000c00:	c64ff0ef          	jal	ra,80000064 <common_modify_bitb>
80000c04:	00090513          	mv	a0,s2
80000c08:	00000613          	li	a2,0
80000c0c:	00600593          	li	a1,6
80000c10:	c54ff0ef          	jal	ra,80000064 <common_modify_bitb>
80000c14:	00c12083          	lw	ra,12(sp)
80000c18:	00041323          	sh	zero,6(s0)
80000c1c:	00041723          	sh	zero,14(s0)
80000c20:	8017a7b7          	lui	a5,0x8017a
80000c24:	00812403          	lw	s0,8(sp)
80000c28:	60078d23          	sb	zero,1562(a5) # 8017a61a <_end+0xffff761a>
80000c2c:	00100713          	li	a4,1
80000c30:	8017a7b7          	lui	a5,0x8017a
80000c34:	60e78ca3          	sb	a4,1561(a5) # 8017a619 <_end+0xffff7619>
80000c38:	00012903          	lw	s2,0(sp)
80000c3c:	00048513          	mv	a0,s1
80000c40:	00412483          	lw	s1,4(sp)
80000c44:	01010113          	addi	sp,sp,16
80000c48:	00008067          	ret
80000c4c:	d4cff0ef          	jal	ra,80000198 <ppu_get_real_ram_address>
80000c50:	8017a737          	lui	a4,0x8017a
80000c54:	61970713          	addi	a4,a4,1561 # 8017a619 <_end+0xffff7619>
80000c58:	800217b7          	lui	a5,0x80021
80000c5c:	00074683          	lbu	a3,0(a4)
80000c60:	53078793          	addi	a5,a5,1328 # 80021530 <_end+0xffe9e530>
80000c64:	00a787b3          	add	a5,a5,a0
80000c68:	0007c483          	lbu	s1,0(a5)
80000c6c:	02068263          	beqz	a3,80000c90 <ppuio_read+0x13c>
80000c70:	00c12083          	lw	ra,12(sp)
80000c74:	00812403          	lw	s0,8(sp)
80000c78:	00070023          	sb	zero,0(a4)
80000c7c:	00012903          	lw	s2,0(sp)
80000c80:	00048513          	mv	a0,s1
80000c84:	00412483          	lw	s1,4(sp)
80000c88:	01010113          	addi	sp,sp,16
80000c8c:	00008067          	ret
80000c90:	00044503          	lbu	a0,0(s0)
80000c94:	00200613          	li	a2,2
80000c98:	00000593          	li	a1,0
80000c9c:	b74ff0ef          	jal	ra,80000010 <common_bit_set>
80000ca0:	00a037b3          	snez	a5,a0
80000ca4:	00a45703          	lhu	a4,10(s0)
80000ca8:	40f007b3          	neg	a5,a5
80000cac:	01f7f793          	andi	a5,a5,31
80000cb0:	00178793          	addi	a5,a5,1
80000cb4:	00e787b3          	add	a5,a5,a4
80000cb8:	00f41523          	sh	a5,10(s0)
80000cbc:	ee5ff06f          	j	80000ba0 <ppuio_read+0x4c>

80000cc0 <ppuio_write>:
80000cc0:	800257b7          	lui	a5,0x80025
80000cc4:	ff010113          	addi	sp,sp,-16
80000cc8:	63078793          	addi	a5,a5,1584 # 80025630 <_end+0xffea2630>
80000ccc:	00757513          	andi	a0,a0,7
80000cd0:	80005737          	lui	a4,0x80005
80000cd4:	00812423          	sw	s0,8(sp)
80000cd8:	a9c70713          	addi	a4,a4,-1380 # 80004a9c <_end+0xffe81a9c>
80000cdc:	00a7d403          	lhu	s0,10(a5)
80000ce0:	00251513          	slli	a0,a0,0x2
80000ce4:	00e50533          	add	a0,a0,a4
80000ce8:	00052703          	lw	a4,0(a0)
80000cec:	01241413          	slli	s0,s0,0x12
80000cf0:	01212023          	sw	s2,0(sp)
80000cf4:	00112623          	sw	ra,12(sp)
80000cf8:	00912223          	sw	s1,4(sp)
80000cfc:	01245413          	srli	s0,s0,0x12
80000d00:	00058913          	mv	s2,a1
80000d04:	00879523          	sh	s0,10(a5)
80000d08:	00070067          	jr	a4
80000d0c:	00e7c703          	lbu	a4,14(a5)
80000d10:	10070663          	beqz	a4,80000e1c <ppuio_write+0x15c>
80000d14:	00b784a3          	sb	a1,9(a5)
80000d18:	00174713          	xori	a4,a4,1
80000d1c:	00e78723          	sb	a4,14(a5)
80000d20:	00c12083          	lw	ra,12(sp)
80000d24:	00812403          	lw	s0,8(sp)
80000d28:	00412483          	lw	s1,4(sp)
80000d2c:	00012903          	lw	s2,0(sp)
80000d30:	01010113          	addi	sp,sp,16
80000d34:	00008067          	ret
80000d38:	0187d503          	lhu	a0,24(a5)
80000d3c:	800214b7          	lui	s1,0x80021
80000d40:	53048493          	addi	s1,s1,1328 # 80021530 <_end+0xffe9e530>
80000d44:	00a44533          	xor	a0,s0,a0
80000d48:	c50ff0ef          	jal	ra,80000198 <ppu_get_real_ram_address>
80000d4c:	00a487b3          	add	a5,s1,a0
80000d50:	01278023          	sb	s2,0(a5)
80000d54:	00040513          	mv	a0,s0
80000d58:	c40ff0ef          	jal	ra,80000198 <ppu_get_real_ram_address>
80000d5c:	00a484b3          	add	s1,s1,a0
80000d60:	01248023          	sb	s2,0(s1)
80000d64:	00c12083          	lw	ra,12(sp)
80000d68:	00812403          	lw	s0,8(sp)
80000d6c:	00412483          	lw	s1,4(sp)
80000d70:	00012903          	lw	s2,0(sp)
80000d74:	01010113          	addi	sp,sp,16
80000d78:	00008067          	ret
80000d7c:	0107c703          	lbu	a4,16(a5)
80000d80:	fa0700e3          	beqz	a4,80000d20 <ppuio_write+0x60>
80000d84:	00b78023          	sb	a1,0(a5)
80000d88:	f99ff06f          	j	80000d20 <ppuio_write+0x60>
80000d8c:	0107c703          	lbu	a4,16(a5)
80000d90:	f80708e3          	beqz	a4,80000d20 <ppuio_write+0x60>
80000d94:	00b780a3          	sb	a1,1(a5)
80000d98:	f89ff06f          	j	80000d20 <ppuio_write+0x60>
80000d9c:	00b781a3          	sb	a1,3(a5)
80000da0:	00c12083          	lw	ra,12(sp)
80000da4:	00812403          	lw	s0,8(sp)
80000da8:	00412483          	lw	s1,4(sp)
80000dac:	00012903          	lw	s2,0(sp)
80000db0:	01010113          	addi	sp,sp,16
80000db4:	00008067          	ret
80000db8:	0037c683          	lbu	a3,3(a5)
80000dbc:	80025737          	lui	a4,0x80025
80000dc0:	53070713          	addi	a4,a4,1328 # 80025530 <_end+0xffea2530>
80000dc4:	00168613          	addi	a2,a3,1
80000dc8:	00d70733          	add	a4,a4,a3
80000dcc:	00c781a3          	sb	a2,3(a5)
80000dd0:	00b70023          	sb	a1,0(a4)
80000dd4:	00c12083          	lw	ra,12(sp)
80000dd8:	00812403          	lw	s0,8(sp)
80000ddc:	00412483          	lw	s1,4(sp)
80000de0:	00012903          	lw	s2,0(sp)
80000de4:	01010113          	addi	sp,sp,16
80000de8:	00008067          	ret
80000dec:	0107c703          	lbu	a4,16(a5)
80000df0:	f20708e3          	beqz	a4,80000d20 <ppuio_write+0x60>
80000df4:	00f7c703          	lbu	a4,15(a5)
80000df8:	8017a6b7          	lui	a3,0x8017a
80000dfc:	02071463          	bnez	a4,80000e24 <ppuio_write+0x164>
80000e00:	60b68d23          	sb	a1,1562(a3) # 8017a61a <_end+0xffff761a>
80000e04:	00174713          	xori	a4,a4,1
80000e08:	00e787a3          	sb	a4,15(a5)
80000e0c:	8017a7b7          	lui	a5,0x8017a
80000e10:	00100713          	li	a4,1
80000e14:	60e78ca3          	sb	a4,1561(a5) # 8017a619 <_end+0xffff7619>
80000e18:	f09ff06f          	j	80000d20 <ppuio_write+0x60>
80000e1c:	00b78423          	sb	a1,8(a5)
80000e20:	ef9ff06f          	j	80000d18 <ppuio_write+0x58>
80000e24:	61a6c683          	lbu	a3,1562(a3)
80000e28:	00869693          	slli	a3,a3,0x8
80000e2c:	00b686b3          	add	a3,a3,a1
80000e30:	00d79523          	sh	a3,10(a5)
80000e34:	fd1ff06f          	j	80000e04 <ppuio_write+0x144>

80000e38 <ppu_init>:
80000e38:	ff010113          	addi	sp,sp,-16
80000e3c:	800257b7          	lui	a5,0x80025
80000e40:	00812623          	sw	s0,12(sp)
80000e44:	00912423          	sw	s1,8(sp)
80000e48:	63078793          	addi	a5,a5,1584 # 80025630 <_end+0xffea2630>
80000e4c:	00a00737          	lui	a4,0xa00
80000e50:	00e7a023          	sw	a4,0(a5)
80000e54:	0007a423          	sw	zero,8(a5)
80000e58:	00079623          	sh	zero,12(a5)
80000e5c:	00100713          	li	a4,1
80000e60:	8017a7b7          	lui	a5,0x8017a
80000e64:	800a54b7          	lui	s1,0x800a5
80000e68:	80025437          	lui	s0,0x80025
80000e6c:	000012b7          	lui	t0,0x1
80000e70:	60e78ca3          	sb	a4,1561(a5) # 8017a619 <_end+0xffff7619>
80000e74:	65448493          	addi	s1,s1,1620 # 800a5654 <_end+0xfff22654>
80000e78:	65440413          	addi	s0,s0,1620 # 80025654 <_end+0xffea2654>
80000e7c:	00000813          	li	a6,0
80000e80:	00700f93          	li	t6,7
80000e84:	00800f13          	li	t5,8
80000e88:	80028293          	addi	t0,t0,-2048 # 800 <_entry_offset+0x800>
80000e8c:	10000393          	li	t2,256
80000e90:	00040e93          	mv	t4,s0
80000e94:	00048e13          	mv	t3,s1
80000e98:	00000513          	li	a0,0
80000e9c:	00000793          	li	a5,0
80000ea0:	40ff8633          	sub	a2,t6,a5
80000ea4:	40f85733          	sra	a4,a6,a5
80000ea8:	40c856b3          	sra	a3,a6,a2
80000eac:	40f555b3          	sra	a1,a0,a5
80000eb0:	00169693          	slli	a3,a3,0x1
80000eb4:	40c55633          	sra	a2,a0,a2
80000eb8:	00171713          	slli	a4,a4,0x1
80000ebc:	0026f693          	andi	a3,a3,2
80000ec0:	00167613          	andi	a2,a2,1
80000ec4:	00277713          	andi	a4,a4,2
80000ec8:	0015f593          	andi	a1,a1,1
80000ecc:	00fe0333          	add	t1,t3,a5
80000ed0:	00fe88b3          	add	a7,t4,a5
80000ed4:	00c6e6b3          	or	a3,a3,a2
80000ed8:	00b76733          	or	a4,a4,a1
80000edc:	00d30023          	sb	a3,0(t1)
80000ee0:	00e88023          	sb	a4,0(a7)
80000ee4:	00178793          	addi	a5,a5,1
80000ee8:	fbe79ce3          	bne	a5,t5,80000ea0 <ppu_init+0x68>
80000eec:	00150513          	addi	a0,a0,1
80000ef0:	005e0e33          	add	t3,t3,t0
80000ef4:	005e8eb3          	add	t4,t4,t0
80000ef8:	fa7512e3          	bne	a0,t2,80000e9c <ppu_init+0x64>
80000efc:	00180813          	addi	a6,a6,1
80000f00:	00848493          	addi	s1,s1,8
80000f04:	00840413          	addi	s0,s0,8
80000f08:	f8a814e3          	bne	a6,a0,80000e90 <ppu_init+0x58>
80000f0c:	00c12403          	lw	s0,12(sp)
80000f10:	00812483          	lw	s1,8(sp)
80000f14:	01010113          	addi	sp,sp,16
80000f18:	00008067          	ret

80000f1c <ppu_sprram_write>:
80000f1c:	80025737          	lui	a4,0x80025
80000f20:	63070713          	addi	a4,a4,1584 # 80025630 <_end+0xffea2630>
80000f24:	00374683          	lbu	a3,3(a4)
80000f28:	800257b7          	lui	a5,0x80025
80000f2c:	53078793          	addi	a5,a5,1328 # 80025530 <_end+0xffea2530>
80000f30:	00168613          	addi	a2,a3,1
80000f34:	00d787b3          	add	a5,a5,a3
80000f38:	00c701a3          	sb	a2,3(a4)
80000f3c:	00a78023          	sb	a0,0(a5)
80000f40:	00008067          	ret

80000f44 <ppu_set_mirroring>:
80000f44:	800257b7          	lui	a5,0x80025
80000f48:	40000713          	li	a4,1024
80000f4c:	63078793          	addi	a5,a5,1584 # 80025630 <_end+0xffea2630>
80000f50:	00a71733          	sll	a4,a4,a0
80000f54:	00a7aa23          	sw	a0,20(a5)
80000f58:	00e7ac23          	sw	a4,24(a5)
80000f5c:	00008067          	ret

80000f60 <cpu_address_implied>:
80000f60:	00008067          	ret

80000f64 <cpu_address_immediate>:
80000f64:	ff010113          	addi	sp,sp,-16
80000f68:	00812423          	sw	s0,8(sp)
80000f6c:	8017a437          	lui	s0,0x8017a
80000f70:	62c40413          	addi	s0,s0,1580 # 8017a62c <_end+0xffff762c>
80000f74:	00045503          	lhu	a0,0(s0)
80000f78:	00112623          	sw	ra,12(sp)
80000f7c:	5e9020ef          	jal	ra,80003d64 <memory_readb>
80000f80:	00045783          	lhu	a5,0(s0)
80000f84:	00c12083          	lw	ra,12(sp)
80000f88:	8017a737          	lui	a4,0x8017a
80000f8c:	00178793          	addi	a5,a5,1
80000f90:	00f41023          	sh	a5,0(s0)
80000f94:	00812403          	lw	s0,8(sp)
80000f98:	64a72623          	sw	a0,1612(a4) # 8017a64c <_end+0xffff764c>
80000f9c:	01010113          	addi	sp,sp,16
80000fa0:	00008067          	ret

80000fa4 <cpu_address_zero_page>:
80000fa4:	ff010113          	addi	sp,sp,-16
80000fa8:	00812423          	sw	s0,8(sp)
80000fac:	8017a437          	lui	s0,0x8017a
80000fb0:	62c40413          	addi	s0,s0,1580 # 8017a62c <_end+0xffff762c>
80000fb4:	00045503          	lhu	a0,0(s0)
80000fb8:	00112623          	sw	ra,12(sp)
80000fbc:	5a9020ef          	jal	ra,80003d64 <memory_readb>
80000fc0:	00045703          	lhu	a4,0(s0)
80000fc4:	801717b7          	lui	a5,0x80171
80000fc8:	61478793          	addi	a5,a5,1556 # 80171614 <_end+0xfffee614>
80000fcc:	00a787b3          	add	a5,a5,a0
80000fd0:	0007c683          	lbu	a3,0(a5)
80000fd4:	00170793          	addi	a5,a4,1
80000fd8:	00c12083          	lw	ra,12(sp)
80000fdc:	8017a737          	lui	a4,0x8017a
80000fe0:	00f41023          	sh	a5,0(s0)
80000fe4:	00812403          	lw	s0,8(sp)
80000fe8:	64a72023          	sw	a0,1600(a4) # 8017a640 <_end+0xffff7640>
80000fec:	8017a737          	lui	a4,0x8017a
80000ff0:	64d72623          	sw	a3,1612(a4) # 8017a64c <_end+0xffff764c>
80000ff4:	01010113          	addi	sp,sp,16
80000ff8:	00008067          	ret

80000ffc <cpu_address_zero_page_x>:
80000ffc:	ff010113          	addi	sp,sp,-16
80001000:	00812423          	sw	s0,8(sp)
80001004:	8017a437          	lui	s0,0x8017a
80001008:	62c40413          	addi	s0,s0,1580 # 8017a62c <_end+0xffff762c>
8000100c:	00045503          	lhu	a0,0(s0)
80001010:	00112623          	sw	ra,12(sp)
80001014:	551020ef          	jal	ra,80003d64 <memory_readb>
80001018:	00444703          	lbu	a4,4(s0)
8000101c:	801717b7          	lui	a5,0x80171
80001020:	61478793          	addi	a5,a5,1556 # 80171614 <_end+0xfffee614>
80001024:	00e50533          	add	a0,a0,a4
80001028:	00045703          	lhu	a4,0(s0)
8000102c:	0ff57513          	zext.b	a0,a0
80001030:	00a787b3          	add	a5,a5,a0
80001034:	0007c683          	lbu	a3,0(a5)
80001038:	00170793          	addi	a5,a4,1
8000103c:	00c12083          	lw	ra,12(sp)
80001040:	8017a737          	lui	a4,0x8017a
80001044:	00f41023          	sh	a5,0(s0)
80001048:	00812403          	lw	s0,8(sp)
8000104c:	64a72023          	sw	a0,1600(a4) # 8017a640 <_end+0xffff7640>
80001050:	8017a737          	lui	a4,0x8017a
80001054:	64d72623          	sw	a3,1612(a4) # 8017a64c <_end+0xffff764c>
80001058:	01010113          	addi	sp,sp,16
8000105c:	00008067          	ret

80001060 <cpu_address_zero_page_y>:
80001060:	ff010113          	addi	sp,sp,-16
80001064:	00812423          	sw	s0,8(sp)
80001068:	8017a437          	lui	s0,0x8017a
8000106c:	62c40413          	addi	s0,s0,1580 # 8017a62c <_end+0xffff762c>
80001070:	00045503          	lhu	a0,0(s0)
80001074:	00112623          	sw	ra,12(sp)
80001078:	4ed020ef          	jal	ra,80003d64 <memory_readb>
8000107c:	00544703          	lbu	a4,5(s0)
80001080:	801717b7          	lui	a5,0x80171
80001084:	61478793          	addi	a5,a5,1556 # 80171614 <_end+0xfffee614>
80001088:	00e50533          	add	a0,a0,a4
8000108c:	00045703          	lhu	a4,0(s0)
80001090:	0ff57513          	zext.b	a0,a0
80001094:	00a787b3          	add	a5,a5,a0
80001098:	0007c683          	lbu	a3,0(a5)
8000109c:	00170793          	addi	a5,a4,1
800010a0:	00c12083          	lw	ra,12(sp)
800010a4:	8017a737          	lui	a4,0x8017a
800010a8:	00f41023          	sh	a5,0(s0)
800010ac:	00812403          	lw	s0,8(sp)
800010b0:	64a72023          	sw	a0,1600(a4) # 8017a640 <_end+0xffff7640>
800010b4:	8017a737          	lui	a4,0x8017a
800010b8:	64d72623          	sw	a3,1612(a4) # 8017a64c <_end+0xffff764c>
800010bc:	01010113          	addi	sp,sp,16
800010c0:	00008067          	ret

800010c4 <cpu_address_absolute>:
800010c4:	ff010113          	addi	sp,sp,-16
800010c8:	00812423          	sw	s0,8(sp)
800010cc:	8017a437          	lui	s0,0x8017a
800010d0:	62c40413          	addi	s0,s0,1580 # 8017a62c <_end+0xffff762c>
800010d4:	00045503          	lhu	a0,0(s0)
800010d8:	00112623          	sw	ra,12(sp)
800010dc:	5d5020ef          	jal	ra,80003eb0 <memory_readw>
800010e0:	8017a7b7          	lui	a5,0x8017a
800010e4:	64a7a023          	sw	a0,1600(a5) # 8017a640 <_end+0xffff7640>
800010e8:	47d020ef          	jal	ra,80003d64 <memory_readb>
800010ec:	00045783          	lhu	a5,0(s0)
800010f0:	00c12083          	lw	ra,12(sp)
800010f4:	8017a737          	lui	a4,0x8017a
800010f8:	00278793          	addi	a5,a5,2
800010fc:	00f41023          	sh	a5,0(s0)
80001100:	00812403          	lw	s0,8(sp)
80001104:	64a72623          	sw	a0,1612(a4) # 8017a64c <_end+0xffff764c>
80001108:	01010113          	addi	sp,sp,16
8000110c:	00008067          	ret

80001110 <cpu_address_absolute_x>:
80001110:	ff010113          	addi	sp,sp,-16
80001114:	00812423          	sw	s0,8(sp)
80001118:	8017a437          	lui	s0,0x8017a
8000111c:	62c40413          	addi	s0,s0,1580 # 8017a62c <_end+0xffff762c>
80001120:	00045503          	lhu	a0,0(s0)
80001124:	00112623          	sw	ra,12(sp)
80001128:	00912223          	sw	s1,4(sp)
8000112c:	585020ef          	jal	ra,80003eb0 <memory_readw>
80001130:	00444783          	lbu	a5,4(s0)
80001134:	8017a4b7          	lui	s1,0x8017a
80001138:	00a787b3          	add	a5,a5,a0
8000113c:	01079513          	slli	a0,a5,0x10
80001140:	01055513          	srli	a0,a0,0x10
80001144:	64f4a023          	sw	a5,1600(s1) # 8017a640 <_end+0xffff7640>
80001148:	41d020ef          	jal	ra,80003d64 <memory_readb>
8000114c:	00045783          	lhu	a5,0(s0)
80001150:	6404a703          	lw	a4,1600(s1)
80001154:	8017a6b7          	lui	a3,0x8017a
80001158:	00278793          	addi	a5,a5,2
8000115c:	01079793          	slli	a5,a5,0x10
80001160:	0107d793          	srli	a5,a5,0x10
80001164:	00f41023          	sh	a5,0(s0)
80001168:	64a6a623          	sw	a0,1612(a3) # 8017a64c <_end+0xffff764c>
8000116c:	40875713          	srai	a4,a4,0x8
80001170:	0087d793          	srli	a5,a5,0x8
80001174:	00f70a63          	beq	a4,a5,80001188 <cpu_address_absolute_x+0x78>
80001178:	8017a737          	lui	a4,0x8017a
8000117c:	64872783          	lw	a5,1608(a4) # 8017a648 <_end+0xffff7648>
80001180:	00178793          	addi	a5,a5,1
80001184:	64f72423          	sw	a5,1608(a4)
80001188:	00c12083          	lw	ra,12(sp)
8000118c:	00812403          	lw	s0,8(sp)
80001190:	00412483          	lw	s1,4(sp)
80001194:	01010113          	addi	sp,sp,16
80001198:	00008067          	ret

8000119c <cpu_address_absolute_y>:
8000119c:	ff010113          	addi	sp,sp,-16
800011a0:	00812423          	sw	s0,8(sp)
800011a4:	8017a437          	lui	s0,0x8017a
800011a8:	62c40413          	addi	s0,s0,1580 # 8017a62c <_end+0xffff762c>
800011ac:	00045503          	lhu	a0,0(s0)
800011b0:	00112623          	sw	ra,12(sp)
800011b4:	00912223          	sw	s1,4(sp)
800011b8:	4f9020ef          	jal	ra,80003eb0 <memory_readw>
800011bc:	00544783          	lbu	a5,5(s0)
800011c0:	8017a4b7          	lui	s1,0x8017a
800011c4:	00a78533          	add	a0,a5,a0
800011c8:	01051793          	slli	a5,a0,0x10
800011cc:	0107d793          	srli	a5,a5,0x10
800011d0:	00078513          	mv	a0,a5
800011d4:	64f4a023          	sw	a5,1600(s1) # 8017a640 <_end+0xffff7640>
800011d8:	38d020ef          	jal	ra,80003d64 <memory_readb>
800011dc:	00045783          	lhu	a5,0(s0)
800011e0:	6404a703          	lw	a4,1600(s1)
800011e4:	8017a6b7          	lui	a3,0x8017a
800011e8:	00278793          	addi	a5,a5,2
800011ec:	01079793          	slli	a5,a5,0x10
800011f0:	0107d793          	srli	a5,a5,0x10
800011f4:	00f41023          	sh	a5,0(s0)
800011f8:	64a6a623          	sw	a0,1612(a3) # 8017a64c <_end+0xffff764c>
800011fc:	40875713          	srai	a4,a4,0x8
80001200:	0087d793          	srli	a5,a5,0x8
80001204:	00f70a63          	beq	a4,a5,80001218 <cpu_address_absolute_y+0x7c>
80001208:	8017a737          	lui	a4,0x8017a
8000120c:	64872783          	lw	a5,1608(a4) # 8017a648 <_end+0xffff7648>
80001210:	00178793          	addi	a5,a5,1
80001214:	64f72423          	sw	a5,1608(a4)
80001218:	00c12083          	lw	ra,12(sp)
8000121c:	00812403          	lw	s0,8(sp)
80001220:	00412483          	lw	s1,4(sp)
80001224:	01010113          	addi	sp,sp,16
80001228:	00008067          	ret

8000122c <cpu_address_relative>:
8000122c:	ff010113          	addi	sp,sp,-16
80001230:	00812423          	sw	s0,8(sp)
80001234:	8017a437          	lui	s0,0x8017a
80001238:	62c40413          	addi	s0,s0,1580 # 8017a62c <_end+0xffff762c>
8000123c:	00045503          	lhu	a0,0(s0)
80001240:	00112623          	sw	ra,12(sp)
80001244:	321020ef          	jal	ra,80003d64 <memory_readb>
80001248:	00045783          	lhu	a5,0(s0)
8000124c:	01851713          	slli	a4,a0,0x18
80001250:	41875713          	srai	a4,a4,0x18
80001254:	00178793          	addi	a5,a5,1
80001258:	01079793          	slli	a5,a5,0x10
8000125c:	0107d793          	srli	a5,a5,0x10
80001260:	00f41023          	sh	a5,0(s0)
80001264:	00075463          	bgez	a4,8000126c <cpu_address_relative+0x40>
80001268:	f0050513          	addi	a0,a0,-256
8000126c:	00a78533          	add	a0,a5,a0
80001270:	8017a737          	lui	a4,0x8017a
80001274:	64a72023          	sw	a0,1600(a4) # 8017a640 <_end+0xffff7640>
80001278:	0087d793          	srli	a5,a5,0x8
8000127c:	40855513          	srai	a0,a0,0x8
80001280:	00f50a63          	beq	a0,a5,80001294 <cpu_address_relative+0x68>
80001284:	8017a737          	lui	a4,0x8017a
80001288:	64872783          	lw	a5,1608(a4) # 8017a648 <_end+0xffff7648>
8000128c:	00178793          	addi	a5,a5,1
80001290:	64f72423          	sw	a5,1608(a4)
80001294:	00c12083          	lw	ra,12(sp)
80001298:	00812403          	lw	s0,8(sp)
8000129c:	01010113          	addi	sp,sp,16
800012a0:	00008067          	ret

800012a4 <cpu_address_indirect>:
800012a4:	ff010113          	addi	sp,sp,-16
800012a8:	00812423          	sw	s0,8(sp)
800012ac:	8017a437          	lui	s0,0x8017a
800012b0:	62c40413          	addi	s0,s0,1580 # 8017a62c <_end+0xffff762c>
800012b4:	00045503          	lhu	a0,0(s0)
800012b8:	00112623          	sw	ra,12(sp)
800012bc:	00912223          	sw	s1,4(sp)
800012c0:	01212023          	sw	s2,0(sp)
800012c4:	3ed020ef          	jal	ra,80003eb0 <memory_readw>
800012c8:	0ff57713          	zext.b	a4,a0
800012cc:	0ff00793          	li	a5,255
800012d0:	02f70a63          	beq	a4,a5,80001304 <cpu_address_indirect+0x60>
800012d4:	3dd020ef          	jal	ra,80003eb0 <memory_readw>
800012d8:	00045783          	lhu	a5,0(s0)
800012dc:	00c12083          	lw	ra,12(sp)
800012e0:	8017a737          	lui	a4,0x8017a
800012e4:	00278793          	addi	a5,a5,2
800012e8:	00f41023          	sh	a5,0(s0)
800012ec:	00812403          	lw	s0,8(sp)
800012f0:	64a72023          	sw	a0,1600(a4) # 8017a640 <_end+0xffff7640>
800012f4:	00412483          	lw	s1,4(sp)
800012f8:	00012903          	lw	s2,0(sp)
800012fc:	01010113          	addi	sp,sp,16
80001300:	00008067          	ret
80001304:	00050913          	mv	s2,a0
80001308:	f0057513          	andi	a0,a0,-256
8000130c:	01051513          	slli	a0,a0,0x10
80001310:	01055513          	srli	a0,a0,0x10
80001314:	251020ef          	jal	ra,80003d64 <memory_readb>
80001318:	00050493          	mv	s1,a0
8000131c:	00090513          	mv	a0,s2
80001320:	245020ef          	jal	ra,80003d64 <memory_readb>
80001324:	00849493          	slli	s1,s1,0x8
80001328:	00a48533          	add	a0,s1,a0
8000132c:	fadff06f          	j	800012d8 <cpu_address_indirect+0x34>

80001330 <cpu_address_indirect_x>:
80001330:	ff010113          	addi	sp,sp,-16
80001334:	00912223          	sw	s1,4(sp)
80001338:	8017a4b7          	lui	s1,0x8017a
8000133c:	62c48493          	addi	s1,s1,1580 # 8017a62c <_end+0xffff762c>
80001340:	0004d503          	lhu	a0,0(s1)
80001344:	00112623          	sw	ra,12(sp)
80001348:	00812423          	sw	s0,8(sp)
8000134c:	01212023          	sw	s2,0(sp)
80001350:	215020ef          	jal	ra,80003d64 <memory_readb>
80001354:	0044c783          	lbu	a5,4(s1)
80001358:	00050913          	mv	s2,a0
8000135c:	00178513          	addi	a0,a5,1
80001360:	01250533          	add	a0,a0,s2
80001364:	0ff57513          	zext.b	a0,a0
80001368:	1fd020ef          	jal	ra,80003d64 <memory_readb>
8000136c:	0044c783          	lbu	a5,4(s1)
80001370:	00050413          	mv	s0,a0
80001374:	00f90533          	add	a0,s2,a5
80001378:	0ff57513          	zext.b	a0,a0
8000137c:	1e9020ef          	jal	ra,80003d64 <memory_readb>
80001380:	00841793          	slli	a5,s0,0x8
80001384:	00a7e7b3          	or	a5,a5,a0
80001388:	01079513          	slli	a0,a5,0x10
8000138c:	8017a737          	lui	a4,0x8017a
80001390:	01055513          	srli	a0,a0,0x10
80001394:	64f72023          	sw	a5,1600(a4) # 8017a640 <_end+0xffff7640>
80001398:	1cd020ef          	jal	ra,80003d64 <memory_readb>
8000139c:	0004d783          	lhu	a5,0(s1)
800013a0:	00c12083          	lw	ra,12(sp)
800013a4:	00812403          	lw	s0,8(sp)
800013a8:	8017a737          	lui	a4,0x8017a
800013ac:	00178793          	addi	a5,a5,1
800013b0:	00f49023          	sh	a5,0(s1)
800013b4:	64a72623          	sw	a0,1612(a4) # 8017a64c <_end+0xffff764c>
800013b8:	00412483          	lw	s1,4(sp)
800013bc:	00012903          	lw	s2,0(sp)
800013c0:	01010113          	addi	sp,sp,16
800013c4:	00008067          	ret

800013c8 <cpu_address_indirect_y>:
800013c8:	fe010113          	addi	sp,sp,-32
800013cc:	00912a23          	sw	s1,20(sp)
800013d0:	8017a4b7          	lui	s1,0x8017a
800013d4:	62c48493          	addi	s1,s1,1580 # 8017a62c <_end+0xffff762c>
800013d8:	0004d503          	lhu	a0,0(s1)
800013dc:	00112e23          	sw	ra,28(sp)
800013e0:	00812c23          	sw	s0,24(sp)
800013e4:	01212823          	sw	s2,16(sp)
800013e8:	01312623          	sw	s3,12(sp)
800013ec:	179020ef          	jal	ra,80003d64 <memory_readb>
800013f0:	01051913          	slli	s2,a0,0x10
800013f4:	01095913          	srli	s2,s2,0x10
800013f8:	00190513          	addi	a0,s2,1
800013fc:	0ff57513          	zext.b	a0,a0
80001400:	165020ef          	jal	ra,80003d64 <memory_readb>
80001404:	00050413          	mv	s0,a0
80001408:	00090513          	mv	a0,s2
8000140c:	159020ef          	jal	ra,80003d64 <memory_readb>
80001410:	0054c783          	lbu	a5,5(s1)
80001414:	00841413          	slli	s0,s0,0x8
80001418:	00a46433          	or	s0,s0,a0
8000141c:	00f40533          	add	a0,s0,a5
80001420:	01051793          	slli	a5,a0,0x10
80001424:	0107d793          	srli	a5,a5,0x10
80001428:	8017a9b7          	lui	s3,0x8017a
8000142c:	00078513          	mv	a0,a5
80001430:	64f9a023          	sw	a5,1600(s3) # 8017a640 <_end+0xffff7640>
80001434:	131020ef          	jal	ra,80003d64 <memory_readb>
80001438:	0004d783          	lhu	a5,0(s1)
8000143c:	6409a703          	lw	a4,1600(s3)
80001440:	8017a6b7          	lui	a3,0x8017a
80001444:	00178793          	addi	a5,a5,1
80001448:	01079793          	slli	a5,a5,0x10
8000144c:	0107d793          	srli	a5,a5,0x10
80001450:	00f49023          	sh	a5,0(s1)
80001454:	64a6a623          	sw	a0,1612(a3) # 8017a64c <_end+0xffff764c>
80001458:	40875713          	srai	a4,a4,0x8
8000145c:	0087d793          	srli	a5,a5,0x8
80001460:	00f70a63          	beq	a4,a5,80001474 <cpu_address_indirect_y+0xac>
80001464:	8017a737          	lui	a4,0x8017a
80001468:	64872783          	lw	a5,1608(a4) # 8017a648 <_end+0xffff7648>
8000146c:	00178793          	addi	a5,a5,1
80001470:	64f72423          	sw	a5,1608(a4)
80001474:	01c12083          	lw	ra,28(sp)
80001478:	01812403          	lw	s0,24(sp)
8000147c:	01412483          	lw	s1,20(sp)
80001480:	01012903          	lw	s2,16(sp)
80001484:	00c12983          	lw	s3,12(sp)
80001488:	02010113          	addi	sp,sp,32
8000148c:	00008067          	ret

80001490 <main>:
80001490:	fe010113          	addi	sp,sp,-32
80001494:	00112e23          	sw	ra,28(sp)
80001498:	461020ef          	jal	ra,800040f8 <ioe_init>
8000149c:	80005537          	lui	a0,0x80005
800014a0:	abc50513          	addi	a0,a0,-1348 # 80004abc <_end+0xffe81abc>
800014a4:	79d020ef          	jal	ra,80004440 <printf>
800014a8:	80005537          	lui	a0,0x80005
800014ac:	b8450513          	addi	a0,a0,-1148 # 80004b84 <_end+0xffe81b84>
800014b0:	00a12023          	sw	a0,0(sp)
800014b4:	800058b7          	lui	a7,0x80005
800014b8:	80005837          	lui	a6,0x80005
800014bc:	800057b7          	lui	a5,0x80005
800014c0:	80005737          	lui	a4,0x80005
800014c4:	800056b7          	lui	a3,0x80005
800014c8:	80005637          	lui	a2,0x80005
800014cc:	800055b7          	lui	a1,0x80005
800014d0:	80005537          	lui	a0,0x80005
800014d4:	afc88893          	addi	a7,a7,-1284 # 80004afc <_end+0xffe81afc>
800014d8:	b0080813          	addi	a6,a6,-1280 # 80004b00 <_end+0xffe81b00>
800014dc:	b0478793          	addi	a5,a5,-1276 # 80004b04 <_end+0xffe81b04>
800014e0:	b0870713          	addi	a4,a4,-1272 # 80004b08 <_end+0xffe81b08>
800014e4:	b0c68693          	addi	a3,a3,-1268 # 80004b0c <_end+0xffe81b0c>
800014e8:	b1060613          	addi	a2,a2,-1264 # 80004b10 <_end+0xffe81b10>
800014ec:	b1458593          	addi	a1,a1,-1260 # 80004b14 <_end+0xffe81b14>
800014f0:	b1850513          	addi	a0,a0,-1256 # 80004b18 <_end+0xffe81b18>
800014f4:	74d020ef          	jal	ra,80004440 <printf>
800014f8:	80005537          	lui	a0,0x80005
800014fc:	b8850513          	addi	a0,a0,-1144 # 80004b88 <_end+0xffe81b88>
80001500:	741020ef          	jal	ra,80004440 <printf>
80001504:	80005537          	lui	a0,0x80005
80001508:	31c50513          	addi	a0,a0,796 # 8000531c <_end+0xffe8231c>
8000150c:	070000ef          	jal	ra,8000157c <fce_load_rom>
80001510:	1b4000ef          	jal	ra,800016c4 <fce_init>
80001514:	1e0000ef          	jal	ra,800016f4 <fce_run>
80001518:	01c12083          	lw	ra,28(sp)
8000151c:	00100513          	li	a0,1
80001520:	02010113          	addi	sp,sp,32
80001524:	00008067          	ret

80001528 <draw>:
80001528:	0ff00793          	li	a5,255
8000152c:	04a7e663          	bltu	a5,a0,80001578 <draw+0x50>
80001530:	0ef00793          	li	a5,239
80001534:	04b7e263          	bltu	a5,a1,80001578 <draw+0x50>
80001538:	8017a7b7          	lui	a5,0x8017a
8000153c:	6247a783          	lw	a5,1572(a5) # 8017a624 <_end+0xffff7624>
80001540:	0017f793          	andi	a5,a5,1
80001544:	02079a63          	bnez	a5,80001578 <draw+0x50>
80001548:	800057b7          	lui	a5,0x80005
8000154c:	00261613          	slli	a2,a2,0x2
80001550:	c9478793          	addi	a5,a5,-876 # 80004c94 <_end+0xffe81c94>
80001554:	00c787b3          	add	a5,a5,a2
80001558:	00859593          	slli	a1,a1,0x8
8000155c:	0007a703          	lw	a4,0(a5)
80001560:	00a585b3          	add	a1,a1,a0
80001564:	801357b7          	lui	a5,0x80135
80001568:	00259593          	slli	a1,a1,0x2
8000156c:	61478793          	addi	a5,a5,1556 # 80135614 <_end+0xfffb2614>
80001570:	00b787b3          	add	a5,a5,a1
80001574:	00e7a023          	sw	a4,0(a5)
80001578:	00008067          	ret

8000157c <fce_load_rom>:
8000157c:	fd010113          	addi	sp,sp,-48
80001580:	03212023          	sw	s2,32(sp)
80001584:	01312e23          	sw	s3,28(sp)
80001588:	8017a937          	lui	s2,0x8017a
8000158c:	8017a9b7          	lui	s3,0x8017a
80001590:	800055b7          	lui	a1,0x80005
80001594:	61c90913          	addi	s2,s2,1564 # 8017a61c <_end+0xffff761c>
80001598:	01050713          	addi	a4,a0,16
8000159c:	62098993          	addi	s3,s3,1568 # 8017a620 <_end+0xffff7620>
800015a0:	00400613          	li	a2,4
800015a4:	bc458593          	addi	a1,a1,-1084 # 80004bc4 <_end+0xffe81bc4>
800015a8:	02112623          	sw	ra,44(sp)
800015ac:	02812423          	sw	s0,40(sp)
800015b0:	02912223          	sw	s1,36(sp)
800015b4:	01412c23          	sw	s4,24(sp)
800015b8:	01512a23          	sw	s5,20(sp)
800015bc:	00e92023          	sw	a4,0(s2)
800015c0:	00a9a023          	sw	a0,0(s3)
800015c4:	004030ef          	jal	ra,800045c8 <memcmp>
800015c8:	0a051663          	bnez	a0,80001674 <fce_load_rom+0xf8>
800015cc:	0009a703          	lw	a4,0(s3)
800015d0:	00092583          	lw	a1,0(s2)
800015d4:	00050a93          	mv	s5,a0
800015d8:	00675783          	lhu	a5,6(a4)
800015dc:	00474603          	lbu	a2,4(a4)
800015e0:	00900713          	li	a4,9
800015e4:	4047d793          	srai	a5,a5,0x4
800015e8:	00f7f793          	andi	a5,a5,15
800015ec:	00e61693          	slli	a3,a2,0xe
800015f0:	00d586b3          	add	a3,a1,a3
800015f4:	00f75733          	srl	a4,a4,a5
800015f8:	8017a537          	lui	a0,0x8017a
800015fc:	60f50c23          	sb	a5,1560(a0) # 8017a618 <_end+0xffff7618>
80001600:	00d92023          	sw	a3,0(s2)
80001604:	00177793          	andi	a5,a4,1
80001608:	06078663          	beqz	a5,80001674 <fce_load_rom+0xf8>
8000160c:	00100793          	li	a5,1
80001610:	08f60863          	beq	a2,a5,800016a0 <fce_load_rom+0x124>
80001614:	00008637          	lui	a2,0x8
80001618:	00008537          	lui	a0,0x8
8000161c:	afdfe0ef          	jal	ra,80000118 <mmc_copy>
80001620:	0009a783          	lw	a5,0(s3)
80001624:	00000413          	li	s0,0
80001628:	00002a37          	lui	s4,0x2
8000162c:	0057c783          	lbu	a5,5(a5)
80001630:	00079c63          	bnez	a5,80001648 <fce_load_rom+0xcc>
80001634:	0440006f          	j	80001678 <fce_load_rom+0xfc>
80001638:	0009a783          	lw	a5,0(s3)
8000163c:	00140413          	addi	s0,s0,1
80001640:	0057c783          	lbu	a5,5(a5)
80001644:	02f45a63          	bge	s0,a5,80001678 <fce_load_rom+0xfc>
80001648:	00092483          	lw	s1,0(s2)
8000164c:	014487b3          	add	a5,s1,s4
80001650:	00048513          	mv	a0,s1
80001654:	00f92023          	sw	a5,0(s2)
80001658:	ad1fe0ef          	jal	ra,80000128 <mmc_append_chr_rom_page>
8000165c:	fc041ee3          	bnez	s0,80001638 <fce_load_rom+0xbc>
80001660:	00002637          	lui	a2,0x2
80001664:	00048593          	mv	a1,s1
80001668:	00000513          	li	a0,0
8000166c:	cd8ff0ef          	jal	ra,80000b44 <ppu_copy>
80001670:	fc9ff06f          	j	80001638 <fce_load_rom+0xbc>
80001674:	fff00a93          	li	s5,-1
80001678:	02c12083          	lw	ra,44(sp)
8000167c:	02812403          	lw	s0,40(sp)
80001680:	02412483          	lw	s1,36(sp)
80001684:	02012903          	lw	s2,32(sp)
80001688:	01c12983          	lw	s3,28(sp)
8000168c:	01812a03          	lw	s4,24(sp)
80001690:	000a8513          	mv	a0,s5
80001694:	01412a83          	lw	s5,20(sp)
80001698:	03010113          	addi	sp,sp,48
8000169c:	00008067          	ret
800016a0:	00004637          	lui	a2,0x4
800016a4:	00008537          	lui	a0,0x8
800016a8:	00b12623          	sw	a1,12(sp)
800016ac:	a6dfe0ef          	jal	ra,80000118 <mmc_copy>
800016b0:	00c12583          	lw	a1,12(sp)
800016b4:	00004637          	lui	a2,0x4
800016b8:	0000c537          	lui	a0,0xc
800016bc:	a5dfe0ef          	jal	ra,80000118 <mmc_copy>
800016c0:	f61ff06f          	j	80001620 <fce_load_rom+0xa4>

800016c4 <fce_init>:
800016c4:	ff010113          	addi	sp,sp,-16
800016c8:	00112623          	sw	ra,12(sp)
800016cc:	67c010ef          	jal	ra,80002d48 <cpu_init>
800016d0:	f68ff0ef          	jal	ra,80000e38 <ppu_init>
800016d4:	8017a7b7          	lui	a5,0x8017a
800016d8:	6207a783          	lw	a5,1568(a5) # 8017a620 <_end+0xffff7620>
800016dc:	0067d503          	lhu	a0,6(a5)
800016e0:	00157513          	andi	a0,a0,1
800016e4:	861ff0ef          	jal	ra,80000f44 <ppu_set_mirroring>
800016e8:	00c12083          	lw	ra,12(sp)
800016ec:	01010113          	addi	sp,sp,16
800016f0:	4600206f          	j	80003b50 <cpu_reset>

800016f4 <fce_run>:
800016f4:	fc010113          	addi	sp,sp,-64
800016f8:	00810593          	addi	a1,sp,8
800016fc:	00600513          	li	a0,6
80001700:	02112e23          	sw	ra,60(sp)
80001704:	02912a23          	sw	s1,52(sp)
80001708:	03212823          	sw	s2,48(sp)
8000170c:	03412423          	sw	s4,40(sp)
80001710:	03512223          	sw	s5,36(sp)
80001714:	03612023          	sw	s6,32(sp)
80001718:	02812c23          	sw	s0,56(sp)
8000171c:	03312623          	sw	s3,44(sp)
80001720:	01712e23          	sw	s7,28(sp)
80001724:	01812c23          	sw	s8,24(sp)
80001728:	229020ef          	jal	ra,80004150 <ioe_read>
8000172c:	00812503          	lw	a0,8(sp)
80001730:	00c12583          	lw	a1,12(sp)
80001734:	3e800613          	li	a2,1000
80001738:	00000693          	li	a3,0
8000173c:	8017a4b7          	lui	s1,0x8017a
80001740:	1e0030ef          	jal	ra,80004920 <__udivdi3>
80001744:	62848493          	addi	s1,s1,1576 # 8017a628 <_end+0xffff7628>
80001748:	80005ab7          	lui	s5,0x80005
8000174c:	00050b13          	mv	s6,a0
80001750:	00a4a023          	sw	a0,0(s1)
80001754:	00f00913          	li	s2,15
80001758:	3e800a13          	li	s4,1000
8000175c:	00000993          	li	s3,0
80001760:	00810593          	addi	a1,sp,8
80001764:	00600513          	li	a0,6
80001768:	1e9020ef          	jal	ra,80004150 <ioe_read>
8000176c:	00812503          	lw	a0,8(sp)
80001770:	00c12583          	lw	a1,12(sp)
80001774:	3e800613          	li	a2,1000
80001778:	00000693          	li	a3,0
8000177c:	1a4030ef          	jal	ra,80004920 <__udivdi3>
80001780:	0004a783          	lw	a5,0(s1)
80001784:	40f507b3          	sub	a5,a0,a5
80001788:	fcf95ce3          	bge	s2,a5,80001760 <fce_run+0x6c>
8000178c:	00a4a023          	sw	a0,0(s1)
80001790:	10600413          	li	s0,262
80001794:	fff40413          	addi	s0,s0,-1
80001798:	a34ff0ef          	jal	ra,800009cc <ppu_cycle>
8000179c:	045020ef          	jal	ra,80003fe0 <psg_detect_key>
800017a0:	fe041ae3          	bnez	s0,80001794 <fce_run+0xa0>
800017a4:	00810593          	addi	a1,sp,8
800017a8:	00600513          	li	a0,6
800017ac:	1a5020ef          	jal	ra,80004150 <ioe_read>
800017b0:	00812503          	lw	a0,8(sp)
800017b4:	00c12583          	lw	a1,12(sp)
800017b8:	3e800613          	li	a2,1000
800017bc:	00000693          	li	a3,0
800017c0:	160030ef          	jal	ra,80004920 <__udivdi3>
800017c4:	416507b3          	sub	a5,a0,s6
800017c8:	00198993          	addi	s3,s3,1
800017cc:	00050c13          	mv	s8,a0
800017d0:	00050b93          	mv	s7,a0
800017d4:	f8fa76e3          	bgeu	s4,a5,80001760 <fce_run+0x6c>
800017d8:	05000413          	li	s0,80
800017dc:	fff40413          	addi	s0,s0,-1
800017e0:	00800513          	li	a0,8
800017e4:	049020ef          	jal	ra,8000402c <putch>
800017e8:	fe041ae3          	bnez	s0,800017dc <fce_run+0xe8>
800017ec:	034c45b3          	div	a1,s8,s4
800017f0:	00098613          	mv	a2,s3
800017f4:	bcca8513          	addi	a0,s5,-1076 # 80004bcc <_end+0xffe81bcc>
800017f8:	000b8b13          	mv	s6,s7
800017fc:	445020ef          	jal	ra,80004440 <printf>
80001800:	f5dff06f          	j	8000175c <fce_run+0x68>

80001804 <fce_update_screen>:
80001804:	8017a737          	lui	a4,0x8017a
80001808:	62470713          	addi	a4,a4,1572 # 8017a624 <_end+0xffff7624>
8000180c:	00072783          	lw	a5,0(a4)
80001810:	00178793          	addi	a5,a5,1
80001814:	00f72023          	sw	a5,0(a4)
80001818:	0017f793          	andi	a5,a5,1
8000181c:	00078463          	beqz	a5,80001824 <fce_update_screen+0x20>
80001820:	00008067          	ret
80001824:	00004537          	lui	a0,0x4
80001828:	fc010113          	addi	sp,sp,-64
8000182c:	f0050513          	addi	a0,a0,-256 # 3f00 <_entry_offset+0x3f00>
80001830:	02112e23          	sw	ra,60(sp)
80001834:	02912a23          	sw	s1,52(sp)
80001838:	03212823          	sw	s2,48(sp)
8000183c:	03312623          	sw	s3,44(sp)
80001840:	02812c23          	sw	s0,56(sp)
80001844:	9bdfe0ef          	jal	ra,80000200 <ppu_ram_read>
80001848:	800057b7          	lui	a5,0x80005
8000184c:	00251713          	slli	a4,a0,0x2
80001850:	c9478793          	addi	a5,a5,-876 # 80004c94 <_end+0xffe81c94>
80001854:	00e787b3          	add	a5,a5,a4
80001858:	00810593          	addi	a1,sp,8
8000185c:	00900513          	li	a0,9
80001860:	0007a483          	lw	s1,0(a5)
80001864:	0ed020ef          	jal	ra,80004150 <ioe_read>
80001868:	00c12783          	lw	a5,12(sp)
8000186c:	01012603          	lw	a2,16(sp)
80001870:	0fe00593          	li	a1,254
80001874:	f0078693          	addi	a3,a5,-256
80001878:	f1060713          	addi	a4,a2,-240 # 3f10 <_entry_offset+0x3f10>
8000187c:	01f6d913          	srli	s2,a3,0x1f
80001880:	01f75993          	srli	s3,a4,0x1f
80001884:	00d90933          	add	s2,s2,a3
80001888:	00e989b3          	add	s3,s3,a4
8000188c:	40195913          	srai	s2,s2,0x1
80001890:	4019d993          	srai	s3,s3,0x1
80001894:	06f5cc63          	blt	a1,a5,8000190c <fce_update_screen+0x108>
80001898:	80005537          	lui	a0,0x80005
8000189c:	00100693          	li	a3,1
800018a0:	00098613          	mv	a2,s3
800018a4:	00090593          	mv	a1,s2
800018a8:	c6050513          	addi	a0,a0,-928 # 80004c60 <_end+0xffe81c60>
800018ac:	395020ef          	jal	ra,80004440 <printf>
800018b0:	80005437          	lui	s0,0x80005
800018b4:	be840413          	addi	s0,s0,-1048 # 80004be8 <_end+0xffe81be8>
800018b8:	04100513          	li	a0,65
800018bc:	00140413          	addi	s0,s0,1
800018c0:	76c020ef          	jal	ra,8000402c <putch>
800018c4:	00044503          	lbu	a0,0(s0)
800018c8:	fe051ae3          	bnez	a0,800018bc <fce_update_screen+0xb8>
800018cc:	80005437          	lui	s0,0x80005
800018d0:	bf440413          	addi	s0,s0,-1036 # 80004bf4 <_end+0xffe81bf4>
800018d4:	07300513          	li	a0,115
800018d8:	00140413          	addi	s0,s0,1
800018dc:	750020ef          	jal	ra,8000402c <putch>
800018e0:	00044503          	lbu	a0,0(s0)
800018e4:	fe051ae3          	bnez	a0,800018d8 <fce_update_screen+0xd4>
800018e8:	80005437          	lui	s0,0x80005
800018ec:	c0840413          	addi	s0,s0,-1016 # 80004c08 <_end+0xffe81c08>
800018f0:	02000513          	li	a0,32
800018f4:	00140413          	addi	s0,s0,1
800018f8:	734020ef          	jal	ra,8000402c <putch>
800018fc:	00044503          	lbu	a0,0(s0)
80001900:	fe051ae3          	bnez	a0,800018f4 <fce_update_screen+0xf0>
80001904:	00100513          	li	a0,1
80001908:	730020ef          	jal	ra,80004038 <halt>
8000190c:	0ee00793          	li	a5,238
80001910:	f8c7d4e3          	bge	a5,a2,80001898 <fce_update_screen+0x94>
80001914:	80005537          	lui	a0,0x80005
80001918:	00000693          	li	a3,0
8000191c:	00098613          	mv	a2,s3
80001920:	00090593          	mv	a1,s2
80001924:	c6050513          	addi	a0,a0,-928 # 80004c60 <_end+0xffe81c60>
80001928:	319020ef          	jal	ra,80004440 <printf>
8000192c:	80135437          	lui	s0,0x80135
80001930:	61440793          	addi	a5,s0,1556 # 80135614 <_end+0xfffb2614>
80001934:	00f12823          	sw	a5,16(sp)
80001938:	10000793          	li	a5,256
8000193c:	00f12a23          	sw	a5,20(sp)
80001940:	0f000793          	li	a5,240
80001944:	00f12c23          	sw	a5,24(sp)
80001948:	00810593          	addi	a1,sp,8
8000194c:	00100793          	li	a5,1
80001950:	00b00513          	li	a0,11
80001954:	00f10e23          	sb	a5,28(sp)
80001958:	01212423          	sw	s2,8(sp)
8000195c:	01312623          	sw	s3,12(sp)
80001960:	00d020ef          	jal	ra,8000416c <ioe_write>
80001964:	61440793          	addi	a5,s0,1556
80001968:	0003c737          	lui	a4,0x3c
8000196c:	00e78733          	add	a4,a5,a4
80001970:	0097a023          	sw	s1,0(a5)
80001974:	00478793          	addi	a5,a5,4
80001978:	fef71ce3          	bne	a4,a5,80001970 <fce_update_screen+0x16c>
8000197c:	03c12083          	lw	ra,60(sp)
80001980:	03812403          	lw	s0,56(sp)
80001984:	03412483          	lw	s1,52(sp)
80001988:	03012903          	lw	s2,48(sp)
8000198c:	02c12983          	lw	s3,44(sp)
80001990:	04010113          	addi	sp,sp,64
80001994:	00008067          	ret

80001998 <____FE____>:
80001998:	00008067          	ret

8000199c <cpu_op_and>:
8000199c:	8017a7b7          	lui	a5,0x8017a
800019a0:	62c78793          	addi	a5,a5,1580 # 8017a62c <_end+0xffff762c>
800019a4:	8017a737          	lui	a4,0x8017a
800019a8:	0037c683          	lbu	a3,3(a5)
800019ac:	64c72703          	lw	a4,1612(a4) # 8017a64c <_end+0xffff764c>
800019b0:	0067c603          	lbu	a2,6(a5)
800019b4:	00e6f6b3          	and	a3,a3,a4
800019b8:	80005737          	lui	a4,0x80005
800019bc:	d9470713          	addi	a4,a4,-620 # 80004d94 <_end+0xffe81d94>
800019c0:	00d70733          	add	a4,a4,a3
800019c4:	00074703          	lbu	a4,0(a4)
800019c8:	07d67613          	andi	a2,a2,125
800019cc:	00d781a3          	sb	a3,3(a5)
800019d0:	00c76733          	or	a4,a4,a2
800019d4:	00e78323          	sb	a4,6(a5)
800019d8:	00008067          	ret

800019dc <cpu_op_eor>:
800019dc:	8017a7b7          	lui	a5,0x8017a
800019e0:	62c78793          	addi	a5,a5,1580 # 8017a62c <_end+0xffff762c>
800019e4:	8017a737          	lui	a4,0x8017a
800019e8:	0037c683          	lbu	a3,3(a5)
800019ec:	64c74703          	lbu	a4,1612(a4) # 8017a64c <_end+0xffff764c>
800019f0:	0067c603          	lbu	a2,6(a5)
800019f4:	00e6c6b3          	xor	a3,a3,a4
800019f8:	80005737          	lui	a4,0x80005
800019fc:	d9470713          	addi	a4,a4,-620 # 80004d94 <_end+0xffe81d94>
80001a00:	00d70733          	add	a4,a4,a3
80001a04:	00074703          	lbu	a4,0(a4)
80001a08:	07d67613          	andi	a2,a2,125
80001a0c:	00d781a3          	sb	a3,3(a5)
80001a10:	00c76733          	or	a4,a4,a2
80001a14:	00e78323          	sb	a4,6(a5)
80001a18:	00008067          	ret

80001a1c <cpu_op_ora>:
80001a1c:	8017a7b7          	lui	a5,0x8017a
80001a20:	62c78793          	addi	a5,a5,1580 # 8017a62c <_end+0xffff762c>
80001a24:	8017a737          	lui	a4,0x8017a
80001a28:	0037c683          	lbu	a3,3(a5)
80001a2c:	64c74703          	lbu	a4,1612(a4) # 8017a64c <_end+0xffff764c>
80001a30:	0067c603          	lbu	a2,6(a5)
80001a34:	00e6e6b3          	or	a3,a3,a4
80001a38:	80005737          	lui	a4,0x80005
80001a3c:	d9470713          	addi	a4,a4,-620 # 80004d94 <_end+0xffe81d94>
80001a40:	00d70733          	add	a4,a4,a3
80001a44:	00074703          	lbu	a4,0(a4)
80001a48:	07d67613          	andi	a2,a2,125
80001a4c:	00d781a3          	sb	a3,3(a5)
80001a50:	00c76733          	or	a4,a4,a2
80001a54:	00e78323          	sb	a4,6(a5)
80001a58:	00008067          	ret

80001a5c <cpu_op_lda>:
80001a5c:	8017a7b7          	lui	a5,0x8017a
80001a60:	64c7a603          	lw	a2,1612(a5) # 8017a64c <_end+0xffff764c>
80001a64:	80005737          	lui	a4,0x80005
80001a68:	8017a7b7          	lui	a5,0x8017a
80001a6c:	62c78793          	addi	a5,a5,1580 # 8017a62c <_end+0xffff762c>
80001a70:	0ff67593          	zext.b	a1,a2
80001a74:	d9470713          	addi	a4,a4,-620 # 80004d94 <_end+0xffe81d94>
80001a78:	0067c683          	lbu	a3,6(a5)
80001a7c:	00b70733          	add	a4,a4,a1
80001a80:	00074703          	lbu	a4,0(a4)
80001a84:	07d6f693          	andi	a3,a3,125
80001a88:	00c781a3          	sb	a2,3(a5)
80001a8c:	00d76733          	or	a4,a4,a3
80001a90:	00e78323          	sb	a4,6(a5)
80001a94:	00008067          	ret

80001a98 <cpu_op_ldx>:
80001a98:	8017a7b7          	lui	a5,0x8017a
80001a9c:	64c7a603          	lw	a2,1612(a5) # 8017a64c <_end+0xffff764c>
80001aa0:	80005737          	lui	a4,0x80005
80001aa4:	8017a7b7          	lui	a5,0x8017a
80001aa8:	62c78793          	addi	a5,a5,1580 # 8017a62c <_end+0xffff762c>
80001aac:	0ff67593          	zext.b	a1,a2
80001ab0:	d9470713          	addi	a4,a4,-620 # 80004d94 <_end+0xffe81d94>
80001ab4:	0067c683          	lbu	a3,6(a5)
80001ab8:	00b70733          	add	a4,a4,a1
80001abc:	00074703          	lbu	a4,0(a4)
80001ac0:	07d6f693          	andi	a3,a3,125
80001ac4:	00c78223          	sb	a2,4(a5)
80001ac8:	00d76733          	or	a4,a4,a3
80001acc:	00e78323          	sb	a4,6(a5)
80001ad0:	00008067          	ret

80001ad4 <cpu_op_ldy>:
80001ad4:	8017a7b7          	lui	a5,0x8017a
80001ad8:	64c7a603          	lw	a2,1612(a5) # 8017a64c <_end+0xffff764c>
80001adc:	80005737          	lui	a4,0x80005
80001ae0:	8017a7b7          	lui	a5,0x8017a
80001ae4:	62c78793          	addi	a5,a5,1580 # 8017a62c <_end+0xffff762c>
80001ae8:	0ff67593          	zext.b	a1,a2
80001aec:	d9470713          	addi	a4,a4,-620 # 80004d94 <_end+0xffe81d94>
80001af0:	0067c683          	lbu	a3,6(a5)
80001af4:	00b70733          	add	a4,a4,a1
80001af8:	00074703          	lbu	a4,0(a4)
80001afc:	07d6f693          	andi	a3,a3,125
80001b00:	00c782a3          	sb	a2,5(a5)
80001b04:	00d76733          	or	a4,a4,a3
80001b08:	00e78323          	sb	a4,6(a5)
80001b0c:	00008067          	ret

80001b10 <cpu_op_tax>:
80001b10:	8017a7b7          	lui	a5,0x8017a
80001b14:	62c78793          	addi	a5,a5,1580 # 8017a62c <_end+0xffff762c>
80001b18:	0037c603          	lbu	a2,3(a5)
80001b1c:	80005737          	lui	a4,0x80005
80001b20:	d9470713          	addi	a4,a4,-620 # 80004d94 <_end+0xffe81d94>
80001b24:	0067c683          	lbu	a3,6(a5)
80001b28:	00c70733          	add	a4,a4,a2
80001b2c:	00074703          	lbu	a4,0(a4)
80001b30:	07d6f693          	andi	a3,a3,125
80001b34:	00c78223          	sb	a2,4(a5)
80001b38:	00d76733          	or	a4,a4,a3
80001b3c:	00e78323          	sb	a4,6(a5)
80001b40:	00008067          	ret

80001b44 <cpu_op_txa>:
80001b44:	8017a7b7          	lui	a5,0x8017a
80001b48:	62c78793          	addi	a5,a5,1580 # 8017a62c <_end+0xffff762c>
80001b4c:	0047c603          	lbu	a2,4(a5)
80001b50:	80005737          	lui	a4,0x80005
80001b54:	d9470713          	addi	a4,a4,-620 # 80004d94 <_end+0xffe81d94>
80001b58:	0067c683          	lbu	a3,6(a5)
80001b5c:	00c70733          	add	a4,a4,a2
80001b60:	00074703          	lbu	a4,0(a4)
80001b64:	07d6f693          	andi	a3,a3,125
80001b68:	00c781a3          	sb	a2,3(a5)
80001b6c:	00d76733          	or	a4,a4,a3
80001b70:	00e78323          	sb	a4,6(a5)
80001b74:	00008067          	ret

80001b78 <cpu_op_tay>:
80001b78:	8017a7b7          	lui	a5,0x8017a
80001b7c:	62c78793          	addi	a5,a5,1580 # 8017a62c <_end+0xffff762c>
80001b80:	0037c603          	lbu	a2,3(a5)
80001b84:	80005737          	lui	a4,0x80005
80001b88:	d9470713          	addi	a4,a4,-620 # 80004d94 <_end+0xffe81d94>
80001b8c:	0067c683          	lbu	a3,6(a5)
80001b90:	00c70733          	add	a4,a4,a2
80001b94:	00074703          	lbu	a4,0(a4)
80001b98:	07d6f693          	andi	a3,a3,125
80001b9c:	00c782a3          	sb	a2,5(a5)
80001ba0:	00d76733          	or	a4,a4,a3
80001ba4:	00e78323          	sb	a4,6(a5)
80001ba8:	00008067          	ret

80001bac <cpu_op_tya>:
80001bac:	8017a7b7          	lui	a5,0x8017a
80001bb0:	62c78793          	addi	a5,a5,1580 # 8017a62c <_end+0xffff762c>
80001bb4:	0057c603          	lbu	a2,5(a5)
80001bb8:	80005737          	lui	a4,0x80005
80001bbc:	d9470713          	addi	a4,a4,-620 # 80004d94 <_end+0xffe81d94>
80001bc0:	0067c683          	lbu	a3,6(a5)
80001bc4:	00c70733          	add	a4,a4,a2
80001bc8:	00074703          	lbu	a4,0(a4)
80001bcc:	07d6f693          	andi	a3,a3,125
80001bd0:	00c781a3          	sb	a2,3(a5)
80001bd4:	00d76733          	or	a4,a4,a3
80001bd8:	00e78323          	sb	a4,6(a5)
80001bdc:	00008067          	ret

80001be0 <cpu_op_tsx>:
80001be0:	8017a7b7          	lui	a5,0x8017a
80001be4:	62c78793          	addi	a5,a5,1580 # 8017a62c <_end+0xffff762c>
80001be8:	0027c603          	lbu	a2,2(a5)
80001bec:	80005737          	lui	a4,0x80005
80001bf0:	d9470713          	addi	a4,a4,-620 # 80004d94 <_end+0xffe81d94>
80001bf4:	0067c683          	lbu	a3,6(a5)
80001bf8:	00c70733          	add	a4,a4,a2
80001bfc:	00074703          	lbu	a4,0(a4)
80001c00:	07d6f693          	andi	a3,a3,125
80001c04:	00c78223          	sb	a2,4(a5)
80001c08:	00d76733          	or	a4,a4,a3
80001c0c:	00e78323          	sb	a4,6(a5)
80001c10:	00008067          	ret

80001c14 <cpu_op_txs>:
80001c14:	8017a7b7          	lui	a5,0x8017a
80001c18:	62c78793          	addi	a5,a5,1580 # 8017a62c <_end+0xffff762c>
80001c1c:	0047c703          	lbu	a4,4(a5)
80001c20:	00e78123          	sb	a4,2(a5)
80001c24:	00008067          	ret

80001c28 <cpu_op_jmp>:
80001c28:	8017a7b7          	lui	a5,0x8017a
80001c2c:	6407a703          	lw	a4,1600(a5) # 8017a640 <_end+0xffff7640>
80001c30:	8017a7b7          	lui	a5,0x8017a
80001c34:	62e79623          	sh	a4,1580(a5) # 8017a62c <_end+0xffff762c>
80001c38:	00008067          	ret

80001c3c <cpu_op_inx>:
80001c3c:	8017a7b7          	lui	a5,0x8017a
80001c40:	62c78793          	addi	a5,a5,1580 # 8017a62c <_end+0xffff762c>
80001c44:	0047c703          	lbu	a4,4(a5)
80001c48:	800056b7          	lui	a3,0x80005
80001c4c:	d9468693          	addi	a3,a3,-620 # 80004d94 <_end+0xffe81d94>
80001c50:	00170713          	addi	a4,a4,1
80001c54:	0ff77713          	zext.b	a4,a4
80001c58:	0067c603          	lbu	a2,6(a5)
80001c5c:	00e686b3          	add	a3,a3,a4
80001c60:	0006c683          	lbu	a3,0(a3)
80001c64:	07d67613          	andi	a2,a2,125
80001c68:	00e78223          	sb	a4,4(a5)
80001c6c:	00c6e733          	or	a4,a3,a2
80001c70:	00e78323          	sb	a4,6(a5)
80001c74:	00008067          	ret

80001c78 <cpu_op_iny>:
80001c78:	8017a7b7          	lui	a5,0x8017a
80001c7c:	62c78793          	addi	a5,a5,1580 # 8017a62c <_end+0xffff762c>
80001c80:	0057c703          	lbu	a4,5(a5)
80001c84:	800056b7          	lui	a3,0x80005
80001c88:	d9468693          	addi	a3,a3,-620 # 80004d94 <_end+0xffe81d94>
80001c8c:	00170713          	addi	a4,a4,1
80001c90:	0ff77713          	zext.b	a4,a4
80001c94:	0067c603          	lbu	a2,6(a5)
80001c98:	00e686b3          	add	a3,a3,a4
80001c9c:	0006c683          	lbu	a3,0(a3)
80001ca0:	07d67613          	andi	a2,a2,125
80001ca4:	00e782a3          	sb	a4,5(a5)
80001ca8:	00c6e733          	or	a4,a3,a2
80001cac:	00e78323          	sb	a4,6(a5)
80001cb0:	00008067          	ret

80001cb4 <cpu_op_dex>:
80001cb4:	8017a7b7          	lui	a5,0x8017a
80001cb8:	62c78793          	addi	a5,a5,1580 # 8017a62c <_end+0xffff762c>
80001cbc:	0047c703          	lbu	a4,4(a5)
80001cc0:	800056b7          	lui	a3,0x80005
80001cc4:	d9468693          	addi	a3,a3,-620 # 80004d94 <_end+0xffe81d94>
80001cc8:	fff70713          	addi	a4,a4,-1
80001ccc:	0ff77713          	zext.b	a4,a4
80001cd0:	0067c603          	lbu	a2,6(a5)
80001cd4:	00e686b3          	add	a3,a3,a4
80001cd8:	0006c683          	lbu	a3,0(a3)
80001cdc:	07d67613          	andi	a2,a2,125
80001ce0:	00e78223          	sb	a4,4(a5)
80001ce4:	00c6e733          	or	a4,a3,a2
80001ce8:	00e78323          	sb	a4,6(a5)
80001cec:	00008067          	ret

80001cf0 <cpu_op_dey>:
80001cf0:	8017a7b7          	lui	a5,0x8017a
80001cf4:	62c78793          	addi	a5,a5,1580 # 8017a62c <_end+0xffff762c>
80001cf8:	0057c703          	lbu	a4,5(a5)
80001cfc:	800056b7          	lui	a3,0x80005
80001d00:	d9468693          	addi	a3,a3,-620 # 80004d94 <_end+0xffe81d94>
80001d04:	fff70713          	addi	a4,a4,-1
80001d08:	0ff77713          	zext.b	a4,a4
80001d0c:	0067c603          	lbu	a2,6(a5)
80001d10:	00e686b3          	add	a3,a3,a4
80001d14:	0006c683          	lbu	a3,0(a3)
80001d18:	07d67613          	andi	a2,a2,125
80001d1c:	00e782a3          	sb	a4,5(a5)
80001d20:	00c6e733          	or	a4,a3,a2
80001d24:	00e78323          	sb	a4,6(a5)
80001d28:	00008067          	ret

80001d2c <cpu_op_lax>:
80001d2c:	8017a7b7          	lui	a5,0x8017a
80001d30:	64c7a703          	lw	a4,1612(a5) # 8017a64c <_end+0xffff764c>
80001d34:	800056b7          	lui	a3,0x80005
80001d38:	8017a7b7          	lui	a5,0x8017a
80001d3c:	62c78793          	addi	a5,a5,1580 # 8017a62c <_end+0xffff762c>
80001d40:	0ff77593          	zext.b	a1,a4
80001d44:	d9468693          	addi	a3,a3,-620 # 80004d94 <_end+0xffe81d94>
80001d48:	0067c603          	lbu	a2,6(a5)
80001d4c:	00b686b3          	add	a3,a3,a1
80001d50:	0006c683          	lbu	a3,0(a3)
80001d54:	07d67613          	andi	a2,a2,125
80001d58:	0ff77713          	zext.b	a4,a4
80001d5c:	00c6e6b3          	or	a3,a3,a2
80001d60:	00e78223          	sb	a4,4(a5)
80001d64:	00e781a3          	sb	a4,3(a5)
80001d68:	00d78323          	sb	a3,6(a5)
80001d6c:	00008067          	ret

80001d70 <cpu_op_sta>:
80001d70:	8017a7b7          	lui	a5,0x8017a
80001d74:	62f7c583          	lbu	a1,1583(a5) # 8017a62f <_end+0xffff762f>
80001d78:	8017a7b7          	lui	a5,0x8017a
80001d7c:	6407d503          	lhu	a0,1600(a5) # 8017a640 <_end+0xffff7640>
80001d80:	0300206f          	j	80003db0 <memory_writeb>

80001d84 <cpu_op_stx>:
80001d84:	8017a7b7          	lui	a5,0x8017a
80001d88:	6307c583          	lbu	a1,1584(a5) # 8017a630 <_end+0xffff7630>
80001d8c:	8017a7b7          	lui	a5,0x8017a
80001d90:	6407d503          	lhu	a0,1600(a5) # 8017a640 <_end+0xffff7640>
80001d94:	01c0206f          	j	80003db0 <memory_writeb>

80001d98 <cpu_op_sty>:
80001d98:	8017a7b7          	lui	a5,0x8017a
80001d9c:	6317c583          	lbu	a1,1585(a5) # 8017a631 <_end+0xffff7631>
80001da0:	8017a7b7          	lui	a5,0x8017a
80001da4:	6407d503          	lhu	a0,1600(a5) # 8017a640 <_end+0xffff7640>
80001da8:	0080206f          	j	80003db0 <memory_writeb>

80001dac <cpu_op_inc>:
80001dac:	ff010113          	addi	sp,sp,-16
80001db0:	8017a7b7          	lui	a5,0x8017a
80001db4:	00812423          	sw	s0,8(sp)
80001db8:	64c7a403          	lw	s0,1612(a5) # 8017a64c <_end+0xffff764c>
80001dbc:	8017a7b7          	lui	a5,0x8017a
80001dc0:	6407d503          	lhu	a0,1600(a5) # 8017a640 <_end+0xffff7640>
80001dc4:	00140413          	addi	s0,s0,1
80001dc8:	0ff47413          	zext.b	s0,s0
80001dcc:	00040593          	mv	a1,s0
80001dd0:	00112623          	sw	ra,12(sp)
80001dd4:	7dd010ef          	jal	ra,80003db0 <memory_writeb>
80001dd8:	8017a6b7          	lui	a3,0x8017a
80001ddc:	80005737          	lui	a4,0x80005
80001de0:	62c68693          	addi	a3,a3,1580 # 8017a62c <_end+0xffff762c>
80001de4:	d9470713          	addi	a4,a4,-620 # 80004d94 <_end+0xffe81d94>
80001de8:	0066c783          	lbu	a5,6(a3)
80001dec:	00870733          	add	a4,a4,s0
80001df0:	00074703          	lbu	a4,0(a4)
80001df4:	07d7f793          	andi	a5,a5,125
80001df8:	00e7e7b3          	or	a5,a5,a4
80001dfc:	00f68323          	sb	a5,6(a3)
80001e00:	00c12083          	lw	ra,12(sp)
80001e04:	00812403          	lw	s0,8(sp)
80001e08:	01010113          	addi	sp,sp,16
80001e0c:	00008067          	ret

80001e10 <cpu_op_dec>:
80001e10:	ff010113          	addi	sp,sp,-16
80001e14:	8017a7b7          	lui	a5,0x8017a
80001e18:	00812423          	sw	s0,8(sp)
80001e1c:	64c7a403          	lw	s0,1612(a5) # 8017a64c <_end+0xffff764c>
80001e20:	8017a7b7          	lui	a5,0x8017a
80001e24:	6407d503          	lhu	a0,1600(a5) # 8017a640 <_end+0xffff7640>
80001e28:	fff40413          	addi	s0,s0,-1
80001e2c:	0ff47413          	zext.b	s0,s0
80001e30:	00040593          	mv	a1,s0
80001e34:	00112623          	sw	ra,12(sp)
80001e38:	779010ef          	jal	ra,80003db0 <memory_writeb>
80001e3c:	8017a6b7          	lui	a3,0x8017a
80001e40:	80005737          	lui	a4,0x80005
80001e44:	62c68693          	addi	a3,a3,1580 # 8017a62c <_end+0xffff762c>
80001e48:	d9470713          	addi	a4,a4,-620 # 80004d94 <_end+0xffe81d94>
80001e4c:	0066c783          	lbu	a5,6(a3)
80001e50:	00870733          	add	a4,a4,s0
80001e54:	00074703          	lbu	a4,0(a4)
80001e58:	07d7f793          	andi	a5,a5,125
80001e5c:	00e7e7b3          	or	a5,a5,a4
80001e60:	00f68323          	sb	a5,6(a3)
80001e64:	00c12083          	lw	ra,12(sp)
80001e68:	00812403          	lw	s0,8(sp)
80001e6c:	01010113          	addi	sp,sp,16
80001e70:	00008067          	ret

80001e74 <cpu_op_axa>:
80001e74:	8017a7b7          	lui	a5,0x8017a
80001e78:	62c78793          	addi	a5,a5,1580 # 8017a62c <_end+0xffff762c>
80001e7c:	8017a737          	lui	a4,0x8017a
80001e80:	64072503          	lw	a0,1600(a4) # 8017a640 <_end+0xffff7640>
80001e84:	0037c703          	lbu	a4,3(a5)
80001e88:	0047c783          	lbu	a5,4(a5)
80001e8c:	40855593          	srai	a1,a0,0x8
80001e90:	01051513          	slli	a0,a0,0x10
80001e94:	00f77733          	and	a4,a4,a5
80001e98:	01055513          	srli	a0,a0,0x10
80001e9c:	00b775b3          	and	a1,a4,a1
80001ea0:	7110106f          	j	80003db0 <memory_writeb>

80001ea4 <cpu_op_axs>:
80001ea4:	8017a7b7          	lui	a5,0x8017a
80001ea8:	62c78793          	addi	a5,a5,1580 # 8017a62c <_end+0xffff762c>
80001eac:	0037c583          	lbu	a1,3(a5)
80001eb0:	8017a737          	lui	a4,0x8017a
80001eb4:	0047c783          	lbu	a5,4(a5)
80001eb8:	64075503          	lhu	a0,1600(a4) # 8017a640 <_end+0xffff7640>
80001ebc:	00f5f5b3          	and	a1,a1,a5
80001ec0:	6f10106f          	j	80003db0 <memory_writeb>

80001ec4 <cpu_op_bcs>:
80001ec4:	ff010113          	addi	sp,sp,-16
80001ec8:	00812423          	sw	s0,8(sp)
80001ecc:	8017a437          	lui	s0,0x8017a
80001ed0:	62c40413          	addi	s0,s0,1580 # 8017a62c <_end+0xffff762c>
80001ed4:	00644503          	lbu	a0,6(s0)
80001ed8:	00000613          	li	a2,0
80001edc:	00000593          	li	a1,0
80001ee0:	00112623          	sw	ra,12(sp)
80001ee4:	92cfe0ef          	jal	ra,80000010 <common_bit_set>
80001ee8:	00050863          	beqz	a0,80001ef8 <cpu_op_bcs+0x34>
80001eec:	8017a7b7          	lui	a5,0x8017a
80001ef0:	6407a783          	lw	a5,1600(a5) # 8017a640 <_end+0xffff7640>
80001ef4:	00f41023          	sh	a5,0(s0)
80001ef8:	00c12083          	lw	ra,12(sp)
80001efc:	00812403          	lw	s0,8(sp)
80001f00:	01010113          	addi	sp,sp,16
80001f04:	00008067          	ret

80001f08 <cpu_op_beq>:
80001f08:	ff010113          	addi	sp,sp,-16
80001f0c:	00812423          	sw	s0,8(sp)
80001f10:	8017a437          	lui	s0,0x8017a
80001f14:	62c40413          	addi	s0,s0,1580 # 8017a62c <_end+0xffff762c>
80001f18:	00644503          	lbu	a0,6(s0)
80001f1c:	00100613          	li	a2,1
80001f20:	00000593          	li	a1,0
80001f24:	00112623          	sw	ra,12(sp)
80001f28:	8e8fe0ef          	jal	ra,80000010 <common_bit_set>
80001f2c:	00050863          	beqz	a0,80001f3c <cpu_op_beq+0x34>
80001f30:	8017a7b7          	lui	a5,0x8017a
80001f34:	6407a783          	lw	a5,1600(a5) # 8017a640 <_end+0xffff7640>
80001f38:	00f41023          	sh	a5,0(s0)
80001f3c:	00c12083          	lw	ra,12(sp)
80001f40:	00812403          	lw	s0,8(sp)
80001f44:	01010113          	addi	sp,sp,16
80001f48:	00008067          	ret

80001f4c <cpu_op_bmi>:
80001f4c:	ff010113          	addi	sp,sp,-16
80001f50:	00812423          	sw	s0,8(sp)
80001f54:	8017a437          	lui	s0,0x8017a
80001f58:	62c40413          	addi	s0,s0,1580 # 8017a62c <_end+0xffff762c>
80001f5c:	00644503          	lbu	a0,6(s0)
80001f60:	00700613          	li	a2,7
80001f64:	00000593          	li	a1,0
80001f68:	00112623          	sw	ra,12(sp)
80001f6c:	8a4fe0ef          	jal	ra,80000010 <common_bit_set>
80001f70:	00050863          	beqz	a0,80001f80 <cpu_op_bmi+0x34>
80001f74:	8017a7b7          	lui	a5,0x8017a
80001f78:	6407a783          	lw	a5,1600(a5) # 8017a640 <_end+0xffff7640>
80001f7c:	00f41023          	sh	a5,0(s0)
80001f80:	00c12083          	lw	ra,12(sp)
80001f84:	00812403          	lw	s0,8(sp)
80001f88:	01010113          	addi	sp,sp,16
80001f8c:	00008067          	ret

80001f90 <cpu_op_bvs>:
80001f90:	ff010113          	addi	sp,sp,-16
80001f94:	00812423          	sw	s0,8(sp)
80001f98:	8017a437          	lui	s0,0x8017a
80001f9c:	62c40413          	addi	s0,s0,1580 # 8017a62c <_end+0xffff762c>
80001fa0:	00644503          	lbu	a0,6(s0)
80001fa4:	00600613          	li	a2,6
80001fa8:	00000593          	li	a1,0
80001fac:	00112623          	sw	ra,12(sp)
80001fb0:	860fe0ef          	jal	ra,80000010 <common_bit_set>
80001fb4:	00050863          	beqz	a0,80001fc4 <cpu_op_bvs+0x34>
80001fb8:	8017a7b7          	lui	a5,0x8017a
80001fbc:	6407a783          	lw	a5,1600(a5) # 8017a640 <_end+0xffff7640>
80001fc0:	00f41023          	sh	a5,0(s0)
80001fc4:	00c12083          	lw	ra,12(sp)
80001fc8:	00812403          	lw	s0,8(sp)
80001fcc:	01010113          	addi	sp,sp,16
80001fd0:	00008067          	ret

80001fd4 <cpu_op_bne>:
80001fd4:	ff010113          	addi	sp,sp,-16
80001fd8:	00812423          	sw	s0,8(sp)
80001fdc:	8017a437          	lui	s0,0x8017a
80001fe0:	62c40413          	addi	s0,s0,1580 # 8017a62c <_end+0xffff762c>
80001fe4:	00644503          	lbu	a0,6(s0)
80001fe8:	00100613          	li	a2,1
80001fec:	00000593          	li	a1,0
80001ff0:	00112623          	sw	ra,12(sp)
80001ff4:	81cfe0ef          	jal	ra,80000010 <common_bit_set>
80001ff8:	00051863          	bnez	a0,80002008 <cpu_op_bne+0x34>
80001ffc:	8017a7b7          	lui	a5,0x8017a
80002000:	6407a783          	lw	a5,1600(a5) # 8017a640 <_end+0xffff7640>
80002004:	00f41023          	sh	a5,0(s0)
80002008:	00c12083          	lw	ra,12(sp)
8000200c:	00812403          	lw	s0,8(sp)
80002010:	01010113          	addi	sp,sp,16
80002014:	00008067          	ret

80002018 <cpu_op_bcc>:
80002018:	ff010113          	addi	sp,sp,-16
8000201c:	00812423          	sw	s0,8(sp)
80002020:	8017a437          	lui	s0,0x8017a
80002024:	62c40413          	addi	s0,s0,1580 # 8017a62c <_end+0xffff762c>
80002028:	00644503          	lbu	a0,6(s0)
8000202c:	00000613          	li	a2,0
80002030:	00000593          	li	a1,0
80002034:	00112623          	sw	ra,12(sp)
80002038:	fd9fd0ef          	jal	ra,80000010 <common_bit_set>
8000203c:	00051863          	bnez	a0,8000204c <cpu_op_bcc+0x34>
80002040:	8017a7b7          	lui	a5,0x8017a
80002044:	6407a783          	lw	a5,1600(a5) # 8017a640 <_end+0xffff7640>
80002048:	00f41023          	sh	a5,0(s0)
8000204c:	00c12083          	lw	ra,12(sp)
80002050:	00812403          	lw	s0,8(sp)
80002054:	01010113          	addi	sp,sp,16
80002058:	00008067          	ret

8000205c <cpu_op_bpl>:
8000205c:	ff010113          	addi	sp,sp,-16
80002060:	00812423          	sw	s0,8(sp)
80002064:	8017a437          	lui	s0,0x8017a
80002068:	62c40413          	addi	s0,s0,1580 # 8017a62c <_end+0xffff762c>
8000206c:	00644503          	lbu	a0,6(s0)
80002070:	00700613          	li	a2,7
80002074:	00000593          	li	a1,0
80002078:	00112623          	sw	ra,12(sp)
8000207c:	f95fd0ef          	jal	ra,80000010 <common_bit_set>
80002080:	00051863          	bnez	a0,80002090 <cpu_op_bpl+0x34>
80002084:	8017a7b7          	lui	a5,0x8017a
80002088:	6407a783          	lw	a5,1600(a5) # 8017a640 <_end+0xffff7640>
8000208c:	00f41023          	sh	a5,0(s0)
80002090:	00c12083          	lw	ra,12(sp)
80002094:	00812403          	lw	s0,8(sp)
80002098:	01010113          	addi	sp,sp,16
8000209c:	00008067          	ret

800020a0 <cpu_op_bvc>:
800020a0:	ff010113          	addi	sp,sp,-16
800020a4:	00812423          	sw	s0,8(sp)
800020a8:	8017a437          	lui	s0,0x8017a
800020ac:	62c40413          	addi	s0,s0,1580 # 8017a62c <_end+0xffff762c>
800020b0:	00644503          	lbu	a0,6(s0)
800020b4:	00600613          	li	a2,6
800020b8:	00000593          	li	a1,0
800020bc:	00112623          	sw	ra,12(sp)
800020c0:	f51fd0ef          	jal	ra,80000010 <common_bit_set>
800020c4:	00051863          	bnez	a0,800020d4 <cpu_op_bvc+0x34>
800020c8:	8017a7b7          	lui	a5,0x8017a
800020cc:	6407a783          	lw	a5,1600(a5) # 8017a640 <_end+0xffff7640>
800020d0:	00f41023          	sh	a5,0(s0)
800020d4:	00c12083          	lw	ra,12(sp)
800020d8:	00812403          	lw	s0,8(sp)
800020dc:	01010113          	addi	sp,sp,16
800020e0:	00008067          	ret

800020e4 <cpu_op_adc>:
800020e4:	fe010113          	addi	sp,sp,-32
800020e8:	00812c23          	sw	s0,24(sp)
800020ec:	01212823          	sw	s2,16(sp)
800020f0:	8017a437          	lui	s0,0x8017a
800020f4:	8017a937          	lui	s2,0x8017a
800020f8:	62c40413          	addi	s0,s0,1580 # 8017a62c <_end+0xffff762c>
800020fc:	64c90913          	addi	s2,s2,1612 # 8017a64c <_end+0xffff764c>
80002100:	00912a23          	sw	s1,20(sp)
80002104:	00092783          	lw	a5,0(s2)
80002108:	00344483          	lbu	s1,3(s0)
8000210c:	00644503          	lbu	a0,6(s0)
80002110:	00000613          	li	a2,0
80002114:	00000593          	li	a1,0
80002118:	00112e23          	sw	ra,28(sp)
8000211c:	01312623          	sw	s3,12(sp)
80002120:	00f484b3          	add	s1,s1,a5
80002124:	eedfd0ef          	jal	ra,80000010 <common_bit_set>
80002128:	009504b3          	add	s1,a0,s1
8000212c:	00640993          	addi	s3,s0,6
80002130:	0084d613          	srli	a2,s1,0x8
80002134:	00098513          	mv	a0,s3
80002138:	00167613          	andi	a2,a2,1
8000213c:	00000593          	li	a1,0
80002140:	f25fd0ef          	jal	ra,80000064 <common_modify_bitb>
80002144:	00344783          	lbu	a5,3(s0)
80002148:	00092683          	lw	a3,0(s2)
8000214c:	00098513          	mv	a0,s3
80002150:	0097c733          	xor	a4,a5,s1
80002154:	00d7c633          	xor	a2,a5,a3
80002158:	fff64613          	not	a2,a2
8000215c:	00e67633          	and	a2,a2,a4
80002160:	00765613          	srli	a2,a2,0x7
80002164:	00600593          	li	a1,6
80002168:	00167613          	andi	a2,a2,1
8000216c:	ef9fd0ef          	jal	ra,80000064 <common_modify_bitb>
80002170:	80005737          	lui	a4,0x80005
80002174:	0ff4f693          	zext.b	a3,s1
80002178:	d9470713          	addi	a4,a4,-620 # 80004d94 <_end+0xffe81d94>
8000217c:	00644783          	lbu	a5,6(s0)
80002180:	00d70733          	add	a4,a4,a3
80002184:	00074703          	lbu	a4,0(a4)
80002188:	07d7f793          	andi	a5,a5,125
8000218c:	009401a3          	sb	s1,3(s0)
80002190:	00e7e7b3          	or	a5,a5,a4
80002194:	01c12083          	lw	ra,28(sp)
80002198:	00f40323          	sb	a5,6(s0)
8000219c:	01812403          	lw	s0,24(sp)
800021a0:	01412483          	lw	s1,20(sp)
800021a4:	01012903          	lw	s2,16(sp)
800021a8:	00c12983          	lw	s3,12(sp)
800021ac:	02010113          	addi	sp,sp,32
800021b0:	00008067          	ret

800021b4 <cpu_op_sbc>:
800021b4:	fe010113          	addi	sp,sp,-32
800021b8:	00812c23          	sw	s0,24(sp)
800021bc:	01212823          	sw	s2,16(sp)
800021c0:	8017a437          	lui	s0,0x8017a
800021c4:	8017a937          	lui	s2,0x8017a
800021c8:	62c40413          	addi	s0,s0,1580 # 8017a62c <_end+0xffff762c>
800021cc:	64c90913          	addi	s2,s2,1612 # 8017a64c <_end+0xffff764c>
800021d0:	00912a23          	sw	s1,20(sp)
800021d4:	00092783          	lw	a5,0(s2)
800021d8:	00344483          	lbu	s1,3(s0)
800021dc:	00644503          	lbu	a0,6(s0)
800021e0:	00000613          	li	a2,0
800021e4:	00000593          	li	a1,0
800021e8:	00112e23          	sw	ra,28(sp)
800021ec:	01312623          	sw	s3,12(sp)
800021f0:	40f484b3          	sub	s1,s1,a5
800021f4:	e1dfd0ef          	jal	ra,80000010 <common_bit_set>
800021f8:	00154513          	xori	a0,a0,1
800021fc:	0ff57513          	zext.b	a0,a0
80002200:	40a484b3          	sub	s1,s1,a0
80002204:	0084d613          	srli	a2,s1,0x8
80002208:	00640993          	addi	s3,s0,6
8000220c:	00164613          	xori	a2,a2,1
80002210:	00098513          	mv	a0,s3
80002214:	00167613          	andi	a2,a2,1
80002218:	00000593          	li	a1,0
8000221c:	e49fd0ef          	jal	ra,80000064 <common_modify_bitb>
80002220:	00344603          	lbu	a2,3(s0)
80002224:	00092703          	lw	a4,0(s2)
80002228:	00098513          	mv	a0,s3
8000222c:	009647b3          	xor	a5,a2,s1
80002230:	00e64633          	xor	a2,a2,a4
80002234:	00f67633          	and	a2,a2,a5
80002238:	00765613          	srli	a2,a2,0x7
8000223c:	00600593          	li	a1,6
80002240:	00167613          	andi	a2,a2,1
80002244:	e21fd0ef          	jal	ra,80000064 <common_modify_bitb>
80002248:	800057b7          	lui	a5,0x80005
8000224c:	0ff4f693          	zext.b	a3,s1
80002250:	d9478793          	addi	a5,a5,-620 # 80004d94 <_end+0xffe81d94>
80002254:	00644703          	lbu	a4,6(s0)
80002258:	00d787b3          	add	a5,a5,a3
8000225c:	0007c783          	lbu	a5,0(a5)
80002260:	07d77713          	andi	a4,a4,125
80002264:	009401a3          	sb	s1,3(s0)
80002268:	00e7e7b3          	or	a5,a5,a4
8000226c:	01c12083          	lw	ra,28(sp)
80002270:	00f40323          	sb	a5,6(s0)
80002274:	01812403          	lw	s0,24(sp)
80002278:	01412483          	lw	s1,20(sp)
8000227c:	01012903          	lw	s2,16(sp)
80002280:	00c12983          	lw	s3,12(sp)
80002284:	02010113          	addi	sp,sp,32
80002288:	00008067          	ret

8000228c <cpu_op_ins>:
8000228c:	8017a7b7          	lui	a5,0x8017a
80002290:	64c78793          	addi	a5,a5,1612 # 8017a64c <_end+0xffff764c>
80002294:	0007a583          	lw	a1,0(a5)
80002298:	8017a737          	lui	a4,0x8017a
8000229c:	64075503          	lhu	a0,1600(a4) # 8017a640 <_end+0xffff7640>
800022a0:	ff010113          	addi	sp,sp,-16
800022a4:	00158593          	addi	a1,a1,1
800022a8:	00112623          	sw	ra,12(sp)
800022ac:	0ff5f713          	zext.b	a4,a1
800022b0:	0ff5f593          	zext.b	a1,a1
800022b4:	00e7a023          	sw	a4,0(a5)
800022b8:	2f9010ef          	jal	ra,80003db0 <memory_writeb>
800022bc:	00c12083          	lw	ra,12(sp)
800022c0:	01010113          	addi	sp,sp,16
800022c4:	ef1ff06f          	j	800021b4 <cpu_op_sbc>

800022c8 <cpu_op_bit>:
800022c8:	ff010113          	addi	sp,sp,-16
800022cc:	00812423          	sw	s0,8(sp)
800022d0:	00912223          	sw	s1,4(sp)
800022d4:	8017a437          	lui	s0,0x8017a
800022d8:	8017a4b7          	lui	s1,0x8017a
800022dc:	62c40413          	addi	s0,s0,1580 # 8017a62c <_end+0xffff762c>
800022e0:	64c48493          	addi	s1,s1,1612 # 8017a64c <_end+0xffff764c>
800022e4:	0004a783          	lw	a5,0(s1)
800022e8:	00344603          	lbu	a2,3(s0)
800022ec:	00640513          	addi	a0,s0,6
800022f0:	00100593          	li	a1,1
800022f4:	00f67633          	and	a2,a2,a5
800022f8:	00163613          	seqz	a2,a2
800022fc:	00112623          	sw	ra,12(sp)
80002300:	d65fd0ef          	jal	ra,80000064 <common_modify_bitb>
80002304:	00644783          	lbu	a5,6(s0)
80002308:	0004a703          	lw	a4,0(s1)
8000230c:	00c12083          	lw	ra,12(sp)
80002310:	03f7f793          	andi	a5,a5,63
80002314:	fc077713          	andi	a4,a4,-64
80002318:	00e7e7b3          	or	a5,a5,a4
8000231c:	00f40323          	sb	a5,6(s0)
80002320:	00812403          	lw	s0,8(sp)
80002324:	00412483          	lw	s1,4(sp)
80002328:	01010113          	addi	sp,sp,16
8000232c:	00008067          	ret

80002330 <cpu_op_asla>:
80002330:	ff010113          	addi	sp,sp,-16
80002334:	00812423          	sw	s0,8(sp)
80002338:	8017a437          	lui	s0,0x8017a
8000233c:	62c40413          	addi	s0,s0,1580 # 8017a62c <_end+0xffff762c>
80002340:	00344603          	lbu	a2,3(s0)
80002344:	00640513          	addi	a0,s0,6
80002348:	00000593          	li	a1,0
8000234c:	00765613          	srli	a2,a2,0x7
80002350:	00112623          	sw	ra,12(sp)
80002354:	d11fd0ef          	jal	ra,80000064 <common_modify_bitb>
80002358:	00344783          	lbu	a5,3(s0)
8000235c:	800056b7          	lui	a3,0x80005
80002360:	d9468693          	addi	a3,a3,-620 # 80004d94 <_end+0xffe81d94>
80002364:	00179793          	slli	a5,a5,0x1
80002368:	0ff7f793          	zext.b	a5,a5
8000236c:	00644703          	lbu	a4,6(s0)
80002370:	00f686b3          	add	a3,a3,a5
80002374:	0006c683          	lbu	a3,0(a3)
80002378:	07d77713          	andi	a4,a4,125
8000237c:	00f401a3          	sb	a5,3(s0)
80002380:	00d767b3          	or	a5,a4,a3
80002384:	00c12083          	lw	ra,12(sp)
80002388:	00f40323          	sb	a5,6(s0)
8000238c:	00812403          	lw	s0,8(sp)
80002390:	01010113          	addi	sp,sp,16
80002394:	00008067          	ret

80002398 <cpu_op_asl>:
80002398:	ff010113          	addi	sp,sp,-16
8000239c:	00912223          	sw	s1,4(sp)
800023a0:	8017a4b7          	lui	s1,0x8017a
800023a4:	64c48493          	addi	s1,s1,1612 # 8017a64c <_end+0xffff764c>
800023a8:	0004a603          	lw	a2,0(s1)
800023ac:	00812423          	sw	s0,8(sp)
800023b0:	8017a437          	lui	s0,0x8017a
800023b4:	62c40413          	addi	s0,s0,1580 # 8017a62c <_end+0xffff762c>
800023b8:	00765613          	srli	a2,a2,0x7
800023bc:	00640513          	addi	a0,s0,6
800023c0:	00000593          	li	a1,0
800023c4:	00167613          	andi	a2,a2,1
800023c8:	00112623          	sw	ra,12(sp)
800023cc:	c99fd0ef          	jal	ra,80000064 <common_modify_bitb>
800023d0:	0004a583          	lw	a1,0(s1)
800023d4:	80005737          	lui	a4,0x80005
800023d8:	d9470713          	addi	a4,a4,-620 # 80004d94 <_end+0xffe81d94>
800023dc:	00159593          	slli	a1,a1,0x1
800023e0:	0ff5f693          	zext.b	a3,a1
800023e4:	00644783          	lbu	a5,6(s0)
800023e8:	00d70733          	add	a4,a4,a3
800023ec:	00074703          	lbu	a4,0(a4)
800023f0:	07d7f793          	andi	a5,a5,125
800023f4:	8017a637          	lui	a2,0x8017a
800023f8:	00e7e7b3          	or	a5,a5,a4
800023fc:	00f40323          	sb	a5,6(s0)
80002400:	00812403          	lw	s0,8(sp)
80002404:	00c12083          	lw	ra,12(sp)
80002408:	00d4a023          	sw	a3,0(s1)
8000240c:	64065503          	lhu	a0,1600(a2) # 8017a640 <_end+0xffff7640>
80002410:	00412483          	lw	s1,4(sp)
80002414:	0fe5f593          	andi	a1,a1,254
80002418:	01010113          	addi	sp,sp,16
8000241c:	1950106f          	j	80003db0 <memory_writeb>

80002420 <cpu_op_lsra>:
80002420:	ff010113          	addi	sp,sp,-16
80002424:	00812423          	sw	s0,8(sp)
80002428:	8017a437          	lui	s0,0x8017a
8000242c:	62c40413          	addi	s0,s0,1580 # 8017a62c <_end+0xffff762c>
80002430:	00912223          	sw	s1,4(sp)
80002434:	00344483          	lbu	s1,3(s0)
80002438:	00640513          	addi	a0,s0,6
8000243c:	00000593          	li	a1,0
80002440:	0014f613          	andi	a2,s1,1
80002444:	00112623          	sw	ra,12(sp)
80002448:	c1dfd0ef          	jal	ra,80000064 <common_modify_bitb>
8000244c:	80005737          	lui	a4,0x80005
80002450:	0014d493          	srli	s1,s1,0x1
80002454:	d9470713          	addi	a4,a4,-620 # 80004d94 <_end+0xffe81d94>
80002458:	00644783          	lbu	a5,6(s0)
8000245c:	00970733          	add	a4,a4,s1
80002460:	00074703          	lbu	a4,0(a4)
80002464:	07d7f793          	andi	a5,a5,125
80002468:	009401a3          	sb	s1,3(s0)
8000246c:	00e7e7b3          	or	a5,a5,a4
80002470:	00c12083          	lw	ra,12(sp)
80002474:	00f40323          	sb	a5,6(s0)
80002478:	00812403          	lw	s0,8(sp)
8000247c:	00412483          	lw	s1,4(sp)
80002480:	01010113          	addi	sp,sp,16
80002484:	00008067          	ret

80002488 <cpu_op_lsr>:
80002488:	ff010113          	addi	sp,sp,-16
8000248c:	00812423          	sw	s0,8(sp)
80002490:	8017a437          	lui	s0,0x8017a
80002494:	64c40413          	addi	s0,s0,1612 # 8017a64c <_end+0xffff764c>
80002498:	00042603          	lw	a2,0(s0)
8000249c:	00912223          	sw	s1,4(sp)
800024a0:	8017a4b7          	lui	s1,0x8017a
800024a4:	62c48493          	addi	s1,s1,1580 # 8017a62c <_end+0xffff762c>
800024a8:	00648513          	addi	a0,s1,6
800024ac:	00167613          	andi	a2,a2,1
800024b0:	00000593          	li	a1,0
800024b4:	00112623          	sw	ra,12(sp)
800024b8:	badfd0ef          	jal	ra,80000064 <common_modify_bitb>
800024bc:	00042583          	lw	a1,0(s0)
800024c0:	8017a7b7          	lui	a5,0x8017a
800024c4:	6407d503          	lhu	a0,1600(a5) # 8017a640 <_end+0xffff7640>
800024c8:	4015d593          	srai	a1,a1,0x1
800024cc:	0ff5f793          	zext.b	a5,a1
800024d0:	0ff5f593          	zext.b	a1,a1
800024d4:	00f42023          	sw	a5,0(s0)
800024d8:	0d9010ef          	jal	ra,80003db0 <memory_writeb>
800024dc:	00042683          	lw	a3,0(s0)
800024e0:	800057b7          	lui	a5,0x80005
800024e4:	d9478793          	addi	a5,a5,-620 # 80004d94 <_end+0xffe81d94>
800024e8:	0064c703          	lbu	a4,6(s1)
800024ec:	00d787b3          	add	a5,a5,a3
800024f0:	0007c783          	lbu	a5,0(a5)
800024f4:	00c12083          	lw	ra,12(sp)
800024f8:	00812403          	lw	s0,8(sp)
800024fc:	07d77713          	andi	a4,a4,125
80002500:	00e7e7b3          	or	a5,a5,a4
80002504:	00f48323          	sb	a5,6(s1)
80002508:	00412483          	lw	s1,4(sp)
8000250c:	01010113          	addi	sp,sp,16
80002510:	00008067          	ret

80002514 <cpu_op_rola>:
80002514:	ff010113          	addi	sp,sp,-16
80002518:	00812423          	sw	s0,8(sp)
8000251c:	8017a437          	lui	s0,0x8017a
80002520:	62c40413          	addi	s0,s0,1580 # 8017a62c <_end+0xffff762c>
80002524:	00912223          	sw	s1,4(sp)
80002528:	00644503          	lbu	a0,6(s0)
8000252c:	00344483          	lbu	s1,3(s0)
80002530:	00000613          	li	a2,0
80002534:	00000593          	li	a1,0
80002538:	00112623          	sw	ra,12(sp)
8000253c:	00149493          	slli	s1,s1,0x1
80002540:	ad1fd0ef          	jal	ra,80000010 <common_bit_set>
80002544:	009564b3          	or	s1,a0,s1
80002548:	1004a613          	slti	a2,s1,256
8000254c:	00640513          	addi	a0,s0,6
80002550:	00164613          	xori	a2,a2,1
80002554:	00000593          	li	a1,0
80002558:	b0dfd0ef          	jal	ra,80000064 <common_modify_bitb>
8000255c:	80005737          	lui	a4,0x80005
80002560:	0ff4f693          	zext.b	a3,s1
80002564:	d9470713          	addi	a4,a4,-620 # 80004d94 <_end+0xffe81d94>
80002568:	00644783          	lbu	a5,6(s0)
8000256c:	00d70733          	add	a4,a4,a3
80002570:	00074703          	lbu	a4,0(a4)
80002574:	07d7f793          	andi	a5,a5,125
80002578:	009401a3          	sb	s1,3(s0)
8000257c:	00e7e7b3          	or	a5,a5,a4
80002580:	00c12083          	lw	ra,12(sp)
80002584:	00f40323          	sb	a5,6(s0)
80002588:	00812403          	lw	s0,8(sp)
8000258c:	00412483          	lw	s1,4(sp)
80002590:	01010113          	addi	sp,sp,16
80002594:	00008067          	ret

80002598 <cpu_op_rol>:
80002598:	ff010113          	addi	sp,sp,-16
8000259c:	00812423          	sw	s0,8(sp)
800025a0:	8017a437          	lui	s0,0x8017a
800025a4:	64c40413          	addi	s0,s0,1612 # 8017a64c <_end+0xffff764c>
800025a8:	00912223          	sw	s1,4(sp)
800025ac:	8017a4b7          	lui	s1,0x8017a
800025b0:	62c48493          	addi	s1,s1,1580 # 8017a62c <_end+0xffff762c>
800025b4:	00042783          	lw	a5,0(s0)
800025b8:	0064c503          	lbu	a0,6(s1)
800025bc:	00000613          	li	a2,0
800025c0:	00179793          	slli	a5,a5,0x1
800025c4:	00000593          	li	a1,0
800025c8:	00112623          	sw	ra,12(sp)
800025cc:	00f42023          	sw	a5,0(s0)
800025d0:	a41fd0ef          	jal	ra,80000010 <common_bit_set>
800025d4:	00042703          	lw	a4,0(s0)
800025d8:	00050793          	mv	a5,a0
800025dc:	00000593          	li	a1,0
800025e0:	00e7e7b3          	or	a5,a5,a4
800025e4:	1007a613          	slti	a2,a5,256
800025e8:	00648513          	addi	a0,s1,6
800025ec:	00164613          	xori	a2,a2,1
800025f0:	00f42023          	sw	a5,0(s0)
800025f4:	a71fd0ef          	jal	ra,80000064 <common_modify_bitb>
800025f8:	00042583          	lw	a1,0(s0)
800025fc:	8017a7b7          	lui	a5,0x8017a
80002600:	6407d503          	lhu	a0,1600(a5) # 8017a640 <_end+0xffff7640>
80002604:	0ff5f793          	zext.b	a5,a1
80002608:	0ff5f593          	zext.b	a1,a1
8000260c:	00f42023          	sw	a5,0(s0)
80002610:	7a0010ef          	jal	ra,80003db0 <memory_writeb>
80002614:	00042683          	lw	a3,0(s0)
80002618:	80005737          	lui	a4,0x80005
8000261c:	d9470713          	addi	a4,a4,-620 # 80004d94 <_end+0xffe81d94>
80002620:	0064c783          	lbu	a5,6(s1)
80002624:	00d70733          	add	a4,a4,a3
80002628:	00074703          	lbu	a4,0(a4)
8000262c:	00c12083          	lw	ra,12(sp)
80002630:	00812403          	lw	s0,8(sp)
80002634:	07d7f793          	andi	a5,a5,125
80002638:	00e7e7b3          	or	a5,a5,a4
8000263c:	00f48323          	sb	a5,6(s1)
80002640:	00412483          	lw	s1,4(sp)
80002644:	01010113          	addi	sp,sp,16
80002648:	00008067          	ret

8000264c <cpu_op_rora>:
8000264c:	ff010113          	addi	sp,sp,-16
80002650:	00812423          	sw	s0,8(sp)
80002654:	8017a437          	lui	s0,0x8017a
80002658:	62c40413          	addi	s0,s0,1580 # 8017a62c <_end+0xffff762c>
8000265c:	00644503          	lbu	a0,6(s0)
80002660:	00000613          	li	a2,0
80002664:	00000593          	li	a1,0
80002668:	00112623          	sw	ra,12(sp)
8000266c:	00912223          	sw	s1,4(sp)
80002670:	01212023          	sw	s2,0(sp)
80002674:	99dfd0ef          	jal	ra,80000010 <common_bit_set>
80002678:	00344603          	lbu	a2,3(s0)
8000267c:	00640913          	addi	s2,s0,6
80002680:	00050493          	mv	s1,a0
80002684:	00000593          	li	a1,0
80002688:	00090513          	mv	a0,s2
8000268c:	00167613          	andi	a2,a2,1
80002690:	9d5fd0ef          	jal	ra,80000064 <common_modify_bitb>
80002694:	00344783          	lbu	a5,3(s0)
80002698:	00749713          	slli	a4,s1,0x7
8000269c:	00090513          	mv	a0,s2
800026a0:	0017d793          	srli	a5,a5,0x1
800026a4:	00e7e7b3          	or	a5,a5,a4
800026a8:	0ff7f793          	zext.b	a5,a5
800026ac:	00100593          	li	a1,1
800026b0:	0017b613          	seqz	a2,a5
800026b4:	00f401a3          	sb	a5,3(s0)
800026b8:	9adfd0ef          	jal	ra,80000064 <common_modify_bitb>
800026bc:	00812403          	lw	s0,8(sp)
800026c0:	00c12083          	lw	ra,12(sp)
800026c4:	00048613          	mv	a2,s1
800026c8:	00090513          	mv	a0,s2
800026cc:	00412483          	lw	s1,4(sp)
800026d0:	00012903          	lw	s2,0(sp)
800026d4:	00700593          	li	a1,7
800026d8:	01010113          	addi	sp,sp,16
800026dc:	989fd06f          	j	80000064 <common_modify_bitb>

800026e0 <cpu_op_ror>:
800026e0:	ff010113          	addi	sp,sp,-16
800026e4:	00812423          	sw	s0,8(sp)
800026e8:	8017a437          	lui	s0,0x8017a
800026ec:	00112623          	sw	ra,12(sp)
800026f0:	00912223          	sw	s1,4(sp)
800026f4:	01212023          	sw	s2,0(sp)
800026f8:	62c40413          	addi	s0,s0,1580 # 8017a62c <_end+0xffff762c>
800026fc:	00644503          	lbu	a0,6(s0)
80002700:	00000613          	li	a2,0
80002704:	00000593          	li	a1,0
80002708:	8017a4b7          	lui	s1,0x8017a
8000270c:	905fd0ef          	jal	ra,80000010 <common_bit_set>
80002710:	64c48493          	addi	s1,s1,1612 # 8017a64c <_end+0xffff764c>
80002714:	0004a603          	lw	a2,0(s1)
80002718:	00640413          	addi	s0,s0,6
8000271c:	00050913          	mv	s2,a0
80002720:	00000593          	li	a1,0
80002724:	00040513          	mv	a0,s0
80002728:	00167613          	andi	a2,a2,1
8000272c:	939fd0ef          	jal	ra,80000064 <common_modify_bitb>
80002730:	0004a783          	lw	a5,0(s1)
80002734:	00791713          	slli	a4,s2,0x7
80002738:	00040513          	mv	a0,s0
8000273c:	4017d793          	srai	a5,a5,0x1
80002740:	00e7e7b3          	or	a5,a5,a4
80002744:	0ff7f793          	zext.b	a5,a5
80002748:	0017b613          	seqz	a2,a5
8000274c:	00100593          	li	a1,1
80002750:	00f4a023          	sw	a5,0(s1)
80002754:	911fd0ef          	jal	ra,80000064 <common_modify_bitb>
80002758:	00040513          	mv	a0,s0
8000275c:	00090613          	mv	a2,s2
80002760:	00700593          	li	a1,7
80002764:	901fd0ef          	jal	ra,80000064 <common_modify_bitb>
80002768:	8017a7b7          	lui	a5,0x8017a
8000276c:	00812403          	lw	s0,8(sp)
80002770:	0004c583          	lbu	a1,0(s1)
80002774:	00c12083          	lw	ra,12(sp)
80002778:	00412483          	lw	s1,4(sp)
8000277c:	00012903          	lw	s2,0(sp)
80002780:	6407d503          	lhu	a0,1600(a5) # 8017a640 <_end+0xffff7640>
80002784:	01010113          	addi	sp,sp,16
80002788:	6280106f          	j	80003db0 <memory_writeb>

8000278c <cpu_op_rra>:
8000278c:	ff010113          	addi	sp,sp,-16
80002790:	00112623          	sw	ra,12(sp)
80002794:	f4dff0ef          	jal	ra,800026e0 <cpu_op_ror>
80002798:	00c12083          	lw	ra,12(sp)
8000279c:	01010113          	addi	sp,sp,16
800027a0:	945ff06f          	j	800020e4 <cpu_op_adc>

800027a4 <cpu_op_cmp>:
800027a4:	ff010113          	addi	sp,sp,-16
800027a8:	00812423          	sw	s0,8(sp)
800027ac:	8017a437          	lui	s0,0x8017a
800027b0:	00112623          	sw	ra,12(sp)
800027b4:	00912223          	sw	s1,4(sp)
800027b8:	62c40413          	addi	s0,s0,1580 # 8017a62c <_end+0xffff762c>
800027bc:	8017a7b7          	lui	a5,0x8017a
800027c0:	00344483          	lbu	s1,3(s0)
800027c4:	64c7a783          	lw	a5,1612(a5) # 8017a64c <_end+0xffff764c>
800027c8:	00640413          	addi	s0,s0,6
800027cc:	00040513          	mv	a0,s0
800027d0:	40f484b3          	sub	s1,s1,a5
800027d4:	fff4c613          	not	a2,s1
800027d8:	00000593          	li	a1,0
800027dc:	01f65613          	srli	a2,a2,0x1f
800027e0:	885fd0ef          	jal	ra,80000064 <common_modify_bitb>
800027e4:	0014b613          	seqz	a2,s1
800027e8:	00040513          	mv	a0,s0
800027ec:	00100593          	li	a1,1
800027f0:	875fd0ef          	jal	ra,80000064 <common_modify_bitb>
800027f4:	00040513          	mv	a0,s0
800027f8:	00812403          	lw	s0,8(sp)
800027fc:	00c12083          	lw	ra,12(sp)
80002800:	4074d613          	srai	a2,s1,0x7
80002804:	00412483          	lw	s1,4(sp)
80002808:	00167613          	andi	a2,a2,1
8000280c:	00700593          	li	a1,7
80002810:	01010113          	addi	sp,sp,16
80002814:	851fd06f          	j	80000064 <common_modify_bitb>

80002818 <cpu_op_dcm>:
80002818:	8017a7b7          	lui	a5,0x8017a
8000281c:	64c78793          	addi	a5,a5,1612 # 8017a64c <_end+0xffff764c>
80002820:	0007a583          	lw	a1,0(a5)
80002824:	8017a737          	lui	a4,0x8017a
80002828:	64075503          	lhu	a0,1600(a4) # 8017a640 <_end+0xffff7640>
8000282c:	ff010113          	addi	sp,sp,-16
80002830:	fff58593          	addi	a1,a1,-1
80002834:	00112623          	sw	ra,12(sp)
80002838:	0ff5f713          	zext.b	a4,a1
8000283c:	0ff5f593          	zext.b	a1,a1
80002840:	00e7a023          	sw	a4,0(a5)
80002844:	56c010ef          	jal	ra,80003db0 <memory_writeb>
80002848:	00c12083          	lw	ra,12(sp)
8000284c:	01010113          	addi	sp,sp,16
80002850:	f55ff06f          	j	800027a4 <cpu_op_cmp>

80002854 <cpu_op_cpx>:
80002854:	ff010113          	addi	sp,sp,-16
80002858:	00812423          	sw	s0,8(sp)
8000285c:	8017a437          	lui	s0,0x8017a
80002860:	00112623          	sw	ra,12(sp)
80002864:	00912223          	sw	s1,4(sp)
80002868:	62c40413          	addi	s0,s0,1580 # 8017a62c <_end+0xffff762c>
8000286c:	8017a7b7          	lui	a5,0x8017a
80002870:	00444483          	lbu	s1,4(s0)
80002874:	64c7a783          	lw	a5,1612(a5) # 8017a64c <_end+0xffff764c>
80002878:	00640413          	addi	s0,s0,6
8000287c:	00040513          	mv	a0,s0
80002880:	40f484b3          	sub	s1,s1,a5
80002884:	fff4c613          	not	a2,s1
80002888:	00000593          	li	a1,0
8000288c:	01f65613          	srli	a2,a2,0x1f
80002890:	fd4fd0ef          	jal	ra,80000064 <common_modify_bitb>
80002894:	0014b613          	seqz	a2,s1
80002898:	00040513          	mv	a0,s0
8000289c:	00100593          	li	a1,1
800028a0:	fc4fd0ef          	jal	ra,80000064 <common_modify_bitb>
800028a4:	00040513          	mv	a0,s0
800028a8:	00812403          	lw	s0,8(sp)
800028ac:	00c12083          	lw	ra,12(sp)
800028b0:	4074d613          	srai	a2,s1,0x7
800028b4:	00412483          	lw	s1,4(sp)
800028b8:	00167613          	andi	a2,a2,1
800028bc:	00700593          	li	a1,7
800028c0:	01010113          	addi	sp,sp,16
800028c4:	fa0fd06f          	j	80000064 <common_modify_bitb>

800028c8 <cpu_op_cpy>:
800028c8:	ff010113          	addi	sp,sp,-16
800028cc:	00812423          	sw	s0,8(sp)
800028d0:	8017a437          	lui	s0,0x8017a
800028d4:	00112623          	sw	ra,12(sp)
800028d8:	00912223          	sw	s1,4(sp)
800028dc:	62c40413          	addi	s0,s0,1580 # 8017a62c <_end+0xffff762c>
800028e0:	8017a7b7          	lui	a5,0x8017a
800028e4:	00544483          	lbu	s1,5(s0)
800028e8:	64c7a783          	lw	a5,1612(a5) # 8017a64c <_end+0xffff764c>
800028ec:	00640413          	addi	s0,s0,6
800028f0:	00040513          	mv	a0,s0
800028f4:	40f484b3          	sub	s1,s1,a5
800028f8:	fff4c613          	not	a2,s1
800028fc:	00000593          	li	a1,0
80002900:	01f65613          	srli	a2,a2,0x1f
80002904:	f60fd0ef          	jal	ra,80000064 <common_modify_bitb>
80002908:	0014b613          	seqz	a2,s1
8000290c:	00040513          	mv	a0,s0
80002910:	00100593          	li	a1,1
80002914:	f50fd0ef          	jal	ra,80000064 <common_modify_bitb>
80002918:	00040513          	mv	a0,s0
8000291c:	00812403          	lw	s0,8(sp)
80002920:	00c12083          	lw	ra,12(sp)
80002924:	4074d613          	srai	a2,s1,0x7
80002928:	00412483          	lw	s1,4(sp)
8000292c:	00167613          	andi	a2,a2,1
80002930:	00700593          	li	a1,7
80002934:	01010113          	addi	sp,sp,16
80002938:	f2cfd06f          	j	80000064 <common_modify_bitb>

8000293c <cpu_op_clc>:
8000293c:	8017a537          	lui	a0,0x8017a
80002940:	00000593          	li	a1,0
80002944:	63250513          	addi	a0,a0,1586 # 8017a632 <_end+0xffff7632>
80002948:	f00fd06f          	j	80000048 <common_unset_bitb>

8000294c <cpu_op_cld>:
8000294c:	8017a537          	lui	a0,0x8017a
80002950:	00300593          	li	a1,3
80002954:	63250513          	addi	a0,a0,1586 # 8017a632 <_end+0xffff7632>
80002958:	ef0fd06f          	j	80000048 <common_unset_bitb>

8000295c <cpu_op_cli>:
8000295c:	8017a537          	lui	a0,0x8017a
80002960:	00200593          	li	a1,2
80002964:	63250513          	addi	a0,a0,1586 # 8017a632 <_end+0xffff7632>
80002968:	ee0fd06f          	j	80000048 <common_unset_bitb>

8000296c <cpu_op_clv>:
8000296c:	8017a537          	lui	a0,0x8017a
80002970:	00600593          	li	a1,6
80002974:	63250513          	addi	a0,a0,1586 # 8017a632 <_end+0xffff7632>
80002978:	ed0fd06f          	j	80000048 <common_unset_bitb>

8000297c <cpu_op_sec>:
8000297c:	8017a537          	lui	a0,0x8017a
80002980:	00000593          	li	a1,0
80002984:	63250513          	addi	a0,a0,1586 # 8017a632 <_end+0xffff7632>
80002988:	ea8fd06f          	j	80000030 <common_set_bitb>

8000298c <cpu_op_sed>:
8000298c:	8017a537          	lui	a0,0x8017a
80002990:	00300593          	li	a1,3
80002994:	63250513          	addi	a0,a0,1586 # 8017a632 <_end+0xffff7632>
80002998:	e98fd06f          	j	80000030 <common_set_bitb>

8000299c <cpu_op_sei>:
8000299c:	8017a537          	lui	a0,0x8017a
800029a0:	00200593          	li	a1,2
800029a4:	63250513          	addi	a0,a0,1586 # 8017a632 <_end+0xffff7632>
800029a8:	e88fd06f          	j	80000030 <common_set_bitb>

800029ac <cpu_op_nop>:
800029ac:	00008067          	ret

800029b0 <cpu_op_rts>:
800029b0:	ff010113          	addi	sp,sp,-16
800029b4:	00812423          	sw	s0,8(sp)
800029b8:	8017a437          	lui	s0,0x8017a
800029bc:	62c40413          	addi	s0,s0,1580 # 8017a62c <_end+0xffff762c>
800029c0:	00244783          	lbu	a5,2(s0)
800029c4:	00112623          	sw	ra,12(sp)
800029c8:	00278793          	addi	a5,a5,2
800029cc:	0ff7f793          	zext.b	a5,a5
800029d0:	0ff78513          	addi	a0,a5,255
800029d4:	00f40123          	sb	a5,2(s0)
800029d8:	4d8010ef          	jal	ra,80003eb0 <memory_readw>
800029dc:	00150513          	addi	a0,a0,1
800029e0:	00c12083          	lw	ra,12(sp)
800029e4:	00a41023          	sh	a0,0(s0)
800029e8:	00812403          	lw	s0,8(sp)
800029ec:	01010113          	addi	sp,sp,16
800029f0:	00008067          	ret

800029f4 <cpu_op_aso>:
800029f4:	ff010113          	addi	sp,sp,-16
800029f8:	00112623          	sw	ra,12(sp)
800029fc:	99dff0ef          	jal	ra,80002398 <cpu_op_asl>
80002a00:	8017a7b7          	lui	a5,0x8017a
80002a04:	62c78793          	addi	a5,a5,1580 # 8017a62c <_end+0xffff762c>
80002a08:	8017a737          	lui	a4,0x8017a
80002a0c:	0037c683          	lbu	a3,3(a5)
80002a10:	64c74703          	lbu	a4,1612(a4) # 8017a64c <_end+0xffff764c>
80002a14:	0067c603          	lbu	a2,6(a5)
80002a18:	00e6e6b3          	or	a3,a3,a4
80002a1c:	80005737          	lui	a4,0x80005
80002a20:	d9470713          	addi	a4,a4,-620 # 80004d94 <_end+0xffe81d94>
80002a24:	00d70733          	add	a4,a4,a3
80002a28:	00074703          	lbu	a4,0(a4)
80002a2c:	07d67613          	andi	a2,a2,125
80002a30:	00d781a3          	sb	a3,3(a5)
80002a34:	00c76733          	or	a4,a4,a2
80002a38:	00e78323          	sb	a4,6(a5)
80002a3c:	00c12083          	lw	ra,12(sp)
80002a40:	01010113          	addi	sp,sp,16
80002a44:	00008067          	ret

80002a48 <cpu_op_lse>:
80002a48:	ff010113          	addi	sp,sp,-16
80002a4c:	00112623          	sw	ra,12(sp)
80002a50:	a39ff0ef          	jal	ra,80002488 <cpu_op_lsr>
80002a54:	8017a7b7          	lui	a5,0x8017a
80002a58:	62c78793          	addi	a5,a5,1580 # 8017a62c <_end+0xffff762c>
80002a5c:	8017a737          	lui	a4,0x8017a
80002a60:	0037c683          	lbu	a3,3(a5)
80002a64:	64c74703          	lbu	a4,1612(a4) # 8017a64c <_end+0xffff764c>
80002a68:	0067c603          	lbu	a2,6(a5)
80002a6c:	00e6c6b3          	xor	a3,a3,a4
80002a70:	80005737          	lui	a4,0x80005
80002a74:	d9470713          	addi	a4,a4,-620 # 80004d94 <_end+0xffe81d94>
80002a78:	00d70733          	add	a4,a4,a3
80002a7c:	00074703          	lbu	a4,0(a4)
80002a80:	07d67613          	andi	a2,a2,125
80002a84:	00d781a3          	sb	a3,3(a5)
80002a88:	00c76733          	or	a4,a4,a2
80002a8c:	00e78323          	sb	a4,6(a5)
80002a90:	00c12083          	lw	ra,12(sp)
80002a94:	01010113          	addi	sp,sp,16
80002a98:	00008067          	ret

80002a9c <cpu_op_rla>:
80002a9c:	ff010113          	addi	sp,sp,-16
80002aa0:	00112623          	sw	ra,12(sp)
80002aa4:	af5ff0ef          	jal	ra,80002598 <cpu_op_rol>
80002aa8:	8017a7b7          	lui	a5,0x8017a
80002aac:	62c78793          	addi	a5,a5,1580 # 8017a62c <_end+0xffff762c>
80002ab0:	8017a737          	lui	a4,0x8017a
80002ab4:	0037c683          	lbu	a3,3(a5)
80002ab8:	64c72703          	lw	a4,1612(a4) # 8017a64c <_end+0xffff764c>
80002abc:	0067c603          	lbu	a2,6(a5)
80002ac0:	00e6f6b3          	and	a3,a3,a4
80002ac4:	80005737          	lui	a4,0x80005
80002ac8:	d9470713          	addi	a4,a4,-620 # 80004d94 <_end+0xffe81d94>
80002acc:	00d70733          	add	a4,a4,a3
80002ad0:	00074703          	lbu	a4,0(a4)
80002ad4:	07d67613          	andi	a2,a2,125
80002ad8:	00d781a3          	sb	a3,3(a5)
80002adc:	00c76733          	or	a4,a4,a2
80002ae0:	00e78323          	sb	a4,6(a5)
80002ae4:	00c12083          	lw	ra,12(sp)
80002ae8:	01010113          	addi	sp,sp,16
80002aec:	00008067          	ret

80002af0 <cpu_op_plp>:
80002af0:	ff010113          	addi	sp,sp,-16
80002af4:	00812423          	sw	s0,8(sp)
80002af8:	8017a437          	lui	s0,0x8017a
80002afc:	62c40413          	addi	s0,s0,1580 # 8017a62c <_end+0xffff762c>
80002b00:	00244783          	lbu	a5,2(s0)
80002b04:	00112623          	sw	ra,12(sp)
80002b08:	00178793          	addi	a5,a5,1
80002b0c:	0ff7f793          	zext.b	a5,a5
80002b10:	10078513          	addi	a0,a5,256
80002b14:	00f40123          	sb	a5,2(s0)
80002b18:	24c010ef          	jal	ra,80003d64 <memory_readb>
80002b1c:	fcf57513          	andi	a0,a0,-49
80002b20:	02056513          	ori	a0,a0,32
80002b24:	00c12083          	lw	ra,12(sp)
80002b28:	00a40323          	sb	a0,6(s0)
80002b2c:	00812403          	lw	s0,8(sp)
80002b30:	01010113          	addi	sp,sp,16
80002b34:	00008067          	ret

80002b38 <cpu_op_pla>:
80002b38:	ff010113          	addi	sp,sp,-16
80002b3c:	00812423          	sw	s0,8(sp)
80002b40:	8017a437          	lui	s0,0x8017a
80002b44:	62c40413          	addi	s0,s0,1580 # 8017a62c <_end+0xffff762c>
80002b48:	00244783          	lbu	a5,2(s0)
80002b4c:	00112623          	sw	ra,12(sp)
80002b50:	00178793          	addi	a5,a5,1
80002b54:	0ff7f793          	zext.b	a5,a5
80002b58:	10078513          	addi	a0,a5,256
80002b5c:	00f40123          	sb	a5,2(s0)
80002b60:	204010ef          	jal	ra,80003d64 <memory_readb>
80002b64:	80005737          	lui	a4,0x80005
80002b68:	d9470713          	addi	a4,a4,-620 # 80004d94 <_end+0xffe81d94>
80002b6c:	00644783          	lbu	a5,6(s0)
80002b70:	00a70733          	add	a4,a4,a0
80002b74:	00074703          	lbu	a4,0(a4)
80002b78:	07d7f793          	andi	a5,a5,125
80002b7c:	00c12083          	lw	ra,12(sp)
80002b80:	00e7e7b3          	or	a5,a5,a4
80002b84:	00a401a3          	sb	a0,3(s0)
80002b88:	00f40323          	sb	a5,6(s0)
80002b8c:	00812403          	lw	s0,8(sp)
80002b90:	01010113          	addi	sp,sp,16
80002b94:	00008067          	ret

80002b98 <cpu_op_pha>:
80002b98:	8017a7b7          	lui	a5,0x8017a
80002b9c:	62c78793          	addi	a5,a5,1580 # 8017a62c <_end+0xffff762c>
80002ba0:	0027c503          	lbu	a0,2(a5)
80002ba4:	0037c583          	lbu	a1,3(a5)
80002ba8:	fff50713          	addi	a4,a0,-1
80002bac:	10050513          	addi	a0,a0,256
80002bb0:	00e78123          	sb	a4,2(a5)
80002bb4:	1fc0106f          	j	80003db0 <memory_writeb>

80002bb8 <cpu_op_rti>:
80002bb8:	ff010113          	addi	sp,sp,-16
80002bbc:	00812423          	sw	s0,8(sp)
80002bc0:	8017a437          	lui	s0,0x8017a
80002bc4:	62c40413          	addi	s0,s0,1580 # 8017a62c <_end+0xffff762c>
80002bc8:	00244783          	lbu	a5,2(s0)
80002bcc:	00112623          	sw	ra,12(sp)
80002bd0:	00178793          	addi	a5,a5,1
80002bd4:	0ff7f793          	zext.b	a5,a5
80002bd8:	10078513          	addi	a0,a5,256
80002bdc:	00f40123          	sb	a5,2(s0)
80002be0:	184010ef          	jal	ra,80003d64 <memory_readb>
80002be4:	00244783          	lbu	a5,2(s0)
80002be8:	02056513          	ori	a0,a0,32
80002bec:	00a40323          	sb	a0,6(s0)
80002bf0:	00278793          	addi	a5,a5,2
80002bf4:	0ff7f793          	zext.b	a5,a5
80002bf8:	0ff78513          	addi	a0,a5,255
80002bfc:	00f40123          	sb	a5,2(s0)
80002c00:	2b0010ef          	jal	ra,80003eb0 <memory_readw>
80002c04:	00c12083          	lw	ra,12(sp)
80002c08:	00a41023          	sh	a0,0(s0)
80002c0c:	00812403          	lw	s0,8(sp)
80002c10:	01010113          	addi	sp,sp,16
80002c14:	00008067          	ret

80002c18 <cpu_op_php>:
80002c18:	8017a7b7          	lui	a5,0x8017a
80002c1c:	62c78793          	addi	a5,a5,1580 # 8017a62c <_end+0xffff762c>
80002c20:	0027c503          	lbu	a0,2(a5)
80002c24:	0067c583          	lbu	a1,6(a5)
80002c28:	fff50713          	addi	a4,a0,-1
80002c2c:	0305e593          	ori	a1,a1,48
80002c30:	10050513          	addi	a0,a0,256
80002c34:	00e78123          	sb	a4,2(a5)
80002c38:	1780106f          	j	80003db0 <memory_writeb>

80002c3c <cpu_op_jsr>:
80002c3c:	ff010113          	addi	sp,sp,-16
80002c40:	00812423          	sw	s0,8(sp)
80002c44:	8017a437          	lui	s0,0x8017a
80002c48:	62c40413          	addi	s0,s0,1580 # 8017a62c <_end+0xffff762c>
80002c4c:	00045583          	lhu	a1,0(s0)
80002c50:	00244503          	lbu	a0,2(s0)
80002c54:	00112623          	sw	ra,12(sp)
80002c58:	fff58593          	addi	a1,a1,-1
80002c5c:	01059593          	slli	a1,a1,0x10
80002c60:	0105d593          	srli	a1,a1,0x10
80002c64:	0ff50513          	addi	a0,a0,255
80002c68:	294010ef          	jal	ra,80003efc <memory_writew>
80002c6c:	00244783          	lbu	a5,2(s0)
80002c70:	8017a737          	lui	a4,0x8017a
80002c74:	64072703          	lw	a4,1600(a4) # 8017a640 <_end+0xffff7640>
80002c78:	ffe78793          	addi	a5,a5,-2
80002c7c:	00c12083          	lw	ra,12(sp)
80002c80:	00f40123          	sb	a5,2(s0)
80002c84:	00e41023          	sh	a4,0(s0)
80002c88:	00812403          	lw	s0,8(sp)
80002c8c:	01010113          	addi	sp,sp,16
80002c90:	00008067          	ret

80002c94 <cpu_op_brk>:
80002c94:	ff010113          	addi	sp,sp,-16
80002c98:	00812423          	sw	s0,8(sp)
80002c9c:	8017a437          	lui	s0,0x8017a
80002ca0:	62c40413          	addi	s0,s0,1580 # 8017a62c <_end+0xffff762c>
80002ca4:	00045583          	lhu	a1,0(s0)
80002ca8:	00244503          	lbu	a0,2(s0)
80002cac:	00112623          	sw	ra,12(sp)
80002cb0:	fff58593          	addi	a1,a1,-1
80002cb4:	01059593          	slli	a1,a1,0x10
80002cb8:	0105d593          	srli	a1,a1,0x10
80002cbc:	0ff50513          	addi	a0,a0,255
80002cc0:	23c010ef          	jal	ra,80003efc <memory_writew>
80002cc4:	00244783          	lbu	a5,2(s0)
80002cc8:	00644583          	lbu	a1,6(s0)
80002ccc:	ffe78513          	addi	a0,a5,-2
80002cd0:	0ff57513          	zext.b	a0,a0
80002cd4:	10050513          	addi	a0,a0,256
80002cd8:	01051513          	slli	a0,a0,0x10
80002cdc:	ffd78793          	addi	a5,a5,-3
80002ce0:	01055513          	srli	a0,a0,0x10
80002ce4:	00f40123          	sb	a5,2(s0)
80002ce8:	0c8010ef          	jal	ra,80003db0 <memory_writeb>
80002cec:	00644783          	lbu	a5,6(s0)
80002cf0:	00010537          	lui	a0,0x10
80002cf4:	ffa50513          	addi	a0,a0,-6 # fffa <_entry_offset+0xfffa>
80002cf8:	0307e793          	ori	a5,a5,48
80002cfc:	00f40323          	sb	a5,6(s0)
80002d00:	1b0010ef          	jal	ra,80003eb0 <memory_readw>
80002d04:	00c12083          	lw	ra,12(sp)
80002d08:	00a41023          	sh	a0,0(s0)
80002d0c:	00812403          	lw	s0,8(sp)
80002d10:	01010113          	addi	sp,sp,16
80002d14:	00008067          	ret

80002d18 <cpu_ram_read>:
80002d18:	801717b7          	lui	a5,0x80171
80002d1c:	7ff57513          	andi	a0,a0,2047
80002d20:	61478793          	addi	a5,a5,1556 # 80171614 <_end+0xfffee614>
80002d24:	00a787b3          	add	a5,a5,a0
80002d28:	0007c503          	lbu	a0,0(a5)
80002d2c:	00008067          	ret

80002d30 <cpu_ram_write>:
80002d30:	801717b7          	lui	a5,0x80171
80002d34:	7ff57513          	andi	a0,a0,2047
80002d38:	61478793          	addi	a5,a5,1556 # 80171614 <_end+0xfffee614>
80002d3c:	00a787b3          	add	a5,a5,a0
80002d40:	00b78023          	sb	a1,0(a5)
80002d44:	00008067          	ret

80002d48 <cpu_init>:
80002d48:	fd010113          	addi	sp,sp,-48
80002d4c:	01712823          	sw	s7,16(sp)
80002d50:	8017a737          	lui	a4,0x8017a
80002d54:	80003bb7          	lui	s7,0x80003
80002d58:	e1470713          	addi	a4,a4,-492 # 80179e14 <_end+0xffff6e14>
80002d5c:	02812623          	sw	s0,44(sp)
80002d60:	02912423          	sw	s1,40(sp)
80002d64:	03212223          	sw	s2,36(sp)
80002d68:	03312023          	sw	s3,32(sp)
80002d6c:	01412e23          	sw	s4,28(sp)
80002d70:	01512c23          	sw	s5,24(sp)
80002d74:	01612a23          	sw	s6,20(sp)
80002d78:	01812623          	sw	s8,12(sp)
80002d7c:	01912423          	sw	s9,8(sp)
80002d80:	01a12223          	sw	s10,4(sp)
80002d84:	01b12023          	sw	s11,0(sp)
80002d88:	c94b8b93          	addi	s7,s7,-876 # 80002c94 <_end+0xffe7fc94>
80002d8c:	01772023          	sw	s7,0(a4)
80002d90:	80003bb7          	lui	s7,0x80003
80002d94:	c18b8b93          	addi	s7,s7,-1000 # 80002c18 <_end+0xffe7fc18>
80002d98:	03772023          	sw	s7,32(a4)
80002d9c:	80002bb7          	lui	s7,0x80002
80002da0:	330b8b93          	addi	s7,s7,816 # 80002330 <_end+0xffe7f330>
80002da4:	8017a6b7          	lui	a3,0x8017a
80002da8:	801797b7          	lui	a5,0x80179
80002dac:	80001837          	lui	a6,0x80001
80002db0:	800018b7          	lui	a7,0x80001
80002db4:	80001937          	lui	s2,0x80001
80002db8:	800019b7          	lui	s3,0x80001
80002dbc:	80002ab7          	lui	s5,0x80002
80002dc0:	80002b37          	lui	s6,0x80002
80002dc4:	61478793          	addi	a5,a5,1556 # 80179614 <_end+0xffff6614>
80002dc8:	a1468693          	addi	a3,a3,-1516 # 80179a14 <_end+0xffff6a14>
80002dcc:	00200593          	li	a1,2
80002dd0:	00600513          	li	a0,6
80002dd4:	f6080813          	addi	a6,a6,-160 # 80000f60 <_end+0xffe7df60>
80002dd8:	fa488893          	addi	a7,a7,-92 # 80000fa4 <_end+0xffe7dfa4>
80002ddc:	00500f93          	li	t6,5
80002de0:	00300f13          	li	t5,3
80002de4:	00700393          	li	t2,7
80002de8:	33090913          	addi	s2,s2,816 # 80001330 <_end+0xffe7e330>
80002dec:	f6498993          	addi	s3,s3,-156 # 80000f64 <_end+0xffe7df64>
80002df0:	a1ca8a93          	addi	s5,s5,-1508 # 80001a1c <_end+0xffe7ea1c>
80002df4:	398b0b13          	addi	s6,s6,920 # 80002398 <_end+0xffe7f398>
80002df8:	03772423          	sw	s7,40(a4)
80002dfc:	80002bb7          	lui	s7,0x80002
80002e00:	0127a223          	sw	s2,4(a5)
80002e04:	0337a223          	sw	s3,36(a5)
80002e08:	0107a023          	sw	a6,0(a5)
80002e0c:	01572223          	sw	s5,4(a4)
80002e10:	01e6aa23          	sw	t5,20(a3)
80002e14:	01572a23          	sw	s5,20(a4)
80002e18:	0117aa23          	sw	a7,20(a5)
80002e1c:	01672c23          	sw	s6,24(a4)
80002e20:	0117ac23          	sw	a7,24(a5)
80002e24:	03e6a023          	sw	t5,32(a3)
80002e28:	0307a023          	sw	a6,32(a5)
80002e2c:	03572223          	sw	s5,36(a4)
80002e30:	05cb8b93          	addi	s7,s7,92 # 8000205c <_end+0xffe7f05c>
80002e34:	0076a023          	sw	t2,0(a3)
80002e38:	00a6a223          	sw	a0,4(a3)
80002e3c:	01f6ac23          	sw	t6,24(a3)
80002e40:	02b6a223          	sw	a1,36(a3)
80002e44:	02b6a423          	sw	a1,40(a3)
80002e48:	0307a423          	sw	a6,40(a5)
80002e4c:	80001337          	lui	t1,0x80001
80002e50:	03572a23          	sw	s5,52(a4)
80002e54:	05772023          	sw	s7,64(a4)
80002e58:	05572223          	sw	s5,68(a4)
80002e5c:	05572a23          	sw	s5,84(a4)
80002e60:	07572223          	sw	s5,100(a4)
80002e64:	07572a23          	sw	s5,116(a4)
80002e68:	800012b7          	lui	t0,0x80001
80002e6c:	80001e37          	lui	t3,0x80001
80002e70:	80001eb7          	lui	t4,0x80001
80002e74:	80001437          	lui	s0,0x80001
80002e78:	800014b7          	lui	s1,0x80001
80002e7c:	80003bb7          	lui	s7,0x80003
80002e80:	80003ab7          	lui	s5,0x80003
80002e84:	00400613          	li	a2,4
80002e88:	0c430313          	addi	t1,t1,196 # 800010c4 <_end+0xffe7e0c4>
80002e8c:	ffce0e13          	addi	t3,t3,-4 # 80000ffc <_end+0xffe7dffc>
80002e90:	110e8e93          	addi	t4,t4,272 # 80001110 <_end+0xffe7e110>
80002e94:	19c40413          	addi	s0,s0,412 # 8000119c <_end+0xffe7e19c>
80002e98:	3c848493          	addi	s1,s1,968 # 800013c8 <_end+0xffe7e3c8>
80002e9c:	22c28293          	addi	t0,t0,556 # 8000122c <_end+0xffe7e22c>
80002ea0:	93cb8b93          	addi	s7,s7,-1732 # 8000293c <_end+0xffe7f93c>
80002ea4:	c3ca8a93          	addi	s5,s5,-964 # 80002c3c <_end+0xffe7fc3c>
80002ea8:	80002cb7          	lui	s9,0x80002
80002eac:	80003d37          	lui	s10,0x80003
80002eb0:	2c8c8c93          	addi	s9,s9,712 # 800022c8 <_end+0xffe7f2c8>
80002eb4:	0457a023          	sw	t0,64(a5)
80002eb8:	0497a223          	sw	s1,68(a5)
80002ebc:	0687a223          	sw	s0,100(a5)
80002ec0:	02c6aa23          	sw	a2,52(a3)
80002ec4:	0267aa23          	sw	t1,52(a5)
80002ec8:	03672c23          	sw	s6,56(a4)
80002ecc:	0267ac23          	sw	t1,56(a5)
80002ed0:	04c6aa23          	sw	a2,84(a3)
80002ed4:	05c7aa23          	sw	t3,84(a5)
80002ed8:	05672c23          	sw	s6,88(a4)
80002edc:	05c7ac23          	sw	t3,88(a5)
80002ee0:	07772023          	sw	s7,96(a4)
80002ee4:	0707a023          	sw	a6,96(a5)
80002ee8:	06c6a223          	sw	a2,100(a3)
80002eec:	06c6aa23          	sw	a2,116(a3)
80002ef0:	07d7aa23          	sw	t4,116(a5)
80002ef4:	07672c23          	sw	s6,120(a4)
80002ef8:	07d7ac23          	sw	t4,120(a5)
80002efc:	09572023          	sw	s5,128(a4)
80002f00:	af0d0d13          	addi	s10,s10,-1296 # 80002af0 <_end+0xffe7faf0>
80002f04:	02a6ac23          	sw	a0,56(a3)
80002f08:	04b6a023          	sw	a1,64(a3)
80002f0c:	05f6a223          	sw	t6,68(a3)
80002f10:	04a6ac23          	sw	a0,88(a3)
80002f14:	06b6a023          	sw	a1,96(a3)
80002f18:	0676ac23          	sw	t2,120(a3)
80002f1c:	08a6a023          	sw	a0,128(a3)
80002f20:	0867a023          	sw	t1,128(a5)
80002f24:	80002a37          	lui	s4,0x80002
80002f28:	09972823          	sw	s9,144(a4)
80002f2c:	0ba72023          	sw	s10,160(a4)
80002f30:	0b972823          	sw	s9,176(a4)
80002f34:	80002c37          	lui	s8,0x80002
80002f38:	80002d37          	lui	s10,0x80002
80002f3c:	80002cb7          	lui	s9,0x80002
80002f40:	99ca0a13          	addi	s4,s4,-1636 # 8000199c <_end+0xffe7e99c>
80002f44:	598c0c13          	addi	s8,s8,1432 # 80002598 <_end+0xffe7f598>
80002f48:	514d0d13          	addi	s10,s10,1300 # 80002514 <_end+0xffe7f514>
80002f4c:	f4cc8c93          	addi	s9,s9,-180 # 80001f4c <_end+0xffe7ef4c>
80002f50:	0927a223          	sw	s2,132(a5)
80002f54:	0b37a223          	sw	s3,164(a5)
80002f58:	09472223          	sw	s4,132(a4)
80002f5c:	09e6a823          	sw	t5,144(a3)
80002f60:	0917a823          	sw	a7,144(a5)
80002f64:	09e6aa23          	sw	t5,148(a3)
80002f68:	09472a23          	sw	s4,148(a4)
80002f6c:	0917aa23          	sw	a7,148(a5)
80002f70:	09872c23          	sw	s8,152(a4)
80002f74:	0917ac23          	sw	a7,152(a5)
80002f78:	0ac6a023          	sw	a2,160(a3)
80002f7c:	0b07a023          	sw	a6,160(a5)
80002f80:	0b472223          	sw	s4,164(a4)
80002f84:	0ba72423          	sw	s10,168(a4)
80002f88:	0b07a423          	sw	a6,168(a5)
80002f8c:	0ac6a823          	sw	a2,176(a3)
80002f90:	0a67a823          	sw	t1,176(a5)
80002f94:	0b472a23          	sw	s4,180(a4)
80002f98:	0a67aa23          	sw	t1,180(a5)
80002f9c:	0b872c23          	sw	s8,184(a4)
80002fa0:	0a67ac23          	sw	t1,184(a5)
80002fa4:	0d972023          	sw	s9,192(a4)
80002fa8:	08a6a223          	sw	a0,132(a3)
80002fac:	09f6ac23          	sw	t6,152(a3)
80002fb0:	0ab6a223          	sw	a1,164(a3)
80002fb4:	0ab6a423          	sw	a1,168(a3)
80002fb8:	0ab6aa23          	sw	a1,180(a3)
80002fbc:	0aa6ac23          	sw	a0,184(a3)
80002fc0:	0cb6a023          	sw	a1,192(a3)
80002fc4:	0c57a023          	sw	t0,192(a5)
80002fc8:	0d472223          	sw	s4,196(a4)
80002fcc:	0d472a23          	sw	s4,212(a4)
80002fd0:	0f472223          	sw	s4,228(a4)
80002fd4:	0f472a23          	sw	s4,244(a4)
80002fd8:	80003a37          	lui	s4,0x80003
80002fdc:	bb8a0a13          	addi	s4,s4,-1096 # 80002bb8 <_end+0xffe7fbb8>
80002fe0:	80002ab7          	lui	s5,0x80002
80002fe4:	80002bb7          	lui	s7,0x80002
80002fe8:	80003cb7          	lui	s9,0x80003
80002fec:	9dca8a93          	addi	s5,s5,-1572 # 800019dc <_end+0xffe7e9dc>
80002ff0:	488b8b93          	addi	s7,s7,1160 # 80002488 <_end+0xffe7f488>
80002ff4:	0d872c23          	sw	s8,216(a4)
80002ff8:	97cc8c93          	addi	s9,s9,-1668 # 8000297c <_end+0xffe7f97c>
80002ffc:	0f872c23          	sw	s8,248(a4)
80003000:	11472023          	sw	s4,256(a4)
80003004:	80002c37          	lui	s8,0x80002
80003008:	80003a37          	lui	s4,0x80003
8000300c:	0c97a223          	sw	s1,196(a5)
80003010:	0e87a223          	sw	s0,228(a5)
80003014:	1127a223          	sw	s2,260(a5)
80003018:	0cc6aa23          	sw	a2,212(a3)
8000301c:	0dc7aa23          	sw	t3,212(a5)
80003020:	0dc7ac23          	sw	t3,216(a5)
80003024:	0f972023          	sw	s9,224(a4)
80003028:	0f07a023          	sw	a6,224(a5)
8000302c:	0ec6a223          	sw	a2,228(a3)
80003030:	0ec6aa23          	sw	a2,244(a3)
80003034:	0fd7aa23          	sw	t4,244(a5)
80003038:	0fd7ac23          	sw	t4,248(a5)
8000303c:	1107a023          	sw	a6,256(a5)
80003040:	11572223          	sw	s5,260(a4)
80003044:	11e6aa23          	sw	t5,276(a3)
80003048:	11572a23          	sw	s5,276(a4)
8000304c:	1117aa23          	sw	a7,276(a5)
80003050:	11772c23          	sw	s7,280(a4)
80003054:	b98a0a13          	addi	s4,s4,-1128 # 80002b98 <_end+0xffe7fb98>
80003058:	0a0c0c13          	addi	s8,s8,160 # 800020a0 <_end+0xffe7f0a0>
8000305c:	0df6a223          	sw	t6,196(a3)
80003060:	0ca6ac23          	sw	a0,216(a3)
80003064:	0eb6a023          	sw	a1,224(a3)
80003068:	0e76ac23          	sw	t2,248(a3)
8000306c:	10a6a023          	sw	a0,256(a3)
80003070:	10a6a223          	sw	a0,260(a3)
80003074:	11f6ac23          	sw	t6,280(a3)
80003078:	1117ac23          	sw	a7,280(a5)
8000307c:	80002b37          	lui	s6,0x80002
80003080:	13472023          	sw	s4,288(a4)
80003084:	15872023          	sw	s8,320(a4)
80003088:	80002a37          	lui	s4,0x80002
8000308c:	80003c37          	lui	s8,0x80003
80003090:	c28b0b13          	addi	s6,s6,-984 # 80001c28 <_end+0xffe7ec28>
80003094:	420a0a13          	addi	s4,s4,1056 # 80002420 <_end+0xffe7f420>
80003098:	95cc0c13          	addi	s8,s8,-1700 # 8000295c <_end+0xffe7f95c>
8000309c:	1337a223          	sw	s3,292(a5)
800030a0:	1457a023          	sw	t0,320(a5)
800030a4:	1497a223          	sw	s1,324(a5)
800030a8:	13e6a023          	sw	t5,288(a3)
800030ac:	1307a023          	sw	a6,288(a5)
800030b0:	13572223          	sw	s5,292(a4)
800030b4:	13472423          	sw	s4,296(a4)
800030b8:	1307a423          	sw	a6,296(a5)
800030bc:	13e6a823          	sw	t5,304(a3)
800030c0:	13672823          	sw	s6,304(a4)
800030c4:	1267a823          	sw	t1,304(a5)
800030c8:	12c6aa23          	sw	a2,308(a3)
800030cc:	13572a23          	sw	s5,308(a4)
800030d0:	1267aa23          	sw	t1,308(a5)
800030d4:	13772c23          	sw	s7,312(a4)
800030d8:	1267ac23          	sw	t1,312(a5)
800030dc:	15572223          	sw	s5,324(a4)
800030e0:	14c6aa23          	sw	a2,340(a3)
800030e4:	15572a23          	sw	s5,340(a4)
800030e8:	15c7aa23          	sw	t3,340(a5)
800030ec:	15772c23          	sw	s7,344(a4)
800030f0:	15c7ac23          	sw	t3,344(a5)
800030f4:	17872023          	sw	s8,352(a4)
800030f8:	12b6a223          	sw	a1,292(a3)
800030fc:	12b6a423          	sw	a1,296(a3)
80003100:	12a6ac23          	sw	a0,312(a3)
80003104:	14b6a023          	sw	a1,320(a3)
80003108:	15f6a223          	sw	t6,324(a3)
8000310c:	14a6ac23          	sw	a0,344(a3)
80003110:	16b6a023          	sw	a1,352(a3)
80003114:	1707a023          	sw	a6,352(a5)
80003118:	17572223          	sw	s5,356(a4)
8000311c:	17572a23          	sw	s5,372(a4)
80003120:	80003ab7          	lui	s5,0x80003
80003124:	9b0a8a93          	addi	s5,s5,-1616 # 800029b0 <_end+0xffe7f9b0>
80003128:	19572023          	sw	s5,384(a4)
8000312c:	80003ab7          	lui	s5,0x80003
80003130:	b38a8a93          	addi	s5,s5,-1224 # 80002b38 <_end+0xffe7fb38>
80003134:	1b572023          	sw	s5,416(a4)
80003138:	80002ab7          	lui	s5,0x80002
8000313c:	64ca8a93          	addi	s5,s5,1612 # 8000264c <_end+0xffe7f64c>
80003140:	80002a37          	lui	s4,0x80002
80003144:	80002d37          	lui	s10,0x80002
80003148:	0e4a0a13          	addi	s4,s4,228 # 800020e4 <_end+0xffe7f0e4>
8000314c:	6e0d0d13          	addi	s10,s10,1760 # 800026e0 <_end+0xffe7f6e0>
80003150:	1b572423          	sw	s5,424(a4)
80003154:	80001ab7          	lui	s5,0x80001
80003158:	1687a223          	sw	s0,356(a5)
8000315c:	1927a223          	sw	s2,388(a5)
80003160:	1b37a223          	sw	s3,420(a5)
80003164:	16c6a223          	sw	a2,356(a3)
80003168:	16c6aa23          	sw	a2,372(a3)
8000316c:	17d7aa23          	sw	t4,372(a5)
80003170:	17772c23          	sw	s7,376(a4)
80003174:	17d7ac23          	sw	t4,376(a5)
80003178:	1907a023          	sw	a6,384(a5)
8000317c:	19472223          	sw	s4,388(a4)
80003180:	19e6aa23          	sw	t5,404(a3)
80003184:	19472a23          	sw	s4,404(a4)
80003188:	1917aa23          	sw	a7,404(a5)
8000318c:	19a72c23          	sw	s10,408(a4)
80003190:	1917ac23          	sw	a7,408(a5)
80003194:	1ac6a023          	sw	a2,416(a3)
80003198:	1b07a023          	sw	a6,416(a5)
8000319c:	1b472223          	sw	s4,420(a4)
800031a0:	1b07a423          	sw	a6,424(a5)
800031a4:	1b672823          	sw	s6,432(a4)
800031a8:	2a4a8a93          	addi	s5,s5,676 # 800012a4 <_end+0xffe7e2a4>
800031ac:	1676ac23          	sw	t2,376(a3)
800031b0:	18a6a023          	sw	a0,384(a3)
800031b4:	18a6a223          	sw	a0,388(a3)
800031b8:	19f6ac23          	sw	t6,408(a3)
800031bc:	1ab6a223          	sw	a1,420(a3)
800031c0:	1ab6a423          	sw	a1,424(a3)
800031c4:	1bf6a823          	sw	t6,432(a3)
800031c8:	1b57a823          	sw	s5,432(a5)
800031cc:	80002ab7          	lui	s5,0x80002
800031d0:	f90a8a93          	addi	s5,s5,-112 # 80001f90 <_end+0xffe7ef90>
800031d4:	1d572023          	sw	s5,448(a4)
800031d8:	80002bb7          	lui	s7,0x80002
800031dc:	80003ab7          	lui	s5,0x80003
800031e0:	d70b8b93          	addi	s7,s7,-656 # 80001d70 <_end+0xffe7ed70>
800031e4:	1b472a23          	sw	s4,436(a4)
800031e8:	1d472223          	sw	s4,452(a4)
800031ec:	1d472a23          	sw	s4,468(a4)
800031f0:	99ca8a93          	addi	s5,s5,-1636 # 8000299c <_end+0xffe7f99c>
800031f4:	1f472223          	sw	s4,484(a4)
800031f8:	1f472a23          	sw	s4,500(a4)
800031fc:	80002a37          	lui	s4,0x80002
80003200:	1c57a023          	sw	t0,448(a5)
80003204:	1c97a223          	sw	s1,452(a5)
80003208:	1e87a223          	sw	s0,484(a5)
8000320c:	1ac6aa23          	sw	a2,436(a3)
80003210:	1a67aa23          	sw	t1,436(a5)
80003214:	1ba72c23          	sw	s10,440(a4)
80003218:	1a67ac23          	sw	t1,440(a5)
8000321c:	1cc6aa23          	sw	a2,468(a3)
80003220:	1dc7aa23          	sw	t3,468(a5)
80003224:	1da72c23          	sw	s10,472(a4)
80003228:	1dc7ac23          	sw	t3,472(a5)
8000322c:	1f572023          	sw	s5,480(a4)
80003230:	1f07a023          	sw	a6,480(a5)
80003234:	1ec6a223          	sw	a2,484(a3)
80003238:	1ec6aa23          	sw	a2,500(a3)
8000323c:	1fd7aa23          	sw	t4,500(a5)
80003240:	1fa72c23          	sw	s10,504(a4)
80003244:	1fd7ac23          	sw	t4,504(a5)
80003248:	21772223          	sw	s7,516(a4)
8000324c:	cf0a0a13          	addi	s4,s4,-784 # 80001cf0 <_end+0xffe7ecf0>
80003250:	1aa6ac23          	sw	a0,440(a3)
80003254:	1cb6a023          	sw	a1,448(a3)
80003258:	1df6a223          	sw	t6,452(a3)
8000325c:	1ca6ac23          	sw	a0,472(a3)
80003260:	1eb6a023          	sw	a1,480(a3)
80003264:	1e76ac23          	sw	t2,504(a3)
80003268:	20a6a223          	sw	a0,516(a3)
8000326c:	2127a223          	sw	s2,516(a5)
80003270:	23472023          	sw	s4,544(a4)
80003274:	80002a37          	lui	s4,0x80002
80003278:	b44a0a13          	addi	s4,s4,-1212 # 80001b44 <_end+0xffe7eb44>
8000327c:	23472423          	sw	s4,552(a4)
80003280:	80002a37          	lui	s4,0x80002
80003284:	018a0a13          	addi	s4,s4,24 # 80002018 <_end+0xffe7f018>
80003288:	80002cb7          	lui	s9,0x80002
8000328c:	80002c37          	lui	s8,0x80002
80003290:	d98c8c93          	addi	s9,s9,-616 # 80001d98 <_end+0xffe7ed98>
80003294:	d84c0c13          	addi	s8,s8,-636 # 80001d84 <_end+0xffe7ed84>
80003298:	25472023          	sw	s4,576(a4)
8000329c:	80002a37          	lui	s4,0x80002
800032a0:	2457a023          	sw	t0,576(a5)
800032a4:	2497a223          	sw	s1,580(a5)
800032a8:	21e6a823          	sw	t5,528(a3)
800032ac:	21972823          	sw	s9,528(a4)
800032b0:	2117a823          	sw	a7,528(a5)
800032b4:	21e6aa23          	sw	t5,532(a3)
800032b8:	21772a23          	sw	s7,532(a4)
800032bc:	2117aa23          	sw	a7,532(a5)
800032c0:	21e6ac23          	sw	t5,536(a3)
800032c4:	21872c23          	sw	s8,536(a4)
800032c8:	2117ac23          	sw	a7,536(a5)
800032cc:	2307a023          	sw	a6,544(a5)
800032d0:	2307a423          	sw	a6,552(a5)
800032d4:	22c6a823          	sw	a2,560(a3)
800032d8:	23972823          	sw	s9,560(a4)
800032dc:	2267a823          	sw	t1,560(a5)
800032e0:	22c6aa23          	sw	a2,564(a3)
800032e4:	23772a23          	sw	s7,564(a4)
800032e8:	2267aa23          	sw	t1,564(a5)
800032ec:	22c6ac23          	sw	a2,568(a3)
800032f0:	23872c23          	sw	s8,568(a4)
800032f4:	2267ac23          	sw	t1,568(a5)
800032f8:	25772223          	sw	s7,580(a4)
800032fc:	24c6a823          	sw	a2,592(a3)
80003300:	25972823          	sw	s9,592(a4)
80003304:	baca0a13          	addi	s4,s4,-1108 # 80001bac <_end+0xffe7ebac>
80003308:	22b6a023          	sw	a1,544(a3)
8000330c:	22b6a423          	sw	a1,552(a3)
80003310:	24b6a023          	sw	a1,576(a3)
80003314:	24a6a223          	sw	a0,580(a3)
80003318:	25c7a823          	sw	t3,592(a5)
8000331c:	27472023          	sw	s4,608(a4)
80003320:	80002a37          	lui	s4,0x80002
80003324:	c14a0a13          	addi	s4,s4,-1004 # 80001c14 <_end+0xffe7ec14>
80003328:	80001b37          	lui	s6,0x80001
8000332c:	80002ab7          	lui	s5,0x80002
80003330:	80002db7          	lui	s11,0x80002
80003334:	80002d37          	lui	s10,0x80002
80003338:	a5ca8a93          	addi	s5,s5,-1444 # 80001a5c <_end+0xffe7ea5c>
8000333c:	ad4d8d93          	addi	s11,s11,-1324 # 80001ad4 <_end+0xffe7ead4>
80003340:	a98d0d13          	addi	s10,s10,-1384 # 80001a98 <_end+0xffe7ea98>
80003344:	060b0b13          	addi	s6,s6,96 # 80001060 <_end+0xffe7e060>
80003348:	27472423          	sw	s4,616(a4)
8000334c:	80002a37          	lui	s4,0x80002
80003350:	2567ac23          	sw	s6,600(a5)
80003354:	2687a223          	sw	s0,612(a5)
80003358:	2937a023          	sw	s3,640(a5)
8000335c:	2927a223          	sw	s2,644(a5)
80003360:	2937a423          	sw	s3,648(a5)
80003364:	24c6aa23          	sw	a2,596(a3)
80003368:	25772a23          	sw	s7,596(a4)
8000336c:	25c7aa23          	sw	t3,596(a5)
80003370:	24c6ac23          	sw	a2,600(a3)
80003374:	25872c23          	sw	s8,600(a4)
80003378:	2707a023          	sw	a6,608(a5)
8000337c:	27772223          	sw	s7,612(a4)
80003380:	2707a423          	sw	a6,616(a5)
80003384:	27772a23          	sw	s7,628(a4)
80003388:	27d7aa23          	sw	t4,628(a5)
8000338c:	29b72023          	sw	s11,640(a4)
80003390:	29572223          	sw	s5,644(a4)
80003394:	29a72423          	sw	s10,648(a4)
80003398:	29e6a823          	sw	t5,656(a3)
8000339c:	29b72823          	sw	s11,656(a4)
800033a0:	2917a823          	sw	a7,656(a5)
800033a4:	29e6aa23          	sw	t5,660(a3)
800033a8:	29572a23          	sw	s5,660(a4)
800033ac:	b78a0a13          	addi	s4,s4,-1160 # 80001b78 <_end+0xffe7eb78>
800033b0:	26b6a023          	sw	a1,608(a3)
800033b4:	27f6a223          	sw	t6,612(a3)
800033b8:	26b6a423          	sw	a1,616(a3)
800033bc:	27f6aa23          	sw	t6,628(a3)
800033c0:	28b6a023          	sw	a1,640(a3)
800033c4:	28a6a223          	sw	a0,644(a3)
800033c8:	28b6a423          	sw	a1,648(a3)
800033cc:	80002bb7          	lui	s7,0x80002
800033d0:	2917aa23          	sw	a7,660(a5)
800033d4:	ec4b8b93          	addi	s7,s7,-316 # 80001ec4 <_end+0xffe7eec4>
800033d8:	2b472023          	sw	s4,672(a4)
800033dc:	80002a37          	lui	s4,0x80002
800033e0:	b10a0a13          	addi	s4,s4,-1264 # 80001b10 <_end+0xffe7eb10>
800033e4:	2d772023          	sw	s7,704(a4)
800033e8:	80003bb7          	lui	s7,0x80003
800033ec:	2b37a223          	sw	s3,676(a5)
800033f0:	2c57a023          	sw	t0,704(a5)
800033f4:	2c97a223          	sw	s1,708(a5)
800033f8:	29e6ac23          	sw	t5,664(a3)
800033fc:	29a72c23          	sw	s10,664(a4)
80003400:	2917ac23          	sw	a7,664(a5)
80003404:	2b07a023          	sw	a6,672(a5)
80003408:	2b572223          	sw	s5,676(a4)
8000340c:	2b472423          	sw	s4,680(a4)
80003410:	2b07a423          	sw	a6,680(a5)
80003414:	2ac6a823          	sw	a2,688(a3)
80003418:	2bb72823          	sw	s11,688(a4)
8000341c:	2a67a823          	sw	t1,688(a5)
80003420:	2ac6aa23          	sw	a2,692(a3)
80003424:	2b572a23          	sw	s5,692(a4)
80003428:	2a67aa23          	sw	t1,692(a5)
8000342c:	2ac6ac23          	sw	a2,696(a3)
80003430:	2ba72c23          	sw	s10,696(a4)
80003434:	2a67ac23          	sw	t1,696(a5)
80003438:	2d572223          	sw	s5,708(a4)
8000343c:	2cc6a823          	sw	a2,720(a3)
80003440:	2db72823          	sw	s11,720(a4)
80003444:	2dc7a823          	sw	t3,720(a5)
80003448:	2cc6aa23          	sw	a2,724(a3)
8000344c:	2d572a23          	sw	s5,724(a4)
80003450:	96cb8b93          	addi	s7,s7,-1684 # 8000296c <_end+0xffe7f96c>
80003454:	2ab6a023          	sw	a1,672(a3)
80003458:	2ab6a223          	sw	a1,676(a3)
8000345c:	2ab6a423          	sw	a1,680(a3)
80003460:	2cb6a023          	sw	a1,704(a3)
80003464:	2df6a223          	sw	t6,708(a3)
80003468:	2dc7aa23          	sw	t3,724(a5)
8000346c:	80002a37          	lui	s4,0x80002
80003470:	2f772023          	sw	s7,736(a4)
80003474:	80003cb7          	lui	s9,0x80003
80003478:	80002bb7          	lui	s7,0x80002
8000347c:	7a4a0a13          	addi	s4,s4,1956 # 800027a4 <_end+0xffe7f7a4>
80003480:	8c8c8c93          	addi	s9,s9,-1848 # 800028c8 <_end+0xffe7f8c8>
80003484:	2f572223          	sw	s5,740(a4)
80003488:	be0b8b93          	addi	s7,s7,-1056 # 80001be0 <_end+0xffe7ebe0>
8000348c:	2f572a23          	sw	s5,756(a4)
80003490:	80002ab7          	lui	s5,0x80002
80003494:	2d67ac23          	sw	s6,728(a5)
80003498:	2e87a223          	sw	s0,740(a5)
8000349c:	2e87ac23          	sw	s0,760(a5)
800034a0:	3137a023          	sw	s3,768(a5)
800034a4:	3127a223          	sw	s2,772(a5)
800034a8:	2cc6ac23          	sw	a2,728(a3)
800034ac:	2da72c23          	sw	s10,728(a4)
800034b0:	2f07a023          	sw	a6,736(a5)
800034b4:	2ec6a223          	sw	a2,740(a3)
800034b8:	2f772423          	sw	s7,744(a4)
800034bc:	2f07a423          	sw	a6,744(a5)
800034c0:	2ec6a823          	sw	a2,752(a3)
800034c4:	2fb72823          	sw	s11,752(a4)
800034c8:	2fd7a823          	sw	t4,752(a5)
800034cc:	2ec6aa23          	sw	a2,756(a3)
800034d0:	2fd7aa23          	sw	t4,756(a5)
800034d4:	2ec6ac23          	sw	a2,760(a3)
800034d8:	2fa72c23          	sw	s10,760(a4)
800034dc:	31972023          	sw	s9,768(a4)
800034e0:	31472223          	sw	s4,772(a4)
800034e4:	31e6a823          	sw	t5,784(a3)
800034e8:	31972823          	sw	s9,784(a4)
800034ec:	3117a823          	sw	a7,784(a5)
800034f0:	31e6aa23          	sw	t5,788(a3)
800034f4:	31472a23          	sw	s4,788(a4)
800034f8:	c78a8a93          	addi	s5,s5,-904 # 80001c78 <_end+0xffe7ec78>
800034fc:	2eb6a023          	sw	a1,736(a3)
80003500:	2eb6a423          	sw	a1,744(a3)
80003504:	30b6a023          	sw	a1,768(a3)
80003508:	30a6a223          	sw	a0,772(a3)
8000350c:	3117aa23          	sw	a7,788(a5)
80003510:	80002c37          	lui	s8,0x80002
80003514:	33572023          	sw	s5,800(a4)
80003518:	33972823          	sw	s9,816(a4)
8000351c:	80002ab7          	lui	s5,0x80002
80003520:	80002cb7          	lui	s9,0x80002
80003524:	e10c0c13          	addi	s8,s8,-496 # 80001e10 <_end+0xffe7ee10>
80003528:	cb4a8a93          	addi	s5,s5,-844 # 80001cb4 <_end+0xffe7ecb4>
8000352c:	fd4c8c93          	addi	s9,s9,-44 # 80001fd4 <_end+0xffe7efd4>
80003530:	3337a223          	sw	s3,804(a5)
80003534:	3457a023          	sw	t0,832(a5)
80003538:	3497a223          	sw	s1,836(a5)
8000353c:	31872c23          	sw	s8,792(a4)
80003540:	3117ac23          	sw	a7,792(a5)
80003544:	3307a023          	sw	a6,800(a5)
80003548:	33472223          	sw	s4,804(a4)
8000354c:	33572423          	sw	s5,808(a4)
80003550:	3307a423          	sw	a6,808(a5)
80003554:	32c6a823          	sw	a2,816(a3)
80003558:	3267a823          	sw	t1,816(a5)
8000355c:	32c6aa23          	sw	a2,820(a3)
80003560:	33472a23          	sw	s4,820(a4)
80003564:	3267aa23          	sw	t1,820(a5)
80003568:	33872c23          	sw	s8,824(a4)
8000356c:	3267ac23          	sw	t1,824(a5)
80003570:	35972023          	sw	s9,832(a4)
80003574:	35472223          	sw	s4,836(a4)
80003578:	34c6aa23          	sw	a2,852(a3)
8000357c:	35472a23          	sw	s4,852(a4)
80003580:	35c7aa23          	sw	t3,852(a5)
80003584:	35872c23          	sw	s8,856(a4)
80003588:	31f6ac23          	sw	t6,792(a3)
8000358c:	32b6a023          	sw	a1,800(a3)
80003590:	32b6a223          	sw	a1,804(a3)
80003594:	32b6a423          	sw	a1,808(a3)
80003598:	32a6ac23          	sw	a0,824(a3)
8000359c:	34b6a023          	sw	a1,832(a3)
800035a0:	35f6a223          	sw	t6,836(a3)
800035a4:	34a6ac23          	sw	a0,856(a3)
800035a8:	35c7ac23          	sw	t3,856(a5)
800035ac:	80002ab7          	lui	s5,0x80002
800035b0:	37872c23          	sw	s8,888(a4)
800035b4:	80002bb7          	lui	s7,0x80002
800035b8:	80003d37          	lui	s10,0x80003
800035bc:	80003cb7          	lui	s9,0x80003
800035c0:	80002c37          	lui	s8,0x80002
800035c4:	1b4a8a93          	addi	s5,s5,436 # 800021b4 <_end+0xffe7f1b4>
800035c8:	dacb8b93          	addi	s7,s7,-596 # 80001dac <_end+0xffe7edac>
800035cc:	854d0d13          	addi	s10,s10,-1964 # 80002854 <_end+0xffe7f854>
800035d0:	94cc8c93          	addi	s9,s9,-1716 # 8000294c <_end+0xffe7f94c>
800035d4:	c3cc0c13          	addi	s8,s8,-964 # 80001c3c <_end+0xffe7ec3c>
800035d8:	3687a223          	sw	s0,868(a5)
800035dc:	3937a023          	sw	s3,896(a5)
800035e0:	3927a223          	sw	s2,900(a5)
800035e4:	37972023          	sw	s9,864(a4)
800035e8:	3707a023          	sw	a6,864(a5)
800035ec:	36c6a223          	sw	a2,868(a3)
800035f0:	37472223          	sw	s4,868(a4)
800035f4:	36c6aa23          	sw	a2,884(a3)
800035f8:	37472a23          	sw	s4,884(a4)
800035fc:	37d7aa23          	sw	t4,884(a5)
80003600:	37d7ac23          	sw	t4,888(a5)
80003604:	39a72023          	sw	s10,896(a4)
80003608:	39572223          	sw	s5,900(a4)
8000360c:	39e6a823          	sw	t5,912(a3)
80003610:	39a72823          	sw	s10,912(a4)
80003614:	3917a823          	sw	a7,912(a5)
80003618:	39e6aa23          	sw	t5,916(a3)
8000361c:	39572a23          	sw	s5,916(a4)
80003620:	3917aa23          	sw	a7,916(a5)
80003624:	39772c23          	sw	s7,920(a4)
80003628:	3917ac23          	sw	a7,920(a5)
8000362c:	3b872023          	sw	s8,928(a4)
80003630:	3b07a023          	sw	a6,928(a5)
80003634:	3b572223          	sw	s5,932(a4)
80003638:	36b6a023          	sw	a1,864(a3)
8000363c:	3676ac23          	sw	t2,888(a3)
80003640:	38b6a023          	sw	a1,896(a3)
80003644:	38a6a223          	sw	a0,900(a3)
80003648:	39f6ac23          	sw	t6,920(a3)
8000364c:	3ab6a023          	sw	a1,928(a3)
80003650:	3ab6a223          	sw	a1,932(a3)
80003654:	3b37a223          	sw	s3,932(a5)
80003658:	80003c37          	lui	s8,0x80003
8000365c:	3c57a023          	sw	t0,960(a5)
80003660:	3ba72823          	sw	s10,944(a4)
80003664:	800032b7          	lui	t0,0x80003
80003668:	80002d37          	lui	s10,0x80002
8000366c:	9acc0c13          	addi	s8,s8,-1620 # 800029ac <_end+0xffe7f9ac>
80003670:	f08d0d13          	addi	s10,s10,-248 # 80001f08 <_end+0xffe7ef08>
80003674:	98c28293          	addi	t0,t0,-1652 # 8000298c <_end+0xffe7f98c>
80003678:	3c97a223          	sw	s1,964(a5)
8000367c:	3e87a223          	sw	s0,996(a5)
80003680:	3b872423          	sw	s8,936(a4)
80003684:	3b07a423          	sw	a6,936(a5)
80003688:	3ac6a823          	sw	a2,944(a3)
8000368c:	3a67a823          	sw	t1,944(a5)
80003690:	3ac6aa23          	sw	a2,948(a3)
80003694:	3b572a23          	sw	s5,948(a4)
80003698:	3a67aa23          	sw	t1,948(a5)
8000369c:	3b772c23          	sw	s7,952(a4)
800036a0:	3a67ac23          	sw	t1,952(a5)
800036a4:	3da72023          	sw	s10,960(a4)
800036a8:	3d572223          	sw	s5,964(a4)
800036ac:	3cc6aa23          	sw	a2,980(a3)
800036b0:	3d572a23          	sw	s5,980(a4)
800036b4:	3dc7aa23          	sw	t3,980(a5)
800036b8:	3d772c23          	sw	s7,984(a4)
800036bc:	3dc7ac23          	sw	t3,984(a5)
800036c0:	3e572023          	sw	t0,992(a4)
800036c4:	3f07a023          	sw	a6,992(a5)
800036c8:	3ec6a223          	sw	a2,996(a3)
800036cc:	3f572223          	sw	s5,996(a4)
800036d0:	3ec6aa23          	sw	a2,1012(a3)
800036d4:	3f572a23          	sw	s5,1012(a4)
800036d8:	80003cb7          	lui	s9,0x80003
800036dc:	3ab6a423          	sw	a1,936(a3)
800036e0:	3aa6ac23          	sw	a0,952(a3)
800036e4:	80003c37          	lui	s8,0x80003
800036e8:	3cb6a023          	sw	a1,960(a3)
800036ec:	3df6a223          	sw	t6,964(a3)
800036f0:	3ca6ac23          	sw	a0,984(a3)
800036f4:	3eb6a023          	sw	a1,992(a3)
800036f8:	3fd7aa23          	sw	t4,1012(a5)
800036fc:	00800a13          	li	s4,8
80003700:	9f4c8c93          	addi	s9,s9,-1548 # 800029f4 <_end+0xffe7f9f4>
80003704:	a9cc0c13          	addi	s8,s8,-1380 # 80002a9c <_end+0xffe7fa9c>
80003708:	3f772c23          	sw	s7,1016(a4)
8000370c:	80003bb7          	lui	s7,0x80003
80003710:	a48b8b93          	addi	s7,s7,-1464 # 80002a48 <_end+0xffe7fa48>
80003714:	0127a623          	sw	s2,12(a5)
80003718:	0497a623          	sw	s1,76(a5)
8000371c:	0687a623          	sw	s0,108(a5)
80003720:	0927a623          	sw	s2,140(a5)
80003724:	3fd7ac23          	sw	t4,1016(a5)
80003728:	0146a623          	sw	s4,12(a3)
8000372c:	01972623          	sw	s9,12(a4)
80003730:	01972e23          	sw	s9,28(a4)
80003734:	0117ae23          	sw	a7,28(a5)
80003738:	03972e23          	sw	s9,60(a4)
8000373c:	0267ae23          	sw	t1,60(a5)
80003740:	0546a623          	sw	s4,76(a3)
80003744:	05972623          	sw	s9,76(a4)
80003748:	05972e23          	sw	s9,92(a4)
8000374c:	05c7ae23          	sw	t3,92(a5)
80003750:	07972623          	sw	s9,108(a4)
80003754:	07972e23          	sw	s9,124(a4)
80003758:	07d7ae23          	sw	t4,124(a5)
8000375c:	0946a623          	sw	s4,140(a3)
80003760:	09872623          	sw	s8,140(a4)
80003764:	09872e23          	sw	s8,156(a4)
80003768:	0917ae23          	sw	a7,156(a5)
8000376c:	0b872e23          	sw	s8,188(a4)
80003770:	3e76ac23          	sw	t2,1016(a3)
80003774:	01f6ae23          	sw	t6,28(a3)
80003778:	02a6ae23          	sw	a0,60(a3)
8000377c:	800022b7          	lui	t0,0x80002
80003780:	04a6ae23          	sw	a0,92(a3)
80003784:	0676a623          	sw	t2,108(a3)
80003788:	0676ae23          	sw	t2,124(a3)
8000378c:	09f6ae23          	sw	t6,156(a3)
80003790:	0aa6ae23          	sw	a0,188(a3)
80003794:	80002d37          	lui	s10,0x80002
80003798:	80002db7          	lui	s11,0x80002
8000379c:	0a67ae23          	sw	t1,188(a5)
800037a0:	78c28293          	addi	t0,t0,1932 # 8000278c <_end+0xffe7f78c>
800037a4:	ea4d0d13          	addi	s10,s10,-348 # 80001ea4 <_end+0xffe7eea4>
800037a8:	0c97a623          	sw	s1,204(a5)
800037ac:	0e87a623          	sw	s0,236(a5)
800037b0:	e74d8d93          	addi	s11,s11,-396 # 80001e74 <_end+0xffe7ee74>
800037b4:	1127a623          	sw	s2,268(a5)
800037b8:	1497a623          	sw	s1,332(a5)
800037bc:	1687a623          	sw	s0,364(a5)
800037c0:	0d46a623          	sw	s4,204(a3)
800037c4:	0d872623          	sw	s8,204(a4)
800037c8:	0d872e23          	sw	s8,220(a4)
800037cc:	0dc7ae23          	sw	t3,220(a5)
800037d0:	0f872623          	sw	s8,236(a4)
800037d4:	0f872e23          	sw	s8,252(a4)
800037d8:	0fd7ae23          	sw	t4,252(a5)
800037dc:	1146a623          	sw	s4,268(a3)
800037e0:	11772623          	sw	s7,268(a4)
800037e4:	11772e23          	sw	s7,284(a4)
800037e8:	1117ae23          	sw	a7,284(a5)
800037ec:	13772e23          	sw	s7,316(a4)
800037f0:	1267ae23          	sw	t1,316(a5)
800037f4:	1546a623          	sw	s4,332(a3)
800037f8:	15772623          	sw	s7,332(a4)
800037fc:	15772e23          	sw	s7,348(a4)
80003800:	15c7ae23          	sw	t3,348(a5)
80003804:	17772623          	sw	s7,364(a4)
80003808:	17772e23          	sw	s7,380(a4)
8000380c:	0ca6ae23          	sw	a0,220(a3)
80003810:	0e76a623          	sw	t2,236(a3)
80003814:	0e76ae23          	sw	t2,252(a3)
80003818:	80002cb7          	lui	s9,0x80002
8000381c:	11f6ae23          	sw	t6,284(a3)
80003820:	12a6ae23          	sw	a0,316(a3)
80003824:	14a6ae23          	sw	a0,348(a3)
80003828:	1676a623          	sw	t2,364(a3)
8000382c:	1676ae23          	sw	t2,380(a3)
80003830:	80003c37          	lui	s8,0x80003
80003834:	17d7ae23          	sw	t4,380(a5)
80003838:	818c0c13          	addi	s8,s8,-2024 # 80002818 <_end+0xffe7f818>
8000383c:	d2cc8c93          	addi	s9,s9,-724 # 80001d2c <_end+0xffe7ed2c>
80003840:	1927a623          	sw	s2,396(a5)
80003844:	1c97a623          	sw	s1,460(a5)
80003848:	1e87a623          	sw	s0,492(a5)
8000384c:	2127a623          	sw	s2,524(a5)
80003850:	1946a623          	sw	s4,396(a3)
80003854:	18572623          	sw	t0,396(a4)
80003858:	18572e23          	sw	t0,412(a4)
8000385c:	1917ae23          	sw	a7,412(a5)
80003860:	1a572e23          	sw	t0,444(a4)
80003864:	1a67ae23          	sw	t1,444(a5)
80003868:	1d46a623          	sw	s4,460(a3)
8000386c:	1c572623          	sw	t0,460(a4)
80003870:	1c572e23          	sw	t0,476(a4)
80003874:	1dc7ae23          	sw	t3,476(a5)
80003878:	1e572623          	sw	t0,492(a4)
8000387c:	1e572e23          	sw	t0,508(a4)
80003880:	1fd7ae23          	sw	t4,508(a5)
80003884:	21a72623          	sw	s10,524(a4)
80003888:	21e6ae23          	sw	t5,540(a3)
8000388c:	21a72e23          	sw	s10,540(a4)
80003890:	2117ae23          	sw	a7,540(a5)
80003894:	22c6ae23          	sw	a2,572(a3)
80003898:	23a72e23          	sw	s10,572(a4)
8000389c:	2267ae23          	sw	t1,572(a5)
800038a0:	25b72623          	sw	s11,588(a4)
800038a4:	19f6ae23          	sw	t6,412(a3)
800038a8:	1aa6ae23          	sw	a0,444(a3)
800038ac:	1ca6ae23          	sw	a0,476(a3)
800038b0:	1e76a623          	sw	t2,492(a3)
800038b4:	1e76ae23          	sw	t2,508(a3)
800038b8:	20a6a623          	sw	a0,524(a3)
800038bc:	24a6a623          	sw	a0,588(a3)
800038c0:	80002bb7          	lui	s7,0x80002
800038c4:	2497a623          	sw	s1,588(a5)
800038c8:	28cb8b93          	addi	s7,s7,652 # 8000228c <_end+0xffe7f28c>
800038cc:	2567ae23          	sw	s6,604(a5)
800038d0:	2687ae23          	sw	s0,636(a5)
800038d4:	2927a623          	sw	s2,652(a5)
800038d8:	2c97a623          	sw	s1,716(a5)
800038dc:	2d67ae23          	sw	s6,732(a5)
800038e0:	2e87ae23          	sw	s0,764(a5)
800038e4:	3127a623          	sw	s2,780(a5)
800038e8:	24c6ae23          	sw	a2,604(a3)
800038ec:	25a72e23          	sw	s10,604(a4)
800038f0:	27b72e23          	sw	s11,636(a4)
800038f4:	29972623          	sw	s9,652(a4)
800038f8:	29e6ae23          	sw	t5,668(a3)
800038fc:	29972e23          	sw	s9,668(a4)
80003900:	2917ae23          	sw	a7,668(a5)
80003904:	2ac6ae23          	sw	a2,700(a3)
80003908:	2b972e23          	sw	s9,700(a4)
8000390c:	2a67ae23          	sw	t1,700(a5)
80003910:	2d972623          	sw	s9,716(a4)
80003914:	2cc6ae23          	sw	a2,732(a3)
80003918:	2d972e23          	sw	s9,732(a4)
8000391c:	2ec6ae23          	sw	a2,764(a3)
80003920:	2f972e23          	sw	s9,764(a4)
80003924:	3146a623          	sw	s4,780(a3)
80003928:	31872623          	sw	s8,780(a4)
8000392c:	31872e23          	sw	s8,796(a4)
80003930:	3117ae23          	sw	a7,796(a5)
80003934:	33872e23          	sw	s8,828(a4)
80003938:	27f6ae23          	sw	t6,636(a3)
8000393c:	28a6a623          	sw	a0,652(a3)
80003940:	80002f37          	lui	t5,0x80002
80003944:	2df6a623          	sw	t6,716(a3)
80003948:	31f6ae23          	sw	t6,796(a3)
8000394c:	32a6ae23          	sw	a0,828(a3)
80003950:	3267ae23          	sw	t1,828(a5)
80003954:	00100293          	li	t0,1
80003958:	998f0f13          	addi	t5,t5,-1640 # 80001998 <_end+0xffe7e998>
8000395c:	3497a623          	sw	s1,844(a5)
80003960:	3687a623          	sw	s0,876(a5)
80003964:	3927a623          	sw	s2,908(a5)
80003968:	3b37a623          	sw	s3,940(a5)
8000396c:	3c97a623          	sw	s1,972(a5)
80003970:	3546a623          	sw	s4,844(a3)
80003974:	35872623          	sw	s8,844(a4)
80003978:	35872e23          	sw	s8,860(a4)
8000397c:	35c7ae23          	sw	t3,860(a5)
80003980:	37872623          	sw	s8,876(a4)
80003984:	37872e23          	sw	s8,892(a4)
80003988:	37d7ae23          	sw	t4,892(a5)
8000398c:	3946a623          	sw	s4,908(a3)
80003990:	39772623          	sw	s7,908(a4)
80003994:	39772e23          	sw	s7,924(a4)
80003998:	3917ae23          	sw	a7,924(a5)
8000399c:	3b572623          	sw	s5,940(a4)
800039a0:	3b772e23          	sw	s7,956(a4)
800039a4:	3a67ae23          	sw	t1,956(a5)
800039a8:	3d46a623          	sw	s4,972(a3)
800039ac:	3d772623          	sw	s7,972(a4)
800039b0:	3d772e23          	sw	s7,988(a4)
800039b4:	3dc7ae23          	sw	t3,988(a5)
800039b8:	3f772623          	sw	s7,1004(a4)
800039bc:	34a6ae23          	sw	a0,860(a3)
800039c0:	3676a623          	sw	t2,876(a3)
800039c4:	3676ae23          	sw	t2,892(a3)
800039c8:	39f6ae23          	sw	t6,924(a3)
800039cc:	3ab6a623          	sw	a1,940(a3)
800039d0:	3aa6ae23          	sw	a0,956(a3)
800039d4:	3ca6ae23          	sw	a0,988(a3)
800039d8:	3e76a623          	sw	t2,1004(a3)
800039dc:	3e87a623          	sw	s0,1004(a5)
800039e0:	3f772e23          	sw	s7,1020(a4)
800039e4:	3fd7ae23          	sw	t4,1020(a5)
800039e8:	0117a823          	sw	a7,16(a5)
800039ec:	0267a823          	sw	t1,48(a5)
800039f0:	05c7a823          	sw	t3,80(a5)
800039f4:	0707a423          	sw	a6,104(a5)
800039f8:	07d7a823          	sw	t4,112(a5)
800039fc:	0dc7a823          	sw	t3,208(a5)
80003a00:	0f07a423          	sw	a6,232(a5)
80003a04:	0fd7a823          	sw	t4,240(a5)
80003a08:	1117a823          	sw	a7,272(a5)
80003a0c:	3e76ae23          	sw	t2,1020(a3)
80003a10:	0056a823          	sw	t0,16(a3)
80003a14:	01e72823          	sw	t5,16(a4)
80003a18:	0256a823          	sw	t0,48(a3)
80003a1c:	03e72823          	sw	t5,48(a4)
80003a20:	0456a823          	sw	t0,80(a3)
80003a24:	05e72823          	sw	t5,80(a4)
80003a28:	0656a423          	sw	t0,104(a3)
80003a2c:	07e72423          	sw	t5,104(a4)
80003a30:	0656a823          	sw	t0,112(a3)
80003a34:	07e72823          	sw	t5,112(a4)
80003a38:	0c56a823          	sw	t0,208(a3)
80003a3c:	0de72823          	sw	t5,208(a4)
80003a40:	0e56a423          	sw	t0,232(a3)
80003a44:	0fe72423          	sw	t5,232(a4)
80003a48:	0e56a823          	sw	t0,240(a3)
80003a4c:	0fe72823          	sw	t5,240(a4)
80003a50:	1056a823          	sw	t0,272(a3)
80003a54:	11e72823          	sw	t5,272(a4)
80003a58:	1456a823          	sw	t0,336(a3)
80003a5c:	15e72823          	sw	t5,336(a4)
80003a60:	15c7a823          	sw	t3,336(a5)
80003a64:	8017a637          	lui	a2,0x8017a
80003a68:	2137a023          	sw	s3,512(a5)
80003a6c:	1707a423          	sw	a6,360(a5)
80003a70:	17d7a823          	sw	t4,368(a5)
80003a74:	1917a823          	sw	a7,400(a5)
80003a78:	1dc7a823          	sw	t3,464(a5)
80003a7c:	1f07a423          	sw	a6,488(a5)
80003a80:	1fd7a823          	sw	t4,496(a5)
80003a84:	35c7a823          	sw	t3,848(a5)
80003a88:	3707a423          	sw	a6,872(a5)
80003a8c:	37d7a823          	sw	t4,880(a5)
80003a90:	1656a423          	sw	t0,360(a3)
80003a94:	17e72423          	sw	t5,360(a4)
80003a98:	1656a823          	sw	t0,368(a3)
80003a9c:	17e72823          	sw	t5,368(a4)
80003aa0:	1856a823          	sw	t0,400(a3)
80003aa4:	19e72823          	sw	t5,400(a4)
80003aa8:	1c56a823          	sw	t0,464(a3)
80003aac:	1de72823          	sw	t5,464(a4)
80003ab0:	1e56a423          	sw	t0,488(a3)
80003ab4:	1fe72423          	sw	t5,488(a4)
80003ab8:	1e56a823          	sw	t0,496(a3)
80003abc:	1fe72823          	sw	t5,496(a4)
80003ac0:	2056a023          	sw	t0,512(a3)
80003ac4:	21e72023          	sw	t5,512(a4)
80003ac8:	3456a823          	sw	t0,848(a3)
80003acc:	35e72823          	sw	t5,848(a4)
80003ad0:	3656a423          	sw	t0,872(a3)
80003ad4:	37e72423          	sw	t5,872(a4)
80003ad8:	3656a823          	sw	t0,880(a3)
80003adc:	37e72823          	sw	t5,880(a4)
80003ae0:	3c56a823          	sw	t0,976(a3)
80003ae4:	3de72823          	sw	t5,976(a4)
80003ae8:	3dc7a823          	sw	t3,976(a5)
80003aec:	62c60613          	addi	a2,a2,1580 # 8017a62c <_end+0xffff762c>
80003af0:	3f07a423          	sw	a6,1000(a5)
80003af4:	3fd7a823          	sw	t4,1008(a5)
80003af8:	02400793          	li	a5,36
80003afc:	00061123          	sh	zero,2(a2)
80003b00:	00061223          	sh	zero,4(a2)
80003b04:	00f60323          	sb	a5,6(a2)
80003b08:	02c12403          	lw	s0,44(sp)
80003b0c:	3e56a423          	sw	t0,1000(a3)
80003b10:	3fe72423          	sw	t5,1000(a4)
80003b14:	3e56a823          	sw	t0,1008(a3)
80003b18:	3fe72823          	sw	t5,1008(a4)
80003b1c:	02812483          	lw	s1,40(sp)
80003b20:	02412903          	lw	s2,36(sp)
80003b24:	02012983          	lw	s3,32(sp)
80003b28:	01c12a03          	lw	s4,28(sp)
80003b2c:	01812a83          	lw	s5,24(sp)
80003b30:	01412b03          	lw	s6,20(sp)
80003b34:	01012b83          	lw	s7,16(sp)
80003b38:	00c12c03          	lw	s8,12(sp)
80003b3c:	00812c83          	lw	s9,8(sp)
80003b40:	00412d03          	lw	s10,4(sp)
80003b44:	00012d83          	lw	s11,0(sp)
80003b48:	03010113          	addi	sp,sp,48
80003b4c:	00008067          	ret

80003b50 <cpu_reset>:
80003b50:	00010537          	lui	a0,0x10
80003b54:	ff010113          	addi	sp,sp,-16
80003b58:	ffc50513          	addi	a0,a0,-4 # fffc <_entry_offset+0xfffc>
80003b5c:	00112623          	sw	ra,12(sp)
80003b60:	350000ef          	jal	ra,80003eb0 <memory_readw>
80003b64:	8017a7b7          	lui	a5,0x8017a
80003b68:	62c78793          	addi	a5,a5,1580 # 8017a62c <_end+0xffff762c>
80003b6c:	0027c683          	lbu	a3,2(a5)
80003b70:	0067c703          	lbu	a4,6(a5)
80003b74:	00a79023          	sh	a0,0(a5)
80003b78:	ffd68693          	addi	a3,a3,-3
80003b7c:	00476713          	ori	a4,a4,4
80003b80:	00d78123          	sb	a3,2(a5)
80003b84:	00e78323          	sb	a4,6(a5)
80003b88:	00c12083          	lw	ra,12(sp)
80003b8c:	01010113          	addi	sp,sp,16
80003b90:	00008067          	ret

80003b94 <cpu_interrupt>:
80003b94:	ff010113          	addi	sp,sp,-16
80003b98:	00112623          	sw	ra,12(sp)
80003b9c:	00812423          	sw	s0,8(sp)
80003ba0:	de4fc0ef          	jal	ra,80000184 <ppu_generates_nmi>
80003ba4:	00051a63          	bnez	a0,80003bb8 <cpu_interrupt+0x24>
80003ba8:	00c12083          	lw	ra,12(sp)
80003bac:	00812403          	lw	s0,8(sp)
80003bb0:	01010113          	addi	sp,sp,16
80003bb4:	00008067          	ret
80003bb8:	8017a437          	lui	s0,0x8017a
80003bbc:	62c40413          	addi	s0,s0,1580 # 8017a62c <_end+0xffff762c>
80003bc0:	00644783          	lbu	a5,6(s0)
80003bc4:	00640513          	addi	a0,s0,6
80003bc8:	00500593          	li	a1,5
80003bcc:	0047e793          	ori	a5,a5,4
80003bd0:	00f40323          	sb	a5,6(s0)
80003bd4:	c74fc0ef          	jal	ra,80000048 <common_unset_bitb>
80003bd8:	00244503          	lbu	a0,2(s0)
80003bdc:	00045583          	lhu	a1,0(s0)
80003be0:	0ff50513          	addi	a0,a0,255
80003be4:	318000ef          	jal	ra,80003efc <memory_writew>
80003be8:	00244783          	lbu	a5,2(s0)
80003bec:	00644583          	lbu	a1,6(s0)
80003bf0:	ffe78513          	addi	a0,a5,-2
80003bf4:	0ff57513          	zext.b	a0,a0
80003bf8:	10050513          	addi	a0,a0,256
80003bfc:	01051513          	slli	a0,a0,0x10
80003c00:	ffd78793          	addi	a5,a5,-3
80003c04:	01055513          	srli	a0,a0,0x10
80003c08:	00f40123          	sb	a5,2(s0)
80003c0c:	1a4000ef          	jal	ra,80003db0 <memory_writeb>
80003c10:	00010537          	lui	a0,0x10
80003c14:	ffa50513          	addi	a0,a0,-6 # fffa <_entry_offset+0xfffa>
80003c18:	298000ef          	jal	ra,80003eb0 <memory_readw>
80003c1c:	00c12083          	lw	ra,12(sp)
80003c20:	00a41023          	sh	a0,0(s0)
80003c24:	00812403          	lw	s0,8(sp)
80003c28:	01010113          	addi	sp,sp,16
80003c2c:	00008067          	ret

80003c30 <cpu_clock>:
80003c30:	8017a7b7          	lui	a5,0x8017a
80003c34:	6387a503          	lw	a0,1592(a5) # 8017a638 <_end+0xffff7638>
80003c38:	63c7a583          	lw	a1,1596(a5)
80003c3c:	00008067          	ret

80003c40 <cpu_run>:
80003c40:	fd010113          	addi	sp,sp,-48
80003c44:	02812423          	sw	s0,40(sp)
80003c48:	02112623          	sw	ra,44(sp)
80003c4c:	00300413          	li	s0,3
80003c50:	02912223          	sw	s1,36(sp)
80003c54:	03212023          	sw	s2,32(sp)
80003c58:	01312e23          	sw	s3,28(sp)
80003c5c:	01412c23          	sw	s4,24(sp)
80003c60:	01512a23          	sw	s5,20(sp)
80003c64:	01612823          	sw	s6,16(sp)
80003c68:	01712623          	sw	s7,12(sp)
80003c6c:	00200793          	li	a5,2
80003c70:	02854433          	div	s0,a0,s0
80003c74:	0ca7d263          	bge	a5,a0,80003d38 <cpu_run+0xf8>
80003c78:	8017a9b7          	lui	s3,0x8017a
80003c7c:	8017a4b7          	lui	s1,0x8017a
80003c80:	80179ab7          	lui	s5,0x80179
80003c84:	8017aa37          	lui	s4,0x8017a
80003c88:	8017a937          	lui	s2,0x8017a
80003c8c:	8017abb7          	lui	s7,0x8017a
80003c90:	8017ab37          	lui	s6,0x8017a
80003c94:	62c98993          	addi	s3,s3,1580 # 8017a62c <_end+0xffff762c>
80003c98:	64448493          	addi	s1,s1,1604 # 8017a644 <_end+0xffff7644>
80003c9c:	614a8a93          	addi	s5,s5,1556 # 80179614 <_end+0xffff6614>
80003ca0:	a14a0a13          	addi	s4,s4,-1516 # 80179a14 <_end+0xffff6a14>
80003ca4:	64890913          	addi	s2,s2,1608 # 8017a648 <_end+0xffff7648>
80003ca8:	638b8b93          	addi	s7,s7,1592 # 8017a638 <_end+0xffff7638>
80003cac:	e14b0b13          	addi	s6,s6,-492 # 80179e14 <_end+0xffff6e14>
80003cb0:	0009d503          	lhu	a0,0(s3)
80003cb4:	00150793          	addi	a5,a0,1
80003cb8:	00f99023          	sh	a5,0(s3)
80003cbc:	0a8000ef          	jal	ra,80003d64 <memory_readb>
80003cc0:	00251713          	slli	a4,a0,0x2
80003cc4:	00ea8733          	add	a4,s5,a4
80003cc8:	00072703          	lw	a4,0(a4)
80003ccc:	00a48023          	sb	a0,0(s1)
80003cd0:	00050793          	mv	a5,a0
80003cd4:	02070063          	beqz	a4,80003cf4 <cpu_run+0xb4>
80003cd8:	000700e7          	jalr	a4
80003cdc:	0004c783          	lbu	a5,0(s1)
80003ce0:	00279793          	slli	a5,a5,0x2
80003ce4:	00fb07b3          	add	a5,s6,a5
80003ce8:	0007a783          	lw	a5,0(a5)
80003cec:	000780e7          	jalr	a5
80003cf0:	0004c783          	lbu	a5,0(s1)
80003cf4:	00279793          	slli	a5,a5,0x2
80003cf8:	00fa07b3          	add	a5,s4,a5
80003cfc:	00092603          	lw	a2,0(s2)
80003d00:	0007a703          	lw	a4,0(a5)
80003d04:	000ba683          	lw	a3,0(s7)
80003d08:	004ba783          	lw	a5,4(s7)
80003d0c:	00c70733          	add	a4,a4,a2
80003d10:	40e68633          	sub	a2,a3,a4
80003d14:	41f75593          	srai	a1,a4,0x1f
80003d18:	00c6b6b3          	sltu	a3,a3,a2
80003d1c:	40b787b3          	sub	a5,a5,a1
80003d20:	40d787b3          	sub	a5,a5,a3
80003d24:	00092023          	sw	zero,0(s2)
80003d28:	40e40433          	sub	s0,s0,a4
80003d2c:	00cba023          	sw	a2,0(s7)
80003d30:	00fba223          	sw	a5,4(s7)
80003d34:	f6804ee3          	bgtz	s0,80003cb0 <cpu_run+0x70>
80003d38:	02c12083          	lw	ra,44(sp)
80003d3c:	02812403          	lw	s0,40(sp)
80003d40:	02412483          	lw	s1,36(sp)
80003d44:	02012903          	lw	s2,32(sp)
80003d48:	01c12983          	lw	s3,28(sp)
80003d4c:	01812a03          	lw	s4,24(sp)
80003d50:	01412a83          	lw	s5,20(sp)
80003d54:	01012b03          	lw	s6,16(sp)
80003d58:	00c12b83          	lw	s7,12(sp)
80003d5c:	03010113          	addi	sp,sp,48
80003d60:	00008067          	ret

80003d64 <memory_readb>:
80003d64:	00d55793          	srli	a5,a0,0xd
80003d68:	00200693          	li	a3,2
80003d6c:	00050713          	mv	a4,a0
80003d70:	02d78663          	beq	a5,a3,80003d9c <memory_readb+0x38>
80003d74:	00f6ea63          	bltu	a3,a5,80003d88 <memory_readb+0x24>
80003d78:	02078863          	beqz	a5,80003da8 <memory_readb+0x44>
80003d7c:	00100693          	li	a3,1
80003d80:	02d79063          	bne	a5,a3,80003da0 <memory_readb+0x3c>
80003d84:	dd1fc06f          	j	80000b54 <ppuio_read>
80003d88:	00300693          	li	a3,3
80003d8c:	00d79a63          	bne	a5,a3,80003da0 <memory_readb+0x3c>
80003d90:	01351513          	slli	a0,a0,0x13
80003d94:	01355513          	srli	a0,a0,0x13
80003d98:	f81fe06f          	j	80002d18 <cpu_ram_read>
80003d9c:	1a40006f          	j	80003f40 <psgio_read>
80003da0:	00070513          	mv	a0,a4
80003da4:	af0fc06f          	j	80000094 <mmc_read>
80003da8:	7ff57513          	andi	a0,a0,2047
80003dac:	f6dfe06f          	j	80002d18 <cpu_ram_read>

80003db0 <memory_writeb>:
80003db0:	ff010113          	addi	sp,sp,-16
80003db4:	00004737          	lui	a4,0x4
80003db8:	00812423          	sw	s0,8(sp)
80003dbc:	00112623          	sw	ra,12(sp)
80003dc0:	00912223          	sw	s1,4(sp)
80003dc4:	01470713          	addi	a4,a4,20 # 4014 <_entry_offset+0x4014>
80003dc8:	00058413          	mv	s0,a1
80003dcc:	04e50e63          	beq	a0,a4,80003e28 <memory_writeb+0x78>
80003dd0:	00d55713          	srli	a4,a0,0xd
80003dd4:	00200693          	li	a3,2
80003dd8:	00050793          	mv	a5,a0
80003ddc:	0ad70263          	beq	a4,a3,80003e80 <memory_writeb+0xd0>
80003de0:	02e6e263          	bltu	a3,a4,80003e04 <memory_writeb+0x54>
80003de4:	08070263          	beqz	a4,80003e68 <memory_writeb+0xb8>
80003de8:	00100693          	li	a3,1
80003dec:	0ad71463          	bne	a4,a3,80003e94 <memory_writeb+0xe4>
80003df0:	00812403          	lw	s0,8(sp)
80003df4:	00c12083          	lw	ra,12(sp)
80003df8:	00412483          	lw	s1,4(sp)
80003dfc:	01010113          	addi	sp,sp,16
80003e00:	ec1fc06f          	j	80000cc0 <ppuio_write>
80003e04:	00300693          	li	a3,3
80003e08:	08d71663          	bne	a4,a3,80003e94 <memory_writeb+0xe4>
80003e0c:	00812403          	lw	s0,8(sp)
80003e10:	00c12083          	lw	ra,12(sp)
80003e14:	00412483          	lw	s1,4(sp)
80003e18:	01351793          	slli	a5,a0,0x13
80003e1c:	0137d513          	srli	a0,a5,0x13
80003e20:	01010113          	addi	sp,sp,16
80003e24:	f0dfe06f          	j	80002d30 <cpu_ram_write>
80003e28:	00859413          	slli	s0,a1,0x8
80003e2c:	10040493          	addi	s1,s0,256
80003e30:	01049493          	slli	s1,s1,0x10
80003e34:	0104d493          	srli	s1,s1,0x10
80003e38:	00040513          	mv	a0,s0
80003e3c:	00140413          	addi	s0,s0,1
80003e40:	01041413          	slli	s0,s0,0x10
80003e44:	ed5fe0ef          	jal	ra,80002d18 <cpu_ram_read>
80003e48:	01045413          	srli	s0,s0,0x10
80003e4c:	8d0fd0ef          	jal	ra,80000f1c <ppu_sprram_write>
80003e50:	fe9414e3          	bne	s0,s1,80003e38 <memory_writeb+0x88>
80003e54:	00c12083          	lw	ra,12(sp)
80003e58:	00812403          	lw	s0,8(sp)
80003e5c:	00412483          	lw	s1,4(sp)
80003e60:	01010113          	addi	sp,sp,16
80003e64:	00008067          	ret
80003e68:	00812403          	lw	s0,8(sp)
80003e6c:	00c12083          	lw	ra,12(sp)
80003e70:	00412483          	lw	s1,4(sp)
80003e74:	7ff57513          	andi	a0,a0,2047
80003e78:	01010113          	addi	sp,sp,16
80003e7c:	eb5fe06f          	j	80002d30 <cpu_ram_write>
80003e80:	00812403          	lw	s0,8(sp)
80003e84:	00c12083          	lw	ra,12(sp)
80003e88:	00412483          	lw	s1,4(sp)
80003e8c:	01010113          	addi	sp,sp,16
80003e90:	10c0006f          	j	80003f9c <psgio_write>
80003e94:	00040593          	mv	a1,s0
80003e98:	00812403          	lw	s0,8(sp)
80003e9c:	00c12083          	lw	ra,12(sp)
80003ea0:	00412483          	lw	s1,4(sp)
80003ea4:	00078513          	mv	a0,a5
80003ea8:	01010113          	addi	sp,sp,16
80003eac:	9fcfc06f          	j	800000a8 <mmc_write>

80003eb0 <memory_readw>:
80003eb0:	ff010113          	addi	sp,sp,-16
80003eb4:	00112623          	sw	ra,12(sp)
80003eb8:	00812423          	sw	s0,8(sp)
80003ebc:	00050413          	mv	s0,a0
80003ec0:	ea5ff0ef          	jal	ra,80003d64 <memory_readb>
80003ec4:	00050793          	mv	a5,a0
80003ec8:	00140513          	addi	a0,s0,1
80003ecc:	01051513          	slli	a0,a0,0x10
80003ed0:	01055513          	srli	a0,a0,0x10
80003ed4:	00078413          	mv	s0,a5
80003ed8:	e8dff0ef          	jal	ra,80003d64 <memory_readb>
80003edc:	00851793          	slli	a5,a0,0x8
80003ee0:	00c12083          	lw	ra,12(sp)
80003ee4:	00878533          	add	a0,a5,s0
80003ee8:	00812403          	lw	s0,8(sp)
80003eec:	01051513          	slli	a0,a0,0x10
80003ef0:	01055513          	srli	a0,a0,0x10
80003ef4:	01010113          	addi	sp,sp,16
80003ef8:	00008067          	ret

80003efc <memory_writew>:
80003efc:	ff010113          	addi	sp,sp,-16
80003f00:	00912223          	sw	s1,4(sp)
80003f04:	00058493          	mv	s1,a1
80003f08:	0ff5f593          	zext.b	a1,a1
80003f0c:	00812423          	sw	s0,8(sp)
80003f10:	00112623          	sw	ra,12(sp)
80003f14:	00050413          	mv	s0,a0
80003f18:	e99ff0ef          	jal	ra,80003db0 <memory_writeb>
80003f1c:	00140513          	addi	a0,s0,1
80003f20:	00812403          	lw	s0,8(sp)
80003f24:	00c12083          	lw	ra,12(sp)
80003f28:	0084d593          	srli	a1,s1,0x8
80003f2c:	00412483          	lw	s1,4(sp)
80003f30:	01051513          	slli	a0,a0,0x10
80003f34:	01055513          	srli	a0,a0,0x10
80003f38:	01010113          	addi	sp,sp,16
80003f3c:	e75ff06f          	j	80003db0 <memory_writeb>

80003f40 <psgio_read>:
80003f40:	000047b7          	lui	a5,0x4
80003f44:	01678793          	addi	a5,a5,22 # 4016 <_entry_offset+0x4016>
80003f48:	00f50663          	beq	a0,a5,80003f54 <psgio_read+0x14>
80003f4c:	00000513          	li	a0,0
80003f50:	00008067          	ret
80003f54:	8000f7b7          	lui	a5,0x8000f
80003f58:	32c78793          	addi	a5,a5,812 # 8000f32c <_end+0xffe8c32c>
80003f5c:	0007a683          	lw	a3,0(a5)
80003f60:	00800613          	li	a2,8
80003f64:	00168713          	addi	a4,a3,1
80003f68:	00e7a023          	sw	a4,0(a5)
80003f6c:	fed640e3          	blt	a2,a3,80003f4c <psgio_read+0xc>
80003f70:	800057b7          	lui	a5,0x80005
80003f74:	00271713          	slli	a4,a4,0x2
80003f78:	e9478793          	addi	a5,a5,-364 # 80004e94 <_end+0xffe81e94>
80003f7c:	00e787b3          	add	a5,a5,a4
80003f80:	0007a703          	lw	a4,0(a5)
80003f84:	8017a7b7          	lui	a5,0x8017a
80003f88:	21478793          	addi	a5,a5,532 # 8017a214 <_end+0xffff7214>
80003f8c:	00271713          	slli	a4,a4,0x2
80003f90:	00e787b3          	add	a5,a5,a4
80003f94:	0007c503          	lbu	a0,0(a5)
80003f98:	00008067          	ret

80003f9c <psgio_write>:
80003f9c:	000047b7          	lui	a5,0x4
80003fa0:	01678793          	addi	a5,a5,22 # 4016 <_entry_offset+0x4016>
80003fa4:	0015f593          	andi	a1,a1,1
80003fa8:	00f50a63          	beq	a0,a5,80003fbc <psgio_write+0x20>
80003fac:	8017a7b7          	lui	a5,0x8017a
80003fb0:	65078793          	addi	a5,a5,1616 # 8017a650 <_end+0xffff7650>
80003fb4:	00b78023          	sb	a1,0(a5)
80003fb8:	00008067          	ret
80003fbc:	8017a7b7          	lui	a5,0x8017a
80003fc0:	65078793          	addi	a5,a5,1616 # 8017a650 <_end+0xffff7650>
80003fc4:	fe0598e3          	bnez	a1,80003fb4 <psgio_write+0x18>
80003fc8:	0007c683          	lbu	a3,0(a5)
80003fcc:	00100713          	li	a4,1
80003fd0:	fee692e3          	bne	a3,a4,80003fb4 <psgio_write+0x18>
80003fd4:	8000f737          	lui	a4,0x8000f
80003fd8:	32072623          	sw	zero,812(a4) # 8000f32c <_end+0xffe8c32c>
80003fdc:	fd9ff06f          	j	80003fb4 <psgio_write+0x18>

80003fe0 <psg_detect_key>:
80003fe0:	fe010113          	addi	sp,sp,-32
80003fe4:	00812c23          	sw	s0,24(sp)
80003fe8:	8017a437          	lui	s0,0x8017a
80003fec:	00112e23          	sw	ra,28(sp)
80003ff0:	21440413          	addi	s0,s0,532 # 8017a214 <_end+0xffff7214>
80003ff4:	0080006f          	j	80003ffc <psg_detect_key+0x1c>
80003ff8:	00d7a023          	sw	a3,0(a5)
80003ffc:	00810593          	addi	a1,sp,8
80004000:	00800513          	li	a0,8
80004004:	14c000ef          	jal	ra,80004150 <ioe_read>
80004008:	00c12703          	lw	a4,12(sp)
8000400c:	00814683          	lbu	a3,8(sp)
80004010:	00271793          	slli	a5,a4,0x2
80004014:	00f407b3          	add	a5,s0,a5
80004018:	fe0710e3          	bnez	a4,80003ff8 <psg_detect_key+0x18>
8000401c:	01c12083          	lw	ra,28(sp)
80004020:	01812403          	lw	s0,24(sp)
80004024:	02010113          	addi	sp,sp,32
80004028:	00008067          	ret

8000402c <putch>:
8000402c:	a00007b7          	lui	a5,0xa0000
80004030:	3ea78c23          	sb	a0,1016(a5) # a00003f8 <_end+0x1fe7d3f8>
80004034:	00008067          	ret

80004038 <halt>:
80004038:	00050513          	mv	a0,a0
8000403c:	00100073          	ebreak
80004040:	0000006f          	j	80004040 <halt+0x8>

80004044 <_trm_init>:
80004044:	80005537          	lui	a0,0x80005
80004048:	ff010113          	addi	sp,sp,-16
8000404c:	31850513          	addi	a0,a0,792 # 80005318 <_end+0xffe82318>
80004050:	00112623          	sw	ra,12(sp)
80004054:	c3cfd0ef          	jal	ra,80001490 <main>
80004058:	00050513          	mv	a0,a0
8000405c:	00100073          	ebreak
80004060:	0000006f          	j	80004060 <_trm_init+0x1c>

80004064 <__am_timer_config>:
80004064:	00100793          	li	a5,1
80004068:	00f50023          	sb	a5,0(a0)
8000406c:	00f500a3          	sb	a5,1(a0)
80004070:	00008067          	ret

80004074 <__am_input_config>:
80004074:	00100793          	li	a5,1
80004078:	00f50023          	sb	a5,0(a0)
8000407c:	00008067          	ret

80004080 <__am_uart_config>:
80004080:	00050023          	sb	zero,0(a0)
80004084:	00008067          	ret

80004088 <__am_net_config>:
80004088:	00050023          	sb	zero,0(a0)
8000408c:	00008067          	ret

80004090 <fail>:
80004090:	ff010113          	addi	sp,sp,-16
80004094:	00812423          	sw	s0,8(sp)
80004098:	80005437          	lui	s0,0x80005
8000409c:	00112623          	sw	ra,12(sp)
800040a0:	be840413          	addi	s0,s0,-1048 # 80004be8 <_end+0xffe81be8>
800040a4:	04100513          	li	a0,65
800040a8:	00140413          	addi	s0,s0,1
800040ac:	f81ff0ef          	jal	ra,8000402c <putch>
800040b0:	00044503          	lbu	a0,0(s0)
800040b4:	fe051ae3          	bnez	a0,800040a8 <fail+0x18>
800040b8:	80005437          	lui	s0,0x80005
800040bc:	29440413          	addi	s0,s0,660 # 80005294 <_end+0xffe82294>
800040c0:	06100513          	li	a0,97
800040c4:	00140413          	addi	s0,s0,1
800040c8:	f65ff0ef          	jal	ra,8000402c <putch>
800040cc:	00044503          	lbu	a0,0(s0)
800040d0:	fe051ae3          	bnez	a0,800040c4 <fail+0x34>
800040d4:	80005437          	lui	s0,0x80005
800040d8:	2b040413          	addi	s0,s0,688 # 800052b0 <_end+0xffe822b0>
800040dc:	02000513          	li	a0,32
800040e0:	00140413          	addi	s0,s0,1
800040e4:	f49ff0ef          	jal	ra,8000402c <putch>
800040e8:	00044503          	lbu	a0,0(s0)
800040ec:	fe051ae3          	bnez	a0,800040e0 <fail+0x50>
800040f0:	00100513          	li	a0,1
800040f4:	f45ff0ef          	jal	ra,80004038 <halt>

800040f8 <ioe_init>:
800040f8:	8000f7b7          	lui	a5,0x8000f
800040fc:	ff010113          	addi	sp,sp,-16
80004100:	33078793          	addi	a5,a5,816 # 8000f330 <_end+0xffe8c330>
80004104:	80004637          	lui	a2,0x80004
80004108:	00112623          	sw	ra,12(sp)
8000410c:	20078693          	addi	a3,a5,512
80004110:	09060613          	addi	a2,a2,144 # 80004090 <_end+0xffe81090>
80004114:	00c0006f          	j	80004120 <ioe_init+0x28>
80004118:	00478793          	addi	a5,a5,4
8000411c:	00d78c63          	beq	a5,a3,80004134 <ioe_init+0x3c>
80004120:	0007a703          	lw	a4,0(a5)
80004124:	fe071ae3          	bnez	a4,80004118 <ioe_init+0x20>
80004128:	00c7a023          	sw	a2,0(a5)
8000412c:	00478793          	addi	a5,a5,4
80004130:	fed798e3          	bne	a5,a3,80004120 <ioe_init+0x28>
80004134:	0d0000ef          	jal	ra,80004204 <__am_gpu_init>
80004138:	050000ef          	jal	ra,80004188 <__am_timer_init>
8000413c:	108000ef          	jal	ra,80004244 <__am_audio_init>
80004140:	00c12083          	lw	ra,12(sp)
80004144:	00100513          	li	a0,1
80004148:	01010113          	addi	sp,sp,16
8000414c:	00008067          	ret

80004150 <ioe_read>:
80004150:	8000f7b7          	lui	a5,0x8000f
80004154:	00251513          	slli	a0,a0,0x2
80004158:	33078793          	addi	a5,a5,816 # 8000f330 <_end+0xffe8c330>
8000415c:	00a787b3          	add	a5,a5,a0
80004160:	0007a783          	lw	a5,0(a5)
80004164:	00058513          	mv	a0,a1
80004168:	00078067          	jr	a5

8000416c <ioe_write>:
8000416c:	8000f7b7          	lui	a5,0x8000f
80004170:	00251513          	slli	a0,a0,0x2
80004174:	33078793          	addi	a5,a5,816 # 8000f330 <_end+0xffe8c330>
80004178:	00a787b3          	add	a5,a5,a0
8000417c:	0007a783          	lw	a5,0(a5)
80004180:	00058513          	mv	a0,a1
80004184:	00078067          	jr	a5

80004188 <__am_timer_init>:
80004188:	a00007b7          	lui	a5,0xa0000
8000418c:	0407a423          	sw	zero,72(a5) # a0000048 <_end+0x1fe7d048>
80004190:	0407a623          	sw	zero,76(a5)
80004194:	00008067          	ret

80004198 <__am_timer_uptime>:
80004198:	a00007b7          	lui	a5,0xa0000
8000419c:	04c7a703          	lw	a4,76(a5) # a000004c <_end+0x1fe7d04c>
800041a0:	0487a783          	lw	a5,72(a5)
800041a4:	00e52223          	sw	a4,4(a0)
800041a8:	00f52023          	sw	a5,0(a0)
800041ac:	00008067          	ret

800041b0 <__am_timer_rtc>:
800041b0:	76c00793          	li	a5,1900
800041b4:	00052a23          	sw	zero,20(a0)
800041b8:	00052823          	sw	zero,16(a0)
800041bc:	00052623          	sw	zero,12(a0)
800041c0:	00052423          	sw	zero,8(a0)
800041c4:	00052223          	sw	zero,4(a0)
800041c8:	00f52023          	sw	a5,0(a0)
800041cc:	00008067          	ret

800041d0 <__am_input_keybrd>:
800041d0:	a00007b7          	lui	a5,0xa0000
800041d4:	0607a783          	lw	a5,96(a5) # a0000060 <_end+0x1fe7d060>
800041d8:	00008737          	lui	a4,0x8
800041dc:	00f52223          	sw	a5,4(a0)
800041e0:	00e7f6b3          	and	a3,a5,a4
800041e4:	00068c63          	beqz	a3,800041fc <__am_input_keybrd+0x2c>
800041e8:	00e7c7b3          	xor	a5,a5,a4
800041ec:	00100713          	li	a4,1
800041f0:	00e50023          	sb	a4,0(a0)
800041f4:	00f52223          	sw	a5,4(a0)
800041f8:	00008067          	ret
800041fc:	00050023          	sb	zero,0(a0)
80004200:	00008067          	ret

80004204 <__am_gpu_init>:
80004204:	00008067          	ret

80004208 <__am_gpu_config>:
80004208:	00100793          	li	a5,1
8000420c:	00f51023          	sh	a5,0(a0)
80004210:	00052223          	sw	zero,4(a0)
80004214:	00052423          	sw	zero,8(a0)
80004218:	00052623          	sw	zero,12(a0)
8000421c:	00008067          	ret

80004220 <__am_gpu_fbdraw>:
80004220:	01454783          	lbu	a5,20(a0)
80004224:	00078863          	beqz	a5,80004234 <__am_gpu_fbdraw+0x14>
80004228:	a00007b7          	lui	a5,0xa0000
8000422c:	00100713          	li	a4,1
80004230:	10e7a223          	sw	a4,260(a5) # a0000104 <_end+0x1fe7d104>
80004234:	00008067          	ret

80004238 <__am_gpu_status>:
80004238:	00100793          	li	a5,1
8000423c:	00f50023          	sb	a5,0(a0)
80004240:	00008067          	ret

80004244 <__am_audio_init>:
80004244:	00008067          	ret

80004248 <__am_audio_config>:
80004248:	00050023          	sb	zero,0(a0)
8000424c:	00008067          	ret

80004250 <__am_audio_ctrl>:
80004250:	00008067          	ret

80004254 <__am_audio_status>:
80004254:	00052023          	sw	zero,0(a0)
80004258:	00008067          	ret

8000425c <__am_audio_play>:
8000425c:	00008067          	ret

80004260 <__am_disk_config>:
80004260:	00050023          	sb	zero,0(a0)
80004264:	00008067          	ret

80004268 <__am_disk_status>:
80004268:	00008067          	ret

8000426c <__am_disk_blkio>:
8000426c:	00008067          	ret

80004270 <vsprintf>:
80004270:	fc010113          	addi	sp,sp,-64
80004274:	01812c23          	sw	s8,24(sp)
80004278:	02112e23          	sw	ra,60(sp)
8000427c:	02812c23          	sw	s0,56(sp)
80004280:	02912a23          	sw	s1,52(sp)
80004284:	03212823          	sw	s2,48(sp)
80004288:	03312623          	sw	s3,44(sp)
8000428c:	03412423          	sw	s4,40(sp)
80004290:	03512223          	sw	s5,36(sp)
80004294:	03612023          	sw	s6,32(sp)
80004298:	01712e23          	sw	s7,28(sp)
8000429c:	01912a23          	sw	s9,20(sp)
800042a0:	01a12823          	sw	s10,16(sp)
800042a4:	01b12623          	sw	s11,12(sp)
800042a8:	0005c783          	lbu	a5,0(a1)
800042ac:	00050c13          	mv	s8,a0
800042b0:	18078263          	beqz	a5,80004434 <vsprintf+0x1c4>
800042b4:	00058413          	mv	s0,a1
800042b8:	00050493          	mv	s1,a0
800042bc:	02500a93          	li	s5,37
800042c0:	06400b93          	li	s7,100
800042c4:	00a00b13          	li	s6,10
800042c8:	00100913          	li	s2,1
800042cc:	03000993          	li	s3,48
800042d0:	07300d13          	li	s10,115
800042d4:	06300c93          	li	s9,99
800042d8:	00140713          	addi	a4,s0,1
800042dc:	07579c63          	bne	a5,s5,80004354 <vsprintf+0xe4>
800042e0:	00144783          	lbu	a5,1(s0)
800042e4:	0d778463          	beq	a5,s7,800043ac <vsprintf+0x13c>
800042e8:	08fbe263          	bltu	s7,a5,8000436c <vsprintf+0xfc>
800042ec:	07578463          	beq	a5,s5,80004354 <vsprintf+0xe4>
800042f0:	07979863          	bne	a5,s9,80004360 <vsprintf+0xf0>
800042f4:	00062783          	lw	a5,0(a2)
800042f8:	00148493          	addi	s1,s1,1
800042fc:	00460613          	addi	a2,a2,4
80004300:	fef48fa3          	sb	a5,-1(s1)
80004304:	00244783          	lbu	a5,2(s0)
80004308:	00240413          	addi	s0,s0,2
8000430c:	fc0796e3          	bnez	a5,800042d8 <vsprintf+0x68>
80004310:	41848533          	sub	a0,s1,s8
80004314:	00048023          	sb	zero,0(s1)
80004318:	03c12083          	lw	ra,60(sp)
8000431c:	03812403          	lw	s0,56(sp)
80004320:	03412483          	lw	s1,52(sp)
80004324:	03012903          	lw	s2,48(sp)
80004328:	02c12983          	lw	s3,44(sp)
8000432c:	02812a03          	lw	s4,40(sp)
80004330:	02412a83          	lw	s5,36(sp)
80004334:	02012b03          	lw	s6,32(sp)
80004338:	01c12b83          	lw	s7,28(sp)
8000433c:	01812c03          	lw	s8,24(sp)
80004340:	01412c83          	lw	s9,20(sp)
80004344:	01012d03          	lw	s10,16(sp)
80004348:	00c12d83          	lw	s11,12(sp)
8000434c:	04010113          	addi	sp,sp,64
80004350:	00008067          	ret
80004354:	00f48023          	sb	a5,0(s1)
80004358:	00144783          	lbu	a5,1(s0)
8000435c:	00148493          	addi	s1,s1,1
80004360:	00070413          	mv	s0,a4
80004364:	f6079ae3          	bnez	a5,800042d8 <vsprintf+0x68>
80004368:	fa9ff06f          	j	80004310 <vsprintf+0xa0>
8000436c:	03a79c63          	bne	a5,s10,800043a4 <vsprintf+0x134>
80004370:	00062d83          	lw	s11,0(a2)
80004374:	00048513          	mv	a0,s1
80004378:	00460a13          	addi	s4,a2,4
8000437c:	000d8593          	mv	a1,s11
80004380:	190000ef          	jal	ra,80004510 <strcpy>
80004384:	000d8513          	mv	a0,s11
80004388:	154000ef          	jal	ra,800044dc <strlen>
8000438c:	00244783          	lbu	a5,2(s0)
80004390:	00a484b3          	add	s1,s1,a0
80004394:	000a0613          	mv	a2,s4
80004398:	00240413          	addi	s0,s0,2
8000439c:	f2079ee3          	bnez	a5,800042d8 <vsprintf+0x68>
800043a0:	f71ff06f          	j	80004310 <vsprintf+0xa0>
800043a4:	00070413          	mv	s0,a4
800043a8:	f31ff06f          	j	800042d8 <vsprintf+0x68>
800043ac:	00062683          	lw	a3,0(a2)
800043b0:	00460613          	addi	a2,a2,4
800043b4:	06068863          	beqz	a3,80004424 <vsprintf+0x1b4>
800043b8:	41f6d793          	srai	a5,a3,0x1f
800043bc:	00d7c6b3          	xor	a3,a5,a3
800043c0:	40f686b3          	sub	a3,a3,a5
800043c4:	00048593          	mv	a1,s1
800043c8:	40990833          	sub	a6,s2,s1
800043cc:	0366e733          	rem	a4,a3,s6
800043d0:	00058793          	mv	a5,a1
800043d4:	01058533          	add	a0,a1,a6
800043d8:	00158593          	addi	a1,a1,1
800043dc:	0366c6b3          	div	a3,a3,s6
800043e0:	03070713          	addi	a4,a4,48 # 8030 <_entry_offset+0x8030>
800043e4:	0ff77713          	zext.b	a4,a4
800043e8:	fee58fa3          	sb	a4,-1(a1)
800043ec:	fe0690e3          	bnez	a3,800043cc <vsprintf+0x15c>
800043f0:	02f4f463          	bgeu	s1,a5,80004418 <vsprintf+0x1a8>
800043f4:	00048693          	mv	a3,s1
800043f8:	0080006f          	j	80004400 <vsprintf+0x190>
800043fc:	0007c703          	lbu	a4,0(a5)
80004400:	0006c583          	lbu	a1,0(a3)
80004404:	fff78793          	addi	a5,a5,-1
80004408:	00168693          	addi	a3,a3,1
8000440c:	fee68fa3          	sb	a4,-1(a3)
80004410:	00b780a3          	sb	a1,1(a5)
80004414:	fef6e4e3          	bltu	a3,a5,800043fc <vsprintf+0x18c>
80004418:	00a484b3          	add	s1,s1,a0
8000441c:	00048023          	sb	zero,0(s1)
80004420:	ee5ff06f          	j	80004304 <vsprintf+0x94>
80004424:	01348023          	sb	s3,0(s1)
80004428:	000480a3          	sb	zero,1(s1)
8000442c:	00148493          	addi	s1,s1,1
80004430:	ed5ff06f          	j	80004304 <vsprintf+0x94>
80004434:	00050493          	mv	s1,a0
80004438:	00000513          	li	a0,0
8000443c:	ed9ff06f          	j	80004314 <vsprintf+0xa4>

80004440 <printf>:
80004440:	bc010113          	addi	sp,sp,-1088
80004444:	40812c23          	sw	s0,1048(sp)
80004448:	40912a23          	sw	s1,1044(sp)
8000444c:	00050413          	mv	s0,a0
80004450:	42b12223          	sw	a1,1060(sp)
80004454:	42c12423          	sw	a2,1064(sp)
80004458:	42410493          	addi	s1,sp,1060
8000445c:	3fc00613          	li	a2,1020
80004460:	00000593          	li	a1,0
80004464:	01410513          	addi	a0,sp,20
80004468:	40112e23          	sw	ra,1052(sp)
8000446c:	41212823          	sw	s2,1040(sp)
80004470:	42d12623          	sw	a3,1068(sp)
80004474:	42e12823          	sw	a4,1072(sp)
80004478:	42f12a23          	sw	a5,1076(sp)
8000447c:	43012c23          	sw	a6,1080(sp)
80004480:	43112e23          	sw	a7,1084(sp)
80004484:	00912623          	sw	s1,12(sp)
80004488:	00012823          	sw	zero,16(sp)
8000448c:	0e4000ef          	jal	ra,80004570 <memset>
80004490:	00048613          	mv	a2,s1
80004494:	00040593          	mv	a1,s0
80004498:	01010513          	addi	a0,sp,16
8000449c:	dd5ff0ef          	jal	ra,80004270 <vsprintf>
800044a0:	00050913          	mv	s2,a0
800044a4:	00a05e63          	blez	a0,800044c0 <printf+0x80>
800044a8:	01010413          	addi	s0,sp,16
800044ac:	00a404b3          	add	s1,s0,a0
800044b0:	00044503          	lbu	a0,0(s0)
800044b4:	00140413          	addi	s0,s0,1
800044b8:	b75ff0ef          	jal	ra,8000402c <putch>
800044bc:	fe941ae3          	bne	s0,s1,800044b0 <printf+0x70>
800044c0:	41c12083          	lw	ra,1052(sp)
800044c4:	41812403          	lw	s0,1048(sp)
800044c8:	41412483          	lw	s1,1044(sp)
800044cc:	00090513          	mv	a0,s2
800044d0:	41012903          	lw	s2,1040(sp)
800044d4:	44010113          	addi	sp,sp,1088
800044d8:	00008067          	ret

800044dc <strlen>:
800044dc:	00050713          	mv	a4,a0
800044e0:	02050263          	beqz	a0,80004504 <strlen+0x28>
800044e4:	00054783          	lbu	a5,0(a0)
800044e8:	00000513          	li	a0,0
800044ec:	02078063          	beqz	a5,8000450c <strlen+0x30>
800044f0:	00150513          	addi	a0,a0,1
800044f4:	00a707b3          	add	a5,a4,a0
800044f8:	0007c783          	lbu	a5,0(a5)
800044fc:	fe079ae3          	bnez	a5,800044f0 <strlen+0x14>
80004500:	00008067          	ret
80004504:	00000513          	li	a0,0
80004508:	00008067          	ret
8000450c:	00008067          	ret

80004510 <strcpy>:
80004510:	04058c63          	beqz	a1,80004568 <strcpy+0x58>
80004514:	0005c683          	lbu	a3,0(a1)
80004518:	04068263          	beqz	a3,8000455c <strcpy+0x4c>
8000451c:	00000793          	li	a5,0
80004520:	00178793          	addi	a5,a5,1
80004524:	00f58733          	add	a4,a1,a5
80004528:	00074703          	lbu	a4,0(a4)
8000452c:	fe071ae3          	bnez	a4,80004520 <strcpy+0x10>
80004530:	00050713          	mv	a4,a0
80004534:	00158593          	addi	a1,a1,1
80004538:	00a787b3          	add	a5,a5,a0
8000453c:	00c0006f          	j	80004548 <strcpy+0x38>
80004540:	0005c683          	lbu	a3,0(a1)
80004544:	00158593          	addi	a1,a1,1
80004548:	00d70023          	sb	a3,0(a4)
8000454c:	00170713          	addi	a4,a4,1
80004550:	fee798e3          	bne	a5,a4,80004540 <strcpy+0x30>
80004554:	00078023          	sb	zero,0(a5)
80004558:	00008067          	ret
8000455c:	00050793          	mv	a5,a0
80004560:	00078023          	sb	zero,0(a5)
80004564:	00008067          	ret
80004568:	00000513          	li	a0,0
8000456c:	00008067          	ret

80004570 <memset>:
80004570:	0ff5f593          	zext.b	a1,a1
80004574:	00c50733          	add	a4,a0,a2
80004578:	00050793          	mv	a5,a0
8000457c:	00060863          	beqz	a2,8000458c <memset+0x1c>
80004580:	00b78023          	sb	a1,0(a5)
80004584:	00178793          	addi	a5,a5,1
80004588:	fee79ce3          	bne	a5,a4,80004580 <memset+0x10>
8000458c:	00008067          	ret

80004590 <memcpy>:
80004590:	02060a63          	beqz	a2,800045c4 <memcpy+0x34>
80004594:	02050663          	beqz	a0,800045c0 <memcpy+0x30>
80004598:	02058463          	beqz	a1,800045c0 <memcpy+0x30>
8000459c:	02b50463          	beq	a0,a1,800045c4 <memcpy+0x34>
800045a0:	00c50633          	add	a2,a0,a2
800045a4:	00050793          	mv	a5,a0
800045a8:	0005c703          	lbu	a4,0(a1)
800045ac:	00178793          	addi	a5,a5,1
800045b0:	00158593          	addi	a1,a1,1
800045b4:	fee78fa3          	sb	a4,-1(a5)
800045b8:	fec798e3          	bne	a5,a2,800045a8 <memcpy+0x18>
800045bc:	00008067          	ret
800045c0:	00000513          	li	a0,0
800045c4:	00008067          	ret

800045c8 <memcmp>:
800045c8:	02060663          	beqz	a2,800045f4 <memcmp+0x2c>
800045cc:	00c58633          	add	a2,a1,a2
800045d0:	0080006f          	j	800045d8 <memcmp+0x10>
800045d4:	02c58063          	beq	a1,a2,800045f4 <memcmp+0x2c>
800045d8:	00054783          	lbu	a5,0(a0)
800045dc:	0005c703          	lbu	a4,0(a1)
800045e0:	00150513          	addi	a0,a0,1
800045e4:	00158593          	addi	a1,a1,1
800045e8:	fee786e3          	beq	a5,a4,800045d4 <memcmp+0xc>
800045ec:	40e78533          	sub	a0,a5,a4
800045f0:	00008067          	ret
800045f4:	00000513          	li	a0,0
800045f8:	00008067          	ret

800045fc <__udivmoddi4>:
800045fc:	fe010113          	addi	sp,sp,-32
80004600:	01212823          	sw	s2,16(sp)
80004604:	01412423          	sw	s4,8(sp)
80004608:	01512223          	sw	s5,4(sp)
8000460c:	01612023          	sw	s6,0(sp)
80004610:	00112e23          	sw	ra,28(sp)
80004614:	00812c23          	sw	s0,24(sp)
80004618:	00912a23          	sw	s1,20(sp)
8000461c:	01312623          	sw	s3,12(sp)
80004620:	00068a93          	mv	s5,a3
80004624:	00050913          	mv	s2,a0
80004628:	00060b13          	mv	s6,a2
8000462c:	00070a13          	mv	s4,a4
80004630:	04059463          	bnez	a1,80004678 <__udivmoddi4+0x7c>
80004634:	18069863          	bnez	a3,800047c4 <__udivmoddi4+0x1c8>
80004638:	00070863          	beqz	a4,80004648 <__udivmoddi4+0x4c>
8000463c:	02c577b3          	remu	a5,a0,a2
80004640:	00072223          	sw	zero,4(a4)
80004644:	00f72023          	sw	a5,0(a4)
80004648:	03695533          	divu	a0,s2,s6
8000464c:	00000593          	li	a1,0
80004650:	01c12083          	lw	ra,28(sp)
80004654:	01812403          	lw	s0,24(sp)
80004658:	01412483          	lw	s1,20(sp)
8000465c:	01012903          	lw	s2,16(sp)
80004660:	00c12983          	lw	s3,12(sp)
80004664:	00812a03          	lw	s4,8(sp)
80004668:	00412a83          	lw	s5,4(sp)
8000466c:	00012b03          	lw	s6,0(sp)
80004670:	02010113          	addi	sp,sp,32
80004674:	00008067          	ret
80004678:	00058993          	mv	s3,a1
8000467c:	00058413          	mv	s0,a1
80004680:	0e061863          	bnez	a2,80004770 <__udivmoddi4+0x174>
80004684:	1a068263          	beqz	a3,80004828 <__udivmoddi4+0x22c>
80004688:	20050463          	beqz	a0,80004890 <__udivmoddi4+0x294>
8000468c:	fff68793          	addi	a5,a3,-1
80004690:	00d7f733          	and	a4,a5,a3
80004694:	22070c63          	beqz	a4,800048cc <__udivmoddi4+0x2d0>
80004698:	00068513          	mv	a0,a3
8000469c:	28c000ef          	jal	ra,80004928 <__clzsi2>
800046a0:	00050493          	mv	s1,a0
800046a4:	00098513          	mv	a0,s3
800046a8:	280000ef          	jal	ra,80004928 <__clzsi2>
800046ac:	40a48733          	sub	a4,s1,a0
800046b0:	01e00793          	li	a5,30
800046b4:	16e7ec63          	bltu	a5,a4,8000482c <__udivmoddi4+0x230>
800046b8:	00170713          	addi	a4,a4,1
800046bc:	02000e93          	li	t4,32
800046c0:	40ee8eb3          	sub	t4,t4,a4
800046c4:	01d99633          	sll	a2,s3,t4
800046c8:	00e956b3          	srl	a3,s2,a4
800046cc:	00e9d7b3          	srl	a5,s3,a4
800046d0:	01d91eb3          	sll	t4,s2,t4
800046d4:	00d66433          	or	s0,a2,a3
800046d8:	00000493          	li	s1,0
800046dc:	00000313          	li	t1,0
800046e0:	01fed693          	srli	a3,t4,0x1f
800046e4:	00141813          	slli	a6,s0,0x1
800046e8:	00d86833          	or	a6,a6,a3
800046ec:	01f45413          	srli	s0,s0,0x1f
800046f0:	00179793          	slli	a5,a5,0x1
800046f4:	0087e7b3          	or	a5,a5,s0
800046f8:	410b0e33          	sub	t3,s6,a6
800046fc:	01cb36b3          	sltu	a3,s6,t3
80004700:	40fa88b3          	sub	a7,s5,a5
80004704:	40d888b3          	sub	a7,a7,a3
80004708:	001e3e13          	seqz	t3,t3
8000470c:	41c888b3          	sub	a7,a7,t3
80004710:	41f8de13          	srai	t3,a7,0x1f
80004714:	016e7433          	and	s0,t3,s6
80004718:	40880433          	sub	s0,a6,s0
8000471c:	015e7e33          	and	t3,t3,s5
80004720:	01f4d693          	srli	a3,s1,0x1f
80004724:	001e9e93          	slli	t4,t4,0x1
80004728:	00149493          	slli	s1,s1,0x1
8000472c:	00883833          	sltu	a6,a6,s0
80004730:	41c787b3          	sub	a5,a5,t3
80004734:	fff70713          	addi	a4,a4,-1
80004738:	0064e4b3          	or	s1,s1,t1
8000473c:	00deeeb3          	or	t4,t4,a3
80004740:	01f8d313          	srli	t1,a7,0x1f
80004744:	410787b3          	sub	a5,a5,a6
80004748:	f8071ce3          	bnez	a4,800046e0 <__udivmoddi4+0xe4>
8000474c:	01f4d993          	srli	s3,s1,0x1f
80004750:	001e9e93          	slli	t4,t4,0x1
80004754:	00149493          	slli	s1,s1,0x1
80004758:	0064e533          	or	a0,s1,t1
8000475c:	01d9e5b3          	or	a1,s3,t4
80004760:	ee0a08e3          	beqz	s4,80004650 <__udivmoddi4+0x54>
80004764:	008a2023          	sw	s0,0(s4)
80004768:	00fa2223          	sw	a5,4(s4)
8000476c:	ee5ff06f          	j	80004650 <__udivmoddi4+0x54>
80004770:	06068663          	beqz	a3,800047dc <__udivmoddi4+0x1e0>
80004774:	00068513          	mv	a0,a3
80004778:	1b0000ef          	jal	ra,80004928 <__clzsi2>
8000477c:	00050493          	mv	s1,a0
80004780:	00098513          	mv	a0,s3
80004784:	1a4000ef          	jal	ra,80004928 <__clzsi2>
80004788:	40a48733          	sub	a4,s1,a0
8000478c:	01f00793          	li	a5,31
80004790:	08e7ee63          	bltu	a5,a4,8000482c <__udivmoddi4+0x230>
80004794:	00170713          	addi	a4,a4,1
80004798:	02000793          	li	a5,32
8000479c:	00090e93          	mv	t4,s2
800047a0:	14f70863          	beq	a4,a5,800048f0 <__udivmoddi4+0x2f4>
800047a4:	40e786b3          	sub	a3,a5,a4
800047a8:	00e95633          	srl	a2,s2,a4
800047ac:	00d995b3          	sll	a1,s3,a3
800047b0:	00e9d7b3          	srl	a5,s3,a4
800047b4:	00d91eb3          	sll	t4,s2,a3
800047b8:	00c5e433          	or	s0,a1,a2
800047bc:	00000493          	li	s1,0
800047c0:	f1dff06f          	j	800046dc <__udivmoddi4+0xe0>
800047c4:	06070663          	beqz	a4,80004830 <__udivmoddi4+0x234>
800047c8:	00aa2023          	sw	a0,0(s4)
800047cc:	00072223          	sw	zero,4(a4)
800047d0:	00000513          	li	a0,0
800047d4:	00000593          	li	a1,0
800047d8:	e79ff06f          	j	80004650 <__udivmoddi4+0x54>
800047dc:	fff60793          	addi	a5,a2,-1
800047e0:	00c7f733          	and	a4,a5,a2
800047e4:	04071c63          	bnez	a4,8000483c <__udivmoddi4+0x240>
800047e8:	000a0863          	beqz	s4,800047f8 <__udivmoddi4+0x1fc>
800047ec:	00a7f7b3          	and	a5,a5,a0
800047f0:	00fa2023          	sw	a5,0(s4)
800047f4:	000a2223          	sw	zero,4(s4)
800047f8:	00100793          	li	a5,1
800047fc:	0cfb0263          	beq	s6,a5,800048c0 <__udivmoddi4+0x2c4>
80004800:	000b0513          	mv	a0,s6
80004804:	1bc000ef          	jal	ra,800049c0 <__ctzsi2>
80004808:	02000713          	li	a4,32
8000480c:	40a70733          	sub	a4,a4,a0
80004810:	00050793          	mv	a5,a0
80004814:	00e99733          	sll	a4,s3,a4
80004818:	00a95933          	srl	s2,s2,a0
8000481c:	01276533          	or	a0,a4,s2
80004820:	00f9d5b3          	srl	a1,s3,a5
80004824:	e2dff06f          	j	80004650 <__udivmoddi4+0x54>
80004828:	00100073          	ebreak
8000482c:	080a1063          	bnez	s4,800048ac <__udivmoddi4+0x2b0>
80004830:	00000513          	li	a0,0
80004834:	00000593          	li	a1,0
80004838:	e19ff06f          	j	80004650 <__udivmoddi4+0x54>
8000483c:	00060513          	mv	a0,a2
80004840:	00068493          	mv	s1,a3
80004844:	0e4000ef          	jal	ra,80004928 <__clzsi2>
80004848:	00050993          	mv	s3,a0
8000484c:	00040513          	mv	a0,s0
80004850:	0d8000ef          	jal	ra,80004928 <__clzsi2>
80004854:	40a98533          	sub	a0,s3,a0
80004858:	02150713          	addi	a4,a0,33
8000485c:	02000693          	li	a3,32
80004860:	00090e93          	mv	t4,s2
80004864:	00000793          	li	a5,0
80004868:	e6d70ae3          	beq	a4,a3,800046dc <__udivmoddi4+0xe0>
8000486c:	01f00613          	li	a2,31
80004870:	08e66663          	bltu	a2,a4,800048fc <__udivmoddi4+0x300>
80004874:	40e686b3          	sub	a3,a3,a4
80004878:	00e95633          	srl	a2,s2,a4
8000487c:	00d415b3          	sll	a1,s0,a3
80004880:	00e457b3          	srl	a5,s0,a4
80004884:	00d91eb3          	sll	t4,s2,a3
80004888:	00c5e433          	or	s0,a1,a2
8000488c:	e51ff06f          	j	800046dc <__udivmoddi4+0xe0>
80004890:	00070863          	beqz	a4,800048a0 <__udivmoddi4+0x2a4>
80004894:	02d5f7b3          	remu	a5,a1,a3
80004898:	00072023          	sw	zero,0(a4)
8000489c:	00f72223          	sw	a5,4(a4)
800048a0:	0359d533          	divu	a0,s3,s5
800048a4:	00000593          	li	a1,0
800048a8:	da9ff06f          	j	80004650 <__udivmoddi4+0x54>
800048ac:	012a2023          	sw	s2,0(s4)
800048b0:	013a2223          	sw	s3,4(s4)
800048b4:	00000513          	li	a0,0
800048b8:	00000593          	li	a1,0
800048bc:	d95ff06f          	j	80004650 <__udivmoddi4+0x54>
800048c0:	00090513          	mv	a0,s2
800048c4:	00098593          	mv	a1,s3
800048c8:	d89ff06f          	j	80004650 <__udivmoddi4+0x54>
800048cc:	000a0863          	beqz	s4,800048dc <__udivmoddi4+0x2e0>
800048d0:	00b7f7b3          	and	a5,a5,a1
800048d4:	00aa2023          	sw	a0,0(s4)
800048d8:	00fa2223          	sw	a5,4(s4)
800048dc:	000a8513          	mv	a0,s5
800048e0:	0e0000ef          	jal	ra,800049c0 <__ctzsi2>
800048e4:	00a9d533          	srl	a0,s3,a0
800048e8:	00000593          	li	a1,0
800048ec:	d65ff06f          	j	80004650 <__udivmoddi4+0x54>
800048f0:	00000793          	li	a5,0
800048f4:	00000493          	li	s1,0
800048f8:	de5ff06f          	j	800046dc <__udivmoddi4+0xe0>
800048fc:	04000693          	li	a3,64
80004900:	40e686b3          	sub	a3,a3,a4
80004904:	00150513          	addi	a0,a0,1
80004908:	00d914b3          	sll	s1,s2,a3
8000490c:	00a95eb3          	srl	t4,s2,a0
80004910:	00d416b3          	sll	a3,s0,a3
80004914:	01d6eeb3          	or	t4,a3,t4
80004918:	00a45433          	srl	s0,s0,a0
8000491c:	dc1ff06f          	j	800046dc <__udivmoddi4+0xe0>

80004920 <__udivdi3>:
80004920:	00000713          	li	a4,0
80004924:	cd9ff06f          	j	800045fc <__udivmoddi4>

80004928 <__clzsi2>:
80004928:	ffff05b7          	lui	a1,0xffff0
8000492c:	00b575b3          	and	a1,a0,a1
80004930:	0015b593          	seqz	a1,a1
80004934:	00459593          	slli	a1,a1,0x4
80004938:	01000793          	li	a5,16
8000493c:	40b787b3          	sub	a5,a5,a1
80004940:	00010737          	lui	a4,0x10
80004944:	00f557b3          	srl	a5,a0,a5
80004948:	f0070713          	addi	a4,a4,-256 # ff00 <_entry_offset+0xff00>
8000494c:	00e7f733          	and	a4,a5,a4
80004950:	00173713          	seqz	a4,a4
80004954:	00371713          	slli	a4,a4,0x3
80004958:	00800693          	li	a3,8
8000495c:	40e686b3          	sub	a3,a3,a4
80004960:	00d7d7b3          	srl	a5,a5,a3
80004964:	0f07f613          	andi	a2,a5,240
80004968:	00163613          	seqz	a2,a2
8000496c:	00261613          	slli	a2,a2,0x2
80004970:	00400693          	li	a3,4
80004974:	40c686b3          	sub	a3,a3,a2
80004978:	00d7d7b3          	srl	a5,a5,a3
8000497c:	00c7f693          	andi	a3,a5,12
80004980:	0016b693          	seqz	a3,a3
80004984:	00169693          	slli	a3,a3,0x1
80004988:	00200813          	li	a6,2
8000498c:	40d80533          	sub	a0,a6,a3
80004990:	00a7d7b3          	srl	a5,a5,a0
80004994:	0017d513          	srli	a0,a5,0x1
80004998:	00154513          	xori	a0,a0,1
8000499c:	00b70733          	add	a4,a4,a1
800049a0:	00157513          	andi	a0,a0,1
800049a4:	00e60633          	add	a2,a2,a4
800049a8:	40f80833          	sub	a6,a6,a5
800049ac:	40a00733          	neg	a4,a0
800049b0:	01077733          	and	a4,a4,a6
800049b4:	00c68533          	add	a0,a3,a2
800049b8:	00a70533          	add	a0,a4,a0
800049bc:	00008067          	ret

800049c0 <__ctzsi2>:
800049c0:	01051593          	slli	a1,a0,0x10
800049c4:	0105d593          	srli	a1,a1,0x10
800049c8:	0015b593          	seqz	a1,a1
800049cc:	00459593          	slli	a1,a1,0x4
800049d0:	00b557b3          	srl	a5,a0,a1
800049d4:	0ff7f613          	zext.b	a2,a5
800049d8:	00163613          	seqz	a2,a2
800049dc:	00361613          	slli	a2,a2,0x3
800049e0:	00c7d7b3          	srl	a5,a5,a2
800049e4:	00f7f693          	andi	a3,a5,15
800049e8:	0016b693          	seqz	a3,a3
800049ec:	00269693          	slli	a3,a3,0x2
800049f0:	00d7d7b3          	srl	a5,a5,a3
800049f4:	0037f713          	andi	a4,a5,3
800049f8:	00173713          	seqz	a4,a4
800049fc:	00171713          	slli	a4,a4,0x1
80004a00:	00e7d7b3          	srl	a5,a5,a4
80004a04:	0017d513          	srli	a0,a5,0x1
80004a08:	00b60633          	add	a2,a2,a1
80004a0c:	0017f793          	andi	a5,a5,1
80004a10:	00157593          	andi	a1,a0,1
80004a14:	00200513          	li	a0,2
80004a18:	00c686b3          	add	a3,a3,a2
80004a1c:	40b50533          	sub	a0,a0,a1
80004a20:	fff78793          	addi	a5,a5,-1
80004a24:	00f57533          	and	a0,a0,a5
80004a28:	00d70733          	add	a4,a4,a3
80004a2c:	00e50533          	add	a0,a0,a4
80004a30:	00008067          	ret
