[1;34m[src/utils/log.c:29 init_log] Log is written to /home/alan/Project/ysyx/ysyx-workbench/am-kernels/benchmarks/coremark/build/nemu-log.txt[0m
[1;34m[src/utils/log.c:39 init_ftrace_log] Log is written to /home/alan/Project/ysyx/ysyx-workbench/am-kernels/benchmarks/coremark/build/ftrace-log.txt[0m
[1;34m[src/memory/paddr.c:58 init_mem] physical memory area [0x80000000, 0x87ffffff][0m
[1;34m[src/device/io/mmio.c:50 add_mmio_map] Add mmio map 'serial' at [0xa00003f8, 0xa00003ff][0m
[1;34m[src/device/io/mmio.c:50 add_mmio_map] Add mmio map 'rtc' at [0xa0000048, 0xa000004f][0m
[1;34m[src/device/io/mmio.c:50 add_mmio_map] Add mmio map 'vgactl' at [0xa0000100, 0xa0000107][0m
[1;34m[src/device/io/mmio.c:50 add_mmio_map] Add mmio map 'vmem' at [0xa1000000, 0xa10752ff][0m
[1;34m[src/device/io/mmio.c:50 add_mmio_map] Add mmio map 'keyboard' at [0xa0000060, 0xa0000063][0m
[1;34m[src/device/io/mmio.c:50 add_mmio_map] Add mmio map 'audio' at [0xa0000200, 0xa0000217][0m
[1;34m[src/device/io/mmio.c:50 add_mmio_map] Add mmio map 'audio-sbuf' at [0xa1200000, 0xa120ffff][0m
[1;34m[src/monitor/monitor.c:70 load_img] The image is /home/alan/Project/ysyx/ysyx-workbench/am-kernels/benchmarks/coremark/build/coremark-riscv32-nemu.bin, size = 14692[0m
[1;34m[src/cpu/difftest/dut.c:84 init_difftest] Differential testing: [1;32mON[0m[0m
[1;34m[src/cpu/difftest/dut.c:85 init_difftest] The result of every instruction will be compared with /home/alan/Project/ysyx/ysyx-workbench/nemu/tools/spike-diff/build/riscv32-spike-so. This will help you a lot for debugging, but also significantly reduce the performance. If it is not necessary, you can turn it off in menuconfig.[0m
[1;34m[src/monitor/monitor.c:30 welcome] Trace: [1;32mON[0m[0m
[1;34m[src/monitor/monitor.c:33 welcome] If trace is enabled, a log file will be generated to record the trace. This may lead to a large log file. If it is not necessary, you can disable it in menuconfig[0m
[1;34m[src/monitor/monitor.c:36 welcome] Build time: 23:38:21, Nov 21 2023[0m
è¯»å–åœ°å€ 0x80000000
0x80000000: 00 00 04 13 addi	s0, zero, 0
è¯»å–åœ°å€ 0x80000004
0x80000004: 00 00 c1 17 auipc	sp, 12
è¯»å–åœ°å€ 0x80000008
0x80000008: ff c1 01 13 addi	sp, sp, -4
è¯»å–åœ°å€ 0x8000000c
0x8000000c: 28 40 20 ef jal	ra, 0x80002290
è¯»å–åœ°å€ 0x80002290
0x80002290: 80 00 35 37 lui	a0, 524291
è¯»å–åœ°å€ 0x80002294
0x80002294: ff 01 01 13 addi	sp, sp, -16
è¯»å–åœ°å€ 0x80002298
0x80002298: f7 05 05 13 addi	a0, a0, -144
è¯»å–åœ°å€ 0x8000229c
å†™å…¥åœ°å€ 0x8000bffc
0x8000229c: 00 11 26 23 sw	ra, 12(sp)
è¯»å–åœ°å€ 0x800022a0
0x800022a0: ed 4f f0 ef jal	ra, 0x80001974
è¯»å–åœ°å€ 0x80001974
0x80001974: f6 01 01 13 addi	sp, sp, -160
è¯»å–åœ°å€ 0x80001978
å†™å…¥åœ°å€ 0x8000bfec
0x80001978: 08 11 2e 23 sw	ra, 156(sp)
è¯»å–åœ°å€ 0x8000197c
å†™å…¥åœ°å€ 0x8000bfe8
0x8000197c: 08 81 2c 23 sw	s0, 152(sp)
è¯»å–åœ°å€ 0x80001980
å†™å…¥åœ°å€ 0x8000bfe4
0x80001980: 08 91 2a 23 sw	s1, 148(sp)
è¯»å–åœ°å€ 0x80001984
0x80001984: 00 05 84 13 addi	s0, a1, 0
è¯»å–åœ°å€ 0x80001988
å†™å…¥åœ°å€ 0x8000bfe0
0x80001988: 09 21 28 23 sw	s2, 144(sp)
è¯»å–åœ°å€ 0x8000198c
å†™å…¥åœ°å€ 0x8000bfdc
0x8000198c: 09 31 26 23 sw	s3, 140(sp)
è¯»å–åœ°å€ 0x80001990
å†™å…¥åœ°å€ 0x8000bfd8
0x80001990: 09 41 24 23 sw	s4, 136(sp)
è¯»å–åœ°å€ 0x80001994
å†™å…¥åœ°å€ 0x8000bfd4
0x80001994: 09 51 22 23 sw	s5, 132(sp)
è¯»å–åœ°å€ 0x80001998
å†™å…¥åœ°å€ 0x8000bfd0
0x80001998: 09 61 20 23 sw	s6, 128(sp)
è¯»å–åœ°å€ 0x8000199c
å†™å…¥åœ°å€ 0x8000bfcc
0x8000199c: 07 71 2e 23 sw	s7, 124(sp)
è¯»å–åœ°å€ 0x800019a0
å†™å…¥åœ°å€ 0x8000bfc8
0x800019a0: 07 81 2c 23 sw	s8, 120(sp)
è¯»å–åœ°å€ 0x800019a4
å†™å…¥åœ°å€ 0x8000bfc4
0x800019a4: 07 91 2a 23 sw	s9, 116(sp)
è¯»å–åœ°å€ 0x800019a8
å†™å…¥åœ°å€ 0x8000bfc0
0x800019a8: 07 a1 28 23 sw	s10, 112(sp)
è¯»å–åœ°å€ 0x800019ac
å†™å…¥åœ°å€ 0x8000bfbc
0x800019ac: 07 b1 26 23 sw	s11, 108(sp)
è¯»å–åœ°å€ 0x800019b0
å†™å…¥åœ°å€ 0x8000bf5c
0x800019b0: 00 a1 26 23 sw	a0, 12(sp)
è¯»å–åœ°å€ 0x800019b4
0x800019b4: 76 80 00 ef jal	ra, 0x8000211c
è¯»å–åœ°å€ 0x8000211c
0x8000211c: 80 00 37 b7 lui	a5, 524291
è¯»å–åœ°å€ 0x80002120
0x80002120: ff 01 01 13 addi	sp, sp, -16
è¯»å–åœ°å€ 0x80002124
0x80002124: f8 07 87 93 addi	a5, a5, -128
è¯»å–åœ°å€ 0x80002128
0x80002128: 80 00 26 37 lui	a2, 524290
è¯»å–åœ°å€ 0x8000212c
å†™å…¥åœ°å€ 0x8000bf4c
0x8000212c: 00 11 26 23 sw	ra, 12(sp)
è¯»å–åœ°å€ 0x80002130
0x80002130: 20 07 86 93 addi	a3, a5, 512
è¯»å–åœ°å€ 0x80002134
0x80002134: 0b 46 06 13 addi	a2, a2, 180
è¯»å–åœ°å€ 0x80002138
0x80002138: 00 c0 00 6f jal	zero, 0x80002144
è¯»å–åœ°å€ 0x80002144
è¯»å–åœ°å€ 0x80002f80
0x80002144: 00 07 a7 03 lw	a4, 0(a5)
è¯»å–åœ°å€ 0x80002148
0x80002148: fe 07 1a e3 bne	a4, zero, 0x8000213c
è¯»å–åœ°å€ 0x8000214c
å†™å…¥åœ°å€ 0x80002f80
0x8000214c: 00 c7 a0 23 sw	a2, 0(a5)
è¯»å–åœ°å€ 0x80002150
0x80002150: 00 47 87 93 addi	a5, a5, 4
è¯»å–åœ°å€ 0x80002154
0x80002154: fe d7 98 e3 bne	a5, a3, 0x80002144
è¯»å–åœ°å€ 0x80002144
è¯»å–åœ°å€ 0x80002f84
0x80002144: 00 07 a7 03 lw	a4, 0(a5)
è¯»å–åœ°å€ 0x80002148
0x80002148: fe 07 1a e3 bne	a4, zero, 0x8000213c
è¯»å–åœ°å€ 0x8000213c
0x8000213c: 00 47 87 93 addi	a5, a5, 4
è¯»å–åœ°å€ 0x80002140
0x80002140: 00 d7 8c 63 beq	a5, a3, 0x80002158
è¯»å–åœ°å€ 0x80002144
è¯»å–åœ°å€ 0x80002f88
0x80002144: 00 07 a7 03 lw	a4, 0(a5)
è¯»å–åœ°å€ 0x80002148
0x80002148: fe 07 1a e3 bne	a4, zero, 0x8000213c
è¯»å–åœ°å€ 0x8000214c
å†™å…¥åœ°å€ 0x80002f88
0x8000214c: 00 c7 a0 23 sw	a2, 0(a5)
è¯»å–åœ°å€ 0x80002150
0x80002150: 00 47 87 93 addi	a5, a5, 4
è¯»å–åœ°å€ 0x80002154
0x80002154: fe d7 98 e3 bne	a5, a3, 0x80002144
è¯»å–åœ°å€ 0x80002144
è¯»å–åœ°å€ 0x80002f8c
0x80002144: 00 07 a7 03 lw	a4, 0(a5)
è¯»å–åœ°å€ 0x80002148
0x80002148: fe 07 1a e3 bne	a4, zero, 0x8000213c
è¯»å–åœ°å€ 0x8000214c
å†™å…¥åœ°å€ 0x80002f8c
0x8000214c: 00 c7 a0 23 sw	a2, 0(a5)
è¯»å–åœ°å€ 0x80002150
0x80002150: 00 47 87 93 addi	a5, a5, 4
è¯»å–åœ°å€ 0x80002154
0x80002154: fe d7 98 e3 bne	a5, a3, 0x80002144
è¯»å–åœ°å€ 0x80002144
è¯»å–åœ°å€ 0x80002f90
0x80002144: 00 07 a7 03 lw	a4, 0(a5)
è¯»å–åœ°å€ 0x80002148
0x80002148: fe 07 1a e3 bne	a4, zero, 0x8000213c
è¯»å–åœ°å€ 0x8000213c
0x8000213c: 00 47 87 93 addi	a5, a5, 4
è¯»å–åœ°å€ 0x80002140
0x80002140: 00 d7 8c 63 beq	a5, a3, 0x80002158
è¯»å–åœ°å€ 0x80002144
è¯»å–åœ°å€ 0x80002f94
0x80002144: 00 07 a7 03 lw	a4, 0(a5)
è¯»å–åœ°å€ 0x80002148
0x80002148: fe 07 1a e3 bne	a4, zero, 0x8000213c
è¯»å–åœ°å€ 0x8000213c
0x8000213c: 00 47 87 93 addi	a5, a5, 4
è¯»å–åœ°å€ 0x80002140
0x80002140: 00 d7 8c 63 beq	a5, a3, 0x80002158
è¯»å–åœ°å€ 0x80002144
è¯»å–åœ°å€ 0x80002f98
0x80002144: 00 07 a7 03 lw	a4, 0(a5)
è¯»å–åœ°å€ 0x80002148
0x80002148: fe 07 1a e3 bne	a4, zero, 0x8000213c
è¯»å–åœ°å€ 0x8000213c
0x8000213c: 00 47 87 93 addi	a5, a5, 4
è¯»å–åœ°å€ 0x80002140
0x80002140: 00 d7 8c 63 beq	a5, a3, 0x80002158
è¯»å–åœ°å€ 0x80002144
è¯»å–åœ°å€ 0x80002f9c
0x80002144: 00 07 a7 03 lw	a4, 0(a5)
è¯»å–åœ°å€ 0x80002148
0x80002148: fe 07 1a e3 bne	a4, zero, 0x8000213c
è¯»å–åœ°å€ 0x8000213c
0x8000213c: 00 47 87 93 addi	a5, a5, 4
è¯»å–åœ°å€ 0x80002140
0x80002140: 00 d7 8c 63 beq	a5, a3, 0x80002158
è¯»å–åœ°å€ 0x80002144
è¯»å–åœ°å€ 0x80002fa0
0x80002144: 00 07 a7 03 lw	a4, 0(a5)
è¯»å–åœ°å€ 0x80002148
0x80002148: fe 07 1a e3 bne	a4, zero, 0x8000213c
è¯»å–åœ°å€ 0x8000213c
0x8000213c: 00 47 87 93 addi	a5, a5, 4
è¯»å–åœ°å€ 0x80002140
0x80002140: 00 d7 8c 63 beq	a5, a3, 0x80002158
è¯»å–åœ°å€ 0x80002144
è¯»å–åœ°å€ 0x80002fa4
0x80002144: 00 07 a7 03 lw	a4, 0(a5)
è¯»å–åœ°å€ 0x80002148
0x80002148: fe 07 1a e3 bne	a4, zero, 0x8000213c
è¯»å–åœ°å€ 0x8000213c
0x8000213c: 00 47 87 93 addi	a5, a5, 4
è¯»å–åœ°å€ 0x80002140
0x80002140: 00 d7 8c 63 beq	a5, a3, 0x80002158
è¯»å–åœ°å€ 0x80002144
è¯»å–åœ°å€ 0x80002fa8
0x80002144: 00 07 a7 03 lw	a4, 0(a5)
è¯»å–åœ°å€ 0x80002148
0x80002148: fe 07 1a e3 bne	a4, zero, 0x8000213c
è¯»å–åœ°å€ 0x8000213c
0x8000213c: 00 47 87 93 addi	a5, a5, 4
è¯»å–åœ°å€ 0x80002140
0x80002140: 00 d7 8c 63 beq	a5, a3, 0x80002158
è¯»å–åœ°å€ 0x80002144
è¯»å–åœ°å€ 0x80002fac
0x80002144: 00 07 a7 03 lw	a4, 0(a5)
è¯»å–åœ°å€ 0x80002148
0x80002148: fe 07 1a e3 bne	a4, zero, 0x8000213c
è¯»å–åœ°å€ 0x8000213c
0x8000213c: 00 47 87 93 addi	a5, a5, 4
è¯»å–åœ°å€ 0x80002140
0x80002140: 00 d7 8c 63 beq	a5, a3, 0x80002158
è¯»å–åœ°å€ 0x80002144
è¯»å–åœ°å€ 0x80002fb0
0x80002144: 00 07 a7 03 lw	a4, 0(a5)
è¯»å–åœ°å€ 0x80002148
0x80002148: fe 07 1a e3 bne	a4, zero, 0x8000213c
è¯»å–åœ°å€ 0x8000214c
å†™å…¥åœ°å€ 0x80002fb0
0x8000214c: 00 c7 a0 23 sw	a2, 0(a5)
è¯»å–åœ°å€ 0x80002150
0x80002150: 00 47 87 93 addi	a5, a5, 4
è¯»å–åœ°å€ 0x80002154
0x80002154: fe d7 98 e3 bne	a5, a3, 0x80002144
è¯»å–åœ°å€ 0x80002144
è¯»å–åœ°å€ 0x80002fb4
0x80002144: 00 07 a7 03 lw	a4, 0(a5)
è¯»å–åœ°å€ 0x80002148
0x80002148: fe 07 1a e3 bne	a4, zero, 0x8000213c
è¯»å–åœ°å€ 0x8000214c
å†™å…¥åœ°å€ 0x80002fb4
0x8000214c: 00 c7 a0 23 sw	a2, 0(a5)
è¯»å–åœ°å€ 0x80002150
0x80002150: 00 47 87 93 addi	a5, a5, 4
è¯»å–åœ°å€ 0x80002154
0x80002154: fe d7 98 e3 bne	a5, a3, 0x80002144
è¯»å–åœ°å€ 0x80002144
è¯»å–åœ°å€ 0x80002fb8
0x80002144: 00 07 a7 03 lw	a4, 0(a5)
è¯»å–åœ°å€ 0x80002148
0x80002148: fe 07 1a e3 bne	a4, zero, 0x8000213c
è¯»å–åœ°å€ 0x8000213c
0x8000213c: 00 47 87 93 addi	a5, a5, 4
è¯»å–åœ°å€ 0x80002140
0x80002140: 00 d7 8c 63 beq	a5, a3, 0x80002158
è¯»å–åœ°å€ 0x80002144
è¯»å–åœ°å€ 0x80002fbc
0x80002144: 00 07 a7 03 lw	a4, 0(a5)
è¯»å–åœ°å€ 0x80002148
0x80002148: fe 07 1a e3 bne	a4, zero, 0x8000213c
è¯»å–åœ°å€ 0x8000213c
0x8000213c: 00 47 87 93 addi	a5, a5, 4
è¯»å–åœ°å€ 0x80002140
0x80002140: 00 d7 8c 63 beq	a5, a3, 0x80002158
è¯»å–åœ°å€ 0x80002144
è¯»å–åœ°å€ 0x80002fc0
0x80002144: 00 07 a7 03 lw	a4, 0(a5)
è¯»å–åœ°å€ 0x80002148
0x80002148: fe 07 1a e3 bne	a4, zero, 0x8000213c
è¯»å–åœ°å€ 0x8000213c
0x8000213c: 00 47 87 93 addi	a5, a5, 4
è¯»å–åœ°å€ 0x80002140
0x80002140: 00 d7 8c 63 beq	a5, a3, 0x80002158
è¯»å–åœ°å€ 0x80002144
è¯»å–åœ°å€ 0x80002fc4
0x80002144: 00 07 a7 03 lw	a4, 0(a5)
è¯»å–åœ°å€ 0x80002148
0x80002148: fe 07 1a e3 bne	a4, zero, 0x8000213c
è¯»å–åœ°å€ 0x8000213c
0x8000213c: 00 47 87 93 addi	a5, a5, 4
è¯»å–åœ°å€ 0x80002140
0x80002140: 00 d7 8c 63 beq	a5, a3, 0x80002158
è¯»å–åœ°å€ 0x80002144
è¯»å–åœ°å€ 0x80002fc8
0x80002144: 00 07 a7 03 lw	a4, 0(a5)
è¯»å–åœ°å€ 0x80002148
0x80002148: fe 07 1a e3 bne	a4, zero, 0x8000213c
è¯»å–åœ°å€ 0x8000213c
0x8000213c: 00 47 87 93 addi	a5, a5, 4
è¯»å–åœ°å€ 0x80002140
0x80002140: 00 d7 8c 63 beq	a5, a3, 0x80002158
è¯»å–åœ°å€ 0x80002144
è¯»å–åœ°å€ 0x80002fcc
0x80002144: 00 07 a7 03 lw	a4, 0(a5)
è¯»å–åœ°å€ 0x80002148
0x80002148: fe 07 1a e3 bne	a4, zero, 0x8000213c
è¯»å–åœ°å€ 0x8000213c
0x8000213c: 00 47 87 93 addi	a5, a5, 4
è¯»å–åœ°å€ 0x80002140
0x80002140: 00 d7 8c 63 beq	a5, a3, 0x80002158
è¯»å–åœ°å€ 0x80002144
è¯»å–åœ°å€ 0x80002fd0
0x80002144: 00 07 a7 03 lw	a4, 0(a5)
è¯»å–åœ°å€ 0x80002148
0x80002148: fe 07 1a e3 bne	a4, zero, 0x8000213c
è¯»å–åœ°å€ 0x8000213c
0x8000213c: 00 47 87 93 addi	a5, a5, 4
è¯»å–åœ°å€ 0x80002140
0x80002140: 00 d7 8c 63 beq	a5, a3, 0x80002158
è¯»å–åœ°å€ 0x80002144
è¯»å–åœ°å€ 0x80002fd4
0x80002144: 00 07 a7 03 lw	a4, 0(a5)
è¯»å–åœ°å€ 0x80002148
0x80002148: fe 07 1a e3 bne	a4, zero, 0x8000213c
è¯»å–åœ°å€ 0x8000213c
0x8000213c: 00 47 87 93 addi	a5, a5, 4
è¯»å–åœ°å€ 0x80002140
0x80002140: 00 d7 8c 63 beq	a5, a3, 0x80002158
è¯»å–åœ°å€ 0x80002144
è¯»å–åœ°å€ 0x80002fd8
0x80002144: 00 07 a7 03 lw	a4, 0(a5)
è¯»å–åœ°å€ 0x80002148
0x80002148: fe 07 1a e3 bne	a4, zero, 0x8000213c
è¯»å–åœ°å€ 0x8000214c
å†™å…¥åœ°å€ 0x80002fd8
0x8000214c: 00 c7 a0 23 sw	a2, 0(a5)
è¯»å–åœ°å€ 0x80002150
0x80002150: 00 47 87 93 addi	a5, a5, 4
è¯»å–åœ°å€ 0x80002154
0x80002154: fe d7 98 e3 bne	a5, a3, 0x80002144
è¯»å–åœ°å€ 0x80002144
è¯»å–åœ°å€ 0x80002fdc
0x80002144: 00 07 a7 03 lw	a4, 0(a5)
è¯»å–åœ°å€ 0x80002148
0x80002148: fe 07 1a e3 bne	a4, zero, 0x8000213c
è¯»å–åœ°å€ 0x8000214c
å†™å…¥åœ°å€ 0x80002fdc
0x8000214c: 00 c7 a0 23 sw	a2, 0(a5)
è¯»å–åœ°å€ 0x80002150
0x80002150: 00 47 87 93 addi	a5, a5, 4
è¯»å–åœ°å€ 0x80002154
0x80002154: fe d7 98 e3 bne	a5, a3, 0x80002144
è¯»å–åœ°å€ 0x80002144
è¯»å–åœ°å€ 0x80002fe0
0x80002144: 00 07 a7 03 lw	a4, 0(a5)
è¯»å–åœ°å€ 0x80002148
0x80002148: fe 07 1a e3 bne	a4, zero, 0x8000213c
è¯»å–åœ°å€ 0x8000214c
å†™å…¥åœ°å€ 0x80002fe0
0x8000214c: 00 c7 a0 23 sw	a2, 0(a5)
è¯»å–åœ°å€ 0x80002150
0x80002150: 00 47 87 93 addi	a5, a5, 4
è¯»å–åœ°å€ 0x80002154
0x80002154: fe d7 98 e3 bne	a5, a3, 0x80002144
è¯»å–åœ°å€ 0x80002144
è¯»å–åœ°å€ 0x80002fe4
0x80002144: 00 07 a7 03 lw	a4, 0(a5)
è¯»å–åœ°å€ 0x80002148
0x80002148: fe 07 1a e3 bne	a4, zero, 0x8000213c
è¯»å–åœ°å€ 0x8000214c
å†™å…¥åœ°å€ 0x80002fe4
0x8000214c: 00 c7 a0 23 sw	a2, 0(a5)
è¯»å–åœ°å€ 0x80002150
0x80002150: 00 47 87 93 addi	a5, a5, 4
è¯»å–åœ°å€ 0x80002154
0x80002154: fe d7 98 e3 bne	a5, a3, 0x80002144
è¯»å–åœ°å€ 0x80002144
è¯»å–åœ°å€ 0x80002fe8
0x80002144: 00 07 a7 03 lw	a4, 0(a5)
è¯»å–åœ°å€ 0x80002148
0x80002148: fe 07 1a e3 bne	a4, zero, 0x8000213c
è¯»å–åœ°å€ 0x8000214c
å†™å…¥åœ°å€ 0x80002fe8
0x8000214c: 00 c7 a0 23 sw	a2, 0(a5)
è¯»å–åœ°å€ 0x80002150
0x80002150: 00 47 87 93 addi	a5, a5, 4
è¯»å–åœ°å€ 0x80002154
0x80002154: fe d7 98 e3 bne	a5, a3, 0x80002144
è¯»å–åœ°å€ 0x80002144
è¯»å–åœ°å€ 0x80002fec
0x80002144: 00 07 a7 03 lw	a4, 0(a5)
è¯»å–åœ°å€ 0x80002148
0x80002148: fe 07 1a e3 bne	a4, zero, 0x8000213c
è¯»å–åœ°å€ 0x8000214c
å†™å…¥åœ°å€ 0x80002fec
0x8000214c: 00 c7 a0 23 sw	a2, 0(a5)
è¯»å–åœ°å€ 0x80002150
0x80002150: 00 47 87 93 addi	a5, a5, 4
è¯»å–åœ°å€ 0x80002154
0x80002154: fe d7 98 e3 bne	a5, a3, 0x80002144
è¯»å–åœ°å€ 0x80002144
è¯»å–åœ°å€ 0x80002ff0
0x80002144: 00 07 a7 03 lw	a4, 0(a5)
è¯»å–åœ°å€ 0x80002148
0x80002148: fe 07 1a e3 bne	a4, zero, 0x8000213c
è¯»å–åœ°å€ 0x8000214c
å†™å…¥åœ°å€ 0x80002ff0
0x8000214c: 00 c7 a0 23 sw	a2, 0(a5)
è¯»å–åœ°å€ 0x80002150
0x80002150: 00 47 87 93 addi	a5, a5, 4
è¯»å–åœ°å€ 0x80002154
0x80002154: fe d7 98 e3 bne	a5, a3, 0x80002144
è¯»å–åœ°å€ 0x80002144
è¯»å–åœ°å€ 0x80002ff4
0x80002144: 00 07 a7 03 lw	a4, 0(a5)
è¯»å–åœ°å€ 0x80002148
0x80002148: fe 07 1a e3 bne	a4, zero, 0x8000213c
è¯»å–åœ°å€ 0x8000214c
å†™å…¥åœ°å€ 0x80002ff4
0x8000214c: 00 c7 a0 23 sw	a2, 0(a5)
è¯»å–åœ°å€ 0x80002150
0x80002150: 00 47 87 93 addi	a5, a5, 4
è¯»å–åœ°å€ 0x80002154
0x80002154: fe d7 98 e3 bne	a5, a3, 0x80002144
è¯»å–åœ°å€ 0x80002144
è¯»å–åœ°å€ 0x80002ff8
0x80002144: 00 07 a7 03 lw	a4, 0(a5)
è¯»å–åœ°å€ 0x80002148
0x80002148: fe 07 1a e3 bne	a4, zero, 0x8000213c
è¯»å–åœ°å€ 0x8000214c
å†™å…¥åœ°å€ 0x80002ff8
0x8000214c: 00 c7 a0 23 sw	a2, 0(a5)
è¯»å–åœ°å€ 0x80002150
0x80002150: 00 47 87 93 addi	a5, a5, 4
è¯»å–åœ°å€ 0x80002154
0x80002154: fe d7 98 e3 bne	a5, a3, 0x80002144
è¯»å–åœ°å€ 0x80002144
è¯»å–åœ°å€ 0x80002ffc
0x80002144: 00 07 a7 03 lw	a4, 0(a5)
è¯»å–åœ°å€ 0x80002148
0x80002148: fe 07 1a e3 bne	a4, zero, 0x8000213c
è¯»å–åœ°å€ 0x8000214c
å†™å…¥åœ°å€ 0x80002ffc
0x8000214c: 00 c7 a0 23 sw	a2, 0(a5)
è¯»å–åœ°å€ 0x80002150
0x80002150: 00 47 87 93 addi	a5, a5, 4
è¯»å–åœ°å€ 0x80002154
0x80002154: fe d7 98 e3 bne	a5, a3, 0x80002144
è¯»å–åœ°å€ 0x80002144
è¯»å–åœ°å€ 0x80003000
0x80002144: 00 07 a7 03 lw	a4, 0(a5)
è¯»å–åœ°å€ 0x80002148
0x80002148: fe 07 1a e3 bne	a4, zero, 0x8000213c
è¯»å–åœ°å€ 0x8000214c
å†™å…¥åœ°å€ 0x80003000
0x8000214c: 00 c7 a0 23 sw	a2, 0(a5)
è¯»å–åœ°å€ 0x80002150
0x80002150: 00 47 87 93 addi	a5, a5, 4
è¯»å–åœ°å€ 0x80002154
0x80002154: fe d7 98 e3 bne	a5, a3, 0x80002144
è¯»å–åœ°å€ 0x80002144
è¯»å–åœ°å€ 0x80003004
0x80002144: 00 07 a7 03 lw	a4, 0(a5)
è¯»å–åœ°å€ 0x80002148
0x80002148: fe 07 1a e3 bne	a4, zero, 0x8000213c
è¯»å–åœ°å€ 0x8000214c
å†™å…¥åœ°å€ 0x80003004
0x8000214c: 00 c7 a0 23 sw	a2, 0(a5)
è¯»å–åœ°å€ 0x80002150
0x80002150: 00 47 87 93 addi	a5, a5, 4
è¯»å–åœ°å€ 0x80002154
0x80002154: fe d7 98 e3 bne	a5, a3, 0x80002144
è¯»å–åœ°å€ 0x80002144
è¯»å–åœ°å€ 0x80003008
0x80002144: 00 07 a7 03 lw	a4, 0(a5)
è¯»å–åœ°å€ 0x80002148
0x80002148: fe 07 1a e3 bne	a4, zero, 0x8000213c
è¯»å–åœ°å€ 0x8000214c
å†™å…¥åœ°å€ 0x80003008
0x8000214c: 00 c7 a0 23 sw	a2, 0(a5)
è¯»å–åœ°å€ 0x80002150
0x80002150: 00 47 87 93 addi	a5, a5, 4
è¯»å–åœ°å€ 0x80002154
0x80002154: fe d7 98 e3 bne	a5, a3, 0x80002144
è¯»å–åœ°å€ 0x80002144
è¯»å–åœ°å€ 0x8000300c
0x80002144: 00 07 a7 03 lw	a4, 0(a5)
è¯»å–åœ°å€ 0x80002148
0x80002148: fe 07 1a e3 bne	a4, zero, 0x8000213c
è¯»å–åœ°å€ 0x8000214c
å†™å…¥åœ°å€ 0x8000300c
0x8000214c: 00 c7 a0 23 sw	a2, 0(a5)
è¯»å–åœ°å€ 0x80002150
0x80002150: 00 47 87 93 addi	a5, a5, 4
è¯»å–åœ°å€ 0x80002154
0x80002154: fe d7 98 e3 bne	a5, a3, 0x80002144
è¯»å–åœ°å€ 0x80002144
è¯»å–åœ°å€ 0x80003010
0x80002144: 00 07 a7 03 lw	a4, 0(a5)
è¯»å–åœ°å€ 0x80002148
0x80002148: fe 07 1a e3 bne	a4, zero, 0x8000213c
è¯»å–åœ°å€ 0x8000214c
å†™å…¥åœ°å€ 0x80003010
0x8000214c: 00 c7 a0 23 sw	a2, 0(a5)
è¯»å–åœ°å€ 0x80002150
0x80002150: 00 47 87 93 addi	a5, a5, 4
è¯»å–åœ°å€ 0x80002154
0x80002154: fe d7 98 e3 bne	a5, a3, 0x80002144
è¯»å–åœ°å€ 0x80002144
è¯»å–åœ°å€ 0x80003014
0x80002144: 00 07 a7 03 lw	a4, 0(a5)
è¯»å–åœ°å€ 0x80002148
0x80002148: fe 07 1a e3 bne	a4, zero, 0x8000213c
è¯»å–åœ°å€ 0x8000214c
å†™å…¥åœ°å€ 0x80003014
0x8000214c: 00 c7 a0 23 sw	a2, 0(a5)
è¯»å–åœ°å€ 0x80002150
0x80002150: 00 47 87 93 addi	a5, a5, 4
è¯»å–åœ°å€ 0x80002154
0x80002154: fe d7 98 e3 bne	a5, a3, 0x80002144
è¯»å–åœ°å€ 0x80002144
è¯»å–åœ°å€ 0x80003018
0x80002144: 00 07 a7 03 lw	a4, 0(a5)
è¯»å–åœ°å€ 0x80002148
0x80002148: fe 07 1a e3 bne	a4, zero, 0x8000213c
è¯»å–åœ°å€ 0x8000214c
å†™å…¥åœ°å€ 0x80003018
0x8000214c: 00 c7 a0 23 sw	a2, 0(a5)
è¯»å–åœ°å€ 0x80002150
0x80002150: 00 47 87 93 addi	a5, a5, 4
è¯»å–åœ°å€ 0x80002154
0x80002154: fe d7 98 e3 bne	a5, a3, 0x80002144
è¯»å–åœ°å€ 0x80002144
è¯»å–åœ°å€ 0x8000301c
0x80002144: 00 07 a7 03 lw	a4, 0(a5)
è¯»å–åœ°å€ 0x80002148
0x80002148: fe 07 1a e3 bne	a4, zero, 0x8000213c
è¯»å–åœ°å€ 0x8000214c
å†™å…¥åœ°å€ 0x8000301c
0x8000214c: 00 c7 a0 23 sw	a2, 0(a5)
è¯»å–åœ°å€ 0x80002150
0x80002150: 00 47 87 93 addi	a5, a5, 4
è¯»å–åœ°å€ 0x80002154
0x80002154: fe d7 98 e3 bne	a5, a3, 0x80002144
è¯»å–åœ°å€ 0x80002144
è¯»å–åœ°å€ 0x80003020
0x80002144: 00 07 a7 03 lw	a4, 0(a5)
è¯»å–åœ°å€ 0x80002148
0x80002148: fe 07 1a e3 bne	a4, zero, 0x8000213c
è¯»å–åœ°å€ 0x8000214c
å†™å…¥åœ°å€ 0x80003020
0x8000214c: 00 c7 a0 23 sw	a2, 0(a5)
è¯»å–åœ°å€ 0x80002150
0x80002150: 00 47 87 93 addi	a5, a5, 4
è¯»å–åœ°å€ 0x80002154
0x80002154: fe d7 98 e3 bne	a5, a3, 0x80002144
è¯»å–åœ°å€ 0x80002144
è¯»å–åœ°å€ 0x80003024
0x80002144: 00 07 a7 03 lw	a4, 0(a5)
è¯»å–åœ°å€ 0x80002148
0x80002148: fe 07 1a e3 bne	a4, zero, 0x8000213c
è¯»å–åœ°å€ 0x8000214c
å†™å…¥åœ°å€ 0x80003024
0x8000214c: 00 c7 a0 23 sw	a2, 0(a5)
è¯»å–åœ°å€ 0x80002150
0x80002150: 00 47 87 93 addi	a5, a5, 4
è¯»å–åœ°å€ 0x80002154
0x80002154: fe d7 98 e3 bne	a5, a3, 0x80002144
è¯»å–åœ°å€ 0x80002144
è¯»å–åœ°å€ 0x80003028
0x80002144: 00 07 a7 03 lw	a4, 0(a5)
è¯»å–åœ°å€ 0x80002148
0x80002148: fe 07 1a e3 bne	a4, zero, 0x8000213c
è¯»å–åœ°å€ 0x8000214c
å†™å…¥åœ°å€ 0x80003028
0x8000214c: 00 c7 a0 23 sw	a2, 0(a5)
è¯»å–åœ°å€ 0x80002150
0x80002150: 00 47 87 93 addi	a5, a5, 4
è¯»å–åœ°å€ 0x80002154
0x80002154: fe d7 98 e3 bne	a5, a3, 0x80002144
è¯»å–åœ°å€ 0x80002144
è¯»å–åœ°å€ 0x8000302c
0x80002144: 00 07 a7 03 lw	a4, 0(a5)
è¯»å–åœ°å€ 0x80002148
0x80002148: fe 07 1a e3 bne	a4, zero, 0x8000213c
è¯»å–åœ°å€ 0x8000214c
å†™å…¥åœ°å€ 0x8000302c
0x8000214c: 00 c7 a0 23 sw	a2, 0(a5)
è¯»å–åœ°å€ 0x80002150
0x80002150: 00 47 87 93 addi	a5, a5, 4
è¯»å–åœ°å€ 0x80002154
0x80002154: fe d7 98 e3 bne	a5, a3, 0x80002144
è¯»å–åœ°å€ 0x80002144
è¯»å–åœ°å€ 0x80003030
0x80002144: 00 07 a7 03 lw	a4, 0(a5)
è¯»å–åœ°å€ 0x80002148
0x80002148: fe 07 1a e3 bne	a4, zero, 0x8000213c
è¯»å–åœ°å€ 0x8000214c
å†™å…¥åœ°å€ 0x80003030
0x8000214c: 00 c7 a0 23 sw	a2, 0(a5)
è¯»å–åœ°å€ 0x80002150
0x80002150: 00 47 87 93 addi	a5, a5, 4
è¯»å–åœ°å€ 0x80002154
0x80002154: fe d7 98 e3 bne	a5, a3, 0x80002144
è¯»å–åœ°å€ 0x80002144
è¯»å–åœ°å€ 0x80003034
0x80002144: 00 07 a7 03 lw	a4, 0(a5)
è¯»å–åœ°å€ 0x80002148
0x80002148: fe 07 1a e3 bne	a4, zero, 0x8000213c
è¯»å–åœ°å€ 0x8000214c
å†™å…¥åœ°å€ 0x80003034
0x8000214c: 00 c7 a0 23 sw	a2, 0(a5)
è¯»å–åœ°å€ 0x80002150
0x80002150: 00 47 87 93 addi	a5, a5, 4
è¯»å–åœ°å€ 0x80002154
0x80002154: fe d7 98 e3 bne	a5, a3, 0x80002144
è¯»å–åœ°å€ 0x80002144
è¯»å–åœ°å€ 0x80003038
0x80002144: 00 07 a7 03 lw	a4, 0(a5)
è¯»å–åœ°å€ 0x80002148
0x80002148: fe 07 1a e3 bne	a4, zero, 0x8000213c
è¯»å–åœ°å€ 0x8000214c
å†™å…¥åœ°å€ 0x80003038
0x8000214c: 00 c7 a0 23 sw	a2, 0(a5)
è¯»å–åœ°å€ 0x80002150
0x80002150: 00 47 87 93 addi	a5, a5, 4
è¯»å–åœ°å€ 0x80002154
0x80002154: fe d7 98 e3 bne	a5, a3, 0x80002144
è¯»å–åœ°å€ 0x80002144
è¯»å–åœ°å€ 0x8000303c
0x80002144: 00 07 a7 03 lw	a4, 0(a5)
è¯»å–åœ°å€ 0x80002148
0x80002148: fe 07 1a e3 bne	a4, zero, 0x8000213c
è¯»å–åœ°å€ 0x8000214c
å†™å…¥åœ°å€ 0x8000303c
0x8000214c: 00 c7 a0 23 sw	a2, 0(a5)
è¯»å–åœ°å€ 0x80002150
0x80002150: 00 47 87 93 addi	a5, a5, 4
è¯»å–åœ°å€ 0x80002154
0x80002154: fe d7 98 e3 bne	a5, a3, 0x80002144
è¯»å–åœ°å€ 0x80002144
è¯»å–åœ°å€ 0x80003040
0x80002144: 00 07 a7 03 lw	a4, 0(a5)
è¯»å–åœ°å€ 0x80002148
0x80002148: fe 07 1a e3 bne	a4, zero, 0x8000213c
è¯»å–åœ°å€ 0x8000214c
å†™å…¥åœ°å€ 0x80003040
0x8000214c: 00 c7 a0 23 sw	a2, 0(a5)
è¯»å–åœ°å€ 0x80002150
0x80002150: 00 47 87 93 addi	a5, a5, 4
è¯»å–åœ°å€ 0x80002154
0x80002154: fe d7 98 e3 bne	a5, a3, 0x80002144
è¯»å–åœ°å€ 0x80002144
è¯»å–åœ°å€ 0x80003044
0x80002144: 00 07 a7 03 lw	a4, 0(a5)
è¯»å–åœ°å€ 0x80002148
0x80002148: fe 07 1a e3 bne	a4, zero, 0x8000213c
è¯»å–åœ°å€ 0x8000214c
å†™å…¥åœ°å€ 0x80003044
0x8000214c: 00 c7 a0 23 sw	a2, 0(a5)
è¯»å–åœ°å€ 0x80002150
0x80002150: 00 47 87 93 addi	a5, a5, 4
è¯»å–åœ°å€ 0x80002154
0x80002154: fe d7 98 e3 bne	a5, a3, 0x80002144
è¯»å–åœ°å€ 0x80002144
è¯»å–åœ°å€ 0x80003048
0x80002144: 00 07 a7 03 lw	a4, 0(a5)
è¯»å–åœ°å€ 0x80002148
0x80002148: fe 07 1a e3 bne	a4, zero, 0x8000213c
è¯»å–åœ°å€ 0x8000214c
å†™å…¥åœ°å€ 0x80003048
0x8000214c: 00 c7 a0 23 sw	a2, 0(a5)
è¯»å–åœ°å€ 0x80002150
0x80002150: 00 47 87 93 addi	a5, a5, 4
è¯»å–åœ°å€ 0x80002154
0x80002154: fe d7 98 e3 bne	a5, a3, 0x80002144
è¯»å–åœ°å€ 0x80002144
è¯»å–åœ°å€ 0x8000304c
0x80002144: 00 07 a7 03 lw	a4, 0(a5)
è¯»å–åœ°å€ 0x80002148
0x80002148: fe 07 1a e3 bne	a4, zero, 0x8000213c
è¯»å–åœ°å€ 0x8000214c
å†™å…¥åœ°å€ 0x8000304c
0x8000214c: 00 c7 a0 23 sw	a2, 0(a5)
è¯»å–åœ°å€ 0x80002150
0x80002150: 00 47 87 93 addi	a5, a5, 4
è¯»å–åœ°å€ 0x80002154
0x80002154: fe d7 98 e3 bne	a5, a3, 0x80002144
è¯»å–åœ°å€ 0x80002144
è¯»å–åœ°å€ 0x80003050
0x80002144: 00 07 a7 03 lw	a4, 0(a5)
è¯»å–åœ°å€ 0x80002148
0x80002148: fe 07 1a e3 bne	a4, zero, 0x8000213c
è¯»å–åœ°å€ 0x8000214c
å†™å…¥åœ°å€ 0x80003050
0x8000214c: 00 c7 a0 23 sw	a2, 0(a5)
è¯»å–åœ°å€ 0x80002150
0x80002150: 00 47 87 93 addi	a5, a5, 4
è¯»å–åœ°å€ 0x80002154
0x80002154: fe d7 98 e3 bne	a5, a3, 0x80002144
è¯»å–åœ°å€ 0x80002144
è¯»å–åœ°å€ 0x80003054
0x80002144: 00 07 a7 03 lw	a4, 0(a5)
è¯»å–åœ°å€ 0x80002148
0x80002148: fe 07 1a e3 bne	a4, zero, 0x8000213c
è¯»å–åœ°å€ 0x8000214c
å†™å…¥åœ°å€ 0x80003054
0x8000214c: 00 c7 a0 23 sw	a2, 0(a5)
è¯»å–åœ°å€ 0x80002150
0x80002150: 00 47 87 93 addi	a5, a5, 4
è¯»å–åœ°å€ 0x80002154
0x80002154: fe d7 98 e3 bne	a5, a3, 0x80002144
è¯»å–åœ°å€ 0x80002144
è¯»å–åœ°å€ 0x80003058
0x80002144: 00 07 a7 03 lw	a4, 0(a5)
è¯»å–åœ°å€ 0x80002148
0x80002148: fe 07 1a e3 bne	a4, zero, 0x8000213c
è¯»å–åœ°å€ 0x8000214c
å†™å…¥åœ°å€ 0x80003058
0x8000214c: 00 c7 a0 23 sw	a2, 0(a5)
è¯»å–åœ°å€ 0x80002150
0x80002150: 00 47 87 93 addi	a5, a5, 4
è¯»å–åœ°å€ 0x80002154
0x80002154: fe d7 98 e3 bne	a5, a3, 0x80002144
è¯»å–åœ°å€ 0x80002144
è¯»å–åœ°å€ 0x8000305c
0x80002144: 00 07 a7 03 lw	a4, 0(a5)
è¯»å–åœ°å€ 0x80002148
0x80002148: fe 07 1a e3 bne	a4, zero, 0x8000213c
è¯»å–åœ°å€ 0x8000214c
å†™å…¥åœ°å€ 0x8000305c
0x8000214c: 00 c7 a0 23 sw	a2, 0(a5)
è¯»å–åœ°å€ 0x80002150
0x80002150: 00 47 87 93 addi	a5, a5, 4
è¯»å–åœ°å€ 0x80002154
0x80002154: fe d7 98 e3 bne	a5, a3, 0x80002144
è¯»å–åœ°å€ 0x80002144
è¯»å–åœ°å€ 0x80003060
0x80002144: 00 07 a7 03 lw	a4, 0(a5)
è¯»å–åœ°å€ 0x80002148
0x80002148: fe 07 1a e3 bne	a4, zero, 0x8000213c
è¯»å–åœ°å€ 0x8000214c
å†™å…¥åœ°å€ 0x80003060
0x8000214c: 00 c7 a0 23 sw	a2, 0(a5)
è¯»å–åœ°å€ 0x80002150
0x80002150: 00 47 87 93 addi	a5, a5, 4
è¯»å–åœ°å€ 0x80002154
0x80002154: fe d7 98 e3 bne	a5, a3, 0x80002144
è¯»å–åœ°å€ 0x80002144
è¯»å–åœ°å€ 0x80003064
0x80002144: 00 07 a7 03 lw	a4, 0(a5)
è¯»å–åœ°å€ 0x80002148
0x80002148: fe 07 1a e3 bne	a4, zero, 0x8000213c
è¯»å–åœ°å€ 0x8000214c
å†™å…¥åœ°å€ 0x80003064
0x8000214c: 00 c7 a0 23 sw	a2, 0(a5)
è¯»å–åœ°å€ 0x80002150
0x80002150: 00 47 87 93 addi	a5, a5, 4
è¯»å–åœ°å€ 0x80002154
0x80002154: fe d7 98 e3 bne	a5, a3, 0x80002144
è¯»å–åœ°å€ 0x80002144
è¯»å–åœ°å€ 0x80003068
0x80002144: 00 07 a7 03 lw	a4, 0(a5)
è¯»å–åœ°å€ 0x80002148
0x80002148: fe 07 1a e3 bne	a4, zero, 0x8000213c
è¯»å–åœ°å€ 0x8000214c
å†™å…¥åœ°å€ 0x80003068
0x8000214c: 00 c7 a0 23 sw	a2, 0(a5)
è¯»å–åœ°å€ 0x80002150
0x80002150: 00 47 87 93 addi	a5, a5, 4
è¯»å–åœ°å€ 0x80002154
0x80002154: fe d7 98 e3 bne	a5, a3, 0x80002144
è¯»å–åœ°å€ 0x80002144
è¯»å–åœ°å€ 0x8000306c
0x80002144: 00 07 a7 03 lw	a4, 0(a5)
è¯»å–åœ°å€ 0x80002148
0x80002148: fe 07 1a e3 bne	a4, zero, 0x8000213c
è¯»å–åœ°å€ 0x8000214c
å†™å…¥åœ°å€ 0x8000306c
0x8000214c: 00 c7 a0 23 sw	a2, 0(a5)
è¯»å–åœ°å€ 0x80002150
0x80002150: 00 47 87 93 addi	a5, a5, 4
è¯»å–åœ°å€ 0x80002154
0x80002154: fe d7 98 e3 bne	a5, a3, 0x80002144
è¯»å–åœ°å€ 0x80002144
è¯»å–åœ°å€ 0x80003070
0x80002144: 00 07 a7 03 lw	a4, 0(a5)
è¯»å–åœ°å€ 0x80002148
0x80002148: fe 07 1a e3 bne	a4, zero, 0x8000213c
è¯»å–åœ°å€ 0x8000214c
å†™å…¥åœ°å€ 0x80003070
0x8000214c: 00 c7 a0 23 sw	a2, 0(a5)
è¯»å–åœ°å€ 0x80002150
0x80002150: 00 47 87 93 addi	a5, a5, 4
è¯»å–åœ°å€ 0x80002154
0x80002154: fe d7 98 e3 bne	a5, a3, 0x80002144
è¯»å–åœ°å€ 0x80002144
è¯»å–åœ°å€ 0x80003074
0x80002144: 00 07 a7 03 lw	a4, 0(a5)
è¯»å–åœ°å€ 0x80002148
0x80002148: fe 07 1a e3 bne	a4, zero, 0x8000213c
è¯»å–åœ°å€ 0x8000214c
å†™å…¥åœ°å€ 0x80003074
0x8000214c: 00 c7 a0 23 sw	a2, 0(a5)
è¯»å–åœ°å€ 0x80002150
0x80002150: 00 47 87 93 addi	a5, a5, 4
è¯»å–åœ°å€ 0x80002154
0x80002154: fe d7 98 e3 bne	a5, a3, 0x80002144
è¯»å–åœ°å€ 0x80002144
è¯»å–åœ°å€ 0x80003078
0x80002144: 00 07 a7 03 lw	a4, 0(a5)
è¯»å–åœ°å€ 0x80002148
0x80002148: fe 07 1a e3 bne	a4, zero, 0x8000213c
è¯»å–åœ°å€ 0x8000214c
å†™å…¥åœ°å€ 0x80003078
0x8000214c: 00 c7 a0 23 sw	a2, 0(a5)
è¯»å–åœ°å€ 0x80002150
0x80002150: 00 47 87 93 addi	a5, a5, 4
è¯»å–åœ°å€ 0x80002154
0x80002154: fe d7 98 e3 bne	a5, a3, 0x80002144
è¯»å–åœ°å€ 0x80002144
è¯»å–åœ°å€ 0x8000307c
0x80002144: 00 07 a7 03 lw	a4, 0(a5)
è¯»å–åœ°å€ 0x80002148
0x80002148: fe 07 1a e3 bne	a4, zero, 0x8000213c
è¯»å–åœ°å€ 0x8000214c
å†™å…¥åœ°å€ 0x8000307c
0x8000214c: 00 c7 a0 23 sw	a2, 0(a5)
è¯»å–åœ°å€ 0x80002150
0x80002150: 00 47 87 93 addi	a5, a5, 4
è¯»å–åœ°å€ 0x80002154
0x80002154: fe d7 98 e3 bne	a5, a3, 0x80002144
è¯»å–åœ°å€ 0x80002144
è¯»å–åœ°å€ 0x80003080
0x80002144: 00 07 a7 03 lw	a4, 0(a5)
è¯»å–åœ°å€ 0x80002148
0x80002148: fe 07 1a e3 bne	a4, zero, 0x8000213c
è¯»å–åœ°å€ 0x8000214c
å†™å…¥åœ°å€ 0x80003080
0x8000214c: 00 c7 a0 23 sw	a2, 0(a5)
è¯»å–åœ°å€ 0x80002150
0x80002150: 00 47 87 93 addi	a5, a5, 4
è¯»å–åœ°å€ 0x80002154
0x80002154: fe d7 98 e3 bne	a5, a3, 0x80002144
è¯»å–åœ°å€ 0x80002144
è¯»å–åœ°å€ 0x80003084
0x80002144: 00 07 a7 03 lw	a4, 0(a5)
è¯»å–åœ°å€ 0x80002148
0x80002148: fe 07 1a e3 bne	a4, zero, 0x8000213c
è¯»å–åœ°å€ 0x8000214c
å†™å…¥åœ°å€ 0x80003084
0x8000214c: 00 c7 a0 23 sw	a2, 0(a5)
è¯»å–åœ°å€ 0x80002150
0x80002150: 00 47 87 93 addi	a5, a5, 4
è¯»å–åœ°å€ 0x80002154
0x80002154: fe d7 98 e3 bne	a5, a3, 0x80002144
è¯»å–åœ°å€ 0x80002144
è¯»å–åœ°å€ 0x80003088
0x80002144: 00 07 a7 03 lw	a4, 0(a5)
è¯»å–åœ°å€ 0x80002148
0x80002148: fe 07 1a e3 bne	a4, zero, 0x8000213c
è¯»å–åœ°å€ 0x8000214c
å†™å…¥åœ°å€ 0x80003088
0x8000214c: 00 c7 a0 23 sw	a2, 0(a5)
è¯»å–åœ°å€ 0x80002150
0x80002150: 00 47 87 93 addi	a5, a5, 4
è¯»å–åœ°å€ 0x80002154
0x80002154: fe d7 98 e3 bne	a5, a3, 0x80002144
è¯»å–åœ°å€ 0x80002144
è¯»å–åœ°å€ 0x8000308c
0x80002144: 00 07 a7 03 lw	a4, 0(a5)
è¯»å–åœ°å€ 0x80002148
0x80002148: fe 07 1a e3 bne	a4, zero, 0x8000213c
è¯»å–åœ°å€ 0x8000214c
å†™å…¥åœ°å€ 0x8000308c
0x8000214c: 00 c7 a0 23 sw	a2, 0(a5)
è¯»å–åœ°å€ 0x80002150
0x80002150: 00 47 87 93 addi	a5, a5, 4
è¯»å–åœ°å€ 0x80002154
0x80002154: fe d7 98 e3 bne	a5, a3, 0x80002144
è¯»å–åœ°å€ 0x80002144
è¯»å–åœ°å€ 0x80003090
0x80002144: 00 07 a7 03 lw	a4, 0(a5)
è¯»å–åœ°å€ 0x80002148
0x80002148: fe 07 1a e3 bne	a4, zero, 0x8000213c
è¯»å–åœ°å€ 0x8000214c
å†™å…¥åœ°å€ 0x80003090
0x8000214c: 00 c7 a0 23 sw	a2, 0(a5)
è¯»å–åœ°å€ 0x80002150
0x80002150: 00 47 87 93 addi	a5, a5, 4
è¯»å–åœ°å€ 0x80002154
0x80002154: fe d7 98 e3 bne	a5, a3, 0x80002144
è¯»å–åœ°å€ 0x80002144
è¯»å–åœ°å€ 0x80003094
0x80002144: 00 07 a7 03 lw	a4, 0(a5)
è¯»å–åœ°å€ 0x80002148
0x80002148: fe 07 1a e3 bne	a4, zero, 0x8000213c
è¯»å–åœ°å€ 0x8000214c
å†™å…¥åœ°å€ 0x80003094
0x8000214c: 00 c7 a0 23 sw	a2, 0(a5)
è¯»å–åœ°å€ 0x80002150
0x80002150: 00 47 87 93 addi	a5, a5, 4
è¯»å–åœ°å€ 0x80002154
0x80002154: fe d7 98 e3 bne	a5, a3, 0x80002144
è¯»å–åœ°å€ 0x80002144
è¯»å–åœ°å€ 0x80003098
0x80002144: 00 07 a7 03 lw	a4, 0(a5)
è¯»å–åœ°å€ 0x80002148
0x80002148: fe 07 1a e3 bne	a4, zero, 0x8000213c
è¯»å–åœ°å€ 0x8000214c
å†™å…¥åœ°å€ 0x80003098
0x8000214c: 00 c7 a0 23 sw	a2, 0(a5)
è¯»å–åœ°å€ 0x80002150
0x80002150: 00 47 87 93 addi	a5, a5, 4
è¯»å–åœ°å€ 0x80002154
0x80002154: fe d7 98 e3 bne	a5, a3, 0x80002144
è¯»å–åœ°å€ 0x80002144
è¯»å–åœ°å€ 0x8000309c
0x80002144: 00 07 a7 03 lw	a4, 0(a5)
è¯»å–åœ°å€ 0x80002148
0x80002148: fe 07 1a e3 bne	a4, zero, 0x8000213c
è¯»å–åœ°å€ 0x8000214c
å†™å…¥åœ°å€ 0x8000309c
0x8000214c: 00 c7 a0 23 sw	a2, 0(a5)
è¯»å–åœ°å€ 0x80002150
0x80002150: 00 47 87 93 addi	a5, a5, 4
è¯»å–åœ°å€ 0x80002154
0x80002154: fe d7 98 e3 bne	a5, a3, 0x80002144
è¯»å–åœ°å€ 0x80002144
è¯»å–åœ°å€ 0x800030a0
0x80002144: 00 07 a7 03 lw	a4, 0(a5)
è¯»å–åœ°å€ 0x80002148
0x80002148: fe 07 1a e3 bne	a4, zero, 0x8000213c
è¯»å–åœ°å€ 0x8000214c
å†™å…¥åœ°å€ 0x800030a0
0x8000214c: 00 c7 a0 23 sw	a2, 0(a5)
è¯»å–åœ°å€ 0x80002150
0x80002150: 00 47 87 93 addi	a5, a5, 4
è¯»å–åœ°å€ 0x80002154
0x80002154: fe d7 98 e3 bne	a5, a3, 0x80002144
è¯»å–åœ°å€ 0x80002144
è¯»å–åœ°å€ 0x800030a4
0x80002144: 00 07 a7 03 lw	a4, 0(a5)
è¯»å–åœ°å€ 0x80002148
0x80002148: fe 07 1a e3 bne	a4, zero, 0x8000213c
è¯»å–åœ°å€ 0x8000214c
å†™å…¥åœ°å€ 0x800030a4
0x8000214c: 00 c7 a0 23 sw	a2, 0(a5)
è¯»å–åœ°å€ 0x80002150
0x80002150: 00 47 87 93 addi	a5, a5, 4
è¯»å–åœ°å€ 0x80002154
0x80002154: fe d7 98 e3 bne	a5, a3, 0x80002144
è¯»å–åœ°å€ 0x80002144
è¯»å–åœ°å€ 0x800030a8
0x80002144: 00 07 a7 03 lw	a4, 0(a5)
è¯»å–åœ°å€ 0x80002148
0x80002148: fe 07 1a e3 bne	a4, zero, 0x8000213c
è¯»å–åœ°å€ 0x8000214c
å†™å…¥åœ°å€ 0x800030a8
0x8000214c: 00 c7 a0 23 sw	a2, 0(a5)
è¯»å–åœ°å€ 0x80002150
0x80002150: 00 47 87 93 addi	a5, a5, 4
è¯»å–åœ°å€ 0x80002154
0x80002154: fe d7 98 e3 bne	a5, a3, 0x80002144
è¯»å–åœ°å€ 0x80002144
è¯»å–åœ°å€ 0x800030ac
0x80002144: 00 07 a7 03 lw	a4, 0(a5)
è¯»å–åœ°å€ 0x80002148
0x80002148: fe 07 1a e3 bne	a4, zero, 0x8000213c
è¯»å–åœ°å€ 0x8000214c
å†™å…¥åœ°å€ 0x800030ac
0x8000214c: 00 c7 a0 23 sw	a2, 0(a5)
è¯»å–åœ°å€ 0x80002150
0x80002150: 00 47 87 93 addi	a5, a5, 4
è¯»å–åœ°å€ 0x80002154
0x80002154: fe d7 98 e3 bne	a5, a3, 0x80002144
è¯»å–åœ°å€ 0x80002144
è¯»å–åœ°å€ 0x800030b0
0x80002144: 00 07 a7 03 lw	a4, 0(a5)
è¯»å–åœ°å€ 0x80002148
0x80002148: fe 07 1a e3 bne	a4, zero, 0x8000213c
è¯»å–åœ°å€ 0x8000214c
å†™å…¥åœ°å€ 0x800030b0
0x8000214c: 00 c7 a0 23 sw	a2, 0(a5)
è¯»å–åœ°å€ 0x80002150
0x80002150: 00 47 87 93 addi	a5, a5, 4
è¯»å–åœ°å€ 0x80002154
0x80002154: fe d7 98 e3 bne	a5, a3, 0x80002144
è¯»å–åœ°å€ 0x80002144
è¯»å–åœ°å€ 0x800030b4
0x80002144: 00 07 a7 03 lw	a4, 0(a5)
è¯»å–åœ°å€ 0x80002148
0x80002148: fe 07 1a e3 bne	a4, zero, 0x8000213c
è¯»å–åœ°å€ 0x8000214c
å†™å…¥åœ°å€ 0x800030b4
0x8000214c: 00 c7 a0 23 sw	a2, 0(a5)
è¯»å–åœ°å€ 0x80002150
0x80002150: 00 47 87 93 addi	a5, a5, 4
è¯»å–åœ°å€ 0x80002154
0x80002154: fe d7 98 e3 bne	a5, a3, 0x80002144
è¯»å–åœ°å€ 0x80002144
è¯»å–åœ°å€ 0x800030b8
0x80002144: 00 07 a7 03 lw	a4, 0(a5)
è¯»å–åœ°å€ 0x80002148
0x80002148: fe 07 1a e3 bne	a4, zero, 0x8000213c
è¯»å–åœ°å€ 0x8000214c
å†™å…¥åœ°å€ 0x800030b8
0x8000214c: 00 c7 a0 23 sw	a2, 0(a5)
è¯»å–åœ°å€ 0x80002150
0x80002150: 00 47 87 93 addi	a5, a5, 4
è¯»å–åœ°å€ 0x80002154
0x80002154: fe d7 98 e3 bne	a5, a3, 0x80002144
è¯»å–åœ°å€ 0x80002144
è¯»å–åœ°å€ 0x800030bc
0x80002144: 00 07 a7 03 lw	a4, 0(a5)
è¯»å–åœ°å€ 0x80002148
0x80002148: fe 07 1a e3 bne	a4, zero, 0x8000213c
è¯»å–åœ°å€ 0x8000214c
å†™å…¥åœ°å€ 0x800030bc
0x8000214c: 00 c7 a0 23 sw	a2, 0(a5)
è¯»å–åœ°å€ 0x80002150
0x80002150: 00 47 87 93 addi	a5, a5, 4
è¯»å–åœ°å€ 0x80002154
0x80002154: fe d7 98 e3 bne	a5, a3, 0x80002144
è¯»å–åœ°å€ 0x80002144
è¯»å–åœ°å€ 0x800030c0
0x80002144: 00 07 a7 03 lw	a4, 0(a5)
è¯»å–åœ°å€ 0x80002148
0x80002148: fe 07 1a e3 bne	a4, zero, 0x8000213c
è¯»å–åœ°å€ 0x8000214c
å†™å…¥åœ°å€ 0x800030c0
0x8000214c: 00 c7 a0 23 sw	a2, 0(a5)
è¯»å–åœ°å€ 0x80002150
0x80002150: 00 47 87 93 addi	a5, a5, 4
è¯»å–åœ°å€ 0x80002154
0x80002154: fe d7 98 e3 bne	a5, a3, 0x80002144
è¯»å–åœ°å€ 0x80002144
è¯»å–åœ°å€ 0x800030c4
0x80002144: 00 07 a7 03 lw	a4, 0(a5)
è¯»å–åœ°å€ 0x80002148
0x80002148: fe 07 1a e3 bne	a4, zero, 0x8000213c
è¯»å–åœ°å€ 0x8000214c
å†™å…¥åœ°å€ 0x800030c4
0x8000214c: 00 c7 a0 23 sw	a2, 0(a5)
è¯»å–åœ°å€ 0x80002150
0x80002150: 00 47 87 93 addi	a5, a5, 4
è¯»å–åœ°å€ 0x80002154
0x80002154: fe d7 98 e3 bne	a5, a3, 0x80002144
è¯»å–åœ°å€ 0x80002144
è¯»å–åœ°å€ 0x800030c8
0x80002144: 00 07 a7 03 lw	a4, 0(a5)
è¯»å–åœ°å€ 0x80002148
0x80002148: fe 07 1a e3 bne	a4, zero, 0x8000213c
è¯»å–åœ°å€ 0x8000214c
å†™å…¥åœ°å€ 0x800030c8
0x8000214c: 00 c7 a0 23 sw	a2, 0(a5)
è¯»å–åœ°å€ 0x80002150
0x80002150: 00 47 87 93 addi	a5, a5, 4
è¯»å–åœ°å€ 0x80002154
0x80002154: fe d7 98 e3 bne	a5, a3, 0x80002144
è¯»å–åœ°å€ 0x80002144
è¯»å–åœ°å€ 0x800030cc
0x80002144: 00 07 a7 03 lw	a4, 0(a5)
è¯»å–åœ°å€ 0x80002148
0x80002148: fe 07 1a e3 bne	a4, zero, 0x8000213c
è¯»å–åœ°å€ 0x8000214c
å†™å…¥åœ°å€ 0x800030cc
0x8000214c: 00 c7 a0 23 sw	a2, 0(a5)
è¯»å–åœ°å€ 0x80002150
0x80002150: 00 47 87 93 addi	a5, a5, 4
è¯»å–åœ°å€ 0x80002154
0x80002154: fe d7 98 e3 bne	a5, a3, 0x80002144
è¯»å–åœ°å€ 0x80002144
è¯»å–åœ°å€ 0x800030d0
0x80002144: 00 07 a7 03 lw	a4, 0(a5)
è¯»å–åœ°å€ 0x80002148
0x80002148: fe 07 1a e3 bne	a4, zero, 0x8000213c
è¯»å–åœ°å€ 0x8000214c
å†™å…¥åœ°å€ 0x800030d0
0x8000214c: 00 c7 a0 23 sw	a2, 0(a5)
è¯»å–åœ°å€ 0x80002150
0x80002150: 00 47 87 93 addi	a5, a5, 4
è¯»å–åœ°å€ 0x80002154
0x80002154: fe d7 98 e3 bne	a5, a3, 0x80002144
è¯»å–åœ°å€ 0x80002144
è¯»å–åœ°å€ 0x800030d4
0x80002144: 00 07 a7 03 lw	a4, 0(a5)
è¯»å–åœ°å€ 0x80002148
0x80002148: fe 07 1a e3 bne	a4, zero, 0x8000213c
è¯»å–åœ°å€ 0x8000214c
å†™å…¥åœ°å€ 0x800030d4
0x8000214c: 00 c7 a0 23 sw	a2, 0(a5)
è¯»å–åœ°å€ 0x80002150
0x80002150: 00 47 87 93 addi	a5, a5, 4
è¯»å–åœ°å€ 0x80002154
0x80002154: fe d7 98 e3 bne	a5, a3, 0x80002144
è¯»å–åœ°å€ 0x80002144
è¯»å–åœ°å€ 0x800030d8
0x80002144: 00 07 a7 03 lw	a4, 0(a5)
è¯»å–åœ°å€ 0x80002148
0x80002148: fe 07 1a e3 bne	a4, zero, 0x8000213c
è¯»å–åœ°å€ 0x8000214c
å†™å…¥åœ°å€ 0x800030d8
0x8000214c: 00 c7 a0 23 sw	a2, 0(a5)
è¯»å–åœ°å€ 0x80002150
0x80002150: 00 47 87 93 addi	a5, a5, 4
è¯»å–åœ°å€ 0x80002154
0x80002154: fe d7 98 e3 bne	a5, a3, 0x80002144
è¯»å–åœ°å€ 0x80002144
è¯»å–åœ°å€ 0x800030dc
0x80002144: 00 07 a7 03 lw	a4, 0(a5)
è¯»å–åœ°å€ 0x80002148
0x80002148: fe 07 1a e3 bne	a4, zero, 0x8000213c
è¯»å–åœ°å€ 0x8000214c
å†™å…¥åœ°å€ 0x800030dc
0x8000214c: 00 c7 a0 23 sw	a2, 0(a5)
è¯»å–åœ°å€ 0x80002150
0x80002150: 00 47 87 93 addi	a5, a5, 4
è¯»å–åœ°å€ 0x80002154
0x80002154: fe d7 98 e3 bne	a5, a3, 0x80002144
è¯»å–åœ°å€ 0x80002144
è¯»å–åœ°å€ 0x800030e0
0x80002144: 00 07 a7 03 lw	a4, 0(a5)
è¯»å–åœ°å€ 0x80002148
0x80002148: fe 07 1a e3 bne	a4, zero, 0x8000213c
è¯»å–åœ°å€ 0x8000214c
å†™å…¥åœ°å€ 0x800030e0
0x8000214c: 00 c7 a0 23 sw	a2, 0(a5)
è¯»å–åœ°å€ 0x80002150
0x80002150: 00 47 87 93 addi	a5, a5, 4
è¯»å–åœ°å€ 0x80002154
0x80002154: fe d7 98 e3 bne	a5, a3, 0x80002144
è¯»å–åœ°å€ 0x80002144
è¯»å–åœ°å€ 0x800030e4
0x80002144: 00 07 a7 03 lw	a4, 0(a5)
è¯»å–åœ°å€ 0x80002148
0x80002148: fe 07 1a e3 bne	a4, zero, 0x8000213c
è¯»å–åœ°å€ 0x8000214c
å†™å…¥åœ°å€ 0x800030e4
0x8000214c: 00 c7 a0 23 sw	a2, 0(a5)
è¯»å–åœ°å€ 0x80002150
0x80002150: 00 47 87 93 addi	a5, a5, 4
è¯»å–åœ°å€ 0x80002154
0x80002154: fe d7 98 e3 bne	a5, a3, 0x80002144
è¯»å–åœ°å€ 0x80002144
è¯»å–åœ°å€ 0x800030e8
0x80002144: 00 07 a7 03 lw	a4, 0(a5)
è¯»å–åœ°å€ 0x80002148
0x80002148: fe 07 1a e3 bne	a4, zero, 0x8000213c
è¯»å–åœ°å€ 0x8000214c
å†™å…¥åœ°å€ 0x800030e8
0x8000214c: 00 c7 a0 23 sw	a2, 0(a5)
è¯»å–åœ°å€ 0x80002150
0x80002150: 00 47 87 93 addi	a5, a5, 4
è¯»å–åœ°å€ 0x80002154
0x80002154: fe d7 98 e3 bne	a5, a3, 0x80002144
è¯»å–åœ°å€ 0x80002144
è¯»å–åœ°å€ 0x800030ec
0x80002144: 00 07 a7 03 lw	a4, 0(a5)
è¯»å–åœ°å€ 0x80002148
0x80002148: fe 07 1a e3 bne	a4, zero, 0x8000213c
è¯»å–åœ°å€ 0x8000214c
å†™å…¥åœ°å€ 0x800030ec
0x8000214c: 00 c7 a0 23 sw	a2, 0(a5)
è¯»å–åœ°å€ 0x80002150
0x80002150: 00 47 87 93 addi	a5, a5, 4
è¯»å–åœ°å€ 0x80002154
0x80002154: fe d7 98 e3 bne	a5, a3, 0x80002144
è¯»å–åœ°å€ 0x80002144
è¯»å–åœ°å€ 0x800030f0
0x80002144: 00 07 a7 03 lw	a4, 0(a5)
è¯»å–åœ°å€ 0x80002148
0x80002148: fe 07 1a e3 bne	a4, zero, 0x8000213c
è¯»å–åœ°å€ 0x8000214c
å†™å…¥åœ°å€ 0x800030f0
0x8000214c: 00 c7 a0 23 sw	a2, 0(a5)
è¯»å–åœ°å€ 0x80002150
0x80002150: 00 47 87 93 addi	a5, a5, 4
è¯»å–åœ°å€ 0x80002154
0x80002154: fe d7 98 e3 bne	a5, a3, 0x80002144
è¯»å–åœ°å€ 0x80002144
è¯»å–åœ°å€ 0x800030f4
0x80002144: 00 07 a7 03 lw	a4, 0(a5)
è¯»å–åœ°å€ 0x80002148
0x80002148: fe 07 1a e3 bne	a4, zero, 0x8000213c
è¯»å–åœ°å€ 0x8000214c
å†™å…¥åœ°å€ 0x800030f4
0x8000214c: 00 c7 a0 23 sw	a2, 0(a5)
è¯»å–åœ°å€ 0x80002150
0x80002150: 00 47 87 93 addi	a5, a5, 4
è¯»å–åœ°å€ 0x80002154
0x80002154: fe d7 98 e3 bne	a5, a3, 0x80002144
è¯»å–åœ°å€ 0x80002144
è¯»å–åœ°å€ 0x800030f8
0x80002144: 00 07 a7 03 lw	a4, 0(a5)
è¯»å–åœ°å€ 0x80002148
0x80002148: fe 07 1a e3 bne	a4, zero, 0x8000213c
è¯»å–åœ°å€ 0x8000214c
å†™å…¥åœ°å€ 0x800030f8
0x8000214c: 00 c7 a0 23 sw	a2, 0(a5)
è¯»å–åœ°å€ 0x80002150
0x80002150: 00 47 87 93 addi	a5, a5, 4
è¯»å–åœ°å€ 0x80002154
0x80002154: fe d7 98 e3 bne	a5, a3, 0x80002144
è¯»å–åœ°å€ 0x80002144
è¯»å–åœ°å€ 0x800030fc
0x80002144: 00 07 a7 03 lw	a4, 0(a5)
è¯»å–åœ°å€ 0x80002148
0x80002148: fe 07 1a e3 bne	a4, zero, 0x8000213c
è¯»å–åœ°å€ 0x8000214c
å†™å…¥åœ°å€ 0x800030fc
0x8000214c: 00 c7 a0 23 sw	a2, 0(a5)
è¯»å–åœ°å€ 0x80002150
0x80002150: 00 47 87 93 addi	a5, a5, 4
è¯»å–åœ°å€ 0x80002154
0x80002154: fe d7 98 e3 bne	a5, a3, 0x80002144
è¯»å–åœ°å€ 0x80002144
è¯»å–åœ°å€ 0x80003100
0x80002144: 00 07 a7 03 lw	a4, 0(a5)
è¯»å–åœ°å€ 0x80002148
0x80002148: fe 07 1a e3 bne	a4, zero, 0x8000213c
è¯»å–åœ°å€ 0x8000214c
å†™å…¥åœ°å€ 0x80003100
0x8000214c: 00 c7 a0 23 sw	a2, 0(a5)
è¯»å–åœ°å€ 0x80002150
0x80002150: 00 47 87 93 addi	a5, a5, 4
è¯»å–åœ°å€ 0x80002154
0x80002154: fe d7 98 e3 bne	a5, a3, 0x80002144
è¯»å–åœ°å€ 0x80002144
è¯»å–åœ°å€ 0x80003104
0x80002144: 00 07 a7 03 lw	a4, 0(a5)
è¯»å–åœ°å€ 0x80002148
0x80002148: fe 07 1a e3 bne	a4, zero, 0x8000213c
è¯»å–åœ°å€ 0x8000214c
å†™å…¥åœ°å€ 0x80003104
0x8000214c: 00 c7 a0 23 sw	a2, 0(a5)
è¯»å–åœ°å€ 0x80002150
0x80002150: 00 47 87 93 addi	a5, a5, 4
è¯»å–åœ°å€ 0x80002154
0x80002154: fe d7 98 e3 bne	a5, a3, 0x80002144
è¯»å–åœ°å€ 0x80002144
è¯»å–åœ°å€ 0x80003108
0x80002144: 00 07 a7 03 lw	a4, 0(a5)
è¯»å–åœ°å€ 0x80002148
0x80002148: fe 07 1a e3 bne	a4, zero, 0x8000213c
è¯»å–åœ°å€ 0x8000214c
å†™å…¥åœ°å€ 0x80003108
0x8000214c: 00 c7 a0 23 sw	a2, 0(a5)
è¯»å–åœ°å€ 0x80002150
0x80002150: 00 47 87 93 addi	a5, a5, 4
è¯»å–åœ°å€ 0x80002154
0x80002154: fe d7 98 e3 bne	a5, a3, 0x80002144
è¯»å–åœ°å€ 0x80002144
è¯»å–åœ°å€ 0x8000310c
0x80002144: 00 07 a7 03 lw	a4, 0(a5)
è¯»å–åœ°å€ 0x80002148
0x80002148: fe 07 1a e3 bne	a4, zero, 0x8000213c
è¯»å–åœ°å€ 0x8000214c
å†™å…¥åœ°å€ 0x8000310c
0x8000214c: 00 c7 a0 23 sw	a2, 0(a5)
è¯»å–åœ°å€ 0x80002150
0x80002150: 00 47 87 93 addi	a5, a5, 4
è¯»å–åœ°å€ 0x80002154
0x80002154: fe d7 98 e3 bne	a5, a3, 0x80002144
è¯»å–åœ°å€ 0x80002144
è¯»å–åœ°å€ 0x80003110
0x80002144: 00 07 a7 03 lw	a4, 0(a5)
è¯»å–åœ°å€ 0x80002148
0x80002148: fe 07 1a e3 bne	a4, zero, 0x8000213c
è¯»å–åœ°å€ 0x8000214c
å†™å…¥åœ°å€ 0x80003110
0x8000214c: 00 c7 a0 23 sw	a2, 0(a5)
è¯»å–åœ°å€ 0x80002150
0x80002150: 00 47 87 93 addi	a5, a5, 4
è¯»å–åœ°å€ 0x80002154
0x80002154: fe d7 98 e3 bne	a5, a3, 0x80002144
è¯»å–åœ°å€ 0x80002144
è¯»å–åœ°å€ 0x80003114
0x80002144: 00 07 a7 03 lw	a4, 0(a5)
è¯»å–åœ°å€ 0x80002148
0x80002148: fe 07 1a e3 bne	a4, zero, 0x8000213c
è¯»å–åœ°å€ 0x8000214c
å†™å…¥åœ°å€ 0x80003114
0x8000214c: 00 c7 a0 23 sw	a2, 0(a5)
è¯»å–åœ°å€ 0x80002150
0x80002150: 00 47 87 93 addi	a5, a5, 4
è¯»å–åœ°å€ 0x80002154
0x80002154: fe d7 98 e3 bne	a5, a3, 0x80002144
è¯»å–åœ°å€ 0x80002144
è¯»å–åœ°å€ 0x80003118
0x80002144: 00 07 a7 03 lw	a4, 0(a5)
è¯»å–åœ°å€ 0x80002148
0x80002148: fe 07 1a e3 bne	a4, zero, 0x8000213c
è¯»å–åœ°å€ 0x8000214c
å†™å…¥åœ°å€ 0x80003118
0x8000214c: 00 c7 a0 23 sw	a2, 0(a5)
è¯»å–åœ°å€ 0x80002150
0x80002150: 00 47 87 93 addi	a5, a5, 4
è¯»å–åœ°å€ 0x80002154
0x80002154: fe d7 98 e3 bne	a5, a3, 0x80002144
è¯»å–åœ°å€ 0x80002144
è¯»å–åœ°å€ 0x8000311c
0x80002144: 00 07 a7 03 lw	a4, 0(a5)
è¯»å–åœ°å€ 0x80002148
0x80002148: fe 07 1a e3 bne	a4, zero, 0x8000213c
è¯»å–åœ°å€ 0x8000214c
å†™å…¥åœ°å€ 0x8000311c
0x8000214c: 00 c7 a0 23 sw	a2, 0(a5)
è¯»å–åœ°å€ 0x80002150
0x80002150: 00 47 87 93 addi	a5, a5, 4
è¯»å–åœ°å€ 0x80002154
0x80002154: fe d7 98 e3 bne	a5, a3, 0x80002144
è¯»å–åœ°å€ 0x80002144
è¯»å–åœ°å€ 0x80003120
0x80002144: 00 07 a7 03 lw	a4, 0(a5)
è¯»å–åœ°å€ 0x80002148
0x80002148: fe 07 1a e3 bne	a4, zero, 0x8000213c
è¯»å–åœ°å€ 0x8000214c
å†™å…¥åœ°å€ 0x80003120
0x8000214c: 00 c7 a0 23 sw	a2, 0(a5)
è¯»å–åœ°å€ 0x80002150
0x80002150: 00 47 87 93 addi	a5, a5, 4
è¯»å–åœ°å€ 0x80002154
0x80002154: fe d7 98 e3 bne	a5, a3, 0x80002144
è¯»å–åœ°å€ 0x80002144
è¯»å–åœ°å€ 0x80003124
0x80002144: 00 07 a7 03 lw	a4, 0(a5)
è¯»å–åœ°å€ 0x80002148
0x80002148: fe 07 1a e3 bne	a4, zero, 0x8000213c
è¯»å–åœ°å€ 0x8000214c
å†™å…¥åœ°å€ 0x80003124
0x8000214c: 00 c7 a0 23 sw	a2, 0(a5)
è¯»å–åœ°å€ 0x80002150
0x80002150: 00 47 87 93 addi	a5, a5, 4
è¯»å–åœ°å€ 0x80002154
0x80002154: fe d7 98 e3 bne	a5, a3, 0x80002144
è¯»å–åœ°å€ 0x80002144
è¯»å–åœ°å€ 0x80003128
0x80002144: 00 07 a7 03 lw	a4, 0(a5)
è¯»å–åœ°å€ 0x80002148
0x80002148: fe 07 1a e3 bne	a4, zero, 0x8000213c
è¯»å–åœ°å€ 0x8000214c
å†™å…¥åœ°å€ 0x80003128
0x8000214c: 00 c7 a0 23 sw	a2, 0(a5)
è¯»å–åœ°å€ 0x80002150
0x80002150: 00 47 87 93 addi	a5, a5, 4
è¯»å–åœ°å€ 0x80002154
0x80002154: fe d7 98 e3 bne	a5, a3, 0x80002144
è¯»å–åœ°å€ 0x80002144
è¯»å–åœ°å€ 0x8000312c
0x80002144: 00 07 a7 03 lw	a4, 0(a5)
è¯»å–åœ°å€ 0x80002148
0x80002148: fe 07 1a e3 bne	a4, zero, 0x8000213c
è¯»å–åœ°å€ 0x8000214c
å†™å…¥åœ°å€ 0x8000312c
0x8000214c: 00 c7 a0 23 sw	a2, 0(a5)
è¯»å–åœ°å€ 0x80002150
0x80002150: 00 47 87 93 addi	a5, a5, 4
è¯»å–åœ°å€ 0x80002154
0x80002154: fe d7 98 e3 bne	a5, a3, 0x80002144
è¯»å–åœ°å€ 0x80002144
è¯»å–åœ°å€ 0x80003130
0x80002144: 00 07 a7 03 lw	a4, 0(a5)
è¯»å–åœ°å€ 0x80002148
0x80002148: fe 07 1a e3 bne	a4, zero, 0x8000213c
è¯»å–åœ°å€ 0x8000214c
å†™å…¥åœ°å€ 0x80003130
0x8000214c: 00 c7 a0 23 sw	a2, 0(a5)
è¯»å–åœ°å€ 0x80002150
0x80002150: 00 47 87 93 addi	a5, a5, 4
è¯»å–åœ°å€ 0x80002154
0x80002154: fe d7 98 e3 bne	a5, a3, 0x80002144
è¯»å–åœ°å€ 0x80002144
è¯»å–åœ°å€ 0x80003134
0x80002144: 00 07 a7 03 lw	a4, 0(a5)
è¯»å–åœ°å€ 0x80002148
0x80002148: fe 07 1a e3 bne	a4, zero, 0x8000213c
è¯»å–åœ°å€ 0x8000214c
å†™å…¥åœ°å€ 0x80003134
0x8000214c: 00 c7 a0 23 sw	a2, 0(a5)
è¯»å–åœ°å€ 0x80002150
0x80002150: 00 47 87 93 addi	a5, a5, 4
è¯»å–åœ°å€ 0x80002154
0x80002154: fe d7 98 e3 bne	a5, a3, 0x80002144
è¯»å–åœ°å€ 0x80002144
è¯»å–åœ°å€ 0x80003138
0x80002144: 00 07 a7 03 lw	a4, 0(a5)
è¯»å–åœ°å€ 0x80002148
0x80002148: fe 07 1a e3 bne	a4, zero, 0x8000213c
è¯»å–åœ°å€ 0x8000214c
å†™å…¥åœ°å€ 0x80003138
0x8000214c: 00 c7 a0 23 sw	a2, 0(a5)
è¯»å–åœ°å€ 0x80002150
0x80002150: 00 47 87 93 addi	a5, a5, 4
è¯»å–åœ°å€ 0x80002154
0x80002154: fe d7 98 e3 bne	a5, a3, 0x80002144
è¯»å–åœ°å€ 0x80002144
è¯»å–åœ°å€ 0x8000313c
0x80002144: 00 07 a7 03 lw	a4, 0(a5)
è¯»å–åœ°å€ 0x80002148
0x80002148: fe 07 1a e3 bne	a4, zero, 0x8000213c
è¯»å–åœ°å€ 0x8000214c
å†™å…¥åœ°å€ 0x8000313c
0x8000214c: 00 c7 a0 23 sw	a2, 0(a5)
è¯»å–åœ°å€ 0x80002150
0x80002150: 00 47 87 93 addi	a5, a5, 4
è¯»å–åœ°å€ 0x80002154
0x80002154: fe d7 98 e3 bne	a5, a3, 0x80002144
è¯»å–åœ°å€ 0x80002144
è¯»å–åœ°å€ 0x80003140
0x80002144: 00 07 a7 03 lw	a4, 0(a5)
è¯»å–åœ°å€ 0x80002148
0x80002148: fe 07 1a e3 bne	a4, zero, 0x8000213c
è¯»å–åœ°å€ 0x8000214c
å†™å…¥åœ°å€ 0x80003140
0x8000214c: 00 c7 a0 23 sw	a2, 0(a5)
è¯»å–åœ°å€ 0x80002150
0x80002150: 00 47 87 93 addi	a5, a5, 4
è¯»å–åœ°å€ 0x80002154
0x80002154: fe d7 98 e3 bne	a5, a3, 0x80002144
è¯»å–åœ°å€ 0x80002144
è¯»å–åœ°å€ 0x80003144
0x80002144: 00 07 a7 03 lw	a4, 0(a5)
è¯»å–åœ°å€ 0x80002148
0x80002148: fe 07 1a e3 bne	a4, zero, 0x8000213c
è¯»å–åœ°å€ 0x8000214c
å†™å…¥åœ°å€ 0x80003144
0x8000214c: 00 c7 a0 23 sw	a2, 0(a5)
è¯»å–åœ°å€ 0x80002150
0x80002150: 00 47 87 93 addi	a5, a5, 4
è¯»å–åœ°å€ 0x80002154
0x80002154: fe d7 98 e3 bne	a5, a3, 0x80002144
è¯»å–åœ°å€ 0x80002144
è¯»å–åœ°å€ 0x80003148
0x80002144: 00 07 a7 03 lw	a4, 0(a5)
è¯»å–åœ°å€ 0x80002148
0x80002148: fe 07 1a e3 bne	a4, zero, 0x8000213c
è¯»å–åœ°å€ 0x8000214c
å†™å…¥åœ°å€ 0x80003148
0x8000214c: 00 c7 a0 23 sw	a2, 0(a5)
è¯»å–åœ°å€ 0x80002150
0x80002150: 00 47 87 93 addi	a5, a5, 4
è¯»å–åœ°å€ 0x80002154
0x80002154: fe d7 98 e3 bne	a5, a3, 0x80002144
è¯»å–åœ°å€ 0x80002144
è¯»å–åœ°å€ 0x8000314c
0x80002144: 00 07 a7 03 lw	a4, 0(a5)
è¯»å–åœ°å€ 0x80002148
0x80002148: fe 07 1a e3 bne	a4, zero, 0x8000213c
è¯»å–åœ°å€ 0x8000214c
å†™å…¥åœ°å€ 0x8000314c
0x8000214c: 00 c7 a0 23 sw	a2, 0(a5)
è¯»å–åœ°å€ 0x80002150
0x80002150: 00 47 87 93 addi	a5, a5, 4
è¯»å–åœ°å€ 0x80002154
0x80002154: fe d7 98 e3 bne	a5, a3, 0x80002144
è¯»å–åœ°å€ 0x80002144
è¯»å–åœ°å€ 0x80003150
0x80002144: 00 07 a7 03 lw	a4, 0(a5)
è¯»å–åœ°å€ 0x80002148
0x80002148: fe 07 1a e3 bne	a4, zero, 0x8000213c
è¯»å–åœ°å€ 0x8000214c
å†™å…¥åœ°å€ 0x80003150
0x8000214c: 00 c7 a0 23 sw	a2, 0(a5)
è¯»å–åœ°å€ 0x80002150
0x80002150: 00 47 87 93 addi	a5, a5, 4
è¯»å–åœ°å€ 0x80002154
0x80002154: fe d7 98 e3 bne	a5, a3, 0x80002144
è¯»å–åœ°å€ 0x80002144
è¯»å–åœ°å€ 0x80003154
0x80002144: 00 07 a7 03 lw	a4, 0(a5)
è¯»å–åœ°å€ 0x80002148
0x80002148: fe 07 1a e3 bne	a4, zero, 0x8000213c
è¯»å–åœ°å€ 0x8000214c
å†™å…¥åœ°å€ 0x80003154
0x8000214c: 00 c7 a0 23 sw	a2, 0(a5)
è¯»å–åœ°å€ 0x80002150
0x80002150: 00 47 87 93 addi	a5, a5, 4
è¯»å–åœ°å€ 0x80002154
0x80002154: fe d7 98 e3 bne	a5, a3, 0x80002144
è¯»å–åœ°å€ 0x80002144
è¯»å–åœ°å€ 0x80003158
0x80002144: 00 07 a7 03 lw	a4, 0(a5)
è¯»å–åœ°å€ 0x80002148
0x80002148: fe 07 1a e3 bne	a4, zero, 0x8000213c
è¯»å–åœ°å€ 0x8000214c
å†™å…¥åœ°å€ 0x80003158
0x8000214c: 00 c7 a0 23 sw	a2, 0(a5)
è¯»å–åœ°å€ 0x80002150
0x80002150: 00 47 87 93 addi	a5, a5, 4
è¯»å–åœ°å€ 0x80002154
0x80002154: fe d7 98 e3 bne	a5, a3, 0x80002144
è¯»å–åœ°å€ 0x80002144
è¯»å–åœ°å€ 0x8000315c
0x80002144: 00 07 a7 03 lw	a4, 0(a5)
è¯»å–åœ°å€ 0x80002148
0x80002148: fe 07 1a e3 bne	a4, zero, 0x8000213c
è¯»å–åœ°å€ 0x8000214c
å†™å…¥åœ°å€ 0x8000315c
0x8000214c: 00 c7 a0 23 sw	a2, 0(a5)
è¯»å–åœ°å€ 0x80002150
0x80002150: 00 47 87 93 addi	a5, a5, 4
è¯»å–åœ°å€ 0x80002154
0x80002154: fe d7 98 e3 bne	a5, a3, 0x80002144
è¯»å–åœ°å€ 0x80002144
è¯»å–åœ°å€ 0x80003160
0x80002144: 00 07 a7 03 lw	a4, 0(a5)
è¯»å–åœ°å€ 0x80002148
0x80002148: fe 07 1a e3 bne	a4, zero, 0x8000213c
è¯»å–åœ°å€ 0x8000214c
å†™å…¥åœ°å€ 0x80003160
0x8000214c: 00 c7 a0 23 sw	a2, 0(a5)
è¯»å–åœ°å€ 0x80002150
0x80002150: 00 47 87 93 addi	a5, a5, 4
è¯»å–åœ°å€ 0x80002154
0x80002154: fe d7 98 e3 bne	a5, a3, 0x80002144
è¯»å–åœ°å€ 0x80002144
è¯»å–åœ°å€ 0x80003164
0x80002144: 00 07 a7 03 lw	a4, 0(a5)
è¯»å–åœ°å€ 0x80002148
0x80002148: fe 07 1a e3 bne	a4, zero, 0x8000213c
è¯»å–åœ°å€ 0x8000214c
å†™å…¥åœ°å€ 0x80003164
0x8000214c: 00 c7 a0 23 sw	a2, 0(a5)
è¯»å–åœ°å€ 0x80002150
0x80002150: 00 47 87 93 addi	a5, a5, 4
è¯»å–åœ°å€ 0x80002154
0x80002154: fe d7 98 e3 bne	a5, a3, 0x80002144
è¯»å–åœ°å€ 0x80002144
è¯»å–åœ°å€ 0x80003168
0x80002144: 00 07 a7 03 lw	a4, 0(a5)
è¯»å–åœ°å€ 0x80002148
0x80002148: fe 07 1a e3 bne	a4, zero, 0x8000213c
è¯»å–åœ°å€ 0x8000214c
å†™å…¥åœ°å€ 0x80003168
0x8000214c: 00 c7 a0 23 sw	a2, 0(a5)
è¯»å–åœ°å€ 0x80002150
0x80002150: 00 47 87 93 addi	a5, a5, 4
è¯»å–åœ°å€ 0x80002154
0x80002154: fe d7 98 e3 bne	a5, a3, 0x80002144
è¯»å–åœ°å€ 0x80002144
è¯»å–åœ°å€ 0x8000316c
0x80002144: 00 07 a7 03 lw	a4, 0(a5)
è¯»å–åœ°å€ 0x80002148
0x80002148: fe 07 1a e3 bne	a4, zero, 0x8000213c
è¯»å–åœ°å€ 0x8000214c
å†™å…¥åœ°å€ 0x8000316c
0x8000214c: 00 c7 a0 23 sw	a2, 0(a5)
è¯»å–åœ°å€ 0x80002150
0x80002150: 00 47 87 93 addi	a5, a5, 4
è¯»å–åœ°å€ 0x80002154
0x80002154: fe d7 98 e3 bne	a5, a3, 0x80002144
è¯»å–åœ°å€ 0x80002144
è¯»å–åœ°å€ 0x80003170
0x80002144: 00 07 a7 03 lw	a4, 0(a5)
è¯»å–åœ°å€ 0x80002148
0x80002148: fe 07 1a e3 bne	a4, zero, 0x8000213c
è¯»å–åœ°å€ 0x8000214c
å†™å…¥åœ°å€ 0x80003170
0x8000214c: 00 c7 a0 23 sw	a2, 0(a5)
è¯»å–åœ°å€ 0x80002150
0x80002150: 00 47 87 93 addi	a5, a5, 4
è¯»å–åœ°å€ 0x80002154
0x80002154: fe d7 98 e3 bne	a5, a3, 0x80002144
è¯»å–åœ°å€ 0x80002144
è¯»å–åœ°å€ 0x80003174
0x80002144: 00 07 a7 03 lw	a4, 0(a5)
è¯»å–åœ°å€ 0x80002148
0x80002148: fe 07 1a e3 bne	a4, zero, 0x8000213c
è¯»å–åœ°å€ 0x8000214c
å†™å…¥åœ°å€ 0x80003174
0x8000214c: 00 c7 a0 23 sw	a2, 0(a5)
è¯»å–åœ°å€ 0x80002150
0x80002150: 00 47 87 93 addi	a5, a5, 4
è¯»å–åœ°å€ 0x80002154
0x80002154: fe d7 98 e3 bne	a5, a3, 0x80002144
è¯»å–åœ°å€ 0x80002144
è¯»å–åœ°å€ 0x80003178
0x80002144: 00 07 a7 03 lw	a4, 0(a5)
è¯»å–åœ°å€ 0x80002148
0x80002148: fe 07 1a e3 bne	a4, zero, 0x8000213c
è¯»å–åœ°å€ 0x8000214c
å†™å…¥åœ°å€ 0x80003178
0x8000214c: 00 c7 a0 23 sw	a2, 0(a5)
è¯»å–åœ°å€ 0x80002150
0x80002150: 00 47 87 93 addi	a5, a5, 4
è¯»å–åœ°å€ 0x80002154
0x80002154: fe d7 98 e3 bne	a5, a3, 0x80002144
è¯»å–åœ°å€ 0x80002144
è¯»å–åœ°å€ 0x8000317c
0x80002144: 00 07 a7 03 lw	a4, 0(a5)
è¯»å–åœ°å€ 0x80002148
0x80002148: fe 07 1a e3 bne	a4, zero, 0x8000213c
è¯»å–åœ°å€ 0x8000214c
å†™å…¥åœ°å€ 0x8000317c
0x8000214c: 00 c7 a0 23 sw	a2, 0(a5)
è¯»å–åœ°å€ 0x80002150
0x80002150: 00 47 87 93 addi	a5, a5, 4
è¯»å–åœ°å€ 0x80002154
0x80002154: fe d7 98 e3 bne	a5, a3, 0x80002144
è¯»å–åœ°å€ 0x80002158
0x80002158: 0b 40 00 ef jal	ra, 0x8000220c
è¯»å–åœ°å€ 0x8000220c
0x8000220c: 00 00 80 67 jalr	zero, 0(ra)
è¯»å–åœ°å€ 0x8000215c
0x8000215c: 03 40 00 ef jal	ra, 0x80002190
è¯»å–åœ°å€ 0x80002190
0x80002190: a0 00 07 b7 lui	a5, 655360
è¯»å–åœ°å€ 0x80002194
write device name = rtc 	 addr = 0xa0000048 
0x80002194: 04 07 a4 23 sw	zero, 72(a5)
è¯»å–åœ°å€ 0x80002198
write device name = rtc 	 addr = 0xa000004c 
0x80002198: 04 07 a6 23 sw	zero, 76(a5)
è¯»å–åœ°å€ 0x8000219c
0x8000219c: 00 00 80 67 jalr	zero, 0(ra)
è¯»å–åœ°å€ 0x80002160
0x80002160: 0e c0 00 ef jal	ra, 0x8000224c
è¯»å–åœ°å€ 0x8000224c
0x8000224c: 00 00 80 67 jalr	zero, 0(ra)
è¯»å–åœ°å€ 0x80002164
è¯»å–åœ°å€ 0x8000bf4c
0x80002164: 00 c1 20 83 lw	ra, 12(sp)
è¯»å–åœ°å€ 0x80002168
0x80002168: 00 10 05 13 addi	a0, zero, 1
è¯»å–åœ°å€ 0x8000216c
0x8000216c: 01 01 01 13 addi	sp, sp, 16
è¯»å–åœ°å€ 0x80002170
0x80002170: 00 00 80 67 jalr	zero, 0(ra)
è¯»å–åœ°å€ 0x800019b8
0x800019b8: 80 00 35 37 lui	a0, 524291
è¯»å–åœ°å€ 0x800019bc
0x800019bc: 3e 80 05 93 addi	a1, zero, 1000
è¯»å–åœ°å€ 0x800019c0
0x800019c0: b1 05 05 13 addi	a0, a0, -1264
è¯»å–åœ°å€ 0x800019c4
0x800019c4: 2b d0 00 ef jal	ra, 0x80002480
è¯»å–åœ°å€ 0x80002480
0x80002480: bc 01 01 13 addi	sp, sp, -1088
è¯»å–åœ°å€ 0x80002484
å†™å…¥åœ°å€ 0x8000bf28
0x80002484: 40 81 2c 23 sw	s0, 1048(sp)
è¯»å–åœ°å€ 0x80002488
å†™å…¥åœ°å€ 0x8000bf24
0x80002488: 40 91 2a 23 sw	s1, 1044(sp)
è¯»å–åœ°å€ 0x8000248c
0x8000248c: 00 05 04 13 addi	s0, a0, 0
è¯»å–åœ°å€ 0x80002490
å†™å…¥åœ°å€ 0x8000bf34
0x80002490: 42 b1 22 23 sw	a1, 1060(sp)
è¯»å–åœ°å€ 0x80002494
å†™å…¥åœ°å€ 0x8000bf38
0x80002494: 42 c1 24 23 sw	a2, 1064(sp)
è¯»å–åœ°å€ 0x80002498
0x80002498: 42 41 04 93 addi	s1, sp, 1060
è¯»å–åœ°å€ 0x8000249c
0x8000249c: 3f c0 06 13 addi	a2, zero, 1020
è¯»å–åœ°å€ 0x800024a0
0x800024a0: 00 00 05 93 addi	a1, zero, 0
è¯»å–åœ°å€ 0x800024a4
0x800024a4: 01 41 05 13 addi	a0, sp, 20
è¯»å–åœ°å€ 0x800024a8
å†™å…¥åœ°å€ 0x8000bf2c
0x800024a8: 40 11 2e 23 sw	ra, 1052(sp)
è¯»å–åœ°å€ 0x800024ac
å†™å…¥åœ°å€ 0x8000bf20
0x800024ac: 41 21 28 23 sw	s2, 1040(sp)
è¯»å–åœ°å€ 0x800024b0
å†™å…¥åœ°å€ 0x8000bf3c
0x800024b0: 42 d1 26 23 sw	a3, 1068(sp)
è¯»å–åœ°å€ 0x800024b4
å†™å…¥åœ°å€ 0x8000bf40
0x800024b4: 42 e1 28 23 sw	a4, 1072(sp)
è¯»å–åœ°å€ 0x800024b8
å†™å…¥åœ°å€ 0x8000bf44
0x800024b8: 42 f1 2a 23 sw	a5, 1076(sp)
è¯»å–åœ°å€ 0x800024bc
å†™å…¥åœ°å€ 0x8000bf48
0x800024bc: 43 01 2c 23 sw	a6, 1080(sp)
è¯»å–åœ°å€ 0x800024c0
å†™å…¥åœ°å€ 0x8000bf4c
0x800024c0: 43 11 2e 23 sw	a7, 1084(sp)
è¯»å–åœ°å€ 0x800024c4
å†™å…¥åœ°å€ 0x8000bb1c
0x800024c4: 00 91 26 23 sw	s1, 12(sp)
è¯»å–åœ°å€ 0x800024c8
å†™å…¥åœ°å€ 0x8000bb20
0x800024c8: 00 01 28 23 sw	zero, 16(sp)
è¯»å–åœ°å€ 0x800024cc
0x800024cc: 0e 40 00 ef jal	ra, 0x800025b0
è¯»å–åœ°å€ 0x800025b0
0x800025b0: 0f f5 f5 93 andi	a1, a1, 255
è¯»å–åœ°å€ 0x800025b4
0x800025b4: 00 c5 07 33 add	a4, a0, a2
è¯»å–åœ°å€ 0x800025b8
0x800025b8: 00 05 07 93 addi	a5, a0, 0
è¯»å–åœ°å€ 0x800025bc
0x800025bc: 00 06 08 63 beq	a2, zero, 0x800025cc
è¯»å–åœ°å€ 0x800025c0
å†™å…¥åœ°å€ 0x8000bb24
0x800025c0: 00 b7 80 23 sb	a1, 0(a5)
è¯»å–åœ°å€ 0x800025c4
0x800025c4: 00 17 87 93 addi	a5, a5, 1
è¯»å–åœ°å€ 0x800025c8
0x800025c8: fe e7 9c e3 bne	a5, a4, 0x800025c0
è¯»å–åœ°å€ 0x800025c0
å†™å…¥åœ°å€ 0x8000bb25
0x800025c0: 00 b7 80 23 sb	a1, 0(a5)
è¯»å–åœ°å€ 0x800025c4
0x800025c4: 00 17 87 93 addi	a5, a5, 1
è¯»å–åœ°å€ 0x800025c8
0x800025c8: fe e7 9c e3 bne	a5, a4, 0x800025c0
è¯»å–åœ°å€ 0x800025c0
å†™å…¥åœ°å€ 0x8000bb26
0x800025c0: 00 b7 80 23 sb	a1, 0(a5)
è¯»å–åœ°å€ 0x800025c4
0x800025c4: 00 17 87 93 addi	a5, a5, 1
è¯»å–åœ°å€ 0x800025c8
0x800025c8: fe e7 9c e3 bne	a5, a4, 0x800025c0
è¯»å–åœ°å€ 0x800025c0
å†™å…¥åœ°å€ 0x8000bb27
0x800025c0: 00 b7 80 23 sb	a1, 0(a5)
è¯»å–åœ°å€ 0x800025c4
0x800025c4: 00 17 87 93 addi	a5, a5, 1
è¯»å–åœ°å€ 0x800025c8
0x800025c8: fe e7 9c e3 bne	a5, a4, 0x800025c0
è¯»å–åœ°å€ 0x800025c0
å†™å…¥åœ°å€ 0x8000bb28
0x800025c0: 00 b7 80 23 sb	a1, 0(a5)
è¯»å–åœ°å€ 0x800025c4
0x800025c4: 00 17 87 93 addi	a5, a5, 1
è¯»å–åœ°å€ 0x800025c8
0x800025c8: fe e7 9c e3 bne	a5, a4, 0x800025c0
è¯»å–åœ°å€ 0x800025c0
å†™å…¥åœ°å€ 0x8000bb29
0x800025c0: 00 b7 80 23 sb	a1, 0(a5)
è¯»å–åœ°å€ 0x800025c4
0x800025c4: 00 17 87 93 addi	a5, a5, 1
è¯»å–åœ°å€ 0x800025c8
0x800025c8: fe e7 9c e3 bne	a5, a4, 0x800025c0
è¯»å–åœ°å€ 0x800025c0
å†™å…¥åœ°å€ 0x8000bb2a
0x800025c0: 00 b7 80 23 sb	a1, 0(a5)
è¯»å–åœ°å€ 0x800025c4
0x800025c4: 00 17 87 93 addi	a5, a5, 1
è¯»å–åœ°å€ 0x800025c8
0x800025c8: fe e7 9c e3 bne	a5, a4, 0x800025c0
è¯»å–åœ°å€ 0x800025c0
å†™å…¥åœ°å€ 0x8000bb2b
0x800025c0: 00 b7 80 23 sb	a1, 0(a5)
è¯»å–åœ°å€ 0x800025c4
0x800025c4: 00 17 87 93 addi	a5, a5, 1
è¯»å–åœ°å€ 0x800025c8
0x800025c8: fe e7 9c e3 bne	a5, a4, 0x800025c0
è¯»å–åœ°å€ 0x800025c0
å†™å…¥åœ°å€ 0x8000bb2c
0x800025c0: 00 b7 80 23 sb	a1, 0(a5)
è¯»å–åœ°å€ 0x800025c4
0x800025c4: 00 17 87 93 addi	a5, a5, 1
è¯»å–åœ°å€ 0x800025c8
0x800025c8: fe e7 9c e3 bne	a5, a4, 0x800025c0
è¯»å–åœ°å€ 0x800025c0
å†™å…¥åœ°å€ 0x8000bb2d
0x800025c0: 00 b7 80 23 sb	a1, 0(a5)
è¯»å–åœ°å€ 0x800025c4
0x800025c4: 00 17 87 93 addi	a5, a5, 1
è¯»å–åœ°å€ 0x800025c8
0x800025c8: fe e7 9c e3 bne	a5, a4, 0x800025c0
è¯»å–åœ°å€ 0x800025c0
å†™å…¥åœ°å€ 0x8000bb2e
0x800025c0: 00 b7 80 23 sb	a1, 0(a5)
è¯»å–åœ°å€ 0x800025c4
0x800025c4: 00 17 87 93 addi	a5, a5, 1
è¯»å–åœ°å€ 0x800025c8
0x800025c8: fe e7 9c e3 bne	a5, a4, 0x800025c0
è¯»å–åœ°å€ 0x800025c0
å†™å…¥åœ°å€ 0x8000bb2f
0x800025c0: 00 b7 80 23 sb	a1, 0(a5)
è¯»å–åœ°å€ 0x800025c4
0x800025c4: 00 17 87 93 addi	a5, a5, 1
è¯»å–åœ°å€ 0x800025c8
0x800025c8: fe e7 9c e3 bne	a5, a4, 0x800025c0
è¯»å–åœ°å€ 0x800025c0
å†™å…¥åœ°å€ 0x8000bb30
0x800025c0: 00 b7 80 23 sb	a1, 0(a5)
è¯»å–åœ°å€ 0x800025c4
0x800025c4: 00 17 87 93 addi	a5, a5, 1
è¯»å–åœ°å€ 0x800025c8
0x800025c8: fe e7 9c e3 bne	a5, a4, 0x800025c0
è¯»å–åœ°å€ 0x800025c0
å†™å…¥åœ°å€ 0x8000bb31
0x800025c0: 00 b7 80 23 sb	a1, 0(a5)
è¯»å–åœ°å€ 0x800025c4
0x800025c4: 00 17 87 93 addi	a5, a5, 1
è¯»å–åœ°å€ 0x800025c8
0x800025c8: fe e7 9c e3 bne	a5, a4, 0x800025c0
è¯»å–åœ°å€ 0x800025c0
å†™å…¥åœ°å€ 0x8000bb32
0x800025c0: 00 b7 80 23 sb	a1, 0(a5)
è¯»å–åœ°å€ 0x800025c4
0x800025c4: 00 17 87 93 addi	a5, a5, 1
è¯»å–åœ°å€ 0x800025c8
0x800025c8: fe e7 9c e3 bne	a5, a4, 0x800025c0
è¯»å–åœ°å€ 0x800025c0
å†™å…¥åœ°å€ 0x8000bb33
0x800025c0: 00 b7 80 23 sb	a1, 0(a5)
è¯»å–åœ°å€ 0x800025c4
0x800025c4: 00 17 87 93 addi	a5, a5, 1
è¯»å–åœ°å€ 0x800025c8
0x800025c8: fe e7 9c e3 bne	a5, a4, 0x800025c0
è¯»å–åœ°å€ 0x800025c0
å†™å…¥åœ°å€ 0x8000bb34
0x800025c0: 00 b7 80 23 sb	a1, 0(a5)
è¯»å–åœ°å€ 0x800025c4
0x800025c4: 00 17 87 93 addi	a5, a5, 1
è¯»å–åœ°å€ 0x800025c8
0x800025c8: fe e7 9c e3 bne	a5, a4, 0x800025c0
è¯»å–åœ°å€ 0x800025c0
å†™å…¥åœ°å€ 0x8000bb35
0x800025c0: 00 b7 80 23 sb	a1, 0(a5)
è¯»å–åœ°å€ 0x800025c4
0x800025c4: 00 17 87 93 addi	a5, a5, 1
è¯»å–åœ°å€ 0x800025c8
0x800025c8: fe e7 9c e3 bne	a5, a4, 0x800025c0
è¯»å–åœ°å€ 0x800025c0
å†™å…¥åœ°å€ 0x8000bb36
0x800025c0: 00 b7 80 23 sb	a1, 0(a5)
è¯»å–åœ°å€ 0x800025c4
0x800025c4: 00 17 87 93 addi	a5, a5, 1
è¯»å–åœ°å€ 0x800025c8
0x800025c8: fe e7 9c e3 bne	a5, a4, 0x800025c0
è¯»å–åœ°å€ 0x800025c0
å†™å…¥åœ°å€ 0x8000bb37
0x800025c0: 00 b7 80 23 sb	a1, 0(a5)
è¯»å–åœ°å€ 0x800025c4
0x800025c4: 00 17 87 93 addi	a5, a5, 1
è¯»å–åœ°å€ 0x800025c8
0x800025c8: fe e7 9c e3 bne	a5, a4, 0x800025c0
è¯»å–åœ°å€ 0x800025c0
å†™å…¥åœ°å€ 0x8000bb38
0x800025c0: 00 b7 80 23 sb	a1, 0(a5)
è¯»å–åœ°å€ 0x800025c4
0x800025c4: 00 17 87 93 addi	a5, a5, 1
è¯»å–åœ°å€ 0x800025c8
0x800025c8: fe e7 9c e3 bne	a5, a4, 0x800025c0
è¯»å–åœ°å€ 0x800025c0
å†™å…¥åœ°å€ 0x8000bb39
0x800025c0: 00 b7 80 23 sb	a1, 0(a5)
è¯»å–åœ°å€ 0x800025c4
0x800025c4: 00 17 87 93 addi	a5, a5, 1
è¯»å–åœ°å€ 0x800025c8
0x800025c8: fe e7 9c e3 bne	a5, a4, 0x800025c0
è¯»å–åœ°å€ 0x800025c0
å†™å…¥åœ°å€ 0x8000bb3a
0x800025c0: 00 b7 80 23 sb	a1, 0(a5)
è¯»å–åœ°å€ 0x800025c4
0x800025c4: 00 17 87 93 addi	a5, a5, 1
è¯»å–åœ°å€ 0x800025c8
0x800025c8: fe e7 9c e3 bne	a5, a4, 0x800025c0
è¯»å–åœ°å€ 0x800025c0
å†™å…¥åœ°å€ 0x8000bb3b
0x800025c0: 00 b7 80 23 sb	a1, 0(a5)
è¯»å–åœ°å€ 0x800025c4
0x800025c4: 00 17 87 93 addi	a5, a5, 1
è¯»å–åœ°å€ 0x800025c8
0x800025c8: fe e7 9c e3 bne	a5, a4, 0x800025c0
è¯»å–åœ°å€ 0x800025c0
å†™å…¥åœ°å€ 0x8000bb3c
0x800025c0: 00 b7 80 23 sb	a1, 0(a5)
è¯»å–åœ°å€ 0x800025c4
0x800025c4: 00 17 87 93 addi	a5, a5, 1
è¯»å–åœ°å€ 0x800025c8
0x800025c8: fe e7 9c e3 bne	a5, a4, 0x800025c0
è¯»å–åœ°å€ 0x800025c0
å†™å…¥åœ°å€ 0x8000bb3d
0x800025c0: 00 b7 80 23 sb	a1, 0(a5)
è¯»å–åœ°å€ 0x800025c4
0x800025c4: 00 17 87 93 addi	a5, a5, 1
è¯»å–åœ°å€ 0x800025c8
0x800025c8: fe e7 9c e3 bne	a5, a4, 0x800025c0
è¯»å–åœ°å€ 0x800025c0
å†™å…¥åœ°å€ 0x8000bb3e
0x800025c0: 00 b7 80 23 sb	a1, 0(a5)
è¯»å–åœ°å€ 0x800025c4
0x800025c4: 00 17 87 93 addi	a5, a5, 1
è¯»å–åœ°å€ 0x800025c8
0x800025c8: fe e7 9c e3 bne	a5, a4, 0x800025c0
è¯»å–åœ°å€ 0x800025c0
å†™å…¥åœ°å€ 0x8000bb3f
0x800025c0: 00 b7 80 23 sb	a1, 0(a5)
è¯»å–åœ°å€ 0x800025c4
0x800025c4: 00 17 87 93 addi	a5, a5, 1
è¯»å–åœ°å€ 0x800025c8
0x800025c8: fe e7 9c e3 bne	a5, a4, 0x800025c0
è¯»å–åœ°å€ 0x800025c0
å†™å…¥åœ°å€ 0x8000bb40
0x800025c0: 00 b7 80 23 sb	a1, 0(a5)
è¯»å–åœ°å€ 0x800025c4
0x800025c4: 00 17 87 93 addi	a5, a5, 1
è¯»å–åœ°å€ 0x800025c8
0x800025c8: fe e7 9c e3 bne	a5, a4, 0x800025c0
è¯»å–åœ°å€ 0x800025c0
å†™å…¥åœ°å€ 0x8000bb41
0x800025c0: 00 b7 80 23 sb	a1, 0(a5)
è¯»å–åœ°å€ 0x800025c4
0x800025c4: 00 17 87 93 addi	a5, a5, 1
è¯»å–åœ°å€ 0x800025c8
0x800025c8: fe e7 9c e3 bne	a5, a4, 0x800025c0
è¯»å–åœ°å€ 0x800025c0
å†™å…¥åœ°å€ 0x8000bb42
0x800025c0: 00 b7 80 23 sb	a1, 0(a5)
è¯»å–åœ°å€ 0x800025c4
0x800025c4: 00 17 87 93 addi	a5, a5, 1
è¯»å–åœ°å€ 0x800025c8
0x800025c8: fe e7 9c e3 bne	a5, a4, 0x800025c0
è¯»å–åœ°å€ 0x800025c0
å†™å…¥åœ°å€ 0x8000bb43
0x800025c0: 00 b7 80 23 sb	a1, 0(a5)
è¯»å–åœ°å€ 0x800025c4
0x800025c4: 00 17 87 93 addi	a5, a5, 1
è¯»å–åœ°å€ 0x800025c8
0x800025c8: fe e7 9c e3 bne	a5, a4, 0x800025c0
è¯»å–åœ°å€ 0x800025c0
å†™å…¥åœ°å€ 0x8000bb44
0x800025c0: 00 b7 80 23 sb	a1, 0(a5)
è¯»å–åœ°å€ 0x800025c4
0x800025c4: 00 17 87 93 addi	a5, a5, 1
è¯»å–åœ°å€ 0x800025c8
0x800025c8: fe e7 9c e3 bne	a5, a4, 0x800025c0
è¯»å–åœ°å€ 0x800025c0
å†™å…¥åœ°å€ 0x8000bb45
0x800025c0: 00 b7 80 23 sb	a1, 0(a5)
è¯»å–åœ°å€ 0x800025c4
0x800025c4: 00 17 87 93 addi	a5, a5, 1
è¯»å–åœ°å€ 0x800025c8
0x800025c8: fe e7 9c e3 bne	a5, a4, 0x800025c0
è¯»å–åœ°å€ 0x800025c0
å†™å…¥åœ°å€ 0x8000bb46
0x800025c0: 00 b7 80 23 sb	a1, 0(a5)
è¯»å–åœ°å€ 0x800025c4
0x800025c4: 00 17 87 93 addi	a5, a5, 1
è¯»å–åœ°å€ 0x800025c8
0x800025c8: fe e7 9c e3 bne	a5, a4, 0x800025c0
è¯»å–åœ°å€ 0x800025c0
å†™å…¥åœ°å€ 0x8000bb47
0x800025c0: 00 b7 80 23 sb	a1, 0(a5)
è¯»å–åœ°å€ 0x800025c4
0x800025c4: 00 17 87 93 addi	a5, a5, 1
è¯»å–åœ°å€ 0x800025c8
0x800025c8: fe e7 9c e3 bne	a5, a4, 0x800025c0
è¯»å–åœ°å€ 0x800025c0
å†™å…¥åœ°å€ 0x8000bb48
0x800025c0: 00 b7 80 23 sb	a1, 0(a5)
è¯»å–åœ°å€ 0x800025c4
0x800025c4: 00 17 87 93 addi	a5, a5, 1
è¯»å–åœ°å€ 0x800025c8
0x800025c8: fe e7 9c e3 bne	a5, a4, 0x800025c0
è¯»å–åœ°å€ 0x800025c0
å†™å…¥åœ°å€ 0x8000bb49
0x800025c0: 00 b7 80 23 sb	a1, 0(a5)
è¯»å–åœ°å€ 0x800025c4
0x800025c4: 00 17 87 93 addi	a5, a5, 1
è¯»å–åœ°å€ 0x800025c8
0x800025c8: fe e7 9c e3 bne	a5, a4, 0x800025c0
è¯»å–åœ°å€ 0x800025c0
å†™å…¥åœ°å€ 0x8000bb4a
0x800025c0: 00 b7 80 23 sb	a1, 0(a5)
è¯»å–åœ°å€ 0x800025c4
0x800025c4: 00 17 87 93 addi	a5, a5, 1
è¯»å–åœ°å€ 0x800025c8
0x800025c8: fe e7 9c e3 bne	a5, a4, 0x800025c0
è¯»å–åœ°å€ 0x800025c0
å†™å…¥åœ°å€ 0x8000bb4b
0x800025c0: 00 b7 80 23 sb	a1, 0(a5)
è¯»å–åœ°å€ 0x800025c4
0x800025c4: 00 17 87 93 addi	a5, a5, 1
è¯»å–åœ°å€ 0x800025c8
0x800025c8: fe e7 9c e3 bne	a5, a4, 0x800025c0
è¯»å–åœ°å€ 0x800025c0
å†™å…¥åœ°å€ 0x8000bb4c
0x800025c0: 00 b7 80 23 sb	a1, 0(a5)
è¯»å–åœ°å€ 0x800025c4
0x800025c4: 00 17 87 93 addi	a5, a5, 1
è¯»å–åœ°å€ 0x800025c8
0x800025c8: fe e7 9c e3 bne	a5, a4, 0x800025c0
è¯»å–åœ°å€ 0x800025c0
å†™å…¥åœ°å€ 0x8000bb4d
0x800025c0: 00 b7 80 23 sb	a1, 0(a5)
è¯»å–åœ°å€ 0x800025c4
0x800025c4: 00 17 87 93 addi	a5, a5, 1
è¯»å–åœ°å€ 0x800025c8
0x800025c8: fe e7 9c e3 bne	a5, a4, 0x800025c0
è¯»å–åœ°å€ 0x800025c0
å†™å…¥åœ°å€ 0x8000bb4e
0x800025c0: 00 b7 80 23 sb	a1, 0(a5)
è¯»å–åœ°å€ 0x800025c4
0x800025c4: 00 17 87 93 addi	a5, a5, 1
è¯»å–åœ°å€ 0x800025c8
0x800025c8: fe e7 9c e3 bne	a5, a4, 0x800025c0
è¯»å–åœ°å€ 0x800025c0
å†™å…¥åœ°å€ 0x8000bb4f
0x800025c0: 00 b7 80 23 sb	a1, 0(a5)
è¯»å–åœ°å€ 0x800025c4
0x800025c4: 00 17 87 93 addi	a5, a5, 1
è¯»å–åœ°å€ 0x800025c8
0x800025c8: fe e7 9c e3 bne	a5, a4, 0x800025c0
è¯»å–åœ°å€ 0x800025c0
å†™å…¥åœ°å€ 0x8000bb50
0x800025c0: 00 b7 80 23 sb	a1, 0(a5)
è¯»å–åœ°å€ 0x800025c4
0x800025c4: 00 17 87 93 addi	a5, a5, 1
è¯»å–åœ°å€ 0x800025c8
0x800025c8: fe e7 9c e3 bne	a5, a4, 0x800025c0
è¯»å–åœ°å€ 0x800025c0
å†™å…¥åœ°å€ 0x8000bb51
0x800025c0: 00 b7 80 23 sb	a1, 0(a5)
è¯»å–åœ°å€ 0x800025c4
0x800025c4: 00 17 87 93 addi	a5, a5, 1
è¯»å–åœ°å€ 0x800025c8
0x800025c8: fe e7 9c e3 bne	a5, a4, 0x800025c0
è¯»å–åœ°å€ 0x800025c0
å†™å…¥åœ°å€ 0x8000bb52
0x800025c0: 00 b7 80 23 sb	a1, 0(a5)
è¯»å–åœ°å€ 0x800025c4
0x800025c4: 00 17 87 93 addi	a5, a5, 1
è¯»å–åœ°å€ 0x800025c8
0x800025c8: fe e7 9c e3 bne	a5, a4, 0x800025c0
è¯»å–åœ°å€ 0x800025c0
å†™å…¥åœ°å€ 0x8000bb53
0x800025c0: 00 b7 80 23 sb	a1, 0(a5)
è¯»å–åœ°å€ 0x800025c4
0x800025c4: 00 17 87 93 addi	a5, a5, 1
è¯»å–åœ°å€ 0x800025c8
0x800025c8: fe e7 9c e3 bne	a5, a4, 0x800025c0
è¯»å–åœ°å€ 0x800025c0
å†™å…¥åœ°å€ 0x8000bb54
0x800025c0: 00 b7 80 23 sb	a1, 0(a5)
è¯»å–åœ°å€ 0x800025c4
0x800025c4: 00 17 87 93 addi	a5, a5, 1
è¯»å–åœ°å€ 0x800025c8
0x800025c8: fe e7 9c e3 bne	a5, a4, 0x800025c0
è¯»å–åœ°å€ 0x800025c0
å†™å…¥åœ°å€ 0x8000bb55
0x800025c0: 00 b7 80 23 sb	a1, 0(a5)
è¯»å–åœ°å€ 0x800025c4
0x800025c4: 00 17 87 93 addi	a5, a5, 1
è¯»å–åœ°å€ 0x800025c8
0x800025c8: fe e7 9c e3 bne	a5, a4, 0x800025c0
è¯»å–åœ°å€ 0x800025c0
å†™å…¥åœ°å€ 0x8000bb56
0x800025c0: 00 b7 80 23 sb	a1, 0(a5)
è¯»å–åœ°å€ 0x800025c4
0x800025c4: 00 17 87 93 addi	a5, a5, 1
è¯»å–åœ°å€ 0x800025c8
0x800025c8: fe e7 9c e3 bne	a5, a4, 0x800025c0
è¯»å–åœ°å€ 0x800025c0
å†™å…¥åœ°å€ 0x8000bb57
0x800025c0: 00 b7 80 23 sb	a1, 0(a5)
è¯»å–åœ°å€ 0x800025c4
0x800025c4: 00 17 87 93 addi	a5, a5, 1
è¯»å–åœ°å€ 0x800025c8
0x800025c8: fe e7 9c e3 bne	a5, a4, 0x800025c0
è¯»å–åœ°å€ 0x800025c0
å†™å…¥åœ°å€ 0x8000bb58
0x800025c0: 00 b7 80 23 sb	a1, 0(a5)
è¯»å–åœ°å€ 0x800025c4
0x800025c4: 00 17 87 93 addi	a5, a5, 1
è¯»å–åœ°å€ 0x800025c8
0x800025c8: fe e7 9c e3 bne	a5, a4, 0x800025c0
è¯»å–åœ°å€ 0x800025c0
å†™å…¥åœ°å€ 0x8000bb59
0x800025c0: 00 b7 80 23 sb	a1, 0(a5)
è¯»å–åœ°å€ 0x800025c4
0x800025c4: 00 17 87 93 addi	a5, a5, 1
è¯»å–åœ°å€ 0x800025c8
0x800025c8: fe e7 9c e3 bne	a5, a4, 0x800025c0
è¯»å–åœ°å€ 0x800025c0
å†™å…¥åœ°å€ 0x8000bb5a
0x800025c0: 00 b7 80 23 sb	a1, 0(a5)
è¯»å–åœ°å€ 0x800025c4
0x800025c4: 00 17 87 93 addi	a5, a5, 1
è¯»å–åœ°å€ 0x800025c8
0x800025c8: fe e7 9c e3 bne	a5, a4, 0x800025c0
è¯»å–åœ°å€ 0x800025c0
å†™å…¥åœ°å€ 0x8000bb5b
0x800025c0: 00 b7 80 23 sb	a1, 0(a5)
è¯»å–åœ°å€ 0x800025c4
0x800025c4: 00 17 87 93 addi	a5, a5, 1
è¯»å–åœ°å€ 0x800025c8
0x800025c8: fe e7 9c e3 bne	a5, a4, 0x800025c0
è¯»å–åœ°å€ 0x800025c0
å†™å…¥åœ°å€ 0x8000bb5c
0x800025c0: 00 b7 80 23 sb	a1, 0(a5)
è¯»å–åœ°å€ 0x800025c4
0x800025c4: 00 17 87 93 addi	a5, a5, 1
è¯»å–åœ°å€ 0x800025c8
0x800025c8: fe e7 9c e3 bne	a5, a4, 0x800025c0
è¯»å–åœ°å€ 0x800025c0
å†™å…¥åœ°å€ 0x8000bb5d
0x800025c0: 00 b7 80 23 sb	a1, 0(a5)
è¯»å–åœ°å€ 0x800025c4
0x800025c4: 00 17 87 93 addi	a5, a5, 1
è¯»å–åœ°å€ 0x800025c8
0x800025c8: fe e7 9c e3 bne	a5, a4, 0x800025c0
è¯»å–åœ°å€ 0x800025c0
å†™å…¥åœ°å€ 0x8000bb5e
0x800025c0: 00 b7 80 23 sb	a1, 0(a5)
è¯»å–åœ°å€ 0x800025c4
0x800025c4: 00 17 87 93 addi	a5, a5, 1
è¯»å–åœ°å€ 0x800025c8
0x800025c8: fe e7 9c e3 bne	a5, a4, 0x800025c0
è¯»å–åœ°å€ 0x800025c0
å†™å…¥åœ°å€ 0x8000bb5f
0x800025c0: 00 b7 80 23 sb	a1, 0(a5)
è¯»å–åœ°å€ 0x800025c4
0x800025c4: 00 17 87 93 addi	a5, a5, 1
è¯»å–åœ°å€ 0x800025c8
0x800025c8: fe e7 9c e3 bne	a5, a4, 0x800025c0
è¯»å–åœ°å€ 0x800025c0
å†™å…¥åœ°å€ 0x8000bb60
0x800025c0: 00 b7 80 23 sb	a1, 0(a5)
è¯»å–åœ°å€ 0x800025c4
0x800025c4: 00 17 87 93 addi	a5, a5, 1
è¯»å–åœ°å€ 0x800025c8
0x800025c8: fe e7 9c e3 bne	a5, a4, 0x800025c0
è¯»å–åœ°å€ 0x800025c0
å†™å…¥åœ°å€ 0x8000bb61
0x800025c0: 00 b7 80 23 sb	a1, 0(a5)
è¯»å–åœ°å€ 0x800025c4
0x800025c4: 00 17 87 93 addi	a5, a5, 1
è¯»å–åœ°å€ 0x800025c8
0x800025c8: fe e7 9c e3 bne	a5, a4, 0x800025c0
è¯»å–åœ°å€ 0x800025c0
å†™å…¥åœ°å€ 0x8000bb62
0x800025c0: 00 b7 80 23 sb	a1, 0(a5)
è¯»å–åœ°å€ 0x800025c4
0x800025c4: 00 17 87 93 addi	a5, a5, 1
è¯»å–åœ°å€ 0x800025c8
0x800025c8: fe e7 9c e3 bne	a5, a4, 0x800025c0
è¯»å–åœ°å€ 0x800025c0
å†™å…¥åœ°å€ 0x8000bb63
0x800025c0: 00 b7 80 23 sb	a1, 0(a5)
è¯»å–åœ°å€ 0x800025c4
0x800025c4: 00 17 87 93 addi	a5, a5, 1
è¯»å–åœ°å€ 0x800025c8
0x800025c8: fe e7 9c e3 bne	a5, a4, 0x800025c0
è¯»å–åœ°å€ 0x800025c0
å†™å…¥åœ°å€ 0x8000bb64
0x800025c0: 00 b7 80 23 sb	a1, 0(a5)
è¯»å–åœ°å€ 0x800025c4
0x800025c4: 00 17 87 93 addi	a5, a5, 1
è¯»å–åœ°å€ 0x800025c8
0x800025c8: fe e7 9c e3 bne	a5, a4, 0x800025c0
è¯»å–åœ°å€ 0x800025c0
å†™å…¥åœ°å€ 0x8000bb65
0x800025c0: 00 b7 80 23 sb	a1, 0(a5)
è¯»å–åœ°å€ 0x800025c4
0x800025c4: 00 17 87 93 addi	a5, a5, 1
è¯»å–åœ°å€ 0x800025c8
0x800025c8: fe e7 9c e3 bne	a5, a4, 0x800025c0
è¯»å–åœ°å€ 0x800025c0
å†™å…¥åœ°å€ 0x8000bb66
0x800025c0: 00 b7 80 23 sb	a1, 0(a5)
è¯»å–åœ°å€ 0x800025c4
0x800025c4: 00 17 87 93 addi	a5, a5, 1
è¯»å–åœ°å€ 0x800025c8
0x800025c8: fe e7 9c e3 bne	a5, a4, 0x800025c0
è¯»å–åœ°å€ 0x800025c0
å†™å…¥åœ°å€ 0x8000bb67
0x800025c0: 00 b7 80 23 sb	a1, 0(a5)
è¯»å–åœ°å€ 0x800025c4
0x800025c4: 00 17 87 93 addi	a5, a5, 1
è¯»å–åœ°å€ 0x800025c8
0x800025c8: fe e7 9c e3 bne	a5, a4, 0x800025c0
è¯»å–åœ°å€ 0x800025c0
å†™å…¥åœ°å€ 0x8000bb68
0x800025c0: 00 b7 80 23 sb	a1, 0(a5)
è¯»å–åœ°å€ 0x800025c4
0x800025c4: 00 17 87 93 addi	a5, a5, 1
è¯»å–åœ°å€ 0x800025c8
0x800025c8: fe e7 9c e3 bne	a5, a4, 0x800025c0
è¯»å–åœ°å€ 0x800025c0
å†™å…¥åœ°å€ 0x8000bb69
0x800025c0: 00 b7 80 23 sb	a1, 0(a5)
è¯»å–åœ°å€ 0x800025c4
0x800025c4: 00 17 87 93 addi	a5, a5, 1
è¯»å–åœ°å€ 0x800025c8
0x800025c8: fe e7 9c e3 bne	a5, a4, 0x800025c0
è¯»å–åœ°å€ 0x800025c0
å†™å…¥åœ°å€ 0x8000bb6a
0x800025c0: 00 b7 80 23 sb	a1, 0(a5)
è¯»å–åœ°å€ 0x800025c4
0x800025c4: 00 17 87 93 addi	a5, a5, 1
è¯»å–åœ°å€ 0x800025c8
0x800025c8: fe e7 9c e3 bne	a5, a4, 0x800025c0
è¯»å–åœ°å€ 0x800025c0
å†™å…¥åœ°å€ 0x8000bb6b
0x800025c0: 00 b7 80 23 sb	a1, 0(a5)
è¯»å–åœ°å€ 0x800025c4
0x800025c4: 00 17 87 93 addi	a5, a5, 1
è¯»å–åœ°å€ 0x800025c8
0x800025c8: fe e7 9c e3 bne	a5, a4, 0x800025c0
è¯»å–åœ°å€ 0x800025c0
å†™å…¥åœ°å€ 0x8000bb6c
0x800025c0: 00 b7 80 23 sb	a1, 0(a5)
è¯»å–åœ°å€ 0x800025c4
0x800025c4: 00 17 87 93 addi	a5, a5, 1
è¯»å–åœ°å€ 0x800025c8
0x800025c8: fe e7 9c e3 bne	a5, a4, 0x800025c0
è¯»å–åœ°å€ 0x800025c0
å†™å…¥åœ°å€ 0x8000bb6d
0x800025c0: 00 b7 80 23 sb	a1, 0(a5)
è¯»å–åœ°å€ 0x800025c4
0x800025c4: 00 17 87 93 addi	a5, a5, 1
è¯»å–åœ°å€ 0x800025c8
0x800025c8: fe e7 9c e3 bne	a5, a4, 0x800025c0
è¯»å–åœ°å€ 0x800025c0
å†™å…¥åœ°å€ 0x8000bb6e
0x800025c0: 00 b7 80 23 sb	a1, 0(a5)
è¯»å–åœ°å€ 0x800025c4
0x800025c4: 00 17 87 93 addi	a5, a5, 1
è¯»å–åœ°å€ 0x800025c8
0x800025c8: fe e7 9c e3 bne	a5, a4, 0x800025c0
è¯»å–åœ°å€ 0x800025c0
å†™å…¥åœ°å€ 0x8000bb6f
0x800025c0: 00 b7 80 23 sb	a1, 0(a5)
è¯»å–åœ°å€ 0x800025c4
0x800025c4: 00 17 87 93 addi	a5, a5, 1
è¯»å–åœ°å€ 0x800025c8
0x800025c8: fe e7 9c e3 bne	a5, a4, 0x800025c0
è¯»å–åœ°å€ 0x800025c0
å†™å…¥åœ°å€ 0x8000bb70
0x800025c0: 00 b7 80 23 sb	a1, 0(a5)
è¯»å–åœ°å€ 0x800025c4
0x800025c4: 00 17 87 93 addi	a5, a5, 1
è¯»å–åœ°å€ 0x800025c8
0x800025c8: fe e7 9c e3 bne	a5, a4, 0x800025c0
è¯»å–åœ°å€ 0x800025c0
å†™å…¥åœ°å€ 0x8000bb71
0x800025c0: 00 b7 80 23 sb	a1, 0(a5)
è¯»å–åœ°å€ 0x800025c4
0x800025c4: 00 17 87 93 addi	a5, a5, 1
è¯»å–åœ°å€ 0x800025c8
0x800025c8: fe e7 9c e3 bne	a5, a4, 0x800025c0
è¯»å–åœ°å€ 0x800025c0
å†™å…¥åœ°å€ 0x8000bb72
0x800025c0: 00 b7 80 23 sb	a1, 0(a5)
è¯»å–åœ°å€ 0x800025c4
0x800025c4: 00 17 87 93 addi	a5, a5, 1
è¯»å–åœ°å€ 0x800025c8
0x800025c8: fe e7 9c e3 bne	a5, a4, 0x800025c0
è¯»å–åœ°å€ 0x800025c0
å†™å…¥åœ°å€ 0x8000bb73
0x800025c0: 00 b7 80 23 sb	a1, 0(a5)
è¯»å–åœ°å€ 0x800025c4
0x800025c4: 00 17 87 93 addi	a5, a5, 1
è¯»å–åœ°å€ 0x800025c8
0x800025c8: fe e7 9c e3 bne	a5, a4, 0x800025c0
è¯»å–åœ°å€ 0x800025c0
å†™å…¥åœ°å€ 0x8000bb74
0x800025c0: 00 b7 80 23 sb	a1, 0(a5)
è¯»å–åœ°å€ 0x800025c4
0x800025c4: 00 17 87 93 addi	a5, a5, 1
è¯»å–åœ°å€ 0x800025c8
0x800025c8: fe e7 9c e3 bne	a5, a4, 0x800025c0
è¯»å–åœ°å€ 0x800025c0
å†™å…¥åœ°å€ 0x8000bb75
0x800025c0: 00 b7 80 23 sb	a1, 0(a5)
è¯»å–åœ°å€ 0x800025c4
0x800025c4: 00 17 87 93 addi	a5, a5, 1
è¯»å–åœ°å€ 0x800025c8
0x800025c8: fe e7 9c e3 bne	a5, a4, 0x800025c0
è¯»å–åœ°å€ 0x800025c0
å†™å…¥åœ°å€ 0x8000bb76
0x800025c0: 00 b7 80 23 sb	a1, 0(a5)
è¯»å–åœ°å€ 0x800025c4
0x800025c4: 00 17 87 93 addi	a5, a5, 1
è¯»å–åœ°å€ 0x800025c8
0x800025c8: fe e7 9c e3 bne	a5, a4, 0x800025c0
è¯»å–åœ°å€ 0x800025c0
å†™å…¥åœ°å€ 0x8000bb77
0x800025c0: 00 b7 80 23 sb	a1, 0(a5)
è¯»å–åœ°å€ 0x800025c4
0x800025c4: 00 17 87 93 addi	a5, a5, 1
è¯»å–åœ°å€ 0x800025c8
0x800025c8: fe e7 9c e3 bne	a5, a4, 0x800025c0
è¯»å–åœ°å€ 0x800025c0
å†™å…¥åœ°å€ 0x8000bb78
0x800025c0: 00 b7 80 23 sb	a1, 0(a5)
è¯»å–åœ°å€ 0x800025c4
0x800025c4: 00 17 87 93 addi	a5, a5, 1
è¯»å–åœ°å€ 0x800025c8
0x800025c8: fe e7 9c e3 bne	a5, a4, 0x800025c0
è¯»å–åœ°å€ 0x800025c0
å†™å…¥åœ°å€ 0x8000bb79
0x800025c0: 00 b7 80 23 sb	a1, 0(a5)
è¯»å–åœ°å€ 0x800025c4
0x800025c4: 00 17 87 93 addi	a5, a5, 1
è¯»å–åœ°å€ 0x800025c8
0x800025c8: fe e7 9c e3 bne	a5, a4, 0x800025c0
è¯»å–åœ°å€ 0x800025c0
å†™å…¥åœ°å€ 0x8000bb7a
0x800025c0: 00 b7 80 23 sb	a1, 0(a5)
è¯»å–åœ°å€ 0x800025c4
0x800025c4: 00 17 87 93 addi	a5, a5, 1
è¯»å–åœ°å€ 0x800025c8
0x800025c8: fe e7 9c e3 bne	a5, a4, 0x800025c0
è¯»å–åœ°å€ 0x800025c0
å†™å…¥åœ°å€ 0x8000bb7b
0x800025c0: 00 b7 80 23 sb	a1, 0(a5)
è¯»å–åœ°å€ 0x800025c4
0x800025c4: 00 17 87 93 addi	a5, a5, 1
è¯»å–åœ°å€ 0x800025c8
0x800025c8: fe e7 9c e3 bne	a5, a4, 0x800025c0
è¯»å–åœ°å€ 0x800025c0
å†™å…¥åœ°å€ 0x8000bb7c
0x800025c0: 00 b7 80 23 sb	a1, 0(a5)
è¯»å–åœ°å€ 0x800025c4
0x800025c4: 00 17 87 93 addi	a5, a5, 1
è¯»å–åœ°å€ 0x800025c8
0x800025c8: fe e7 9c e3 bne	a5, a4, 0x800025c0
è¯»å–åœ°å€ 0x800025c0
å†™å…¥åœ°å€ 0x8000bb7d
0x800025c0: 00 b7 80 23 sb	a1, 0(a5)
è¯»å–åœ°å€ 0x800025c4
0x800025c4: 00 17 87 93 addi	a5, a5, 1
è¯»å–åœ°å€ 0x800025c8
0x800025c8: fe e7 9c e3 bne	a5, a4, 0x800025c0
è¯»å–åœ°å€ 0x800025c0
å†™å…¥åœ°å€ 0x8000bb7e
0x800025c0: 00 b7 80 23 sb	a1, 0(a5)
è¯»å–åœ°å€ 0x800025c4
0x800025c4: 00 17 87 93 addi	a5, a5, 1
è¯»å–åœ°å€ 0x800025c8
0x800025c8: fe e7 9c e3 bne	a5, a4, 0x800025c0
è¯»å–åœ°å€ 0x800025c0
å†™å…¥åœ°å€ 0x8000bb7f
0x800025c0: 00 b7 80 23 sb	a1, 0(a5)
è¯»å–åœ°å€ 0x800025c4
0x800025c4: 00 17 87 93 addi	a5, a5, 1
è¯»å–åœ°å€ 0x800025c8
0x800025c8: fe e7 9c e3 bne	a5, a4, 0x800025c0
è¯»å–åœ°å€ 0x800025c0
å†™å…¥åœ°å€ 0x8000bb80
0x800025c0: 00 b7 80 23 sb	a1, 0(a5)
è¯»å–åœ°å€ 0x800025c4
0x800025c4: 00 17 87 93 addi	a5, a5, 1
è¯»å–åœ°å€ 0x800025c8
0x800025c8: fe e7 9c e3 bne	a5, a4, 0x800025c0
è¯»å–åœ°å€ 0x800025c0
å†™å…¥åœ°å€ 0x8000bb81
0x800025c0: 00 b7 80 23 sb	a1, 0(a5)
è¯»å–åœ°å€ 0x800025c4
0x800025c4: 00 17 87 93 addi	a5, a5, 1
è¯»å–åœ°å€ 0x800025c8
0x800025c8: fe e7 9c e3 bne	a5, a4, 0x800025c0
è¯»å–åœ°å€ 0x800025c0
å†™å…¥åœ°å€ 0x8000bb82
0x800025c0: 00 b7 80 23 sb	a1, 0(a5)
è¯»å–åœ°å€ 0x800025c4
0x800025c4: 00 17 87 93 addi	a5, a5, 1
è¯»å–åœ°å€ 0x800025c8
0x800025c8: fe e7 9c e3 bne	a5, a4, 0x800025c0
è¯»å–åœ°å€ 0x800025c0
å†™å…¥åœ°å€ 0x8000bb83
0x800025c0: 00 b7 80 23 sb	a1, 0(a5)
è¯»å–åœ°å€ 0x800025c4
0x800025c4: 00 17 87 93 addi	a5, a5, 1
è¯»å–åœ°å€ 0x800025c8
0x800025c8: fe e7 9c e3 bne	a5, a4, 0x800025c0
è¯»å–åœ°å€ 0x800025c0
å†™å…¥åœ°å€ 0x8000bb84
0x800025c0: 00 b7 80 23 sb	a1, 0(a5)
è¯»å–åœ°å€ 0x800025c4
0x800025c4: 00 17 87 93 addi	a5, a5, 1
è¯»å–åœ°å€ 0x800025c8
0x800025c8: fe e7 9c e3 bne	a5, a4, 0x800025c0
è¯»å–åœ°å€ 0x800025c0
å†™å…¥åœ°å€ 0x8000bb85
0x800025c0: 00 b7 80 23 sb	a1, 0(a5)
è¯»å–åœ°å€ 0x800025c4
0x800025c4: 00 17 87 93 addi	a5, a5, 1
è¯»å–åœ°å€ 0x800025c8
0x800025c8: fe e7 9c e3 bne	a5, a4, 0x800025c0
è¯»å–åœ°å€ 0x800025c0
å†™å…¥åœ°å€ 0x8000bb86
0x800025c0: 00 b7 80 23 sb	a1, 0(a5)
è¯»å–åœ°å€ 0x800025c4
0x800025c4: 00 17 87 93 addi	a5, a5, 1
è¯»å–åœ°å€ 0x800025c8
0x800025c8: fe e7 9c e3 bne	a5, a4, 0x800025c0
è¯»å–åœ°å€ 0x800025c0
å†™å…¥åœ°å€ 0x8000bb87
0x800025c0: 00 b7 80 23 sb	a1, 0(a5)
è¯»å–åœ°å€ 0x800025c4
0x800025c4: 00 17 87 93 addi	a5, a5, 1
è¯»å–åœ°å€ 0x800025c8
0x800025c8: fe e7 9c e3 bne	a5, a4, 0x800025c0
è¯»å–åœ°å€ 0x800025c0
å†™å…¥åœ°å€ 0x8000bb88
0x800025c0: 00 b7 80 23 sb	a1, 0(a5)
è¯»å–åœ°å€ 0x800025c4
0x800025c4: 00 17 87 93 addi	a5, a5, 1
è¯»å–åœ°å€ 0x800025c8
0x800025c8: fe e7 9c e3 bne	a5, a4, 0x800025c0
è¯»å–åœ°å€ 0x800025c0
å†™å…¥åœ°å€ 0x8000bb89
0x800025c0: 00 b7 80 23 sb	a1, 0(a5)
è¯»å–åœ°å€ 0x800025c4
0x800025c4: 00 17 87 93 addi	a5, a5, 1
è¯»å–åœ°å€ 0x800025c8
0x800025c8: fe e7 9c e3 bne	a5, a4, 0x800025c0
è¯»å–åœ°å€ 0x800025c0
å†™å…¥åœ°å€ 0x8000bb8a
0x800025c0: 00 b7 80 23 sb	a1, 0(a5)
è¯»å–åœ°å€ 0x800025c4
0x800025c4: 00 17 87 93 addi	a5, a5, 1
è¯»å–åœ°å€ 0x800025c8
0x800025c8: fe e7 9c e3 bne	a5, a4, 0x800025c0
è¯»å–åœ°å€ 0x800025c0
å†™å…¥åœ°å€ 0x8000bb8b
0x800025c0: 00 b7 80 23 sb	a1, 0(a5)
è¯»å–åœ°å€ 0x800025c4
0x800025c4: 00 17 87 93 addi	a5, a5, 1
è¯»å–åœ°å€ 0x800025c8
0x800025c8: fe e7 9c e3 bne	a5, a4, 0x800025c0
è¯»å–åœ°å€ 0x800025c0
å†™å…¥åœ°å€ 0x8000bb8c
0x800025c0: 00 b7 80 23 sb	a1, 0(a5)
è¯»å–åœ°å€ 0x800025c4
0x800025c4: 00 17 87 93 addi	a5, a5, 1
è¯»å–åœ°å€ 0x800025c8
0x800025c8: fe e7 9c e3 bne	a5, a4, 0x800025c0
è¯»å–åœ°å€ 0x800025c0
å†™å…¥åœ°å€ 0x8000bb8d
0x800025c0: 00 b7 80 23 sb	a1, 0(a5)
è¯»å–åœ°å€ 0x800025c4
0x800025c4: 00 17 87 93 addi	a5, a5, 1
è¯»å–åœ°å€ 0x800025c8
0x800025c8: fe e7 9c e3 bne	a5, a4, 0x800025c0
è¯»å–åœ°å€ 0x800025c0
å†™å…¥åœ°å€ 0x8000bb8e
0x800025c0: 00 b7 80 23 sb	a1, 0(a5)
è¯»å–åœ°å€ 0x800025c4
0x800025c4: 00 17 87 93 addi	a5, a5, 1
è¯»å–åœ°å€ 0x800025c8
0x800025c8: fe e7 9c e3 bne	a5, a4, 0x800025c0
è¯»å–åœ°å€ 0x800025c0
å†™å…¥åœ°å€ 0x8000bb8f
0x800025c0: 00 b7 80 23 sb	a1, 0(a5)
è¯»å–åœ°å€ 0x800025c4
0x800025c4: 00 17 87 93 addi	a5, a5, 1
è¯»å–åœ°å€ 0x800025c8
0x800025c8: fe e7 9c e3 bne	a5, a4, 0x800025c0
è¯»å–åœ°å€ 0x800025c0
å†™å…¥åœ°å€ 0x8000bb90
0x800025c0: 00 b7 80 23 sb	a1, 0(a5)
è¯»å–åœ°å€ 0x800025c4
0x800025c4: 00 17 87 93 addi	a5, a5, 1
è¯»å–åœ°å€ 0x800025c8
0x800025c8: fe e7 9c e3 bne	a5, a4, 0x800025c0
è¯»å–åœ°å€ 0x800025c0
å†™å…¥åœ°å€ 0x8000bb91
0x800025c0: 00 b7 80 23 sb	a1, 0(a5)
è¯»å–åœ°å€ 0x800025c4
0x800025c4: 00 17 87 93 addi	a5, a5, 1
è¯»å–åœ°å€ 0x800025c8
0x800025c8: fe e7 9c e3 bne	a5, a4, 0x800025c0
è¯»å–åœ°å€ 0x800025c0
å†™å…¥åœ°å€ 0x8000bb92
0x800025c0: 00 b7 80 23 sb	a1, 0(a5)
è¯»å–åœ°å€ 0x800025c4
0x800025c4: 00 17 87 93 addi	a5, a5, 1
è¯»å–åœ°å€ 0x800025c8
0x800025c8: fe e7 9c e3 bne	a5, a4, 0x800025c0
è¯»å–åœ°å€ 0x800025c0
å†™å…¥åœ°å€ 0x8000bb93
0x800025c0: 00 b7 80 23 sb	a1, 0(a5)
è¯»å–åœ°å€ 0x800025c4
0x800025c4: 00 17 87 93 addi	a5, a5, 1
è¯»å–åœ°å€ 0x800025c8
0x800025c8: fe e7 9c e3 bne	a5, a4, 0x800025c0
è¯»å–åœ°å€ 0x800025c0
å†™å…¥åœ°å€ 0x8000bb94
0x800025c0: 00 b7 80 23 sb	a1, 0(a5)
è¯»å–åœ°å€ 0x800025c4
0x800025c4: 00 17 87 93 addi	a5, a5, 1
è¯»å–åœ°å€ 0x800025c8
0x800025c8: fe e7 9c e3 bne	a5, a4, 0x800025c0
è¯»å–åœ°å€ 0x800025c0
å†™å…¥åœ°å€ 0x8000bb95
0x800025c0: 00 b7 80 23 sb	a1, 0(a5)
è¯»å–åœ°å€ 0x800025c4
0x800025c4: 00 17 87 93 addi	a5, a5, 1
è¯»å–åœ°å€ 0x800025c8
0x800025c8: fe e7 9c e3 bne	a5, a4, 0x800025c0
è¯»å–åœ°å€ 0x800025c0
å†™å…¥åœ°å€ 0x8000bb96
0x800025c0: 00 b7 80 23 sb	a1, 0(a5)
è¯»å–åœ°å€ 0x800025c4
0x800025c4: 00 17 87 93 addi	a5, a5, 1
è¯»å–åœ°å€ 0x800025c8
0x800025c8: fe e7 9c e3 bne	a5, a4, 0x800025c0
è¯»å–åœ°å€ 0x800025c0
å†™å…¥åœ°å€ 0x8000bb97
0x800025c0: 00 b7 80 23 sb	a1, 0(a5)
è¯»å–åœ°å€ 0x800025c4
0x800025c4: 00 17 87 93 addi	a5, a5, 1
è¯»å–åœ°å€ 0x800025c8
0x800025c8: fe e7 9c e3 bne	a5, a4, 0x800025c0
è¯»å–åœ°å€ 0x800025c0
å†™å…¥åœ°å€ 0x8000bb98
0x800025c0: 00 b7 80 23 sb	a1, 0(a5)
è¯»å–åœ°å€ 0x800025c4
0x800025c4: 00 17 87 93 addi	a5, a5, 1
è¯»å–åœ°å€ 0x800025c8
0x800025c8: fe e7 9c e3 bne	a5, a4, 0x800025c0
è¯»å–åœ°å€ 0x800025c0
å†™å…¥åœ°å€ 0x8000bb99
0x800025c0: 00 b7 80 23 sb	a1, 0(a5)
è¯»å–åœ°å€ 0x800025c4
0x800025c4: 00 17 87 93 addi	a5, a5, 1
è¯»å–åœ°å€ 0x800025c8
0x800025c8: fe e7 9c e3 bne	a5, a4, 0x800025c0
è¯»å–åœ°å€ 0x800025c0
å†™å…¥åœ°å€ 0x8000bb9a
0x800025c0: 00 b7 80 23 sb	a1, 0(a5)
è¯»å–åœ°å€ 0x800025c4
0x800025c4: 00 17 87 93 addi	a5, a5, 1
è¯»å–åœ°å€ 0x800025c8
0x800025c8: fe e7 9c e3 bne	a5, a4, 0x800025c0
è¯»å–åœ°å€ 0x800025c0
å†™å…¥åœ°å€ 0x8000bb9b
0x800025c0: 00 b7 80 23 sb	a1, 0(a5)
è¯»å–åœ°å€ 0x800025c4
0x800025c4: 00 17 87 93 addi	a5, a5, 1
è¯»å–åœ°å€ 0x800025c8
0x800025c8: fe e7 9c e3 bne	a5, a4, 0x800025c0
è¯»å–åœ°å€ 0x800025c0
å†™å…¥åœ°å€ 0x8000bb9c
0x800025c0: 00 b7 80 23 sb	a1, 0(a5)
è¯»å–åœ°å€ 0x800025c4
0x800025c4: 00 17 87 93 addi	a5, a5, 1
è¯»å–åœ°å€ 0x800025c8
0x800025c8: fe e7 9c e3 bne	a5, a4, 0x800025c0
è¯»å–åœ°å€ 0x800025c0
å†™å…¥åœ°å€ 0x8000bb9d
0x800025c0: 00 b7 80 23 sb	a1, 0(a5)
è¯»å–åœ°å€ 0x800025c4
0x800025c4: 00 17 87 93 addi	a5, a5, 1
è¯»å–åœ°å€ 0x800025c8
0x800025c8: fe e7 9c e3 bne	a5, a4, 0x800025c0
è¯»å–åœ°å€ 0x800025c0
å†™å…¥åœ°å€ 0x8000bb9e
0x800025c0: 00 b7 80 23 sb	a1, 0(a5)
è¯»å–åœ°å€ 0x800025c4
0x800025c4: 00 17 87 93 addi	a5, a5, 1
è¯»å–åœ°å€ 0x800025c8
0x800025c8: fe e7 9c e3 bne	a5, a4, 0x800025c0
è¯»å–åœ°å€ 0x800025c0
å†™å…¥åœ°å€ 0x8000bb9f
0x800025c0: 00 b7 80 23 sb	a1, 0(a5)
è¯»å–åœ°å€ 0x800025c4
0x800025c4: 00 17 87 93 addi	a5, a5, 1
è¯»å–åœ°å€ 0x800025c8
0x800025c8: fe e7 9c e3 bne	a5, a4, 0x800025c0
è¯»å–åœ°å€ 0x800025c0
å†™å…¥åœ°å€ 0x8000bba0
0x800025c0: 00 b7 80 23 sb	a1, 0(a5)
è¯»å–åœ°å€ 0x800025c4
0x800025c4: 00 17 87 93 addi	a5, a5, 1
è¯»å–åœ°å€ 0x800025c8
0x800025c8: fe e7 9c e3 bne	a5, a4, 0x800025c0
è¯»å–åœ°å€ 0x800025c0
å†™å…¥åœ°å€ 0x8000bba1
0x800025c0: 00 b7 80 23 sb	a1, 0(a5)
è¯»å–åœ°å€ 0x800025c4
0x800025c4: 00 17 87 93 addi	a5, a5, 1
è¯»å–åœ°å€ 0x800025c8
0x800025c8: fe e7 9c e3 bne	a5, a4, 0x800025c0
è¯»å–åœ°å€ 0x800025c0
å†™å…¥åœ°å€ 0x8000bba2
0x800025c0: 00 b7 80 23 sb	a1, 0(a5)
è¯»å–åœ°å€ 0x800025c4
0x800025c4: 00 17 87 93 addi	a5, a5, 1
è¯»å–åœ°å€ 0x800025c8
0x800025c8: fe e7 9c e3 bne	a5, a4, 0x800025c0
è¯»å–åœ°å€ 0x800025c0
å†™å…¥åœ°å€ 0x8000bba3
0x800025c0: 00 b7 80 23 sb	a1, 0(a5)
è¯»å–åœ°å€ 0x800025c4
0x800025c4: 00 17 87 93 addi	a5, a5, 1
è¯»å–åœ°å€ 0x800025c8
0x800025c8: fe e7 9c e3 bne	a5, a4, 0x800025c0
è¯»å–åœ°å€ 0x800025c0
å†™å…¥åœ°å€ 0x8000bba4
0x800025c0: 00 b7 80 23 sb	a1, 0(a5)
è¯»å–åœ°å€ 0x800025c4
0x800025c4: 00 17 87 93 addi	a5, a5, 1
è¯»å–åœ°å€ 0x800025c8
0x800025c8: fe e7 9c e3 bne	a5, a4, 0x800025c0
è¯»å–åœ°å€ 0x800025c0
å†™å…¥åœ°å€ 0x8000bba5
0x800025c0: 00 b7 80 23 sb	a1, 0(a5)
è¯»å–åœ°å€ 0x800025c4
0x800025c4: 00 17 87 93 addi	a5, a5, 1
è¯»å–åœ°å€ 0x800025c8
0x800025c8: fe e7 9c e3 bne	a5, a4, 0x800025c0
è¯»å–åœ°å€ 0x800025c0
å†™å…¥åœ°å€ 0x8000bba6
0x800025c0: 00 b7 80 23 sb	a1, 0(a5)
è¯»å–åœ°å€ 0x800025c4
0x800025c4: 00 17 87 93 addi	a5, a5, 1
è¯»å–åœ°å€ 0x800025c8
0x800025c8: fe e7 9c e3 bne	a5, a4, 0x800025c0
è¯»å–åœ°å€ 0x800025c0
å†™å…¥åœ°å€ 0x8000bba7
0x800025c0: 00 b7 80 23 sb	a1, 0(a5)
è¯»å–åœ°å€ 0x800025c4
0x800025c4: 00 17 87 93 addi	a5, a5, 1
è¯»å–åœ°å€ 0x800025c8
0x800025c8: fe e7 9c e3 bne	a5, a4, 0x800025c0
è¯»å–åœ°å€ 0x800025c0
å†™å…¥åœ°å€ 0x8000bba8
0x800025c0: 00 b7 80 23 sb	a1, 0(a5)
è¯»å–åœ°å€ 0x800025c4
0x800025c4: 00 17 87 93 addi	a5, a5, 1
è¯»å–åœ°å€ 0x800025c8
0x800025c8: fe e7 9c e3 bne	a5, a4, 0x800025c0
è¯»å–åœ°å€ 0x800025c0
å†™å…¥åœ°å€ 0x8000bba9
0x800025c0: 00 b7 80 23 sb	a1, 0(a5)
è¯»å–åœ°å€ 0x800025c4
0x800025c4: 00 17 87 93 addi	a5, a5, 1
è¯»å–åœ°å€ 0x800025c8
0x800025c8: fe e7 9c e3 bne	a5, a4, 0x800025c0
è¯»å–åœ°å€ 0x800025c0
å†™å…¥åœ°å€ 0x8000bbaa
0x800025c0: 00 b7 80 23 sb	a1, 0(a5)
è¯»å–åœ°å€ 0x800025c4
0x800025c4: 00 17 87 93 addi	a5, a5, 1
è¯»å–åœ°å€ 0x800025c8
0x800025c8: fe e7 9c e3 bne	a5, a4, 0x800025c0
è¯»å–åœ°å€ 0x800025c0
å†™å…¥åœ°å€ 0x8000bbab
0x800025c0: 00 b7 80 23 sb	a1, 0(a5)
è¯»å–åœ°å€ 0x800025c4
0x800025c4: 00 17 87 93 addi	a5, a5, 1
è¯»å–åœ°å€ 0x800025c8
0x800025c8: fe e7 9c e3 bne	a5, a4, 0x800025c0
è¯»å–åœ°å€ 0x800025c0
å†™å…¥åœ°å€ 0x8000bbac
0x800025c0: 00 b7 80 23 sb	a1, 0(a5)
è¯»å–åœ°å€ 0x800025c4
0x800025c4: 00 17 87 93 addi	a5, a5, 1
è¯»å–åœ°å€ 0x800025c8
0x800025c8: fe e7 9c e3 bne	a5, a4, 0x800025c0
è¯»å–åœ°å€ 0x800025c0
å†™å…¥åœ°å€ 0x8000bbad
0x800025c0: 00 b7 80 23 sb	a1, 0(a5)
è¯»å–åœ°å€ 0x800025c4
0x800025c4: 00 17 87 93 addi	a5, a5, 1
è¯»å–åœ°å€ 0x800025c8
0x800025c8: fe e7 9c e3 bne	a5, a4, 0x800025c0
è¯»å–åœ°å€ 0x800025c0
å†™å…¥åœ°å€ 0x8000bbae
0x800025c0: 00 b7 80 23 sb	a1, 0(a5)
è¯»å–åœ°å€ 0x800025c4
0x800025c4: 00 17 87 93 addi	a5, a5, 1
è¯»å–åœ°å€ 0x800025c8
0x800025c8: fe e7 9c e3 bne	a5, a4, 0x800025c0
è¯»å–åœ°å€ 0x800025c0
å†™å…¥åœ°å€ 0x8000bbaf
0x800025c0: 00 b7 80 23 sb	a1, 0(a5)
è¯»å–åœ°å€ 0x800025c4
0x800025c4: 00 17 87 93 addi	a5, a5, 1
è¯»å–åœ°å€ 0x800025c8
0x800025c8: fe e7 9c e3 bne	a5, a4, 0x800025c0
è¯»å–åœ°å€ 0x800025c0
å†™å…¥åœ°å€ 0x8000bbb0
0x800025c0: 00 b7 80 23 sb	a1, 0(a5)
è¯»å–åœ°å€ 0x800025c4
0x800025c4: 00 17 87 93 addi	a5, a5, 1
è¯»å–åœ°å€ 0x800025c8
0x800025c8: fe e7 9c e3 bne	a5, a4, 0x800025c0
è¯»å–åœ°å€ 0x800025c0
å†™å…¥åœ°å€ 0x8000bbb1
0x800025c0: 00 b7 80 23 sb	a1, 0(a5)
è¯»å–åœ°å€ 0x800025c4
0x800025c4: 00 17 87 93 addi	a5, a5, 1
è¯»å–åœ°å€ 0x800025c8
0x800025c8: fe e7 9c e3 bne	a5, a4, 0x800025c0
è¯»å–åœ°å€ 0x800025c0
å†™å…¥åœ°å€ 0x8000bbb2
0x800025c0: 00 b7 80 23 sb	a1, 0(a5)
è¯»å–åœ°å€ 0x800025c4
0x800025c4: 00 17 87 93 addi	a5, a5, 1
è¯»å–åœ°å€ 0x800025c8
0x800025c8: fe e7 9c e3 bne	a5, a4, 0x800025c0
è¯»å–åœ°å€ 0x800025c0
å†™å…¥åœ°å€ 0x8000bbb3
0x800025c0: 00 b7 80 23 sb	a1, 0(a5)
è¯»å–åœ°å€ 0x800025c4
0x800025c4: 00 17 87 93 addi	a5, a5, 1
è¯»å–åœ°å€ 0x800025c8
0x800025c8: fe e7 9c e3 bne	a5, a4, 0x800025c0
è¯»å–åœ°å€ 0x800025c0
å†™å…¥åœ°å€ 0x8000bbb4
0x800025c0: 00 b7 80 23 sb	a1, 0(a5)
è¯»å–åœ°å€ 0x800025c4
0x800025c4: 00 17 87 93 addi	a5, a5, 1
è¯»å–åœ°å€ 0x800025c8
0x800025c8: fe e7 9c e3 bne	a5, a4, 0x800025c0
è¯»å–åœ°å€ 0x800025c0
å†™å…¥åœ°å€ 0x8000bbb5
0x800025c0: 00 b7 80 23 sb	a1, 0(a5)
è¯»å–åœ°å€ 0x800025c4
0x800025c4: 00 17 87 93 addi	a5, a5, 1
è¯»å–åœ°å€ 0x800025c8
0x800025c8: fe e7 9c e3 bne	a5, a4, 0x800025c0
è¯»å–åœ°å€ 0x800025c0
å†™å…¥åœ°å€ 0x8000bbb6
0x800025c0: 00 b7 80 23 sb	a1, 0(a5)
è¯»å–åœ°å€ 0x800025c4
0x800025c4: 00 17 87 93 addi	a5, a5, 1
è¯»å–åœ°å€ 0x800025c8
0x800025c8: fe e7 9c e3 bne	a5, a4, 0x800025c0
è¯»å–åœ°å€ 0x800025c0
å†™å…¥åœ°å€ 0x8000bbb7
0x800025c0: 00 b7 80 23 sb	a1, 0(a5)
è¯»å–åœ°å€ 0x800025c4
0x800025c4: 00 17 87 93 addi	a5, a5, 1
è¯»å–åœ°å€ 0x800025c8
0x800025c8: fe e7 9c e3 bne	a5, a4, 0x800025c0
è¯»å–åœ°å€ 0x800025c0
å†™å…¥åœ°å€ 0x8000bbb8
0x800025c0: 00 b7 80 23 sb	a1, 0(a5)
è¯»å–åœ°å€ 0x800025c4
0x800025c4: 00 17 87 93 addi	a5, a5, 1
è¯»å–åœ°å€ 0x800025c8
0x800025c8: fe e7 9c e3 bne	a5, a4, 0x800025c0
è¯»å–åœ°å€ 0x800025c0
å†™å…¥åœ°å€ 0x8000bbb9
0x800025c0: 00 b7 80 23 sb	a1, 0(a5)
è¯»å–åœ°å€ 0x800025c4
0x800025c4: 00 17 87 93 addi	a5, a5, 1
è¯»å–åœ°å€ 0x800025c8
0x800025c8: fe e7 9c e3 bne	a5, a4, 0x800025c0
è¯»å–åœ°å€ 0x800025c0
å†™å…¥åœ°å€ 0x8000bbba
0x800025c0: 00 b7 80 23 sb	a1, 0(a5)
è¯»å–åœ°å€ 0x800025c4
0x800025c4: 00 17 87 93 addi	a5, a5, 1
è¯»å–åœ°å€ 0x800025c8
0x800025c8: fe e7 9c e3 bne	a5, a4, 0x800025c0
è¯»å–åœ°å€ 0x800025c0
å†™å…¥åœ°å€ 0x8000bbbb
0x800025c0: 00 b7 80 23 sb	a1, 0(a5)
è¯»å–åœ°å€ 0x800025c4
0x800025c4: 00 17 87 93 addi	a5, a5, 1
è¯»å–åœ°å€ 0x800025c8
0x800025c8: fe e7 9c e3 bne	a5, a4, 0x800025c0
è¯»å–åœ°å€ 0x800025c0
å†™å…¥åœ°å€ 0x8000bbbc
0x800025c0: 00 b7 80 23 sb	a1, 0(a5)
è¯»å–åœ°å€ 0x800025c4
0x800025c4: 00 17 87 93 addi	a5, a5, 1
è¯»å–åœ°å€ 0x800025c8
0x800025c8: fe e7 9c e3 bne	a5, a4, 0x800025c0
è¯»å–åœ°å€ 0x800025c0
å†™å…¥åœ°å€ 0x8000bbbd
0x800025c0: 00 b7 80 23 sb	a1, 0(a5)
è¯»å–åœ°å€ 0x800025c4
0x800025c4: 00 17 87 93 addi	a5, a5, 1
è¯»å–åœ°å€ 0x800025c8
0x800025c8: fe e7 9c e3 bne	a5, a4, 0x800025c0
è¯»å–åœ°å€ 0x800025c0
å†™å…¥åœ°å€ 0x8000bbbe
0x800025c0: 00 b7 80 23 sb	a1, 0(a5)
è¯»å–åœ°å€ 0x800025c4
0x800025c4: 00 17 87 93 addi	a5, a5, 1
è¯»å–åœ°å€ 0x800025c8
0x800025c8: fe e7 9c e3 bne	a5, a4, 0x800025c0
è¯»å–åœ°å€ 0x800025c0
å†™å…¥åœ°å€ 0x8000bbbf
0x800025c0: 00 b7 80 23 sb	a1, 0(a5)
è¯»å–åœ°å€ 0x800025c4
0x800025c4: 00 17 87 93 addi	a5, a5, 1
è¯»å–åœ°å€ 0x800025c8
0x800025c8: fe e7 9c e3 bne	a5, a4, 0x800025c0
è¯»å–åœ°å€ 0x800025c0
å†™å…¥åœ°å€ 0x8000bbc0
0x800025c0: 00 b7 80 23 sb	a1, 0(a5)
è¯»å–åœ°å€ 0x800025c4
0x800025c4: 00 17 87 93 addi	a5, a5, 1
è¯»å–åœ°å€ 0x800025c8
0x800025c8: fe e7 9c e3 bne	a5, a4, 0x800025c0
è¯»å–åœ°å€ 0x800025c0
å†™å…¥åœ°å€ 0x8000bbc1
0x800025c0: 00 b7 80 23 sb	a1, 0(a5)
è¯»å–åœ°å€ 0x800025c4
0x800025c4: 00 17 87 93 addi	a5, a5, 1
è¯»å–åœ°å€ 0x800025c8
0x800025c8: fe e7 9c e3 bne	a5, a4, 0x800025c0
è¯»å–åœ°å€ 0x800025c0
å†™å…¥åœ°å€ 0x8000bbc2
0x800025c0: 00 b7 80 23 sb	a1, 0(a5)
è¯»å–åœ°å€ 0x800025c4
0x800025c4: 00 17 87 93 addi	a5, a5, 1
è¯»å–åœ°å€ 0x800025c8
0x800025c8: fe e7 9c e3 bne	a5, a4, 0x800025c0
è¯»å–åœ°å€ 0x800025c0
å†™å…¥åœ°å€ 0x8000bbc3
0x800025c0: 00 b7 80 23 sb	a1, 0(a5)
è¯»å–åœ°å€ 0x800025c4
0x800025c4: 00 17 87 93 addi	a5, a5, 1
è¯»å–åœ°å€ 0x800025c8
0x800025c8: fe e7 9c e3 bne	a5, a4, 0x800025c0
è¯»å–åœ°å€ 0x800025c0
å†™å…¥åœ°å€ 0x8000bbc4
0x800025c0: 00 b7 80 23 sb	a1, 0(a5)
è¯»å–åœ°å€ 0x800025c4
0x800025c4: 00 17 87 93 addi	a5, a5, 1
è¯»å–åœ°å€ 0x800025c8
0x800025c8: fe e7 9c e3 bne	a5, a4, 0x800025c0
è¯»å–åœ°å€ 0x800025c0
å†™å…¥åœ°å€ 0x8000bbc5
0x800025c0: 00 b7 80 23 sb	a1, 0(a5)
è¯»å–åœ°å€ 0x800025c4
0x800025c4: 00 17 87 93 addi	a5, a5, 1
è¯»å–åœ°å€ 0x800025c8
0x800025c8: fe e7 9c e3 bne	a5, a4, 0x800025c0
è¯»å–åœ°å€ 0x800025c0
å†™å…¥åœ°å€ 0x8000bbc6
0x800025c0: 00 b7 80 23 sb	a1, 0(a5)
è¯»å–åœ°å€ 0x800025c4
0x800025c4: 00 17 87 93 addi	a5, a5, 1
è¯»å–åœ°å€ 0x800025c8
0x800025c8: fe e7 9c e3 bne	a5, a4, 0x800025c0
è¯»å–åœ°å€ 0x800025c0
å†™å…¥åœ°å€ 0x8000bbc7
0x800025c0: 00 b7 80 23 sb	a1, 0(a5)
è¯»å–åœ°å€ 0x800025c4
0x800025c4: 00 17 87 93 addi	a5, a5, 1
è¯»å–åœ°å€ 0x800025c8
0x800025c8: fe e7 9c e3 bne	a5, a4, 0x800025c0
è¯»å–åœ°å€ 0x800025c0
å†™å…¥åœ°å€ 0x8000bbc8
0x800025c0: 00 b7 80 23 sb	a1, 0(a5)
è¯»å–åœ°å€ 0x800025c4
0x800025c4: 00 17 87 93 addi	a5, a5, 1
è¯»å–åœ°å€ 0x800025c8
0x800025c8: fe e7 9c e3 bne	a5, a4, 0x800025c0
è¯»å–åœ°å€ 0x800025c0
å†™å…¥åœ°å€ 0x8000bbc9
0x800025c0: 00 b7 80 23 sb	a1, 0(a5)
è¯»å–åœ°å€ 0x800025c4
0x800025c4: 00 17 87 93 addi	a5, a5, 1
è¯»å–åœ°å€ 0x800025c8
0x800025c8: fe e7 9c e3 bne	a5, a4, 0x800025c0
è¯»å–åœ°å€ 0x800025c0
å†™å…¥åœ°å€ 0x8000bbca
0x800025c0: 00 b7 80 23 sb	a1, 0(a5)
è¯»å–åœ°å€ 0x800025c4
0x800025c4: 00 17 87 93 addi	a5, a5, 1
è¯»å–åœ°å€ 0x800025c8
0x800025c8: fe e7 9c e3 bne	a5, a4, 0x800025c0
è¯»å–åœ°å€ 0x800025c0
å†™å…¥åœ°å€ 0x8000bbcb
0x800025c0: 00 b7 80 23 sb	a1, 0(a5)
è¯»å–åœ°å€ 0x800025c4
0x800025c4: 00 17 87 93 addi	a5, a5, 1
è¯»å–åœ°å€ 0x800025c8
0x800025c8: fe e7 9c e3 bne	a5, a4, 0x800025c0
è¯»å–åœ°å€ 0x800025c0
å†™å…¥åœ°å€ 0x8000bbcc
0x800025c0: 00 b7 80 23 sb	a1, 0(a5)
è¯»å–åœ°å€ 0x800025c4
0x800025c4: 00 17 87 93 addi	a5, a5, 1
è¯»å–åœ°å€ 0x800025c8
0x800025c8: fe e7 9c e3 bne	a5, a4, 0x800025c0
è¯»å–åœ°å€ 0x800025c0
å†™å…¥åœ°å€ 0x8000bbcd
0x800025c0: 00 b7 80 23 sb	a1, 0(a5)
è¯»å–åœ°å€ 0x800025c4
0x800025c4: 00 17 87 93 addi	a5, a5, 1
è¯»å–åœ°å€ 0x800025c8
0x800025c8: fe e7 9c e3 bne	a5, a4, 0x800025c0
è¯»å–åœ°å€ 0x800025c0
å†™å…¥åœ°å€ 0x8000bbce
0x800025c0: 00 b7 80 23 sb	a1, 0(a5)
è¯»å–åœ°å€ 0x800025c4
0x800025c4: 00 17 87 93 addi	a5, a5, 1
è¯»å–åœ°å€ 0x800025c8
0x800025c8: fe e7 9c e3 bne	a5, a4, 0x800025c0
è¯»å–åœ°å€ 0x800025c0
å†™å…¥åœ°å€ 0x8000bbcf
0x800025c0: 00 b7 80 23 sb	a1, 0(a5)
è¯»å–åœ°å€ 0x800025c4
0x800025c4: 00 17 87 93 addi	a5, a5, 1
è¯»å–åœ°å€ 0x800025c8
0x800025c8: fe e7 9c e3 bne	a5, a4, 0x800025c0
è¯»å–åœ°å€ 0x800025c0
å†™å…¥åœ°å€ 0x8000bbd0
0x800025c0: 00 b7 80 23 sb	a1, 0(a5)
è¯»å–åœ°å€ 0x800025c4
0x800025c4: 00 17 87 93 addi	a5, a5, 1
è¯»å–åœ°å€ 0x800025c8
0x800025c8: fe e7 9c e3 bne	a5, a4, 0x800025c0
è¯»å–åœ°å€ 0x800025c0
å†™å…¥åœ°å€ 0x8000bbd1
0x800025c0: 00 b7 80 23 sb	a1, 0(a5)
è¯»å–åœ°å€ 0x800025c4
0x800025c4: 00 17 87 93 addi	a5, a5, 1
è¯»å–åœ°å€ 0x800025c8
0x800025c8: fe e7 9c e3 bne	a5, a4, 0x800025c0
è¯»å–åœ°å€ 0x800025c0
å†™å…¥åœ°å€ 0x8000bbd2
0x800025c0: 00 b7 80 23 sb	a1, 0(a5)
è¯»å–åœ°å€ 0x800025c4
0x800025c4: 00 17 87 93 addi	a5, a5, 1
è¯»å–åœ°å€ 0x800025c8
0x800025c8: fe e7 9c e3 bne	a5, a4, 0x800025c0
è¯»å–åœ°å€ 0x800025c0
å†™å…¥åœ°å€ 0x8000bbd3
0x800025c0: 00 b7 80 23 sb	a1, 0(a5)
è¯»å–åœ°å€ 0x800025c4
0x800025c4: 00 17 87 93 addi	a5, a5, 1
è¯»å–åœ°å€ 0x800025c8
0x800025c8: fe e7 9c e3 bne	a5, a4, 0x800025c0
è¯»å–åœ°å€ 0x800025c0
å†™å…¥åœ°å€ 0x8000bbd4
0x800025c0: 00 b7 80 23 sb	a1, 0(a5)
è¯»å–åœ°å€ 0x800025c4
0x800025c4: 00 17 87 93 addi	a5, a5, 1
è¯»å–åœ°å€ 0x800025c8
0x800025c8: fe e7 9c e3 bne	a5, a4, 0x800025c0
è¯»å–åœ°å€ 0x800025c0
å†™å…¥åœ°å€ 0x8000bbd5
0x800025c0: 00 b7 80 23 sb	a1, 0(a5)
è¯»å–åœ°å€ 0x800025c4
0x800025c4: 00 17 87 93 addi	a5, a5, 1
è¯»å–åœ°å€ 0x800025c8
0x800025c8: fe e7 9c e3 bne	a5, a4, 0x800025c0
è¯»å–åœ°å€ 0x800025c0
å†™å…¥åœ°å€ 0x8000bbd6
0x800025c0: 00 b7 80 23 sb	a1, 0(a5)
è¯»å–åœ°å€ 0x800025c4
0x800025c4: 00 17 87 93 addi	a5, a5, 1
è¯»å–åœ°å€ 0x800025c8
0x800025c8: fe e7 9c e3 bne	a5, a4, 0x800025c0
è¯»å–åœ°å€ 0x800025c0
å†™å…¥åœ°å€ 0x8000bbd7
0x800025c0: 00 b7 80 23 sb	a1, 0(a5)
è¯»å–åœ°å€ 0x800025c4
0x800025c4: 00 17 87 93 addi	a5, a5, 1
è¯»å–åœ°å€ 0x800025c8
0x800025c8: fe e7 9c e3 bne	a5, a4, 0x800025c0
è¯»å–åœ°å€ 0x800025c0
å†™å…¥åœ°å€ 0x8000bbd8
0x800025c0: 00 b7 80 23 sb	a1, 0(a5)
è¯»å–åœ°å€ 0x800025c4
0x800025c4: 00 17 87 93 addi	a5, a5, 1
è¯»å–åœ°å€ 0x800025c8
0x800025c8: fe e7 9c e3 bne	a5, a4, 0x800025c0
è¯»å–åœ°å€ 0x800025c0
å†™å…¥åœ°å€ 0x8000bbd9
0x800025c0: 00 b7 80 23 sb	a1, 0(a5)
è¯»å–åœ°å€ 0x800025c4
0x800025c4: 00 17 87 93 addi	a5, a5, 1
è¯»å–åœ°å€ 0x800025c8
0x800025c8: fe e7 9c e3 bne	a5, a4, 0x800025c0
è¯»å–åœ°å€ 0x800025c0
å†™å…¥åœ°å€ 0x8000bbda
0x800025c0: 00 b7 80 23 sb	a1, 0(a5)
è¯»å–åœ°å€ 0x800025c4
0x800025c4: 00 17 87 93 addi	a5, a5, 1
è¯»å–åœ°å€ 0x800025c8
0x800025c8: fe e7 9c e3 bne	a5, a4, 0x800025c0
è¯»å–åœ°å€ 0x800025c0
å†™å…¥åœ°å€ 0x8000bbdb
0x800025c0: 00 b7 80 23 sb	a1, 0(a5)
è¯»å–åœ°å€ 0x800025c4
0x800025c4: 00 17 87 93 addi	a5, a5, 1
è¯»å–åœ°å€ 0x800025c8
0x800025c8: fe e7 9c e3 bne	a5, a4, 0x800025c0
è¯»å–åœ°å€ 0x800025c0
å†™å…¥åœ°å€ 0x8000bbdc
0x800025c0: 00 b7 80 23 sb	a1, 0(a5)
è¯»å–åœ°å€ 0x800025c4
0x800025c4: 00 17 87 93 addi	a5, a5, 1
è¯»å–åœ°å€ 0x800025c8
0x800025c8: fe e7 9c e3 bne	a5, a4, 0x800025c0
è¯»å–åœ°å€ 0x800025c0
å†™å…¥åœ°å€ 0x8000bbdd
0x800025c0: 00 b7 80 23 sb	a1, 0(a5)
è¯»å–åœ°å€ 0x800025c4
0x800025c4: 00 17 87 93 addi	a5, a5, 1
è¯»å–åœ°å€ 0x800025c8
0x800025c8: fe e7 9c e3 bne	a5, a4, 0x800025c0
è¯»å–åœ°å€ 0x800025c0
å†™å…¥åœ°å€ 0x8000bbde
0x800025c0: 00 b7 80 23 sb	a1, 0(a5)
è¯»å–åœ°å€ 0x800025c4
0x800025c4: 00 17 87 93 addi	a5, a5, 1
è¯»å–åœ°å€ 0x800025c8
0x800025c8: fe e7 9c e3 bne	a5, a4, 0x800025c0
è¯»å–åœ°å€ 0x800025c0
å†™å…¥åœ°å€ 0x8000bbdf
0x800025c0: 00 b7 80 23 sb	a1, 0(a5)
è¯»å–åœ°å€ 0x800025c4
0x800025c4: 00 17 87 93 addi	a5, a5, 1
è¯»å–åœ°å€ 0x800025c8
0x800025c8: fe e7 9c e3 bne	a5, a4, 0x800025c0
è¯»å–åœ°å€ 0x800025c0
å†™å…¥åœ°å€ 0x8000bbe0
0x800025c0: 00 b7 80 23 sb	a1, 0(a5)
è¯»å–åœ°å€ 0x800025c4
0x800025c4: 00 17 87 93 addi	a5, a5, 1
è¯»å–åœ°å€ 0x800025c8
0x800025c8: fe e7 9c e3 bne	a5, a4, 0x800025c0
è¯»å–åœ°å€ 0x800025c0
å†™å…¥åœ°å€ 0x8000bbe1
0x800025c0: 00 b7 80 23 sb	a1, 0(a5)
è¯»å–åœ°å€ 0x800025c4
0x800025c4: 00 17 87 93 addi	a5, a5, 1
è¯»å–åœ°å€ 0x800025c8
0x800025c8: fe e7 9c e3 bne	a5, a4, 0x800025c0
è¯»å–åœ°å€ 0x800025c0
å†™å…¥åœ°å€ 0x8000bbe2
0x800025c0: 00 b7 80 23 sb	a1, 0(a5)
è¯»å–åœ°å€ 0x800025c4
0x800025c4: 00 17 87 93 addi	a5, a5, 1
è¯»å–åœ°å€ 0x800025c8
0x800025c8: fe e7 9c e3 bne	a5, a4, 0x800025c0
è¯»å–åœ°å€ 0x800025c0
å†™å…¥åœ°å€ 0x8000bbe3
0x800025c0: 00 b7 80 23 sb	a1, 0(a5)
è¯»å–åœ°å€ 0x800025c4
0x800025c4: 00 17 87 93 addi	a5, a5, 1
è¯»å–åœ°å€ 0x800025c8
0x800025c8: fe e7 9c e3 bne	a5, a4, 0x800025c0
è¯»å–åœ°å€ 0x800025c0
å†™å…¥åœ°å€ 0x8000bbe4
0x800025c0: 00 b7 80 23 sb	a1, 0(a5)
è¯»å–åœ°å€ 0x800025c4
0x800025c4: 00 17 87 93 addi	a5, a5, 1
è¯»å–åœ°å€ 0x800025c8
0x800025c8: fe e7 9c e3 bne	a5, a4, 0x800025c0
è¯»å–åœ°å€ 0x800025c0
å†™å…¥åœ°å€ 0x8000bbe5
0x800025c0: 00 b7 80 23 sb	a1, 0(a5)
è¯»å–åœ°å€ 0x800025c4
0x800025c4: 00 17 87 93 addi	a5, a5, 1
è¯»å–åœ°å€ 0x800025c8
0x800025c8: fe e7 9c e3 bne	a5, a4, 0x800025c0
è¯»å–åœ°å€ 0x800025c0
å†™å…¥åœ°å€ 0x8000bbe6
0x800025c0: 00 b7 80 23 sb	a1, 0(a5)
è¯»å–åœ°å€ 0x800025c4
0x800025c4: 00 17 87 93 addi	a5, a5, 1
è¯»å–åœ°å€ 0x800025c8
0x800025c8: fe e7 9c e3 bne	a5, a4, 0x800025c0
è¯»å–åœ°å€ 0x800025c0
å†™å…¥åœ°å€ 0x8000bbe7
0x800025c0: 00 b7 80 23 sb	a1, 0(a5)
è¯»å–åœ°å€ 0x800025c4
0x800025c4: 00 17 87 93 addi	a5, a5, 1
è¯»å–åœ°å€ 0x800025c8
0x800025c8: fe e7 9c e3 bne	a5, a4, 0x800025c0
è¯»å–åœ°å€ 0x800025c0
å†™å…¥åœ°å€ 0x8000bbe8
0x800025c0: 00 b7 80 23 sb	a1, 0(a5)
è¯»å–åœ°å€ 0x800025c4
0x800025c4: 00 17 87 93 addi	a5, a5, 1
è¯»å–åœ°å€ 0x800025c8
0x800025c8: fe e7 9c e3 bne	a5, a4, 0x800025c0
è¯»å–åœ°å€ 0x800025c0
å†™å…¥åœ°å€ 0x8000bbe9
0x800025c0: 00 b7 80 23 sb	a1, 0(a5)
è¯»å–åœ°å€ 0x800025c4
0x800025c4: 00 17 87 93 addi	a5, a5, 1
è¯»å–åœ°å€ 0x800025c8
0x800025c8: fe e7 9c e3 bne	a5, a4, 0x800025c0
è¯»å–åœ°å€ 0x800025c0
å†™å…¥åœ°å€ 0x8000bbea
0x800025c0: 00 b7 80 23 sb	a1, 0(a5)
è¯»å–åœ°å€ 0x800025c4
0x800025c4: 00 17 87 93 addi	a5, a5, 1
è¯»å–åœ°å€ 0x800025c8
0x800025c8: fe e7 9c e3 bne	a5, a4, 0x800025c0
è¯»å–åœ°å€ 0x800025c0
å†™å…¥åœ°å€ 0x8000bbeb
0x800025c0: 00 b7 80 23 sb	a1, 0(a5)
è¯»å–åœ°å€ 0x800025c4
0x800025c4: 00 17 87 93 addi	a5, a5, 1
è¯»å–åœ°å€ 0x800025c8
0x800025c8: fe e7 9c e3 bne	a5, a4, 0x800025c0
è¯»å–åœ°å€ 0x800025c0
å†™å…¥åœ°å€ 0x8000bbec
0x800025c0: 00 b7 80 23 sb	a1, 0(a5)
è¯»å–åœ°å€ 0x800025c4
0x800025c4: 00 17 87 93 addi	a5, a5, 1
è¯»å–åœ°å€ 0x800025c8
0x800025c8: fe e7 9c e3 bne	a5, a4, 0x800025c0
è¯»å–åœ°å€ 0x800025c0
å†™å…¥åœ°å€ 0x8000bbed
0x800025c0: 00 b7 80 23 sb	a1, 0(a5)
è¯»å–åœ°å€ 0x800025c4
0x800025c4: 00 17 87 93 addi	a5, a5, 1
è¯»å–åœ°å€ 0x800025c8
0x800025c8: fe e7 9c e3 bne	a5, a4, 0x800025c0
è¯»å–åœ°å€ 0x800025c0
å†™å…¥åœ°å€ 0x8000bbee
0x800025c0: 00 b7 80 23 sb	a1, 0(a5)
è¯»å–åœ°å€ 0x800025c4
0x800025c4: 00 17 87 93 addi	a5, a5, 1
è¯»å–åœ°å€ 0x800025c8
0x800025c8: fe e7 9c e3 bne	a5, a4, 0x800025c0
è¯»å–åœ°å€ 0x800025c0
å†™å…¥åœ°å€ 0x8000bbef
0x800025c0: 00 b7 80 23 sb	a1, 0(a5)
è¯»å–åœ°å€ 0x800025c4
0x800025c4: 00 17 87 93 addi	a5, a5, 1
è¯»å–åœ°å€ 0x800025c8
0x800025c8: fe e7 9c e3 bne	a5, a4, 0x800025c0
è¯»å–åœ°å€ 0x800025c0
å†™å…¥åœ°å€ 0x8000bbf0
0x800025c0: 00 b7 80 23 sb	a1, 0(a5)
è¯»å–åœ°å€ 0x800025c4
0x800025c4: 00 17 87 93 addi	a5, a5, 1
è¯»å–åœ°å€ 0x800025c8
0x800025c8: fe e7 9c e3 bne	a5, a4, 0x800025c0
è¯»å–åœ°å€ 0x800025c0
å†™å…¥åœ°å€ 0x8000bbf1
0x800025c0: 00 b7 80 23 sb	a1, 0(a5)
è¯»å–åœ°å€ 0x800025c4
0x800025c4: 00 17 87 93 addi	a5, a5, 1
è¯»å–åœ°å€ 0x800025c8
0x800025c8: fe e7 9c e3 bne	a5, a4, 0x800025c0
è¯»å–åœ°å€ 0x800025c0
å†™å…¥åœ°å€ 0x8000bbf2
0x800025c0: 00 b7 80 23 sb	a1, 0(a5)
è¯»å–åœ°å€ 0x800025c4
0x800025c4: 00 17 87 93 addi	a5, a5, 1
è¯»å–åœ°å€ 0x800025c8
0x800025c8: fe e7 9c e3 bne	a5, a4, 0x800025c0
è¯»å–åœ°å€ 0x800025c0
å†™å…¥åœ°å€ 0x8000bbf3
0x800025c0: 00 b7 80 23 sb	a1, 0(a5)
è¯»å–åœ°å€ 0x800025c4
0x800025c4: 00 17 87 93 addi	a5, a5, 1
è¯»å–åœ°å€ 0x800025c8
0x800025c8: fe e7 9c e3 bne	a5, a4, 0x800025c0
è¯»å–åœ°å€ 0x800025c0
å†™å…¥åœ°å€ 0x8000bbf4
0x800025c0: 00 b7 80 23 sb	a1, 0(a5)
è¯»å–åœ°å€ 0x800025c4
0x800025c4: 00 17 87 93 addi	a5, a5, 1
è¯»å–åœ°å€ 0x800025c8
0x800025c8: fe e7 9c e3 bne	a5, a4, 0x800025c0
è¯»å–åœ°å€ 0x800025c0
å†™å…¥åœ°å€ 0x8000bbf5
0x800025c0: 00 b7 80 23 sb	a1, 0(a5)
è¯»å–åœ°å€ 0x800025c4
0x800025c4: 00 17 87 93 addi	a5, a5, 1
è¯»å–åœ°å€ 0x800025c8
0x800025c8: fe e7 9c e3 bne	a5, a4, 0x800025c0
è¯»å–åœ°å€ 0x800025c0
å†™å…¥åœ°å€ 0x8000bbf6
0x800025c0: 00 b7 80 23 sb	a1, 0(a5)
è¯»å–åœ°å€ 0x800025c4
0x800025c4: 00 17 87 93 addi	a5, a5, 1
è¯»å–åœ°å€ 0x800025c8
0x800025c8: fe e7 9c e3 bne	a5, a4, 0x800025c0
è¯»å–åœ°å€ 0x800025c0
å†™å…¥åœ°å€ 0x8000bbf7
0x800025c0: 00 b7 80 23 sb	a1, 0(a5)
è¯»å–åœ°å€ 0x800025c4
0x800025c4: 00 17 87 93 addi	a5, a5, 1
è¯»å–åœ°å€ 0x800025c8
0x800025c8: fe e7 9c e3 bne	a5, a4, 0x800025c0
è¯»å–åœ°å€ 0x800025c0
å†™å…¥åœ°å€ 0x8000bbf8
0x800025c0: 00 b7 80 23 sb	a1, 0(a5)
è¯»å–åœ°å€ 0x800025c4
0x800025c4: 00 17 87 93 addi	a5, a5, 1
è¯»å–åœ°å€ 0x800025c8
0x800025c8: fe e7 9c e3 bne	a5, a4, 0x800025c0
è¯»å–åœ°å€ 0x800025c0
å†™å…¥åœ°å€ 0x8000bbf9
0x800025c0: 00 b7 80 23 sb	a1, 0(a5)
è¯»å–åœ°å€ 0x800025c4
0x800025c4: 00 17 87 93 addi	a5, a5, 1
è¯»å–åœ°å€ 0x800025c8
0x800025c8: fe e7 9c e3 bne	a5, a4, 0x800025c0
è¯»å–åœ°å€ 0x800025c0
å†™å…¥åœ°å€ 0x8000bbfa
0x800025c0: 00 b7 80 23 sb	a1, 0(a5)
è¯»å–åœ°å€ 0x800025c4
0x800025c4: 00 17 87 93 addi	a5, a5, 1
è¯»å–åœ°å€ 0x800025c8
0x800025c8: fe e7 9c e3 bne	a5, a4, 0x800025c0
è¯»å–åœ°å€ 0x800025c0
å†™å…¥åœ°å€ 0x8000bbfb
0x800025c0: 00 b7 80 23 sb	a1, 0(a5)
è¯»å–åœ°å€ 0x800025c4
0x800025c4: 00 17 87 93 addi	a5, a5, 1
è¯»å–åœ°å€ 0x800025c8
0x800025c8: fe e7 9c e3 bne	a5, a4, 0x800025c0
è¯»å–åœ°å€ 0x800025c0
å†™å…¥åœ°å€ 0x8000bbfc
0x800025c0: 00 b7 80 23 sb	a1, 0(a5)
è¯»å–åœ°å€ 0x800025c4
0x800025c4: 00 17 87 93 addi	a5, a5, 1
è¯»å–åœ°å€ 0x800025c8
0x800025c8: fe e7 9c e3 bne	a5, a4, 0x800025c0
è¯»å–åœ°å€ 0x800025c0
å†™å…¥åœ°å€ 0x8000bbfd
0x800025c0: 00 b7 80 23 sb	a1, 0(a5)
è¯»å–åœ°å€ 0x800025c4
0x800025c4: 00 17 87 93 addi	a5, a5, 1
è¯»å–åœ°å€ 0x800025c8
0x800025c8: fe e7 9c e3 bne	a5, a4, 0x800025c0
è¯»å–åœ°å€ 0x800025c0
å†™å…¥åœ°å€ 0x8000bbfe
0x800025c0: 00 b7 80 23 sb	a1, 0(a5)
è¯»å–åœ°å€ 0x800025c4
0x800025c4: 00 17 87 93 addi	a5, a5, 1
è¯»å–åœ°å€ 0x800025c8
0x800025c8: fe e7 9c e3 bne	a5, a4, 0x800025c0
è¯»å–åœ°å€ 0x800025c0
å†™å…¥åœ°å€ 0x8000bbff
0x800025c0: 00 b7 80 23 sb	a1, 0(a5)
è¯»å–åœ°å€ 0x800025c4
0x800025c4: 00 17 87 93 addi	a5, a5, 1
è¯»å–åœ°å€ 0x800025c8
0x800025c8: fe e7 9c e3 bne	a5, a4, 0x800025c0
è¯»å–åœ°å€ 0x800025c0
å†™å…¥åœ°å€ 0x8000bc00
0x800025c0: 00 b7 80 23 sb	a1, 0(a5)
è¯»å–åœ°å€ 0x800025c4
0x800025c4: 00 17 87 93 addi	a5, a5, 1
è¯»å–åœ°å€ 0x800025c8
0x800025c8: fe e7 9c e3 bne	a5, a4, 0x800025c0
è¯»å–åœ°å€ 0x800025c0
å†™å…¥åœ°å€ 0x8000bc01
0x800025c0: 00 b7 80 23 sb	a1, 0(a5)
è¯»å–åœ°å€ 0x800025c4
0x800025c4: 00 17 87 93 addi	a5, a5, 1
è¯»å–åœ°å€ 0x800025c8
0x800025c8: fe e7 9c e3 bne	a5, a4, 0x800025c0
è¯»å–åœ°å€ 0x800025c0
å†™å…¥åœ°å€ 0x8000bc02
0x800025c0: 00 b7 80 23 sb	a1, 0(a5)
è¯»å–åœ°å€ 0x800025c4
0x800025c4: 00 17 87 93 addi	a5, a5, 1
è¯»å–åœ°å€ 0x800025c8
0x800025c8: fe e7 9c e3 bne	a5, a4, 0x800025c0
è¯»å–åœ°å€ 0x800025c0
å†™å…¥åœ°å€ 0x8000bc03
0x800025c0: 00 b7 80 23 sb	a1, 0(a5)
è¯»å–åœ°å€ 0x800025c4
0x800025c4: 00 17 87 93 addi	a5, a5, 1
è¯»å–åœ°å€ 0x800025c8
0x800025c8: fe e7 9c e3 bne	a5, a4, 0x800025c0
è¯»å–åœ°å€ 0x800025c0
å†™å…¥åœ°å€ 0x8000bc04
0x800025c0: 00 b7 80 23 sb	a1, 0(a5)
è¯»å–åœ°å€ 0x800025c4
0x800025c4: 00 17 87 93 addi	a5, a5, 1
è¯»å–åœ°å€ 0x800025c8
0x800025c8: fe e7 9c e3 bne	a5, a4, 0x800025c0
è¯»å–åœ°å€ 0x800025c0
å†™å…¥åœ°å€ 0x8000bc05
0x800025c0: 00 b7 80 23 sb	a1, 0(a5)
è¯»å–åœ°å€ 0x800025c4
0x800025c4: 00 17 87 93 addi	a5, a5, 1
è¯»å–åœ°å€ 0x800025c8
0x800025c8: fe e7 9c e3 bne	a5, a4, 0x800025c0
è¯»å–åœ°å€ 0x800025c0
å†™å…¥åœ°å€ 0x8000bc06
0x800025c0: 00 b7 80 23 sb	a1, 0(a5)
è¯»å–åœ°å€ 0x800025c4
0x800025c4: 00 17 87 93 addi	a5, a5, 1
è¯»å–åœ°å€ 0x800025c8
0x800025c8: fe e7 9c e3 bne	a5, a4, 0x800025c0
è¯»å–åœ°å€ 0x800025c0
å†™å…¥åœ°å€ 0x8000bc07
0x800025c0: 00 b7 80 23 sb	a1, 0(a5)
è¯»å–åœ°å€ 0x800025c4
0x800025c4: 00 17 87 93 addi	a5, a5, 1
è¯»å–åœ°å€ 0x800025c8
0x800025c8: fe e7 9c e3 bne	a5, a4, 0x800025c0
è¯»å–åœ°å€ 0x800025c0
å†™å…¥åœ°å€ 0x8000bc08
0x800025c0: 00 b7 80 23 sb	a1, 0(a5)
è¯»å–åœ°å€ 0x800025c4
0x800025c4: 00 17 87 93 addi	a5, a5, 1
è¯»å–åœ°å€ 0x800025c8
0x800025c8: fe e7 9c e3 bne	a5, a4, 0x800025c0
è¯»å–åœ°å€ 0x800025c0
å†™å…¥åœ°å€ 0x8000bc09
0x800025c0: 00 b7 80 23 sb	a1, 0(a5)
è¯»å–åœ°å€ 0x800025c4
0x800025c4: 00 17 87 93 addi	a5, a5, 1
è¯»å–åœ°å€ 0x800025c8
0x800025c8: fe e7 9c e3 bne	a5, a4, 0x800025c0
è¯»å–åœ°å€ 0x800025c0
å†™å…¥åœ°å€ 0x8000bc0a
0x800025c0: 00 b7 80 23 sb	a1, 0(a5)
è¯»å–åœ°å€ 0x800025c4
0x800025c4: 00 17 87 93 addi	a5, a5, 1
è¯»å–åœ°å€ 0x800025c8
0x800025c8: fe e7 9c e3 bne	a5, a4, 0x800025c0
è¯»å–åœ°å€ 0x800025c0
å†™å…¥åœ°å€ 0x8000bc0b
0x800025c0: 00 b7 80 23 sb	a1, 0(a5)
è¯»å–åœ°å€ 0x800025c4
0x800025c4: 00 17 87 93 addi	a5, a5, 1
è¯»å–åœ°å€ 0x800025c8
0x800025c8: fe e7 9c e3 bne	a5, a4, 0x800025c0
è¯»å–åœ°å€ 0x800025c0
å†™å…¥åœ°å€ 0x8000bc0c
0x800025c0: 00 b7 80 23 sb	a1, 0(a5)
è¯»å–åœ°å€ 0x800025c4
0x800025c4: 00 17 87 93 addi	a5, a5, 1
è¯»å–åœ°å€ 0x800025c8
0x800025c8: fe e7 9c e3 bne	a5, a4, 0x800025c0
è¯»å–åœ°å€ 0x800025c0
å†™å…¥åœ°å€ 0x8000bc0d
0x800025c0: 00 b7 80 23 sb	a1, 0(a5)
è¯»å–åœ°å€ 0x800025c4
0x800025c4: 00 17 87 93 addi	a5, a5, 1
è¯»å–åœ°å€ 0x800025c8
0x800025c8: fe e7 9c e3 bne	a5, a4, 0x800025c0
è¯»å–åœ°å€ 0x800025c0
å†™å…¥åœ°å€ 0x8000bc0e
0x800025c0: 00 b7 80 23 sb	a1, 0(a5)
è¯»å–åœ°å€ 0x800025c4
0x800025c4: 00 17 87 93 addi	a5, a5, 1
è¯»å–åœ°å€ 0x800025c8
0x800025c8: fe e7 9c e3 bne	a5, a4, 0x800025c0
è¯»å–åœ°å€ 0x800025c0
å†™å…¥åœ°å€ 0x8000bc0f
0x800025c0: 00 b7 80 23 sb	a1, 0(a5)
è¯»å–åœ°å€ 0x800025c4
0x800025c4: 00 17 87 93 addi	a5, a5, 1
è¯»å–åœ°å€ 0x800025c8
0x800025c8: fe e7 9c e3 bne	a5, a4, 0x800025c0
è¯»å–åœ°å€ 0x800025c0
å†™å…¥åœ°å€ 0x8000bc10
0x800025c0: 00 b7 80 23 sb	a1, 0(a5)
è¯»å–åœ°å€ 0x800025c4
0x800025c4: 00 17 87 93 addi	a5, a5, 1
è¯»å–åœ°å€ 0x800025c8
0x800025c8: fe e7 9c e3 bne	a5, a4, 0x800025c0
è¯»å–åœ°å€ 0x800025c0
å†™å…¥åœ°å€ 0x8000bc11
0x800025c0: 00 b7 80 23 sb	a1, 0(a5)
è¯»å–åœ°å€ 0x800025c4
0x800025c4: 00 17 87 93 addi	a5, a5, 1
è¯»å–åœ°å€ 0x800025c8
0x800025c8: fe e7 9c e3 bne	a5, a4, 0x800025c0
è¯»å–åœ°å€ 0x800025c0
å†™å…¥åœ°å€ 0x8000bc12
0x800025c0: 00 b7 80 23 sb	a1, 0(a5)
è¯»å–åœ°å€ 0x800025c4
0x800025c4: 00 17 87 93 addi	a5, a5, 1
è¯»å–åœ°å€ 0x800025c8
0x800025c8: fe e7 9c e3 bne	a5, a4, 0x800025c0
è¯»å–åœ°å€ 0x800025c0
å†™å…¥åœ°å€ 0x8000bc13
0x800025c0: 00 b7 80 23 sb	a1, 0(a5)
è¯»å–åœ°å€ 0x800025c4
0x800025c4: 00 17 87 93 addi	a5, a5, 1
è¯»å–åœ°å€ 0x800025c8
0x800025c8: fe e7 9c e3 bne	a5, a4, 0x800025c0
è¯»å–åœ°å€ 0x800025c0
å†™å…¥åœ°å€ 0x8000bc14
0x800025c0: 00 b7 80 23 sb	a1, 0(a5)
è¯»å–åœ°å€ 0x800025c4
0x800025c4: 00 17 87 93 addi	a5, a5, 1
è¯»å–åœ°å€ 0x800025c8
0x800025c8: fe e7 9c e3 bne	a5, a4, 0x800025c0
è¯»å–åœ°å€ 0x800025c0
å†™å…¥åœ°å€ 0x8000bc15
0x800025c0: 00 b7 80 23 sb	a1, 0(a5)
è¯»å–åœ°å€ 0x800025c4
0x800025c4: 00 17 87 93 addi	a5, a5, 1
è¯»å–åœ°å€ 0x800025c8
0x800025c8: fe e7 9c e3 bne	a5, a4, 0x800025c0
è¯»å–åœ°å€ 0x800025c0
å†™å…¥åœ°å€ 0x8000bc16
0x800025c0: 00 b7 80 23 sb	a1, 0(a5)
è¯»å–åœ°å€ 0x800025c4
0x800025c4: 00 17 87 93 addi	a5, a5, 1
è¯»å–åœ°å€ 0x800025c8
0x800025c8: fe e7 9c e3 bne	a5, a4, 0x800025c0
è¯»å–åœ°å€ 0x800025c0
å†™å…¥åœ°å€ 0x8000bc17
0x800025c0: 00 b7 80 23 sb	a1, 0(a5)
è¯»å–åœ°å€ 0x800025c4
0x800025c4: 00 17 87 93 addi	a5, a5, 1
è¯»å–åœ°å€ 0x800025c8
0x800025c8: fe e7 9c e3 bne	a5, a4, 0x800025c0
è¯»å–åœ°å€ 0x800025c0
å†™å…¥åœ°å€ 0x8000bc18
0x800025c0: 00 b7 80 23 sb	a1, 0(a5)
è¯»å–åœ°å€ 0x800025c4
0x800025c4: 00 17 87 93 addi	a5, a5, 1
è¯»å–åœ°å€ 0x800025c8
0x800025c8: fe e7 9c e3 bne	a5, a4, 0x800025c0
è¯»å–åœ°å€ 0x800025c0
å†™å…¥åœ°å€ 0x8000bc19
0x800025c0: 00 b7 80 23 sb	a1, 0(a5)
è¯»å–åœ°å€ 0x800025c4
0x800025c4: 00 17 87 93 addi	a5, a5, 1
è¯»å–åœ°å€ 0x800025c8
0x800025c8: fe e7 9c e3 bne	a5, a4, 0x800025c0
è¯»å–åœ°å€ 0x800025c0
å†™å…¥åœ°å€ 0x8000bc1a
0x800025c0: 00 b7 80 23 sb	a1, 0(a5)
è¯»å–åœ°å€ 0x800025c4
0x800025c4: 00 17 87 93 addi	a5, a5, 1
è¯»å–åœ°å€ 0x800025c8
0x800025c8: fe e7 9c e3 bne	a5, a4, 0x800025c0
è¯»å–åœ°å€ 0x800025c0
å†™å…¥åœ°å€ 0x8000bc1b
0x800025c0: 00 b7 80 23 sb	a1, 0(a5)
è¯»å–åœ°å€ 0x800025c4
0x800025c4: 00 17 87 93 addi	a5, a5, 1
è¯»å–åœ°å€ 0x800025c8
0x800025c8: fe e7 9c e3 bne	a5, a4, 0x800025c0
è¯»å–åœ°å€ 0x800025c0
å†™å…¥åœ°å€ 0x8000bc1c
0x800025c0: 00 b7 80 23 sb	a1, 0(a5)
è¯»å–åœ°å€ 0x800025c4
0x800025c4: 00 17 87 93 addi	a5, a5, 1
è¯»å–åœ°å€ 0x800025c8
0x800025c8: fe e7 9c e3 bne	a5, a4, 0x800025c0
è¯»å–åœ°å€ 0x800025c0
å†™å…¥åœ°å€ 0x8000bc1d
0x800025c0: 00 b7 80 23 sb	a1, 0(a5)
è¯»å–åœ°å€ 0x800025c4
0x800025c4: 00 17 87 93 addi	a5, a5, 1
è¯»å–åœ°å€ 0x800025c8
0x800025c8: fe e7 9c e3 bne	a5, a4, 0x800025c0
è¯»å–åœ°å€ 0x800025c0
å†™å…¥åœ°å€ 0x8000bc1e
0x800025c0: 00 b7 80 23 sb	a1, 0(a5)
è¯»å–åœ°å€ 0x800025c4
0x800025c4: 00 17 87 93 addi	a5, a5, 1
è¯»å–åœ°å€ 0x800025c8
0x800025c8: fe e7 9c e3 bne	a5, a4, 0x800025c0
è¯»å–åœ°å€ 0x800025c0
å†™å…¥åœ°å€ 0x8000bc1f
0x800025c0: 00 b7 80 23 sb	a1, 0(a5)
è¯»å–åœ°å€ 0x800025c4
0x800025c4: 00 17 87 93 addi	a5, a5, 1
è¯»å–åœ°å€ 0x800025c8
0x800025c8: fe e7 9c e3 bne	a5, a4, 0x800025c0
è¯»å–åœ°å€ 0x800025c0
å†™å…¥åœ°å€ 0x8000bc20
0x800025c0: 00 b7 80 23 sb	a1, 0(a5)
è¯»å–åœ°å€ 0x800025c4
0x800025c4: 00 17 87 93 addi	a5, a5, 1
è¯»å–åœ°å€ 0x800025c8
0x800025c8: fe e7 9c e3 bne	a5, a4, 0x800025c0
è¯»å–åœ°å€ 0x800025c0
å†™å…¥åœ°å€ 0x8000bc21
0x800025c0: 00 b7 80 23 sb	a1, 0(a5)
è¯»å–åœ°å€ 0x800025c4
0x800025c4: 00 17 87 93 addi	a5, a5, 1
è¯»å–åœ°å€ 0x800025c8
0x800025c8: fe e7 9c e3 bne	a5, a4, 0x800025c0
è¯»å–åœ°å€ 0x800025c0
å†™å…¥åœ°å€ 0x8000bc22
0x800025c0: 00 b7 80 23 sb	a1, 0(a5)
è¯»å–åœ°å€ 0x800025c4
0x800025c4: 00 17 87 93 addi	a5, a5, 1
è¯»å–åœ°å€ 0x800025c8
0x800025c8: fe e7 9c e3 bne	a5, a4, 0x800025c0
è¯»å–åœ°å€ 0x800025c0
å†™å…¥åœ°å€ 0x8000bc23
0x800025c0: 00 b7 80 23 sb	a1, 0(a5)
è¯»å–åœ°å€ 0x800025c4
0x800025c4: 00 17 87 93 addi	a5, a5, 1
è¯»å–åœ°å€ 0x800025c8
0x800025c8: fe e7 9c e3 bne	a5, a4, 0x800025c0
è¯»å–åœ°å€ 0x800025c0
å†™å…¥åœ°å€ 0x8000bc24
0x800025c0: 00 b7 80 23 sb	a1, 0(a5)
è¯»å–åœ°å€ 0x800025c4
0x800025c4: 00 17 87 93 addi	a5, a5, 1
è¯»å–åœ°å€ 0x800025c8
0x800025c8: fe e7 9c e3 bne	a5, a4, 0x800025c0
è¯»å–åœ°å€ 0x800025c0
å†™å…¥åœ°å€ 0x8000bc25
0x800025c0: 00 b7 80 23 sb	a1, 0(a5)
è¯»å–åœ°å€ 0x800025c4
0x800025c4: 00 17 87 93 addi	a5, a5, 1
è¯»å–åœ°å€ 0x800025c8
0x800025c8: fe e7 9c e3 bne	a5, a4, 0x800025c0
è¯»å–åœ°å€ 0x800025c0
å†™å…¥åœ°å€ 0x8000bc26
0x800025c0: 00 b7 80 23 sb	a1, 0(a5)
è¯»å–åœ°å€ 0x800025c4
0x800025c4: 00 17 87 93 addi	a5, a5, 1
è¯»å–åœ°å€ 0x800025c8
0x800025c8: fe e7 9c e3 bne	a5, a4, 0x800025c0
è¯»å–åœ°å€ 0x800025c0
å†™å…¥åœ°å€ 0x8000bc27
0x800025c0: 00 b7 80 23 sb	a1, 0(a5)
è¯»å–åœ°å€ 0x800025c4
0x800025c4: 00 17 87 93 addi	a5, a5, 1
è¯»å–åœ°å€ 0x800025c8
0x800025c8: fe e7 9c e3 bne	a5, a4, 0x800025c0
è¯»å–åœ°å€ 0x800025c0
å†™å…¥åœ°å€ 0x8000bc28
0x800025c0: 00 b7 80 23 sb	a1, 0(a5)
è¯»å–åœ°å€ 0x800025c4
0x800025c4: 00 17 87 93 addi	a5, a5, 1
è¯»å–åœ°å€ 0x800025c8
0x800025c8: fe e7 9c e3 bne	a5, a4, 0x800025c0
è¯»å–åœ°å€ 0x800025c0
å†™å…¥åœ°å€ 0x8000bc29
0x800025c0: 00 b7 80 23 sb	a1, 0(a5)
è¯»å–åœ°å€ 0x800025c4
0x800025c4: 00 17 87 93 addi	a5, a5, 1
è¯»å–åœ°å€ 0x800025c8
0x800025c8: fe e7 9c e3 bne	a5, a4, 0x800025c0
è¯»å–åœ°å€ 0x800025c0
å†™å…¥åœ°å€ 0x8000bc2a
0x800025c0: 00 b7 80 23 sb	a1, 0(a5)
è¯»å–åœ°å€ 0x800025c4
0x800025c4: 00 17 87 93 addi	a5, a5, 1
è¯»å–åœ°å€ 0x800025c8
0x800025c8: fe e7 9c e3 bne	a5, a4, 0x800025c0
è¯»å–åœ°å€ 0x800025c0
å†™å…¥åœ°å€ 0x8000bc2b
0x800025c0: 00 b7 80 23 sb	a1, 0(a5)
è¯»å–åœ°å€ 0x800025c4
0x800025c4: 00 17 87 93 addi	a5, a5, 1
è¯»å–åœ°å€ 0x800025c8
0x800025c8: fe e7 9c e3 bne	a5, a4, 0x800025c0
è¯»å–åœ°å€ 0x800025c0
å†™å…¥åœ°å€ 0x8000bc2c
0x800025c0: 00 b7 80 23 sb	a1, 0(a5)
è¯»å–åœ°å€ 0x800025c4
0x800025c4: 00 17 87 93 addi	a5, a5, 1
è¯»å–åœ°å€ 0x800025c8
0x800025c8: fe e7 9c e3 bne	a5, a4, 0x800025c0
è¯»å–åœ°å€ 0x800025c0
å†™å…¥åœ°å€ 0x8000bc2d
0x800025c0: 00 b7 80 23 sb	a1, 0(a5)
è¯»å–åœ°å€ 0x800025c4
0x800025c4: 00 17 87 93 addi	a5, a5, 1
è¯»å–åœ°å€ 0x800025c8
0x800025c8: fe e7 9c e3 bne	a5, a4, 0x800025c0
è¯»å–åœ°å€ 0x800025c0
å†™å…¥åœ°å€ 0x8000bc2e
0x800025c0: 00 b7 80 23 sb	a1, 0(a5)
è¯»å–åœ°å€ 0x800025c4
0x800025c4: 00 17 87 93 addi	a5, a5, 1
è¯»å–åœ°å€ 0x800025c8
0x800025c8: fe e7 9c e3 bne	a5, a4, 0x800025c0
è¯»å–åœ°å€ 0x800025c0
å†™å…¥åœ°å€ 0x8000bc2f
0x800025c0: 00 b7 80 23 sb	a1, 0(a5)
è¯»å–åœ°å€ 0x800025c4
0x800025c4: 00 17 87 93 addi	a5, a5, 1
è¯»å–åœ°å€ 0x800025c8
0x800025c8: fe e7 9c e3 bne	a5, a4, 0x800025c0
è¯»å–åœ°å€ 0x800025c0
å†™å…¥åœ°å€ 0x8000bc30
0x800025c0: 00 b7 80 23 sb	a1, 0(a5)
è¯»å–åœ°å€ 0x800025c4
0x800025c4: 00 17 87 93 addi	a5, a5, 1
è¯»å–åœ°å€ 0x800025c8
0x800025c8: fe e7 9c e3 bne	a5, a4, 0x800025c0
è¯»å–åœ°å€ 0x800025c0
å†™å…¥åœ°å€ 0x8000bc31
0x800025c0: 00 b7 80 23 sb	a1, 0(a5)
è¯»å–åœ°å€ 0x800025c4
0x800025c4: 00 17 87 93 addi	a5, a5, 1
è¯»å–åœ°å€ 0x800025c8
0x800025c8: fe e7 9c e3 bne	a5, a4, 0x800025c0
è¯»å–åœ°å€ 0x800025c0
å†™å…¥åœ°å€ 0x8000bc32
0x800025c0: 00 b7 80 23 sb	a1, 0(a5)
è¯»å–åœ°å€ 0x800025c4
0x800025c4: 00 17 87 93 addi	a5, a5, 1
è¯»å–åœ°å€ 0x800025c8
0x800025c8: fe e7 9c e3 bne	a5, a4, 0x800025c0
è¯»å–åœ°å€ 0x800025c0
å†™å…¥åœ°å€ 0x8000bc33
0x800025c0: 00 b7 80 23 sb	a1, 0(a5)
è¯»å–åœ°å€ 0x800025c4
0x800025c4: 00 17 87 93 addi	a5, a5, 1
è¯»å–åœ°å€ 0x800025c8
0x800025c8: fe e7 9c e3 bne	a5, a4, 0x800025c0
è¯»å–åœ°å€ 0x800025c0
å†™å…¥åœ°å€ 0x8000bc34
0x800025c0: 00 b7 80 23 sb	a1, 0(a5)
è¯»å–åœ°å€ 0x800025c4
0x800025c4: 00 17 87 93 addi	a5, a5, 1
è¯»å–åœ°å€ 0x800025c8
0x800025c8: fe e7 9c e3 bne	a5, a4, 0x800025c0
è¯»å–åœ°å€ 0x800025c0
å†™å…¥åœ°å€ 0x8000bc35
0x800025c0: 00 b7 80 23 sb	a1, 0(a5)
è¯»å–åœ°å€ 0x800025c4
0x800025c4: 00 17 87 93 addi	a5, a5, 1
è¯»å–åœ°å€ 0x800025c8
0x800025c8: fe e7 9c e3 bne	a5, a4, 0x800025c0
è¯»å–åœ°å€ 0x800025c0
å†™å…¥åœ°å€ 0x8000bc36
0x800025c0: 00 b7 80 23 sb	a1, 0(a5)
è¯»å–åœ°å€ 0x800025c4
0x800025c4: 00 17 87 93 addi	a5, a5, 1
è¯»å–åœ°å€ 0x800025c8
0x800025c8: fe e7 9c e3 bne	a5, a4, 0x800025c0
è¯»å–åœ°å€ 0x800025c0
å†™å…¥åœ°å€ 0x8000bc37
0x800025c0: 00 b7 80 23 sb	a1, 0(a5)
è¯»å–åœ°å€ 0x800025c4
0x800025c4: 00 17 87 93 addi	a5, a5, 1
è¯»å–åœ°å€ 0x800025c8
0x800025c8: fe e7 9c e3 bne	a5, a4, 0x800025c0
è¯»å–åœ°å€ 0x800025c0
å†™å…¥åœ°å€ 0x8000bc38
0x800025c0: 00 b7 80 23 sb	a1, 0(a5)
è¯»å–åœ°å€ 0x800025c4
0x800025c4: 00 17 87 93 addi	a5, a5, 1
è¯»å–åœ°å€ 0x800025c8
0x800025c8: fe e7 9c e3 bne	a5, a4, 0x800025c0
è¯»å–åœ°å€ 0x800025c0
å†™å…¥åœ°å€ 0x8000bc39
0x800025c0: 00 b7 80 23 sb	a1, 0(a5)
è¯»å–åœ°å€ 0x800025c4
0x800025c4: 00 17 87 93 addi	a5, a5, 1
è¯»å–åœ°å€ 0x800025c8
0x800025c8: fe e7 9c e3 bne	a5, a4, 0x800025c0
è¯»å–åœ°å€ 0x800025c0
å†™å…¥åœ°å€ 0x8000bc3a
0x800025c0: 00 b7 80 23 sb	a1, 0(a5)
è¯»å–åœ°å€ 0x800025c4
0x800025c4: 00 17 87 93 addi	a5, a5, 1
è¯»å–åœ°å€ 0x800025c8
0x800025c8: fe e7 9c e3 bne	a5, a4, 0x800025c0
è¯»å–åœ°å€ 0x800025c0
å†™å…¥åœ°å€ 0x8000bc3b
0x800025c0: 00 b7 80 23 sb	a1, 0(a5)
è¯»å–åœ°å€ 0x800025c4
0x800025c4: 00 17 87 93 addi	a5, a5, 1
è¯»å–åœ°å€ 0x800025c8
0x800025c8: fe e7 9c e3 bne	a5, a4, 0x800025c0
è¯»å–åœ°å€ 0x800025c0
å†™å…¥åœ°å€ 0x8000bc3c
0x800025c0: 00 b7 80 23 sb	a1, 0(a5)
è¯»å–åœ°å€ 0x800025c4
0x800025c4: 00 17 87 93 addi	a5, a5, 1
è¯»å–åœ°å€ 0x800025c8
0x800025c8: fe e7 9c e3 bne	a5, a4, 0x800025c0
è¯»å–åœ°å€ 0x800025c0
å†™å…¥åœ°å€ 0x8000bc3d
0x800025c0: 00 b7 80 23 sb	a1, 0(a5)
è¯»å–åœ°å€ 0x800025c4
0x800025c4: 00 17 87 93 addi	a5, a5, 1
è¯»å–åœ°å€ 0x800025c8
0x800025c8: fe e7 9c e3 bne	a5, a4, 0x800025c0
è¯»å–åœ°å€ 0x800025c0
å†™å…¥åœ°å€ 0x8000bc3e
0x800025c0: 00 b7 80 23 sb	a1, 0(a5)
è¯»å–åœ°å€ 0x800025c4
0x800025c4: 00 17 87 93 addi	a5, a5, 1
è¯»å–åœ°å€ 0x800025c8
0x800025c8: fe e7 9c e3 bne	a5, a4, 0x800025c0
è¯»å–åœ°å€ 0x800025c0
å†™å…¥åœ°å€ 0x8000bc3f
0x800025c0: 00 b7 80 23 sb	a1, 0(a5)
è¯»å–åœ°å€ 0x800025c4
0x800025c4: 00 17 87 93 addi	a5, a5, 1
è¯»å–åœ°å€ 0x800025c8
0x800025c8: fe e7 9c e3 bne	a5, a4, 0x800025c0
è¯»å–åœ°å€ 0x800025c0
å†™å…¥åœ°å€ 0x8000bc40
0x800025c0: 00 b7 80 23 sb	a1, 0(a5)
è¯»å–åœ°å€ 0x800025c4
0x800025c4: 00 17 87 93 addi	a5, a5, 1
è¯»å–åœ°å€ 0x800025c8
0x800025c8: fe e7 9c e3 bne	a5, a4, 0x800025c0
è¯»å–åœ°å€ 0x800025c0
å†™å…¥åœ°å€ 0x8000bc41
0x800025c0: 00 b7 80 23 sb	a1, 0(a5)
è¯»å–åœ°å€ 0x800025c4
0x800025c4: 00 17 87 93 addi	a5, a5, 1
è¯»å–åœ°å€ 0x800025c8
0x800025c8: fe e7 9c e3 bne	a5, a4, 0x800025c0
è¯»å–åœ°å€ 0x800025c0
å†™å…¥åœ°å€ 0x8000bc42
0x800025c0: 00 b7 80 23 sb	a1, 0(a5)
è¯»å–åœ°å€ 0x800025c4
0x800025c4: 00 17 87 93 addi	a5, a5, 1
è¯»å–åœ°å€ 0x800025c8
0x800025c8: fe e7 9c e3 bne	a5, a4, 0x800025c0
è¯»å–åœ°å€ 0x800025c0
å†™å…¥åœ°å€ 0x8000bc43
0x800025c0: 00 b7 80 23 sb	a1, 0(a5)
è¯»å–åœ°å€ 0x800025c4
0x800025c4: 00 17 87 93 addi	a5, a5, 1
è¯»å–åœ°å€ 0x800025c8
0x800025c8: fe e7 9c e3 bne	a5, a4, 0x800025c0
è¯»å–åœ°å€ 0x800025c0
å†™å…¥åœ°å€ 0x8000bc44
0x800025c0: 00 b7 80 23 sb	a1, 0(a5)
è¯»å–åœ°å€ 0x800025c4
0x800025c4: 00 17 87 93 addi	a5, a5, 1
è¯»å–åœ°å€ 0x800025c8
0x800025c8: fe e7 9c e3 bne	a5, a4, 0x800025c0
è¯»å–åœ°å€ 0x800025c0
å†™å…¥åœ°å€ 0x8000bc45
0x800025c0: 00 b7 80 23 sb	a1, 0(a5)
è¯»å–åœ°å€ 0x800025c4
0x800025c4: 00 17 87 93 addi	a5, a5, 1
è¯»å–åœ°å€ 0x800025c8
0x800025c8: fe e7 9c e3 bne	a5, a4, 0x800025c0
è¯»å–åœ°å€ 0x800025c0
å†™å…¥åœ°å€ 0x8000bc46
0x800025c0: 00 b7 80 23 sb	a1, 0(a5)
è¯»å–åœ°å€ 0x800025c4
0x800025c4: 00 17 87 93 addi	a5, a5, 1
è¯»å–åœ°å€ 0x800025c8
0x800025c8: fe e7 9c e3 bne	a5, a4, 0x800025c0
è¯»å–åœ°å€ 0x800025c0
å†™å…¥åœ°å€ 0x8000bc47
0x800025c0: 00 b7 80 23 sb	a1, 0(a5)
è¯»å–åœ°å€ 0x800025c4
0x800025c4: 00 17 87 93 addi	a5, a5, 1
è¯»å–åœ°å€ 0x800025c8
0x800025c8: fe e7 9c e3 bne	a5, a4, 0x800025c0
è¯»å–åœ°å€ 0x800025c0
å†™å…¥åœ°å€ 0x8000bc48
0x800025c0: 00 b7 80 23 sb	a1, 0(a5)
è¯»å–åœ°å€ 0x800025c4
0x800025c4: 00 17 87 93 addi	a5, a5, 1
è¯»å–åœ°å€ 0x800025c8
0x800025c8: fe e7 9c e3 bne	a5, a4, 0x800025c0
è¯»å–åœ°å€ 0x800025c0
å†™å…¥åœ°å€ 0x8000bc49
0x800025c0: 00 b7 80 23 sb	a1, 0(a5)
è¯»å–åœ°å€ 0x800025c4
0x800025c4: 00 17 87 93 addi	a5, a5, 1
è¯»å–åœ°å€ 0x800025c8
0x800025c8: fe e7 9c e3 bne	a5, a4, 0x800025c0
è¯»å–åœ°å€ 0x800025c0
å†™å…¥åœ°å€ 0x8000bc4a
0x800025c0: 00 b7 80 23 sb	a1, 0(a5)
è¯»å–åœ°å€ 0x800025c4
0x800025c4: 00 17 87 93 addi	a5, a5, 1
è¯»å–åœ°å€ 0x800025c8
0x800025c8: fe e7 9c e3 bne	a5, a4, 0x800025c0
è¯»å–åœ°å€ 0x800025c0
å†™å…¥åœ°å€ 0x8000bc4b
0x800025c0: 00 b7 80 23 sb	a1, 0(a5)
è¯»å–åœ°å€ 0x800025c4
0x800025c4: 00 17 87 93 addi	a5, a5, 1
è¯»å–åœ°å€ 0x800025c8
0x800025c8: fe e7 9c e3 bne	a5, a4, 0x800025c0
è¯»å–åœ°å€ 0x800025c0
å†™å…¥åœ°å€ 0x8000bc4c
0x800025c0: 00 b7 80 23 sb	a1, 0(a5)
è¯»å–åœ°å€ 0x800025c4
0x800025c4: 00 17 87 93 addi	a5, a5, 1
è¯»å–åœ°å€ 0x800025c8
0x800025c8: fe e7 9c e3 bne	a5, a4, 0x800025c0
è¯»å–åœ°å€ 0x800025c0
å†™å…¥åœ°å€ 0x8000bc4d
0x800025c0: 00 b7 80 23 sb	a1, 0(a5)
è¯»å–åœ°å€ 0x800025c4
0x800025c4: 00 17 87 93 addi	a5, a5, 1
è¯»å–åœ°å€ 0x800025c8
0x800025c8: fe e7 9c e3 bne	a5, a4, 0x800025c0
è¯»å–åœ°å€ 0x800025c0
å†™å…¥åœ°å€ 0x8000bc4e
0x800025c0: 00 b7 80 23 sb	a1, 0(a5)
è¯»å–åœ°å€ 0x800025c4
0x800025c4: 00 17 87 93 addi	a5, a5, 1
è¯»å–åœ°å€ 0x800025c8
0x800025c8: fe e7 9c e3 bne	a5, a4, 0x800025c0
è¯»å–åœ°å€ 0x800025c0
å†™å…¥åœ°å€ 0x8000bc4f
0x800025c0: 00 b7 80 23 sb	a1, 0(a5)
è¯»å–åœ°å€ 0x800025c4
0x800025c4: 00 17 87 93 addi	a5, a5, 1
è¯»å–åœ°å€ 0x800025c8
0x800025c8: fe e7 9c e3 bne	a5, a4, 0x800025c0
è¯»å–åœ°å€ 0x800025c0
å†™å…¥åœ°å€ 0x8000bc50
0x800025c0: 00 b7 80 23 sb	a1, 0(a5)
è¯»å–åœ°å€ 0x800025c4
0x800025c4: 00 17 87 93 addi	a5, a5, 1
è¯»å–åœ°å€ 0x800025c8
0x800025c8: fe e7 9c e3 bne	a5, a4, 0x800025c0
è¯»å–åœ°å€ 0x800025c0
å†™å…¥åœ°å€ 0x8000bc51
0x800025c0: 00 b7 80 23 sb	a1, 0(a5)
è¯»å–åœ°å€ 0x800025c4
0x800025c4: 00 17 87 93 addi	a5, a5, 1
è¯»å–åœ°å€ 0x800025c8
0x800025c8: fe e7 9c e3 bne	a5, a4, 0x800025c0
è¯»å–åœ°å€ 0x800025c0
å†™å…¥åœ°å€ 0x8000bc52
0x800025c0: 00 b7 80 23 sb	a1, 0(a5)
è¯»å–åœ°å€ 0x800025c4
0x800025c4: 00 17 87 93 addi	a5, a5, 1
è¯»å–åœ°å€ 0x800025c8
0x800025c8: fe e7 9c e3 bne	a5, a4, 0x800025c0
è¯»å–åœ°å€ 0x800025c0
å†™å…¥åœ°å€ 0x8000bc53
0x800025c0: 00 b7 80 23 sb	a1, 0(a5)
è¯»å–åœ°å€ 0x800025c4
0x800025c4: 00 17 87 93 addi	a5, a5, 1
è¯»å–åœ°å€ 0x800025c8
0x800025c8: fe e7 9c e3 bne	a5, a4, 0x800025c0
è¯»å–åœ°å€ 0x800025c0
å†™å…¥åœ°å€ 0x8000bc54
0x800025c0: 00 b7 80 23 sb	a1, 0(a5)
è¯»å–åœ°å€ 0x800025c4
0x800025c4: 00 17 87 93 addi	a5, a5, 1
è¯»å–åœ°å€ 0x800025c8
0x800025c8: fe e7 9c e3 bne	a5, a4, 0x800025c0
è¯»å–åœ°å€ 0x800025c0
å†™å…¥åœ°å€ 0x8000bc55
0x800025c0: 00 b7 80 23 sb	a1, 0(a5)
è¯»å–åœ°å€ 0x800025c4
0x800025c4: 00 17 87 93 addi	a5, a5, 1
è¯»å–åœ°å€ 0x800025c8
0x800025c8: fe e7 9c e3 bne	a5, a4, 0x800025c0
è¯»å–åœ°å€ 0x800025c0
å†™å…¥åœ°å€ 0x8000bc56
0x800025c0: 00 b7 80 23 sb	a1, 0(a5)
è¯»å–åœ°å€ 0x800025c4
0x800025c4: 00 17 87 93 addi	a5, a5, 1
è¯»å–åœ°å€ 0x800025c8
0x800025c8: fe e7 9c e3 bne	a5, a4, 0x800025c0
è¯»å–åœ°å€ 0x800025c0
å†™å…¥åœ°å€ 0x8000bc57
0x800025c0: 00 b7 80 23 sb	a1, 0(a5)
è¯»å–åœ°å€ 0x800025c4
0x800025c4: 00 17 87 93 addi	a5, a5, 1
è¯»å–åœ°å€ 0x800025c8
0x800025c8: fe e7 9c e3 bne	a5, a4, 0x800025c0
è¯»å–åœ°å€ 0x800025c0
å†™å…¥åœ°å€ 0x8000bc58
0x800025c0: 00 b7 80 23 sb	a1, 0(a5)
è¯»å–åœ°å€ 0x800025c4
0x800025c4: 00 17 87 93 addi	a5, a5, 1
è¯»å–åœ°å€ 0x800025c8
0x800025c8: fe e7 9c e3 bne	a5, a4, 0x800025c0
è¯»å–åœ°å€ 0x800025c0
å†™å…¥åœ°å€ 0x8000bc59
0x800025c0: 00 b7 80 23 sb	a1, 0(a5)
è¯»å–åœ°å€ 0x800025c4
0x800025c4: 00 17 87 93 addi	a5, a5, 1
è¯»å–åœ°å€ 0x800025c8
0x800025c8: fe e7 9c e3 bne	a5, a4, 0x800025c0
è¯»å–åœ°å€ 0x800025c0
å†™å…¥åœ°å€ 0x8000bc5a
0x800025c0: 00 b7 80 23 sb	a1, 0(a5)
è¯»å–åœ°å€ 0x800025c4
0x800025c4: 00 17 87 93 addi	a5, a5, 1
è¯»å–åœ°å€ 0x800025c8
0x800025c8: fe e7 9c e3 bne	a5, a4, 0x800025c0
è¯»å–åœ°å€ 0x800025c0
å†™å…¥åœ°å€ 0x8000bc5b
0x800025c0: 00 b7 80 23 sb	a1, 0(a5)
è¯»å–åœ°å€ 0x800025c4
0x800025c4: 00 17 87 93 addi	a5, a5, 1
è¯»å–åœ°å€ 0x800025c8
0x800025c8: fe e7 9c e3 bne	a5, a4, 0x800025c0
è¯»å–åœ°å€ 0x800025c0
å†™å…¥åœ°å€ 0x8000bc5c
0x800025c0: 00 b7 80 23 sb	a1, 0(a5)
è¯»å–åœ°å€ 0x800025c4
0x800025c4: 00 17 87 93 addi	a5, a5, 1
è¯»å–åœ°å€ 0x800025c8
0x800025c8: fe e7 9c e3 bne	a5, a4, 0x800025c0
è¯»å–åœ°å€ 0x800025c0
å†™å…¥åœ°å€ 0x8000bc5d
0x800025c0: 00 b7 80 23 sb	a1, 0(a5)
è¯»å–åœ°å€ 0x800025c4
0x800025c4: 00 17 87 93 addi	a5, a5, 1
è¯»å–åœ°å€ 0x800025c8
0x800025c8: fe e7 9c e3 bne	a5, a4, 0x800025c0
è¯»å–åœ°å€ 0x800025c0
å†™å…¥åœ°å€ 0x8000bc5e
0x800025c0: 00 b7 80 23 sb	a1, 0(a5)
è¯»å–åœ°å€ 0x800025c4
0x800025c4: 00 17 87 93 addi	a5, a5, 1
è¯»å–åœ°å€ 0x800025c8
0x800025c8: fe e7 9c e3 bne	a5, a4, 0x800025c0
è¯»å–åœ°å€ 0x800025c0
å†™å…¥åœ°å€ 0x8000bc5f
0x800025c0: 00 b7 80 23 sb	a1, 0(a5)
è¯»å–åœ°å€ 0x800025c4
0x800025c4: 00 17 87 93 addi	a5, a5, 1
è¯»å–åœ°å€ 0x800025c8
0x800025c8: fe e7 9c e3 bne	a5, a4, 0x800025c0
è¯»å–åœ°å€ 0x800025c0
å†™å…¥åœ°å€ 0x8000bc60
0x800025c0: 00 b7 80 23 sb	a1, 0(a5)
è¯»å–åœ°å€ 0x800025c4
0x800025c4: 00 17 87 93 addi	a5, a5, 1
è¯»å–åœ°å€ 0x800025c8
0x800025c8: fe e7 9c e3 bne	a5, a4, 0x800025c0
è¯»å–åœ°å€ 0x800025c0
å†™å…¥åœ°å€ 0x8000bc61
0x800025c0: 00 b7 80 23 sb	a1, 0(a5)
è¯»å–åœ°å€ 0x800025c4
0x800025c4: 00 17 87 93 addi	a5, a5, 1
è¯»å–åœ°å€ 0x800025c8
0x800025c8: fe e7 9c e3 bne	a5, a4, 0x800025c0
è¯»å–åœ°å€ 0x800025c0
å†™å…¥åœ°å€ 0x8000bc62
0x800025c0: 00 b7 80 23 sb	a1, 0(a5)
è¯»å–åœ°å€ 0x800025c4
0x800025c4: 00 17 87 93 addi	a5, a5, 1
è¯»å–åœ°å€ 0x800025c8
0x800025c8: fe e7 9c e3 bne	a5, a4, 0x800025c0
è¯»å–åœ°å€ 0x800025c0
å†™å…¥åœ°å€ 0x8000bc63
0x800025c0: 00 b7 80 23 sb	a1, 0(a5)
è¯»å–åœ°å€ 0x800025c4
0x800025c4: 00 17 87 93 addi	a5, a5, 1
è¯»å–åœ°å€ 0x800025c8
0x800025c8: fe e7 9c e3 bne	a5, a4, 0x800025c0
è¯»å–åœ°å€ 0x800025c0
å†™å…¥åœ°å€ 0x8000bc64
0x800025c0: 00 b7 80 23 sb	a1, 0(a5)
è¯»å–åœ°å€ 0x800025c4
0x800025c4: 00 17 87 93 addi	a5, a5, 1
è¯»å–åœ°å€ 0x800025c8
0x800025c8: fe e7 9c e3 bne	a5, a4, 0x800025c0
è¯»å–åœ°å€ 0x800025c0
å†™å…¥åœ°å€ 0x8000bc65
0x800025c0: 00 b7 80 23 sb	a1, 0(a5)
è¯»å–åœ°å€ 0x800025c4
0x800025c4: 00 17 87 93 addi	a5, a5, 1
è¯»å–åœ°å€ 0x800025c8
0x800025c8: fe e7 9c e3 bne	a5, a4, 0x800025c0
è¯»å–åœ°å€ 0x800025c0
å†™å…¥åœ°å€ 0x8000bc66
0x800025c0: 00 b7 80 23 sb	a1, 0(a5)
è¯»å–åœ°å€ 0x800025c4
0x800025c4: 00 17 87 93 addi	a5, a5, 1
è¯»å–åœ°å€ 0x800025c8
0x800025c8: fe e7 9c e3 bne	a5, a4, 0x800025c0
è¯»å–åœ°å€ 0x800025c0
å†™å…¥åœ°å€ 0x8000bc67
0x800025c0: 00 b7 80 23 sb	a1, 0(a5)
è¯»å–åœ°å€ 0x800025c4
0x800025c4: 00 17 87 93 addi	a5, a5, 1
è¯»å–åœ°å€ 0x800025c8
0x800025c8: fe e7 9c e3 bne	a5, a4, 0x800025c0
è¯»å–åœ°å€ 0x800025c0
å†™å…¥åœ°å€ 0x8000bc68
0x800025c0: 00 b7 80 23 sb	a1, 0(a5)
è¯»å–åœ°å€ 0x800025c4
0x800025c4: 00 17 87 93 addi	a5, a5, 1
è¯»å–åœ°å€ 0x800025c8
0x800025c8: fe e7 9c e3 bne	a5, a4, 0x800025c0
è¯»å–åœ°å€ 0x800025c0
å†™å…¥åœ°å€ 0x8000bc69
0x800025c0: 00 b7 80 23 sb	a1, 0(a5)
è¯»å–åœ°å€ 0x800025c4
0x800025c4: 00 17 87 93 addi	a5, a5, 1
è¯»å–åœ°å€ 0x800025c8
0x800025c8: fe e7 9c e3 bne	a5, a4, 0x800025c0
è¯»å–åœ°å€ 0x800025c0
å†™å…¥åœ°å€ 0x8000bc6a
0x800025c0: 00 b7 80 23 sb	a1, 0(a5)
è¯»å–åœ°å€ 0x800025c4
0x800025c4: 00 17 87 93 addi	a5, a5, 1
è¯»å–åœ°å€ 0x800025c8
0x800025c8: fe e7 9c e3 bne	a5, a4, 0x800025c0
è¯»å–åœ°å€ 0x800025c0
å†™å…¥åœ°å€ 0x8000bc6b
0x800025c0: 00 b7 80 23 sb	a1, 0(a5)
è¯»å–åœ°å€ 0x800025c4
0x800025c4: 00 17 87 93 addi	a5, a5, 1
è¯»å–åœ°å€ 0x800025c8
0x800025c8: fe e7 9c e3 bne	a5, a4, 0x800025c0
è¯»å–åœ°å€ 0x800025c0
å†™å…¥åœ°å€ 0x8000bc6c
0x800025c0: 00 b7 80 23 sb	a1, 0(a5)
è¯»å–åœ°å€ 0x800025c4
0x800025c4: 00 17 87 93 addi	a5, a5, 1
è¯»å–åœ°å€ 0x800025c8
0x800025c8: fe e7 9c e3 bne	a5, a4, 0x800025c0
è¯»å–åœ°å€ 0x800025c0
å†™å…¥åœ°å€ 0x8000bc6d
0x800025c0: 00 b7 80 23 sb	a1, 0(a5)
è¯»å–åœ°å€ 0x800025c4
0x800025c4: 00 17 87 93 addi	a5, a5, 1
è¯»å–åœ°å€ 0x800025c8
0x800025c8: fe e7 9c e3 bne	a5, a4, 0x800025c0
è¯»å–åœ°å€ 0x800025c0
å†™å…¥åœ°å€ 0x8000bc6e
0x800025c0: 00 b7 80 23 sb	a1, 0(a5)
è¯»å–åœ°å€ 0x800025c4
0x800025c4: 00 17 87 93 addi	a5, a5, 1
è¯»å–åœ°å€ 0x800025c8
0x800025c8: fe e7 9c e3 bne	a5, a4, 0x800025c0
è¯»å–åœ°å€ 0x800025c0
å†™å…¥åœ°å€ 0x8000bc6f
0x800025c0: 00 b7 80 23 sb	a1, 0(a5)
è¯»å–åœ°å€ 0x800025c4
0x800025c4: 00 17 87 93 addi	a5, a5, 1
è¯»å–åœ°å€ 0x800025c8
0x800025c8: fe e7 9c e3 bne	a5, a4, 0x800025c0
è¯»å–åœ°å€ 0x800025c0
å†™å…¥åœ°å€ 0x8000bc70
0x800025c0: 00 b7 80 23 sb	a1, 0(a5)
è¯»å–åœ°å€ 0x800025c4
0x800025c4: 00 17 87 93 addi	a5, a5, 1
è¯»å–åœ°å€ 0x800025c8
0x800025c8: fe e7 9c e3 bne	a5, a4, 0x800025c0
è¯»å–åœ°å€ 0x800025c0
å†™å…¥åœ°å€ 0x8000bc71
0x800025c0: 00 b7 80 23 sb	a1, 0(a5)
è¯»å–åœ°å€ 0x800025c4
0x800025c4: 00 17 87 93 addi	a5, a5, 1
è¯»å–åœ°å€ 0x800025c8
0x800025c8: fe e7 9c e3 bne	a5, a4, 0x800025c0
è¯»å–åœ°å€ 0x800025c0
å†™å…¥åœ°å€ 0x8000bc72
0x800025c0: 00 b7 80 23 sb	a1, 0(a5)
è¯»å–åœ°å€ 0x800025c4
0x800025c4: 00 17 87 93 addi	a5, a5, 1
è¯»å–åœ°å€ 0x800025c8
0x800025c8: fe e7 9c e3 bne	a5, a4, 0x800025c0
è¯»å–åœ°å€ 0x800025c0
å†™å…¥åœ°å€ 0x8000bc73
0x800025c0: 00 b7 80 23 sb	a1, 0(a5)
è¯»å–åœ°å€ 0x800025c4
0x800025c4: 00 17 87 93 addi	a5, a5, 1
è¯»å–åœ°å€ 0x800025c8
0x800025c8: fe e7 9c e3 bne	a5, a4, 0x800025c0
è¯»å–åœ°å€ 0x800025c0
å†™å…¥åœ°å€ 0x8000bc74
0x800025c0: 00 b7 80 23 sb	a1, 0(a5)
è¯»å–åœ°å€ 0x800025c4
0x800025c4: 00 17 87 93 addi	a5, a5, 1
è¯»å–åœ°å€ 0x800025c8
0x800025c8: fe e7 9c e3 bne	a5, a4, 0x800025c0
è¯»å–åœ°å€ 0x800025c0
å†™å…¥åœ°å€ 0x8000bc75
0x800025c0: 00 b7 80 23 sb	a1, 0(a5)
è¯»å–åœ°å€ 0x800025c4
0x800025c4: 00 17 87 93 addi	a5, a5, 1
è¯»å–åœ°å€ 0x800025c8
0x800025c8: fe e7 9c e3 bne	a5, a4, 0x800025c0
è¯»å–åœ°å€ 0x800025c0
å†™å…¥åœ°å€ 0x8000bc76
0x800025c0: 00 b7 80 23 sb	a1, 0(a5)
è¯»å–åœ°å€ 0x800025c4
0x800025c4: 00 17 87 93 addi	a5, a5, 1
è¯»å–åœ°å€ 0x800025c8
0x800025c8: fe e7 9c e3 bne	a5, a4, 0x800025c0
è¯»å–åœ°å€ 0x800025c0
å†™å…¥åœ°å€ 0x8000bc77
0x800025c0: 00 b7 80 23 sb	a1, 0(a5)
è¯»å–åœ°å€ 0x800025c4
0x800025c4: 00 17 87 93 addi	a5, a5, 1
è¯»å–åœ°å€ 0x800025c8
0x800025c8: fe e7 9c e3 bne	a5, a4, 0x800025c0
è¯»å–åœ°å€ 0x800025c0
å†™å…¥åœ°å€ 0x8000bc78
0x800025c0: 00 b7 80 23 sb	a1, 0(a5)
è¯»å–åœ°å€ 0x800025c4
0x800025c4: 00 17 87 93 addi	a5, a5, 1
è¯»å–åœ°å€ 0x800025c8
0x800025c8: fe e7 9c e3 bne	a5, a4, 0x800025c0
è¯»å–åœ°å€ 0x800025c0
å†™å…¥åœ°å€ 0x8000bc79
0x800025c0: 00 b7 80 23 sb	a1, 0(a5)
è¯»å–åœ°å€ 0x800025c4
0x800025c4: 00 17 87 93 addi	a5, a5, 1
è¯»å–åœ°å€ 0x800025c8
0x800025c8: fe e7 9c e3 bne	a5, a4, 0x800025c0
è¯»å–åœ°å€ 0x800025c0
å†™å…¥åœ°å€ 0x8000bc7a
0x800025c0: 00 b7 80 23 sb	a1, 0(a5)
è¯»å–åœ°å€ 0x800025c4
0x800025c4: 00 17 87 93 addi	a5, a5, 1
è¯»å–åœ°å€ 0x800025c8
0x800025c8: fe e7 9c e3 bne	a5, a4, 0x800025c0
è¯»å–åœ°å€ 0x800025c0
å†™å…¥åœ°å€ 0x8000bc7b
0x800025c0: 00 b7 80 23 sb	a1, 0(a5)
è¯»å–åœ°å€ 0x800025c4
0x800025c4: 00 17 87 93 addi	a5, a5, 1
è¯»å–åœ°å€ 0x800025c8
0x800025c8: fe e7 9c e3 bne	a5, a4, 0x800025c0
è¯»å–åœ°å€ 0x800025c0
å†™å…¥åœ°å€ 0x8000bc7c
0x800025c0: 00 b7 80 23 sb	a1, 0(a5)
è¯»å–åœ°å€ 0x800025c4
0x800025c4: 00 17 87 93 addi	a5, a5, 1
è¯»å–åœ°å€ 0x800025c8
0x800025c8: fe e7 9c e3 bne	a5, a4, 0x800025c0
è¯»å–åœ°å€ 0x800025c0
å†™å…¥åœ°å€ 0x8000bc7d
0x800025c0: 00 b7 80 23 sb	a1, 0(a5)
è¯»å–åœ°å€ 0x800025c4
0x800025c4: 00 17 87 93 addi	a5, a5, 1
è¯»å–åœ°å€ 0x800025c8
0x800025c8: fe e7 9c e3 bne	a5, a4, 0x800025c0
è¯»å–åœ°å€ 0x800025c0
å†™å…¥åœ°å€ 0x8000bc7e
0x800025c0: 00 b7 80 23 sb	a1, 0(a5)
è¯»å–åœ°å€ 0x800025c4
0x800025c4: 00 17 87 93 addi	a5, a5, 1
è¯»å–åœ°å€ 0x800025c8
0x800025c8: fe e7 9c e3 bne	a5, a4, 0x800025c0
è¯»å–åœ°å€ 0x800025c0
å†™å…¥åœ°å€ 0x8000bc7f
0x800025c0: 00 b7 80 23 sb	a1, 0(a5)
è¯»å–åœ°å€ 0x800025c4
0x800025c4: 00 17 87 93 addi	a5, a5, 1
è¯»å–åœ°å€ 0x800025c8
0x800025c8: fe e7 9c e3 bne	a5, a4, 0x800025c0
è¯»å–åœ°å€ 0x800025c0
å†™å…¥åœ°å€ 0x8000bc80
0x800025c0: 00 b7 80 23 sb	a1, 0(a5)
è¯»å–åœ°å€ 0x800025c4
0x800025c4: 00 17 87 93 addi	a5, a5, 1
è¯»å–åœ°å€ 0x800025c8
0x800025c8: fe e7 9c e3 bne	a5, a4, 0x800025c0
è¯»å–åœ°å€ 0x800025c0
å†™å…¥åœ°å€ 0x8000bc81
0x800025c0: 00 b7 80 23 sb	a1, 0(a5)
è¯»å–åœ°å€ 0x800025c4
0x800025c4: 00 17 87 93 addi	a5, a5, 1
è¯»å–åœ°å€ 0x800025c8
0x800025c8: fe e7 9c e3 bne	a5, a4, 0x800025c0
è¯»å–åœ°å€ 0x800025c0
å†™å…¥åœ°å€ 0x8000bc82
0x800025c0: 00 b7 80 23 sb	a1, 0(a5)
è¯»å–åœ°å€ 0x800025c4
0x800025c4: 00 17 87 93 addi	a5, a5, 1
è¯»å–åœ°å€ 0x800025c8
0x800025c8: fe e7 9c e3 bne	a5, a4, 0x800025c0
è¯»å–åœ°å€ 0x800025c0
å†™å…¥åœ°å€ 0x8000bc83
0x800025c0: 00 b7 80 23 sb	a1, 0(a5)
è¯»å–åœ°å€ 0x800025c4
0x800025c4: 00 17 87 93 addi	a5, a5, 1
è¯»å–åœ°å€ 0x800025c8
0x800025c8: fe e7 9c e3 bne	a5, a4, 0x800025c0
è¯»å–åœ°å€ 0x800025c0
å†™å…¥åœ°å€ 0x8000bc84
0x800025c0: 00 b7 80 23 sb	a1, 0(a5)
è¯»å–åœ°å€ 0x800025c4
0x800025c4: 00 17 87 93 addi	a5, a5, 1
è¯»å–åœ°å€ 0x800025c8
0x800025c8: fe e7 9c e3 bne	a5, a4, 0x800025c0
è¯»å–åœ°å€ 0x800025c0
å†™å…¥åœ°å€ 0x8000bc85
0x800025c0: 00 b7 80 23 sb	a1, 0(a5)
è¯»å–åœ°å€ 0x800025c4
0x800025c4: 00 17 87 93 addi	a5, a5, 1
è¯»å–åœ°å€ 0x800025c8
0x800025c8: fe e7 9c e3 bne	a5, a4, 0x800025c0
è¯»å–åœ°å€ 0x800025c0
å†™å…¥åœ°å€ 0x8000bc86
0x800025c0: 00 b7 80 23 sb	a1, 0(a5)
è¯»å–åœ°å€ 0x800025c4
0x800025c4: 00 17 87 93 addi	a5, a5, 1
è¯»å–åœ°å€ 0x800025c8
0x800025c8: fe e7 9c e3 bne	a5, a4, 0x800025c0
è¯»å–åœ°å€ 0x800025c0
å†™å…¥åœ°å€ 0x8000bc87
0x800025c0: 00 b7 80 23 sb	a1, 0(a5)
è¯»å–åœ°å€ 0x800025c4
0x800025c4: 00 17 87 93 addi	a5, a5, 1
è¯»å–åœ°å€ 0x800025c8
0x800025c8: fe e7 9c e3 bne	a5, a4, 0x800025c0
è¯»å–åœ°å€ 0x800025c0
å†™å…¥åœ°å€ 0x8000bc88
0x800025c0: 00 b7 80 23 sb	a1, 0(a5)
è¯»å–åœ°å€ 0x800025c4
0x800025c4: 00 17 87 93 addi	a5, a5, 1
è¯»å–åœ°å€ 0x800025c8
0x800025c8: fe e7 9c e3 bne	a5, a4, 0x800025c0
è¯»å–åœ°å€ 0x800025c0
å†™å…¥åœ°å€ 0x8000bc89
0x800025c0: 00 b7 80 23 sb	a1, 0(a5)
è¯»å–åœ°å€ 0x800025c4
0x800025c4: 00 17 87 93 addi	a5, a5, 1
è¯»å–åœ°å€ 0x800025c8
0x800025c8: fe e7 9c e3 bne	a5, a4, 0x800025c0
è¯»å–åœ°å€ 0x800025c0
å†™å…¥åœ°å€ 0x8000bc8a
0x800025c0: 00 b7 80 23 sb	a1, 0(a5)
è¯»å–åœ°å€ 0x800025c4
0x800025c4: 00 17 87 93 addi	a5, a5, 1
è¯»å–åœ°å€ 0x800025c8
0x800025c8: fe e7 9c e3 bne	a5, a4, 0x800025c0
è¯»å–åœ°å€ 0x800025c0
å†™å…¥åœ°å€ 0x8000bc8b
0x800025c0: 00 b7 80 23 sb	a1, 0(a5)
è¯»å–åœ°å€ 0x800025c4
0x800025c4: 00 17 87 93 addi	a5, a5, 1
è¯»å–åœ°å€ 0x800025c8
0x800025c8: fe e7 9c e3 bne	a5, a4, 0x800025c0
è¯»å–åœ°å€ 0x800025c0
å†™å…¥åœ°å€ 0x8000bc8c
0x800025c0: 00 b7 80 23 sb	a1, 0(a5)
è¯»å–åœ°å€ 0x800025c4
0x800025c4: 00 17 87 93 addi	a5, a5, 1
è¯»å–åœ°å€ 0x800025c8
0x800025c8: fe e7 9c e3 bne	a5, a4, 0x800025c0
è¯»å–åœ°å€ 0x800025c0
å†™å…¥åœ°å€ 0x8000bc8d
0x800025c0: 00 b7 80 23 sb	a1, 0(a5)
è¯»å–åœ°å€ 0x800025c4
0x800025c4: 00 17 87 93 addi	a5, a5, 1
è¯»å–åœ°å€ 0x800025c8
0x800025c8: fe e7 9c e3 bne	a5, a4, 0x800025c0
è¯»å–åœ°å€ 0x800025c0
å†™å…¥åœ°å€ 0x8000bc8e
0x800025c0: 00 b7 80 23 sb	a1, 0(a5)
è¯»å–åœ°å€ 0x800025c4
0x800025c4: 00 17 87 93 addi	a5, a5, 1
è¯»å–åœ°å€ 0x800025c8
0x800025c8: fe e7 9c e3 bne	a5, a4, 0x800025c0
è¯»å–åœ°å€ 0x800025c0
å†™å…¥åœ°å€ 0x8000bc8f
0x800025c0: 00 b7 80 23 sb	a1, 0(a5)
è¯»å–åœ°å€ 0x800025c4
0x800025c4: 00 17 87 93 addi	a5, a5, 1
è¯»å–åœ°å€ 0x800025c8
0x800025c8: fe e7 9c e3 bne	a5, a4, 0x800025c0
è¯»å–åœ°å€ 0x800025c0
å†™å…¥åœ°å€ 0x8000bc90
0x800025c0: 00 b7 80 23 sb	a1, 0(a5)
è¯»å–åœ°å€ 0x800025c4
0x800025c4: 00 17 87 93 addi	a5, a5, 1
è¯»å–åœ°å€ 0x800025c8
0x800025c8: fe e7 9c e3 bne	a5, a4, 0x800025c0
è¯»å–åœ°å€ 0x800025c0
å†™å…¥åœ°å€ 0x8000bc91
0x800025c0: 00 b7 80 23 sb	a1, 0(a5)
è¯»å–åœ°å€ 0x800025c4
0x800025c4: 00 17 87 93 addi	a5, a5, 1
è¯»å–åœ°å€ 0x800025c8
0x800025c8: fe e7 9c e3 bne	a5, a4, 0x800025c0
è¯»å–åœ°å€ 0x800025c0
å†™å…¥åœ°å€ 0x8000bc92
0x800025c0: 00 b7 80 23 sb	a1, 0(a5)
è¯»å–åœ°å€ 0x800025c4
0x800025c4: 00 17 87 93 addi	a5, a5, 1
è¯»å–åœ°å€ 0x800025c8
0x800025c8: fe e7 9c e3 bne	a5, a4, 0x800025c0
è¯»å–åœ°å€ 0x800025c0
å†™å…¥åœ°å€ 0x8000bc93
0x800025c0: 00 b7 80 23 sb	a1, 0(a5)
è¯»å–åœ°å€ 0x800025c4
0x800025c4: 00 17 87 93 addi	a5, a5, 1
è¯»å–åœ°å€ 0x800025c8
0x800025c8: fe e7 9c e3 bne	a5, a4, 0x800025c0
è¯»å–åœ°å€ 0x800025c0
å†™å…¥åœ°å€ 0x8000bc94
0x800025c0: 00 b7 80 23 sb	a1, 0(a5)
è¯»å–åœ°å€ 0x800025c4
0x800025c4: 00 17 87 93 addi	a5, a5, 1
è¯»å–åœ°å€ 0x800025c8
0x800025c8: fe e7 9c e3 bne	a5, a4, 0x800025c0
è¯»å–åœ°å€ 0x800025c0
å†™å…¥åœ°å€ 0x8000bc95
0x800025c0: 00 b7 80 23 sb	a1, 0(a5)
è¯»å–åœ°å€ 0x800025c4
0x800025c4: 00 17 87 93 addi	a5, a5, 1
è¯»å–åœ°å€ 0x800025c8
0x800025c8: fe e7 9c e3 bne	a5, a4, 0x800025c0
è¯»å–åœ°å€ 0x800025c0
å†™å…¥åœ°å€ 0x8000bc96
0x800025c0: 00 b7 80 23 sb	a1, 0(a5)
è¯»å–åœ°å€ 0x800025c4
0x800025c4: 00 17 87 93 addi	a5, a5, 1
è¯»å–åœ°å€ 0x800025c8
0x800025c8: fe e7 9c e3 bne	a5, a4, 0x800025c0
è¯»å–åœ°å€ 0x800025c0
å†™å…¥åœ°å€ 0x8000bc97
0x800025c0: 00 b7 80 23 sb	a1, 0(a5)
è¯»å–åœ°å€ 0x800025c4
0x800025c4: 00 17 87 93 addi	a5, a5, 1
è¯»å–åœ°å€ 0x800025c8
0x800025c8: fe e7 9c e3 bne	a5, a4, 0x800025c0
è¯»å–åœ°å€ 0x800025c0
å†™å…¥åœ°å€ 0x8000bc98
0x800025c0: 00 b7 80 23 sb	a1, 0(a5)
è¯»å–åœ°å€ 0x800025c4
0x800025c4: 00 17 87 93 addi	a5, a5, 1
è¯»å–åœ°å€ 0x800025c8
0x800025c8: fe e7 9c e3 bne	a5, a4, 0x800025c0
è¯»å–åœ°å€ 0x800025c0
å†™å…¥åœ°å€ 0x8000bc99
0x800025c0: 00 b7 80 23 sb	a1, 0(a5)
è¯»å–åœ°å€ 0x800025c4
0x800025c4: 00 17 87 93 addi	a5, a5, 1
è¯»å–åœ°å€ 0x800025c8
0x800025c8: fe e7 9c e3 bne	a5, a4, 0x800025c0
è¯»å–åœ°å€ 0x800025c0
å†™å…¥åœ°å€ 0x8000bc9a
0x800025c0: 00 b7 80 23 sb	a1, 0(a5)
è¯»å–åœ°å€ 0x800025c4
0x800025c4: 00 17 87 93 addi	a5, a5, 1
è¯»å–åœ°å€ 0x800025c8
0x800025c8: fe e7 9c e3 bne	a5, a4, 0x800025c0
è¯»å–åœ°å€ 0x800025c0
å†™å…¥åœ°å€ 0x8000bc9b
0x800025c0: 00 b7 80 23 sb	a1, 0(a5)
è¯»å–åœ°å€ 0x800025c4
0x800025c4: 00 17 87 93 addi	a5, a5, 1
è¯»å–åœ°å€ 0x800025c8
0x800025c8: fe e7 9c e3 bne	a5, a4, 0x800025c0
è¯»å–åœ°å€ 0x800025c0
å†™å…¥åœ°å€ 0x8000bc9c
0x800025c0: 00 b7 80 23 sb	a1, 0(a5)
è¯»å–åœ°å€ 0x800025c4
0x800025c4: 00 17 87 93 addi	a5, a5, 1
è¯»å–åœ°å€ 0x800025c8
0x800025c8: fe e7 9c e3 bne	a5, a4, 0x800025c0
è¯»å–åœ°å€ 0x800025c0
å†™å…¥åœ°å€ 0x8000bc9d
0x800025c0: 00 b7 80 23 sb	a1, 0(a5)
è¯»å–åœ°å€ 0x800025c4
0x800025c4: 00 17 87 93 addi	a5, a5, 1
è¯»å–åœ°å€ 0x800025c8
0x800025c8: fe e7 9c e3 bne	a5, a4, 0x800025c0
è¯»å–åœ°å€ 0x800025c0
å†™å…¥åœ°å€ 0x8000bc9e
0x800025c0: 00 b7 80 23 sb	a1, 0(a5)
è¯»å–åœ°å€ 0x800025c4
0x800025c4: 00 17 87 93 addi	a5, a5, 1
è¯»å–åœ°å€ 0x800025c8
0x800025c8: fe e7 9c e3 bne	a5, a4, 0x800025c0
è¯»å–åœ°å€ 0x800025c0
å†™å…¥åœ°å€ 0x8000bc9f
0x800025c0: 00 b7 80 23 sb	a1, 0(a5)
è¯»å–åœ°å€ 0x800025c4
0x800025c4: 00 17 87 93 addi	a5, a5, 1
è¯»å–åœ°å€ 0x800025c8
0x800025c8: fe e7 9c e3 bne	a5, a4, 0x800025c0
è¯»å–åœ°å€ 0x800025c0
å†™å…¥åœ°å€ 0x8000bca0
0x800025c0: 00 b7 80 23 sb	a1, 0(a5)
è¯»å–åœ°å€ 0x800025c4
0x800025c4: 00 17 87 93 addi	a5, a5, 1
è¯»å–åœ°å€ 0x800025c8
0x800025c8: fe e7 9c e3 bne	a5, a4, 0x800025c0
è¯»å–åœ°å€ 0x800025c0
å†™å…¥åœ°å€ 0x8000bca1
0x800025c0: 00 b7 80 23 sb	a1, 0(a5)
è¯»å–åœ°å€ 0x800025c4
0x800025c4: 00 17 87 93 addi	a5, a5, 1
è¯»å–åœ°å€ 0x800025c8
0x800025c8: fe e7 9c e3 bne	a5, a4, 0x800025c0
è¯»å–åœ°å€ 0x800025c0
å†™å…¥åœ°å€ 0x8000bca2
0x800025c0: 00 b7 80 23 sb	a1, 0(a5)
è¯»å–åœ°å€ 0x800025c4
0x800025c4: 00 17 87 93 addi	a5, a5, 1
è¯»å–åœ°å€ 0x800025c8
0x800025c8: fe e7 9c e3 bne	a5, a4, 0x800025c0
è¯»å–åœ°å€ 0x800025c0
å†™å…¥åœ°å€ 0x8000bca3
0x800025c0: 00 b7 80 23 sb	a1, 0(a5)
è¯»å–åœ°å€ 0x800025c4
0x800025c4: 00 17 87 93 addi	a5, a5, 1
è¯»å–åœ°å€ 0x800025c8
0x800025c8: fe e7 9c e3 bne	a5, a4, 0x800025c0
è¯»å–åœ°å€ 0x800025c0
å†™å…¥åœ°å€ 0x8000bca4
0x800025c0: 00 b7 80 23 sb	a1, 0(a5)
è¯»å–åœ°å€ 0x800025c4
0x800025c4: 00 17 87 93 addi	a5, a5, 1
è¯»å–åœ°å€ 0x800025c8
0x800025c8: fe e7 9c e3 bne	a5, a4, 0x800025c0
è¯»å–åœ°å€ 0x800025c0
å†™å…¥åœ°å€ 0x8000bca5
0x800025c0: 00 b7 80 23 sb	a1, 0(a5)
è¯»å–åœ°å€ 0x800025c4
0x800025c4: 00 17 87 93 addi	a5, a5, 1
è¯»å–åœ°å€ 0x800025c8
0x800025c8: fe e7 9c e3 bne	a5, a4, 0x800025c0
è¯»å–åœ°å€ 0x800025c0
å†™å…¥åœ°å€ 0x8000bca6
0x800025c0: 00 b7 80 23 sb	a1, 0(a5)
è¯»å–åœ°å€ 0x800025c4
0x800025c4: 00 17 87 93 addi	a5, a5, 1
è¯»å–åœ°å€ 0x800025c8
0x800025c8: fe e7 9c e3 bne	a5, a4, 0x800025c0
è¯»å–åœ°å€ 0x800025c0
å†™å…¥åœ°å€ 0x8000bca7
0x800025c0: 00 b7 80 23 sb	a1, 0(a5)
è¯»å–åœ°å€ 0x800025c4
0x800025c4: 00 17 87 93 addi	a5, a5, 1
è¯»å–åœ°å€ 0x800025c8
0x800025c8: fe e7 9c e3 bne	a5, a4, 0x800025c0
è¯»å–åœ°å€ 0x800025c0
å†™å…¥åœ°å€ 0x8000bca8
0x800025c0: 00 b7 80 23 sb	a1, 0(a5)
è¯»å–åœ°å€ 0x800025c4
0x800025c4: 00 17 87 93 addi	a5, a5, 1
è¯»å–åœ°å€ 0x800025c8
0x800025c8: fe e7 9c e3 bne	a5, a4, 0x800025c0
è¯»å–åœ°å€ 0x800025c0
å†™å…¥åœ°å€ 0x8000bca9
0x800025c0: 00 b7 80 23 sb	a1, 0(a5)
è¯»å–åœ°å€ 0x800025c4
0x800025c4: 00 17 87 93 addi	a5, a5, 1
è¯»å–åœ°å€ 0x800025c8
0x800025c8: fe e7 9c e3 bne	a5, a4, 0x800025c0
è¯»å–åœ°å€ 0x800025c0
å†™å…¥åœ°å€ 0x8000bcaa
0x800025c0: 00 b7 80 23 sb	a1, 0(a5)
è¯»å–åœ°å€ 0x800025c4
0x800025c4: 00 17 87 93 addi	a5, a5, 1
è¯»å–åœ°å€ 0x800025c8
0x800025c8: fe e7 9c e3 bne	a5, a4, 0x800025c0
è¯»å–åœ°å€ 0x800025c0
å†™å…¥åœ°å€ 0x8000bcab
0x800025c0: 00 b7 80 23 sb	a1, 0(a5)
è¯»å–åœ°å€ 0x800025c4
0x800025c4: 00 17 87 93 addi	a5, a5, 1
è¯»å–åœ°å€ 0x800025c8
0x800025c8: fe e7 9c e3 bne	a5, a4, 0x800025c0
è¯»å–åœ°å€ 0x800025c0
å†™å…¥åœ°å€ 0x8000bcac
0x800025c0: 00 b7 80 23 sb	a1, 0(a5)
è¯»å–åœ°å€ 0x800025c4
0x800025c4: 00 17 87 93 addi	a5, a5, 1
è¯»å–åœ°å€ 0x800025c8
0x800025c8: fe e7 9c e3 bne	a5, a4, 0x800025c0
è¯»å–åœ°å€ 0x800025c0
å†™å…¥åœ°å€ 0x8000bcad
0x800025c0: 00 b7 80 23 sb	a1, 0(a5)
è¯»å–åœ°å€ 0x800025c4
0x800025c4: 00 17 87 93 addi	a5, a5, 1
è¯»å–åœ°å€ 0x800025c8
0x800025c8: fe e7 9c e3 bne	a5, a4, 0x800025c0
è¯»å–åœ°å€ 0x800025c0
å†™å…¥åœ°å€ 0x8000bcae
0x800025c0: 00 b7 80 23 sb	a1, 0(a5)
è¯»å–åœ°å€ 0x800025c4
0x800025c4: 00 17 87 93 addi	a5, a5, 1
è¯»å–åœ°å€ 0x800025c8
0x800025c8: fe e7 9c e3 bne	a5, a4, 0x800025c0
è¯»å–åœ°å€ 0x800025c0
å†™å…¥åœ°å€ 0x8000bcaf
0x800025c0: 00 b7 80 23 sb	a1, 0(a5)
è¯»å–åœ°å€ 0x800025c4
0x800025c4: 00 17 87 93 addi	a5, a5, 1
è¯»å–åœ°å€ 0x800025c8
0x800025c8: fe e7 9c e3 bne	a5, a4, 0x800025c0
è¯»å–åœ°å€ 0x800025c0
å†™å…¥åœ°å€ 0x8000bcb0
0x800025c0: 00 b7 80 23 sb	a1, 0(a5)
è¯»å–åœ°å€ 0x800025c4
0x800025c4: 00 17 87 93 addi	a5, a5, 1
è¯»å–åœ°å€ 0x800025c8
0x800025c8: fe e7 9c e3 bne	a5, a4, 0x800025c0
è¯»å–åœ°å€ 0x800025c0
å†™å…¥åœ°å€ 0x8000bcb1
0x800025c0: 00 b7 80 23 sb	a1, 0(a5)
è¯»å–åœ°å€ 0x800025c4
0x800025c4: 00 17 87 93 addi	a5, a5, 1
è¯»å–åœ°å€ 0x800025c8
0x800025c8: fe e7 9c e3 bne	a5, a4, 0x800025c0
è¯»å–åœ°å€ 0x800025c0
å†™å…¥åœ°å€ 0x8000bcb2
0x800025c0: 00 b7 80 23 sb	a1, 0(a5)
è¯»å–åœ°å€ 0x800025c4
0x800025c4: 00 17 87 93 addi	a5, a5, 1
è¯»å–åœ°å€ 0x800025c8
0x800025c8: fe e7 9c e3 bne	a5, a4, 0x800025c0
è¯»å–åœ°å€ 0x800025c0
å†™å…¥åœ°å€ 0x8000bcb3
0x800025c0: 00 b7 80 23 sb	a1, 0(a5)
è¯»å–åœ°å€ 0x800025c4
0x800025c4: 00 17 87 93 addi	a5, a5, 1
è¯»å–åœ°å€ 0x800025c8
0x800025c8: fe e7 9c e3 bne	a5, a4, 0x800025c0
è¯»å–åœ°å€ 0x800025c0
å†™å…¥åœ°å€ 0x8000bcb4
0x800025c0: 00 b7 80 23 sb	a1, 0(a5)
è¯»å–åœ°å€ 0x800025c4
0x800025c4: 00 17 87 93 addi	a5, a5, 1
è¯»å–åœ°å€ 0x800025c8
0x800025c8: fe e7 9c e3 bne	a5, a4, 0x800025c0
è¯»å–åœ°å€ 0x800025c0
å†™å…¥åœ°å€ 0x8000bcb5
0x800025c0: 00 b7 80 23 sb	a1, 0(a5)
è¯»å–åœ°å€ 0x800025c4
0x800025c4: 00 17 87 93 addi	a5, a5, 1
è¯»å–åœ°å€ 0x800025c8
0x800025c8: fe e7 9c e3 bne	a5, a4, 0x800025c0
è¯»å–åœ°å€ 0x800025c0
å†™å…¥åœ°å€ 0x8000bcb6
0x800025c0: 00 b7 80 23 sb	a1, 0(a5)
è¯»å–åœ°å€ 0x800025c4
0x800025c4: 00 17 87 93 addi	a5, a5, 1
è¯»å–åœ°å€ 0x800025c8
0x800025c8: fe e7 9c e3 bne	a5, a4, 0x800025c0
è¯»å–åœ°å€ 0x800025c0
å†™å…¥åœ°å€ 0x8000bcb7
0x800025c0: 00 b7 80 23 sb	a1, 0(a5)
è¯»å–åœ°å€ 0x800025c4
0x800025c4: 00 17 87 93 addi	a5, a5, 1
è¯»å–åœ°å€ 0x800025c8
0x800025c8: fe e7 9c e3 bne	a5, a4, 0x800025c0
è¯»å–åœ°å€ 0x800025c0
å†™å…¥åœ°å€ 0x8000bcb8
0x800025c0: 00 b7 80 23 sb	a1, 0(a5)
è¯»å–åœ°å€ 0x800025c4
0x800025c4: 00 17 87 93 addi	a5, a5, 1
è¯»å–åœ°å€ 0x800025c8
0x800025c8: fe e7 9c e3 bne	a5, a4, 0x800025c0
è¯»å–åœ°å€ 0x800025c0
å†™å…¥åœ°å€ 0x8000bcb9
0x800025c0: 00 b7 80 23 sb	a1, 0(a5)
è¯»å–åœ°å€ 0x800025c4
0x800025c4: 00 17 87 93 addi	a5, a5, 1
è¯»å–åœ°å€ 0x800025c8
0x800025c8: fe e7 9c e3 bne	a5, a4, 0x800025c0
è¯»å–åœ°å€ 0x800025c0
å†™å…¥åœ°å€ 0x8000bcba
0x800025c0: 00 b7 80 23 sb	a1, 0(a5)
è¯»å–åœ°å€ 0x800025c4
0x800025c4: 00 17 87 93 addi	a5, a5, 1
è¯»å–åœ°å€ 0x800025c8
0x800025c8: fe e7 9c e3 bne	a5, a4, 0x800025c0
è¯»å–åœ°å€ 0x800025c0
å†™å…¥åœ°å€ 0x8000bcbb
0x800025c0: 00 b7 80 23 sb	a1, 0(a5)
è¯»å–åœ°å€ 0x800025c4
0x800025c4: 00 17 87 93 addi	a5, a5, 1
è¯»å–åœ°å€ 0x800025c8
0x800025c8: fe e7 9c e3 bne	a5, a4, 0x800025c0
è¯»å–åœ°å€ 0x800025c0
å†™å…¥åœ°å€ 0x8000bcbc
0x800025c0: 00 b7 80 23 sb	a1, 0(a5)
è¯»å–åœ°å€ 0x800025c4
0x800025c4: 00 17 87 93 addi	a5, a5, 1
è¯»å–åœ°å€ 0x800025c8
0x800025c8: fe e7 9c e3 bne	a5, a4, 0x800025c0
è¯»å–åœ°å€ 0x800025c0
å†™å…¥åœ°å€ 0x8000bcbd
0x800025c0: 00 b7 80 23 sb	a1, 0(a5)
è¯»å–åœ°å€ 0x800025c4
0x800025c4: 00 17 87 93 addi	a5, a5, 1
è¯»å–åœ°å€ 0x800025c8
0x800025c8: fe e7 9c e3 bne	a5, a4, 0x800025c0
è¯»å–åœ°å€ 0x800025c0
å†™å…¥åœ°å€ 0x8000bcbe
0x800025c0: 00 b7 80 23 sb	a1, 0(a5)
è¯»å–åœ°å€ 0x800025c4
0x800025c4: 00 17 87 93 addi	a5, a5, 1
è¯»å–åœ°å€ 0x800025c8
0x800025c8: fe e7 9c e3 bne	a5, a4, 0x800025c0
è¯»å–åœ°å€ 0x800025c0
å†™å…¥åœ°å€ 0x8000bcbf
0x800025c0: 00 b7 80 23 sb	a1, 0(a5)
è¯»å–åœ°å€ 0x800025c4
0x800025c4: 00 17 87 93 addi	a5, a5, 1
è¯»å–åœ°å€ 0x800025c8
0x800025c8: fe e7 9c e3 bne	a5, a4, 0x800025c0
è¯»å–åœ°å€ 0x800025c0
å†™å…¥åœ°å€ 0x8000bcc0
0x800025c0: 00 b7 80 23 sb	a1, 0(a5)
è¯»å–åœ°å€ 0x800025c4
0x800025c4: 00 17 87 93 addi	a5, a5, 1
è¯»å–åœ°å€ 0x800025c8
0x800025c8: fe e7 9c e3 bne	a5, a4, 0x800025c0
è¯»å–åœ°å€ 0x800025c0
å†™å…¥åœ°å€ 0x8000bcc1
0x800025c0: 00 b7 80 23 sb	a1, 0(a5)
è¯»å–åœ°å€ 0x800025c4
0x800025c4: 00 17 87 93 addi	a5, a5, 1
è¯»å–åœ°å€ 0x800025c8
0x800025c8: fe e7 9c e3 bne	a5, a4, 0x800025c0
è¯»å–åœ°å€ 0x800025c0
å†™å…¥åœ°å€ 0x8000bcc2
0x800025c0: 00 b7 80 23 sb	a1, 0(a5)
è¯»å–åœ°å€ 0x800025c4
0x800025c4: 00 17 87 93 addi	a5, a5, 1
è¯»å–åœ°å€ 0x800025c8
0x800025c8: fe e7 9c e3 bne	a5, a4, 0x800025c0
è¯»å–åœ°å€ 0x800025c0
å†™å…¥åœ°å€ 0x8000bcc3
0x800025c0: 00 b7 80 23 sb	a1, 0(a5)
è¯»å–åœ°å€ 0x800025c4
0x800025c4: 00 17 87 93 addi	a5, a5, 1
è¯»å–åœ°å€ 0x800025c8
0x800025c8: fe e7 9c e3 bne	a5, a4, 0x800025c0
è¯»å–åœ°å€ 0x800025c0
å†™å…¥åœ°å€ 0x8000bcc4
0x800025c0: 00 b7 80 23 sb	a1, 0(a5)
è¯»å–åœ°å€ 0x800025c4
0x800025c4: 00 17 87 93 addi	a5, a5, 1
è¯»å–åœ°å€ 0x800025c8
0x800025c8: fe e7 9c e3 bne	a5, a4, 0x800025c0
è¯»å–åœ°å€ 0x800025c0
å†™å…¥åœ°å€ 0x8000bcc5
0x800025c0: 00 b7 80 23 sb	a1, 0(a5)
è¯»å–åœ°å€ 0x800025c4
0x800025c4: 00 17 87 93 addi	a5, a5, 1
è¯»å–åœ°å€ 0x800025c8
0x800025c8: fe e7 9c e3 bne	a5, a4, 0x800025c0
è¯»å–åœ°å€ 0x800025c0
å†™å…¥åœ°å€ 0x8000bcc6
0x800025c0: 00 b7 80 23 sb	a1, 0(a5)
è¯»å–åœ°å€ 0x800025c4
0x800025c4: 00 17 87 93 addi	a5, a5, 1
è¯»å–åœ°å€ 0x800025c8
0x800025c8: fe e7 9c e3 bne	a5, a4, 0x800025c0
è¯»å–åœ°å€ 0x800025c0
å†™å…¥åœ°å€ 0x8000bcc7
0x800025c0: 00 b7 80 23 sb	a1, 0(a5)
è¯»å–åœ°å€ 0x800025c4
0x800025c4: 00 17 87 93 addi	a5, a5, 1
è¯»å–åœ°å€ 0x800025c8
0x800025c8: fe e7 9c e3 bne	a5, a4, 0x800025c0
è¯»å–åœ°å€ 0x800025c0
å†™å…¥åœ°å€ 0x8000bcc8
0x800025c0: 00 b7 80 23 sb	a1, 0(a5)
è¯»å–åœ°å€ 0x800025c4
0x800025c4: 00 17 87 93 addi	a5, a5, 1
è¯»å–åœ°å€ 0x800025c8
0x800025c8: fe e7 9c e3 bne	a5, a4, 0x800025c0
è¯»å–åœ°å€ 0x800025c0
å†™å…¥åœ°å€ 0x8000bcc9
0x800025c0: 00 b7 80 23 sb	a1, 0(a5)
è¯»å–åœ°å€ 0x800025c4
0x800025c4: 00 17 87 93 addi	a5, a5, 1
è¯»å–åœ°å€ 0x800025c8
0x800025c8: fe e7 9c e3 bne	a5, a4, 0x800025c0
è¯»å–åœ°å€ 0x800025c0
å†™å…¥åœ°å€ 0x8000bcca
0x800025c0: 00 b7 80 23 sb	a1, 0(a5)
è¯»å–åœ°å€ 0x800025c4
0x800025c4: 00 17 87 93 addi	a5, a5, 1
è¯»å–åœ°å€ 0x800025c8
0x800025c8: fe e7 9c e3 bne	a5, a4, 0x800025c0
è¯»å–åœ°å€ 0x800025c0
å†™å…¥åœ°å€ 0x8000bccb
0x800025c0: 00 b7 80 23 sb	a1, 0(a5)
è¯»å–åœ°å€ 0x800025c4
0x800025c4: 00 17 87 93 addi	a5, a5, 1
è¯»å–åœ°å€ 0x800025c8
0x800025c8: fe e7 9c e3 bne	a5, a4, 0x800025c0
è¯»å–åœ°å€ 0x800025c0
å†™å…¥åœ°å€ 0x8000bccc
0x800025c0: 00 b7 80 23 sb	a1, 0(a5)
è¯»å–åœ°å€ 0x800025c4
0x800025c4: 00 17 87 93 addi	a5, a5, 1
è¯»å–åœ°å€ 0x800025c8
0x800025c8: fe e7 9c e3 bne	a5, a4, 0x800025c0
è¯»å–åœ°å€ 0x800025c0
å†™å…¥åœ°å€ 0x8000bccd
0x800025c0: 00 b7 80 23 sb	a1, 0(a5)
è¯»å–åœ°å€ 0x800025c4
0x800025c4: 00 17 87 93 addi	a5, a5, 1
è¯»å–åœ°å€ 0x800025c8
0x800025c8: fe e7 9c e3 bne	a5, a4, 0x800025c0
è¯»å–åœ°å€ 0x800025c0
å†™å…¥åœ°å€ 0x8000bcce
0x800025c0: 00 b7 80 23 sb	a1, 0(a5)
è¯»å–åœ°å€ 0x800025c4
0x800025c4: 00 17 87 93 addi	a5, a5, 1
è¯»å–åœ°å€ 0x800025c8
0x800025c8: fe e7 9c e3 bne	a5, a4, 0x800025c0
è¯»å–åœ°å€ 0x800025c0
å†™å…¥åœ°å€ 0x8000bccf
0x800025c0: 00 b7 80 23 sb	a1, 0(a5)
è¯»å–åœ°å€ 0x800025c4
0x800025c4: 00 17 87 93 addi	a5, a5, 1
è¯»å–åœ°å€ 0x800025c8
0x800025c8: fe e7 9c e3 bne	a5, a4, 0x800025c0
è¯»å–åœ°å€ 0x800025c0
å†™å…¥åœ°å€ 0x8000bcd0
0x800025c0: 00 b7 80 23 sb	a1, 0(a5)
è¯»å–åœ°å€ 0x800025c4
0x800025c4: 00 17 87 93 addi	a5, a5, 1
è¯»å–åœ°å€ 0x800025c8
0x800025c8: fe e7 9c e3 bne	a5, a4, 0x800025c0
è¯»å–åœ°å€ 0x800025c0
å†™å…¥åœ°å€ 0x8000bcd1
0x800025c0: 00 b7 80 23 sb	a1, 0(a5)
è¯»å–åœ°å€ 0x800025c4
0x800025c4: 00 17 87 93 addi	a5, a5, 1
è¯»å–åœ°å€ 0x800025c8
0x800025c8: fe e7 9c e3 bne	a5, a4, 0x800025c0
è¯»å–åœ°å€ 0x800025c0
å†™å…¥åœ°å€ 0x8000bcd2
0x800025c0: 00 b7 80 23 sb	a1, 0(a5)
è¯»å–åœ°å€ 0x800025c4
0x800025c4: 00 17 87 93 addi	a5, a5, 1
è¯»å–åœ°å€ 0x800025c8
0x800025c8: fe e7 9c e3 bne	a5, a4, 0x800025c0
è¯»å–åœ°å€ 0x800025c0
å†™å…¥åœ°å€ 0x8000bcd3
0x800025c0: 00 b7 80 23 sb	a1, 0(a5)
è¯»å–åœ°å€ 0x800025c4
0x800025c4: 00 17 87 93 addi	a5, a5, 1
è¯»å–åœ°å€ 0x800025c8
0x800025c8: fe e7 9c e3 bne	a5, a4, 0x800025c0
è¯»å–åœ°å€ 0x800025c0
å†™å…¥åœ°å€ 0x8000bcd4
0x800025c0: 00 b7 80 23 sb	a1, 0(a5)
è¯»å–åœ°å€ 0x800025c4
0x800025c4: 00 17 87 93 addi	a5, a5, 1
è¯»å–åœ°å€ 0x800025c8
0x800025c8: fe e7 9c e3 bne	a5, a4, 0x800025c0
è¯»å–åœ°å€ 0x800025c0
å†™å…¥åœ°å€ 0x8000bcd5
0x800025c0: 00 b7 80 23 sb	a1, 0(a5)
è¯»å–åœ°å€ 0x800025c4
0x800025c4: 00 17 87 93 addi	a5, a5, 1
è¯»å–åœ°å€ 0x800025c8
0x800025c8: fe e7 9c e3 bne	a5, a4, 0x800025c0
è¯»å–åœ°å€ 0x800025c0
å†™å…¥åœ°å€ 0x8000bcd6
0x800025c0: 00 b7 80 23 sb	a1, 0(a5)
è¯»å–åœ°å€ 0x800025c4
0x800025c4: 00 17 87 93 addi	a5, a5, 1
è¯»å–åœ°å€ 0x800025c8
0x800025c8: fe e7 9c e3 bne	a5, a4, 0x800025c0
è¯»å–åœ°å€ 0x800025c0
å†™å…¥åœ°å€ 0x8000bcd7
0x800025c0: 00 b7 80 23 sb	a1, 0(a5)
è¯»å–åœ°å€ 0x800025c4
0x800025c4: 00 17 87 93 addi	a5, a5, 1
è¯»å–åœ°å€ 0x800025c8
0x800025c8: fe e7 9c e3 bne	a5, a4, 0x800025c0
è¯»å–åœ°å€ 0x800025c0
å†™å…¥åœ°å€ 0x8000bcd8
0x800025c0: 00 b7 80 23 sb	a1, 0(a5)
è¯»å–åœ°å€ 0x800025c4
0x800025c4: 00 17 87 93 addi	a5, a5, 1
è¯»å–åœ°å€ 0x800025c8
0x800025c8: fe e7 9c e3 bne	a5, a4, 0x800025c0
è¯»å–åœ°å€ 0x800025c0
å†™å…¥åœ°å€ 0x8000bcd9
0x800025c0: 00 b7 80 23 sb	a1, 0(a5)
è¯»å–åœ°å€ 0x800025c4
0x800025c4: 00 17 87 93 addi	a5, a5, 1
è¯»å–åœ°å€ 0x800025c8
0x800025c8: fe e7 9c e3 bne	a5, a4, 0x800025c0
è¯»å–åœ°å€ 0x800025c0
å†™å…¥åœ°å€ 0x8000bcda
0x800025c0: 00 b7 80 23 sb	a1, 0(a5)
è¯»å–åœ°å€ 0x800025c4
0x800025c4: 00 17 87 93 addi	a5, a5, 1
è¯»å–åœ°å€ 0x800025c8
0x800025c8: fe e7 9c e3 bne	a5, a4, 0x800025c0
è¯»å–åœ°å€ 0x800025c0
å†™å…¥åœ°å€ 0x8000bcdb
0x800025c0: 00 b7 80 23 sb	a1, 0(a5)
è¯»å–åœ°å€ 0x800025c4
0x800025c4: 00 17 87 93 addi	a5, a5, 1
è¯»å–åœ°å€ 0x800025c8
0x800025c8: fe e7 9c e3 bne	a5, a4, 0x800025c0
è¯»å–åœ°å€ 0x800025c0
å†™å…¥åœ°å€ 0x8000bcdc
0x800025c0: 00 b7 80 23 sb	a1, 0(a5)
è¯»å–åœ°å€ 0x800025c4
0x800025c4: 00 17 87 93 addi	a5, a5, 1
è¯»å–åœ°å€ 0x800025c8
0x800025c8: fe e7 9c e3 bne	a5, a4, 0x800025c0
è¯»å–åœ°å€ 0x800025c0
å†™å…¥åœ°å€ 0x8000bcdd
0x800025c0: 00 b7 80 23 sb	a1, 0(a5)
è¯»å–åœ°å€ 0x800025c4
0x800025c4: 00 17 87 93 addi	a5, a5, 1
è¯»å–åœ°å€ 0x800025c8
0x800025c8: fe e7 9c e3 bne	a5, a4, 0x800025c0
è¯»å–åœ°å€ 0x800025c0
å†™å…¥åœ°å€ 0x8000bcde
0x800025c0: 00 b7 80 23 sb	a1, 0(a5)
è¯»å–åœ°å€ 0x800025c4
0x800025c4: 00 17 87 93 addi	a5, a5, 1
è¯»å–åœ°å€ 0x800025c8
0x800025c8: fe e7 9c e3 bne	a5, a4, 0x800025c0
è¯»å–åœ°å€ 0x800025c0
å†™å…¥åœ°å€ 0x8000bcdf
0x800025c0: 00 b7 80 23 sb	a1, 0(a5)
è¯»å–åœ°å€ 0x800025c4
0x800025c4: 00 17 87 93 addi	a5, a5, 1
è¯»å–åœ°å€ 0x800025c8
0x800025c8: fe e7 9c e3 bne	a5, a4, 0x800025c0
è¯»å–åœ°å€ 0x800025c0
å†™å…¥åœ°å€ 0x8000bce0
0x800025c0: 00 b7 80 23 sb	a1, 0(a5)
è¯»å–åœ°å€ 0x800025c4
0x800025c4: 00 17 87 93 addi	a5, a5, 1
è¯»å–åœ°å€ 0x800025c8
0x800025c8: fe e7 9c e3 bne	a5, a4, 0x800025c0
è¯»å–åœ°å€ 0x800025c0
å†™å…¥åœ°å€ 0x8000bce1
0x800025c0: 00 b7 80 23 sb	a1, 0(a5)
è¯»å–åœ°å€ 0x800025c4
0x800025c4: 00 17 87 93 addi	a5, a5, 1
è¯»å–åœ°å€ 0x800025c8
0x800025c8: fe e7 9c e3 bne	a5, a4, 0x800025c0
è¯»å–åœ°å€ 0x800025c0
å†™å…¥åœ°å€ 0x8000bce2
0x800025c0: 00 b7 80 23 sb	a1, 0(a5)
è¯»å–åœ°å€ 0x800025c4
0x800025c4: 00 17 87 93 addi	a5, a5, 1
è¯»å–åœ°å€ 0x800025c8
0x800025c8: fe e7 9c e3 bne	a5, a4, 0x800025c0
è¯»å–åœ°å€ 0x800025c0
å†™å…¥åœ°å€ 0x8000bce3
0x800025c0: 00 b7 80 23 sb	a1, 0(a5)
è¯»å–åœ°å€ 0x800025c4
0x800025c4: 00 17 87 93 addi	a5, a5, 1
è¯»å–åœ°å€ 0x800025c8
0x800025c8: fe e7 9c e3 bne	a5, a4, 0x800025c0
è¯»å–åœ°å€ 0x800025c0
å†™å…¥åœ°å€ 0x8000bce4
0x800025c0: 00 b7 80 23 sb	a1, 0(a5)
è¯»å–åœ°å€ 0x800025c4
0x800025c4: 00 17 87 93 addi	a5, a5, 1
è¯»å–åœ°å€ 0x800025c8
0x800025c8: fe e7 9c e3 bne	a5, a4, 0x800025c0
è¯»å–åœ°å€ 0x800025c0
å†™å…¥åœ°å€ 0x8000bce5
0x800025c0: 00 b7 80 23 sb	a1, 0(a5)
è¯»å–åœ°å€ 0x800025c4
0x800025c4: 00 17 87 93 addi	a5, a5, 1
è¯»å–åœ°å€ 0x800025c8
0x800025c8: fe e7 9c e3 bne	a5, a4, 0x800025c0
è¯»å–åœ°å€ 0x800025c0
å†™å…¥åœ°å€ 0x8000bce6
0x800025c0: 00 b7 80 23 sb	a1, 0(a5)
è¯»å–åœ°å€ 0x800025c4
0x800025c4: 00 17 87 93 addi	a5, a5, 1
è¯»å–åœ°å€ 0x800025c8
0x800025c8: fe e7 9c e3 bne	a5, a4, 0x800025c0
è¯»å–åœ°å€ 0x800025c0
å†™å…¥åœ°å€ 0x8000bce7
0x800025c0: 00 b7 80 23 sb	a1, 0(a5)
è¯»å–åœ°å€ 0x800025c4
0x800025c4: 00 17 87 93 addi	a5, a5, 1
è¯»å–åœ°å€ 0x800025c8
0x800025c8: fe e7 9c e3 bne	a5, a4, 0x800025c0
è¯»å–åœ°å€ 0x800025c0
å†™å…¥åœ°å€ 0x8000bce8
0x800025c0: 00 b7 80 23 sb	a1, 0(a5)
è¯»å–åœ°å€ 0x800025c4
0x800025c4: 00 17 87 93 addi	a5, a5, 1
è¯»å–åœ°å€ 0x800025c8
0x800025c8: fe e7 9c e3 bne	a5, a4, 0x800025c0
è¯»å–åœ°å€ 0x800025c0
å†™å…¥åœ°å€ 0x8000bce9
0x800025c0: 00 b7 80 23 sb	a1, 0(a5)
è¯»å–åœ°å€ 0x800025c4
0x800025c4: 00 17 87 93 addi	a5, a5, 1
è¯»å–åœ°å€ 0x800025c8
0x800025c8: fe e7 9c e3 bne	a5, a4, 0x800025c0
è¯»å–åœ°å€ 0x800025c0
å†™å…¥åœ°å€ 0x8000bcea
0x800025c0: 00 b7 80 23 sb	a1, 0(a5)
è¯»å–åœ°å€ 0x800025c4
0x800025c4: 00 17 87 93 addi	a5, a5, 1
è¯»å–åœ°å€ 0x800025c8
0x800025c8: fe e7 9c e3 bne	a5, a4, 0x800025c0
è¯»å–åœ°å€ 0x800025c0
å†™å…¥åœ°å€ 0x8000bceb
0x800025c0: 00 b7 80 23 sb	a1, 0(a5)
è¯»å–åœ°å€ 0x800025c4
0x800025c4: 00 17 87 93 addi	a5, a5, 1
è¯»å–åœ°å€ 0x800025c8
0x800025c8: fe e7 9c e3 bne	a5, a4, 0x800025c0
è¯»å–åœ°å€ 0x800025c0
å†™å…¥åœ°å€ 0x8000bcec
0x800025c0: 00 b7 80 23 sb	a1, 0(a5)
è¯»å–åœ°å€ 0x800025c4
0x800025c4: 00 17 87 93 addi	a5, a5, 1
è¯»å–åœ°å€ 0x800025c8
0x800025c8: fe e7 9c e3 bne	a5, a4, 0x800025c0
è¯»å–åœ°å€ 0x800025c0
å†™å…¥åœ°å€ 0x8000bced
0x800025c0: 00 b7 80 23 sb	a1, 0(a5)
è¯»å–åœ°å€ 0x800025c4
0x800025c4: 00 17 87 93 addi	a5, a5, 1
è¯»å–åœ°å€ 0x800025c8
0x800025c8: fe e7 9c e3 bne	a5, a4, 0x800025c0
è¯»å–åœ°å€ 0x800025c0
å†™å…¥åœ°å€ 0x8000bcee
0x800025c0: 00 b7 80 23 sb	a1, 0(a5)
è¯»å–åœ°å€ 0x800025c4
0x800025c4: 00 17 87 93 addi	a5, a5, 1
è¯»å–åœ°å€ 0x800025c8
0x800025c8: fe e7 9c e3 bne	a5, a4, 0x800025c0
è¯»å–åœ°å€ 0x800025c0
å†™å…¥åœ°å€ 0x8000bcef
0x800025c0: 00 b7 80 23 sb	a1, 0(a5)
è¯»å–åœ°å€ 0x800025c4
0x800025c4: 00 17 87 93 addi	a5, a5, 1
è¯»å–åœ°å€ 0x800025c8
0x800025c8: fe e7 9c e3 bne	a5, a4, 0x800025c0
è¯»å–åœ°å€ 0x800025c0
å†™å…¥åœ°å€ 0x8000bcf0
0x800025c0: 00 b7 80 23 sb	a1, 0(a5)
è¯»å–åœ°å€ 0x800025c4
0x800025c4: 00 17 87 93 addi	a5, a5, 1
è¯»å–åœ°å€ 0x800025c8
0x800025c8: fe e7 9c e3 bne	a5, a4, 0x800025c0
è¯»å–åœ°å€ 0x800025c0
å†™å…¥åœ°å€ 0x8000bcf1
0x800025c0: 00 b7 80 23 sb	a1, 0(a5)
è¯»å–åœ°å€ 0x800025c4
0x800025c4: 00 17 87 93 addi	a5, a5, 1
è¯»å–åœ°å€ 0x800025c8
0x800025c8: fe e7 9c e3 bne	a5, a4, 0x800025c0
è¯»å–åœ°å€ 0x800025c0
å†™å…¥åœ°å€ 0x8000bcf2
0x800025c0: 00 b7 80 23 sb	a1, 0(a5)
è¯»å–åœ°å€ 0x800025c4
0x800025c4: 00 17 87 93 addi	a5, a5, 1
è¯»å–åœ°å€ 0x800025c8
0x800025c8: fe e7 9c e3 bne	a5, a4, 0x800025c0
è¯»å–åœ°å€ 0x800025c0
å†™å…¥åœ°å€ 0x8000bcf3
0x800025c0: 00 b7 80 23 sb	a1, 0(a5)
è¯»å–åœ°å€ 0x800025c4
0x800025c4: 00 17 87 93 addi	a5, a5, 1
è¯»å–åœ°å€ 0x800025c8
0x800025c8: fe e7 9c e3 bne	a5, a4, 0x800025c0
è¯»å–åœ°å€ 0x800025c0
å†™å…¥åœ°å€ 0x8000bcf4
0x800025c0: 00 b7 80 23 sb	a1, 0(a5)
è¯»å–åœ°å€ 0x800025c4
0x800025c4: 00 17 87 93 addi	a5, a5, 1
è¯»å–åœ°å€ 0x800025c8
0x800025c8: fe e7 9c e3 bne	a5, a4, 0x800025c0
è¯»å–åœ°å€ 0x800025c0
å†™å…¥åœ°å€ 0x8000bcf5
0x800025c0: 00 b7 80 23 sb	a1, 0(a5)
è¯»å–åœ°å€ 0x800025c4
0x800025c4: 00 17 87 93 addi	a5, a5, 1
è¯»å–åœ°å€ 0x800025c8
0x800025c8: fe e7 9c e3 bne	a5, a4, 0x800025c0
è¯»å–åœ°å€ 0x800025c0
å†™å…¥åœ°å€ 0x8000bcf6
0x800025c0: 00 b7 80 23 sb	a1, 0(a5)
è¯»å–åœ°å€ 0x800025c4
0x800025c4: 00 17 87 93 addi	a5, a5, 1
è¯»å–åœ°å€ 0x800025c8
0x800025c8: fe e7 9c e3 bne	a5, a4, 0x800025c0
è¯»å–åœ°å€ 0x800025c0
å†™å…¥åœ°å€ 0x8000bcf7
0x800025c0: 00 b7 80 23 sb	a1, 0(a5)
è¯»å–åœ°å€ 0x800025c4
0x800025c4: 00 17 87 93 addi	a5, a5, 1
è¯»å–åœ°å€ 0x800025c8
0x800025c8: fe e7 9c e3 bne	a5, a4, 0x800025c0
è¯»å–åœ°å€ 0x800025c0
å†™å…¥åœ°å€ 0x8000bcf8
0x800025c0: 00 b7 80 23 sb	a1, 0(a5)
è¯»å–åœ°å€ 0x800025c4
0x800025c4: 00 17 87 93 addi	a5, a5, 1
è¯»å–åœ°å€ 0x800025c8
0x800025c8: fe e7 9c e3 bne	a5, a4, 0x800025c0
è¯»å–åœ°å€ 0x800025c0
å†™å…¥åœ°å€ 0x8000bcf9
0x800025c0: 00 b7 80 23 sb	a1, 0(a5)
è¯»å–åœ°å€ 0x800025c4
0x800025c4: 00 17 87 93 addi	a5, a5, 1
è¯»å–åœ°å€ 0x800025c8
0x800025c8: fe e7 9c e3 bne	a5, a4, 0x800025c0
è¯»å–åœ°å€ 0x800025c0
å†™å…¥åœ°å€ 0x8000bcfa
0x800025c0: 00 b7 80 23 sb	a1, 0(a5)
è¯»å–åœ°å€ 0x800025c4
0x800025c4: 00 17 87 93 addi	a5, a5, 1
è¯»å–åœ°å€ 0x800025c8
0x800025c8: fe e7 9c e3 bne	a5, a4, 0x800025c0
è¯»å–åœ°å€ 0x800025c0
å†™å…¥åœ°å€ 0x8000bcfb
0x800025c0: 00 b7 80 23 sb	a1, 0(a5)
è¯»å–åœ°å€ 0x800025c4
0x800025c4: 00 17 87 93 addi	a5, a5, 1
è¯»å–åœ°å€ 0x800025c8
0x800025c8: fe e7 9c e3 bne	a5, a4, 0x800025c0
è¯»å–åœ°å€ 0x800025c0
å†™å…¥åœ°å€ 0x8000bcfc
0x800025c0: 00 b7 80 23 sb	a1, 0(a5)
è¯»å–åœ°å€ 0x800025c4
0x800025c4: 00 17 87 93 addi	a5, a5, 1
è¯»å–åœ°å€ 0x800025c8
0x800025c8: fe e7 9c e3 bne	a5, a4, 0x800025c0
è¯»å–åœ°å€ 0x800025c0
å†™å…¥åœ°å€ 0x8000bcfd
0x800025c0: 00 b7 80 23 sb	a1, 0(a5)
è¯»å–åœ°å€ 0x800025c4
0x800025c4: 00 17 87 93 addi	a5, a5, 1
è¯»å–åœ°å€ 0x800025c8
0x800025c8: fe e7 9c e3 bne	a5, a4, 0x800025c0
è¯»å–åœ°å€ 0x800025c0
å†™å…¥åœ°å€ 0x8000bcfe
0x800025c0: 00 b7 80 23 sb	a1, 0(a5)
è¯»å–åœ°å€ 0x800025c4
0x800025c4: 00 17 87 93 addi	a5, a5, 1
è¯»å–åœ°å€ 0x800025c8
0x800025c8: fe e7 9c e3 bne	a5, a4, 0x800025c0
è¯»å–åœ°å€ 0x800025c0
å†™å…¥åœ°å€ 0x8000bcff
0x800025c0: 00 b7 80 23 sb	a1, 0(a5)
è¯»å–åœ°å€ 0x800025c4
0x800025c4: 00 17 87 93 addi	a5, a5, 1
è¯»å–åœ°å€ 0x800025c8
0x800025c8: fe e7 9c e3 bne	a5, a4, 0x800025c0
è¯»å–åœ°å€ 0x800025c0
å†™å…¥åœ°å€ 0x8000bd00
0x800025c0: 00 b7 80 23 sb	a1, 0(a5)
è¯»å–åœ°å€ 0x800025c4
0x800025c4: 00 17 87 93 addi	a5, a5, 1
è¯»å–åœ°å€ 0x800025c8
0x800025c8: fe e7 9c e3 bne	a5, a4, 0x800025c0
è¯»å–åœ°å€ 0x800025c0
å†™å…¥åœ°å€ 0x8000bd01
0x800025c0: 00 b7 80 23 sb	a1, 0(a5)
è¯»å–åœ°å€ 0x800025c4
0x800025c4: 00 17 87 93 addi	a5, a5, 1
è¯»å–åœ°å€ 0x800025c8
0x800025c8: fe e7 9c e3 bne	a5, a4, 0x800025c0
è¯»å–åœ°å€ 0x800025c0
å†™å…¥åœ°å€ 0x8000bd02
0x800025c0: 00 b7 80 23 sb	a1, 0(a5)
è¯»å–åœ°å€ 0x800025c4
0x800025c4: 00 17 87 93 addi	a5, a5, 1
è¯»å–åœ°å€ 0x800025c8
0x800025c8: fe e7 9c e3 bne	a5, a4, 0x800025c0
è¯»å–åœ°å€ 0x800025c0
å†™å…¥åœ°å€ 0x8000bd03
0x800025c0: 00 b7 80 23 sb	a1, 0(a5)
è¯»å–åœ°å€ 0x800025c4
0x800025c4: 00 17 87 93 addi	a5, a5, 1
è¯»å–åœ°å€ 0x800025c8
0x800025c8: fe e7 9c e3 bne	a5, a4, 0x800025c0
è¯»å–åœ°å€ 0x800025c0
å†™å…¥åœ°å€ 0x8000bd04
0x800025c0: 00 b7 80 23 sb	a1, 0(a5)
è¯»å–åœ°å€ 0x800025c4
0x800025c4: 00 17 87 93 addi	a5, a5, 1
è¯»å–åœ°å€ 0x800025c8
0x800025c8: fe e7 9c e3 bne	a5, a4, 0x800025c0
è¯»å–åœ°å€ 0x800025c0
å†™å…¥åœ°å€ 0x8000bd05
0x800025c0: 00 b7 80 23 sb	a1, 0(a5)
è¯»å–åœ°å€ 0x800025c4
0x800025c4: 00 17 87 93 addi	a5, a5, 1
è¯»å–åœ°å€ 0x800025c8
0x800025c8: fe e7 9c e3 bne	a5, a4, 0x800025c0
è¯»å–åœ°å€ 0x800025c0
å†™å…¥åœ°å€ 0x8000bd06
0x800025c0: 00 b7 80 23 sb	a1, 0(a5)
è¯»å–åœ°å€ 0x800025c4
0x800025c4: 00 17 87 93 addi	a5, a5, 1
è¯»å–åœ°å€ 0x800025c8
0x800025c8: fe e7 9c e3 bne	a5, a4, 0x800025c0
è¯»å–åœ°å€ 0x800025c0
å†™å…¥åœ°å€ 0x8000bd07
0x800025c0: 00 b7 80 23 sb	a1, 0(a5)
è¯»å–åœ°å€ 0x800025c4
0x800025c4: 00 17 87 93 addi	a5, a5, 1
è¯»å–åœ°å€ 0x800025c8
0x800025c8: fe e7 9c e3 bne	a5, a4, 0x800025c0
è¯»å–åœ°å€ 0x800025c0
å†™å…¥åœ°å€ 0x8000bd08
0x800025c0: 00 b7 80 23 sb	a1, 0(a5)
è¯»å–åœ°å€ 0x800025c4
0x800025c4: 00 17 87 93 addi	a5, a5, 1
è¯»å–åœ°å€ 0x800025c8
0x800025c8: fe e7 9c e3 bne	a5, a4, 0x800025c0
è¯»å–åœ°å€ 0x800025c0
å†™å…¥åœ°å€ 0x8000bd09
0x800025c0: 00 b7 80 23 sb	a1, 0(a5)
è¯»å–åœ°å€ 0x800025c4
0x800025c4: 00 17 87 93 addi	a5, a5, 1
è¯»å–åœ°å€ 0x800025c8
0x800025c8: fe e7 9c e3 bne	a5, a4, 0x800025c0
è¯»å–åœ°å€ 0x800025c0
å†™å…¥åœ°å€ 0x8000bd0a
0x800025c0: 00 b7 80 23 sb	a1, 0(a5)
è¯»å–åœ°å€ 0x800025c4
0x800025c4: 00 17 87 93 addi	a5, a5, 1
è¯»å–åœ°å€ 0x800025c8
0x800025c8: fe e7 9c e3 bne	a5, a4, 0x800025c0
è¯»å–åœ°å€ 0x800025c0
å†™å…¥åœ°å€ 0x8000bd0b
0x800025c0: 00 b7 80 23 sb	a1, 0(a5)
è¯»å–åœ°å€ 0x800025c4
0x800025c4: 00 17 87 93 addi	a5, a5, 1
è¯»å–åœ°å€ 0x800025c8
0x800025c8: fe e7 9c e3 bne	a5, a4, 0x800025c0
è¯»å–åœ°å€ 0x800025c0
å†™å…¥åœ°å€ 0x8000bd0c
0x800025c0: 00 b7 80 23 sb	a1, 0(a5)
è¯»å–åœ°å€ 0x800025c4
0x800025c4: 00 17 87 93 addi	a5, a5, 1
è¯»å–åœ°å€ 0x800025c8
0x800025c8: fe e7 9c e3 bne	a5, a4, 0x800025c0
è¯»å–åœ°å€ 0x800025c0
å†™å…¥åœ°å€ 0x8000bd0d
0x800025c0: 00 b7 80 23 sb	a1, 0(a5)
è¯»å–åœ°å€ 0x800025c4
0x800025c4: 00 17 87 93 addi	a5, a5, 1
è¯»å–åœ°å€ 0x800025c8
0x800025c8: fe e7 9c e3 bne	a5, a4, 0x800025c0
è¯»å–åœ°å€ 0x800025c0
å†™å…¥åœ°å€ 0x8000bd0e
0x800025c0: 00 b7 80 23 sb	a1, 0(a5)
è¯»å–åœ°å€ 0x800025c4
0x800025c4: 00 17 87 93 addi	a5, a5, 1
è¯»å–åœ°å€ 0x800025c8
0x800025c8: fe e7 9c e3 bne	a5, a4, 0x800025c0
è¯»å–åœ°å€ 0x800025c0
å†™å…¥åœ°å€ 0x8000bd0f
0x800025c0: 00 b7 80 23 sb	a1, 0(a5)
è¯»å–åœ°å€ 0x800025c4
0x800025c4: 00 17 87 93 addi	a5, a5, 1
è¯»å–åœ°å€ 0x800025c8
0x800025c8: fe e7 9c e3 bne	a5, a4, 0x800025c0
è¯»å–åœ°å€ 0x800025c0
å†™å…¥åœ°å€ 0x8000bd10
0x800025c0: 00 b7 80 23 sb	a1, 0(a5)
è¯»å–åœ°å€ 0x800025c4
0x800025c4: 00 17 87 93 addi	a5, a5, 1
è¯»å–åœ°å€ 0x800025c8
0x800025c8: fe e7 9c e3 bne	a5, a4, 0x800025c0
è¯»å–åœ°å€ 0x800025c0
å†™å…¥åœ°å€ 0x8000bd11
0x800025c0: 00 b7 80 23 sb	a1, 0(a5)
è¯»å–åœ°å€ 0x800025c4
0x800025c4: 00 17 87 93 addi	a5, a5, 1
è¯»å–åœ°å€ 0x800025c8
0x800025c8: fe e7 9c e3 bne	a5, a4, 0x800025c0
è¯»å–åœ°å€ 0x800025c0
å†™å…¥åœ°å€ 0x8000bd12
0x800025c0: 00 b7 80 23 sb	a1, 0(a5)
è¯»å–åœ°å€ 0x800025c4
0x800025c4: 00 17 87 93 addi	a5, a5, 1
è¯»å–åœ°å€ 0x800025c8
0x800025c8: fe e7 9c e3 bne	a5, a4, 0x800025c0
è¯»å–åœ°å€ 0x800025c0
å†™å…¥åœ°å€ 0x8000bd13
0x800025c0: 00 b7 80 23 sb	a1, 0(a5)
è¯»å–åœ°å€ 0x800025c4
0x800025c4: 00 17 87 93 addi	a5, a5, 1
è¯»å–åœ°å€ 0x800025c8
0x800025c8: fe e7 9c e3 bne	a5, a4, 0x800025c0
è¯»å–åœ°å€ 0x800025c0
å†™å…¥åœ°å€ 0x8000bd14
0x800025c0: 00 b7 80 23 sb	a1, 0(a5)
è¯»å–åœ°å€ 0x800025c4
0x800025c4: 00 17 87 93 addi	a5, a5, 1
è¯»å–åœ°å€ 0x800025c8
0x800025c8: fe e7 9c e3 bne	a5, a4, 0x800025c0
è¯»å–åœ°å€ 0x800025c0
å†™å…¥åœ°å€ 0x8000bd15
0x800025c0: 00 b7 80 23 sb	a1, 0(a5)
è¯»å–åœ°å€ 0x800025c4
0x800025c4: 00 17 87 93 addi	a5, a5, 1
è¯»å–åœ°å€ 0x800025c8
0x800025c8: fe e7 9c e3 bne	a5, a4, 0x800025c0
è¯»å–åœ°å€ 0x800025c0
å†™å…¥åœ°å€ 0x8000bd16
0x800025c0: 00 b7 80 23 sb	a1, 0(a5)
è¯»å–åœ°å€ 0x800025c4
0x800025c4: 00 17 87 93 addi	a5, a5, 1
è¯»å–åœ°å€ 0x800025c8
0x800025c8: fe e7 9c e3 bne	a5, a4, 0x800025c0
è¯»å–åœ°å€ 0x800025c0
å†™å…¥åœ°å€ 0x8000bd17
0x800025c0: 00 b7 80 23 sb	a1, 0(a5)
è¯»å–åœ°å€ 0x800025c4
0x800025c4: 00 17 87 93 addi	a5, a5, 1
è¯»å–åœ°å€ 0x800025c8
0x800025c8: fe e7 9c e3 bne	a5, a4, 0x800025c0
è¯»å–åœ°å€ 0x800025c0
å†™å…¥åœ°å€ 0x8000bd18
0x800025c0: 00 b7 80 23 sb	a1, 0(a5)
è¯»å–åœ°å€ 0x800025c4
0x800025c4: 00 17 87 93 addi	a5, a5, 1
è¯»å–åœ°å€ 0x800025c8
0x800025c8: fe e7 9c e3 bne	a5, a4, 0x800025c0
è¯»å–åœ°å€ 0x800025c0
å†™å…¥åœ°å€ 0x8000bd19
0x800025c0: 00 b7 80 23 sb	a1, 0(a5)
è¯»å–åœ°å€ 0x800025c4
0x800025c4: 00 17 87 93 addi	a5, a5, 1
è¯»å–åœ°å€ 0x800025c8
0x800025c8: fe e7 9c e3 bne	a5, a4, 0x800025c0
è¯»å–åœ°å€ 0x800025c0
å†™å…¥åœ°å€ 0x8000bd1a
0x800025c0: 00 b7 80 23 sb	a1, 0(a5)
è¯»å–åœ°å€ 0x800025c4
0x800025c4: 00 17 87 93 addi	a5, a5, 1
è¯»å–åœ°å€ 0x800025c8
0x800025c8: fe e7 9c e3 bne	a5, a4, 0x800025c0
è¯»å–åœ°å€ 0x800025c0
å†™å…¥åœ°å€ 0x8000bd1b
0x800025c0: 00 b7 80 23 sb	a1, 0(a5)
è¯»å–åœ°å€ 0x800025c4
0x800025c4: 00 17 87 93 addi	a5, a5, 1
è¯»å–åœ°å€ 0x800025c8
0x800025c8: fe e7 9c e3 bne	a5, a4, 0x800025c0
è¯»å–åœ°å€ 0x800025c0
å†™å…¥åœ°å€ 0x8000bd1c
0x800025c0: 00 b7 80 23 sb	a1, 0(a5)
è¯»å–åœ°å€ 0x800025c4
0x800025c4: 00 17 87 93 addi	a5, a5, 1
è¯»å–åœ°å€ 0x800025c8
0x800025c8: fe e7 9c e3 bne	a5, a4, 0x800025c0
è¯»å–åœ°å€ 0x800025c0
å†™å…¥åœ°å€ 0x8000bd1d
0x800025c0: 00 b7 80 23 sb	a1, 0(a5)
è¯»å–åœ°å€ 0x800025c4
0x800025c4: 00 17 87 93 addi	a5, a5, 1
è¯»å–åœ°å€ 0x800025c8
0x800025c8: fe e7 9c e3 bne	a5, a4, 0x800025c0
è¯»å–åœ°å€ 0x800025c0
å†™å…¥åœ°å€ 0x8000bd1e
0x800025c0: 00 b7 80 23 sb	a1, 0(a5)
è¯»å–åœ°å€ 0x800025c4
0x800025c4: 00 17 87 93 addi	a5, a5, 1
è¯»å–åœ°å€ 0x800025c8
0x800025c8: fe e7 9c e3 bne	a5, a4, 0x800025c0
è¯»å–åœ°å€ 0x800025c0
å†™å…¥åœ°å€ 0x8000bd1f
0x800025c0: 00 b7 80 23 sb	a1, 0(a5)
è¯»å–åœ°å€ 0x800025c4
0x800025c4: 00 17 87 93 addi	a5, a5, 1
è¯»å–åœ°å€ 0x800025c8
0x800025c8: fe e7 9c e3 bne	a5, a4, 0x800025c0
è¯»å–åœ°å€ 0x800025c0
å†™å…¥åœ°å€ 0x8000bd20
0x800025c0: 00 b7 80 23 sb	a1, 0(a5)
è¯»å–åœ°å€ 0x800025c4
0x800025c4: 00 17 87 93 addi	a5, a5, 1
è¯»å–åœ°å€ 0x800025c8
0x800025c8: fe e7 9c e3 bne	a5, a4, 0x800025c0
è¯»å–åœ°å€ 0x800025c0
å†™å…¥åœ°å€ 0x8000bd21
0x800025c0: 00 b7 80 23 sb	a1, 0(a5)
è¯»å–åœ°å€ 0x800025c4
0x800025c4: 00 17 87 93 addi	a5, a5, 1
è¯»å–åœ°å€ 0x800025c8
0x800025c8: fe e7 9c e3 bne	a5, a4, 0x800025c0
è¯»å–åœ°å€ 0x800025c0
å†™å…¥åœ°å€ 0x8000bd22
0x800025c0: 00 b7 80 23 sb	a1, 0(a5)
è¯»å–åœ°å€ 0x800025c4
0x800025c4: 00 17 87 93 addi	a5, a5, 1
è¯»å–åœ°å€ 0x800025c8
0x800025c8: fe e7 9c e3 bne	a5, a4, 0x800025c0
è¯»å–åœ°å€ 0x800025c0
å†™å…¥åœ°å€ 0x8000bd23
0x800025c0: 00 b7 80 23 sb	a1, 0(a5)
è¯»å–åœ°å€ 0x800025c4
0x800025c4: 00 17 87 93 addi	a5, a5, 1
è¯»å–åœ°å€ 0x800025c8
0x800025c8: fe e7 9c e3 bne	a5, a4, 0x800025c0
è¯»å–åœ°å€ 0x800025c0
å†™å…¥åœ°å€ 0x8000bd24
0x800025c0: 00 b7 80 23 sb	a1, 0(a5)
è¯»å–åœ°å€ 0x800025c4
0x800025c4: 00 17 87 93 addi	a5, a5, 1
è¯»å–åœ°å€ 0x800025c8
0x800025c8: fe e7 9c e3 bne	a5, a4, 0x800025c0
è¯»å–åœ°å€ 0x800025c0
å†™å…¥åœ°å€ 0x8000bd25
0x800025c0: 00 b7 80 23 sb	a1, 0(a5)
è¯»å–åœ°å€ 0x800025c4
0x800025c4: 00 17 87 93 addi	a5, a5, 1
è¯»å–åœ°å€ 0x800025c8
0x800025c8: fe e7 9c e3 bne	a5, a4, 0x800025c0
è¯»å–åœ°å€ 0x800025c0
å†™å…¥åœ°å€ 0x8000bd26
0x800025c0: 00 b7 80 23 sb	a1, 0(a5)
è¯»å–åœ°å€ 0x800025c4
0x800025c4: 00 17 87 93 addi	a5, a5, 1
è¯»å–åœ°å€ 0x800025c8
0x800025c8: fe e7 9c e3 bne	a5, a4, 0x800025c0
è¯»å–åœ°å€ 0x800025c0
å†™å…¥åœ°å€ 0x8000bd27
0x800025c0: 00 b7 80 23 sb	a1, 0(a5)
è¯»å–åœ°å€ 0x800025c4
0x800025c4: 00 17 87 93 addi	a5, a5, 1
è¯»å–åœ°å€ 0x800025c8
0x800025c8: fe e7 9c e3 bne	a5, a4, 0x800025c0
è¯»å–åœ°å€ 0x800025c0
å†™å…¥åœ°å€ 0x8000bd28
0x800025c0: 00 b7 80 23 sb	a1, 0(a5)
è¯»å–åœ°å€ 0x800025c4
0x800025c4: 00 17 87 93 addi	a5, a5, 1
è¯»å–åœ°å€ 0x800025c8
0x800025c8: fe e7 9c e3 bne	a5, a4, 0x800025c0
è¯»å–åœ°å€ 0x800025c0
å†™å…¥åœ°å€ 0x8000bd29
0x800025c0: 00 b7 80 23 sb	a1, 0(a5)
è¯»å–åœ°å€ 0x800025c4
0x800025c4: 00 17 87 93 addi	a5, a5, 1
è¯»å–åœ°å€ 0x800025c8
0x800025c8: fe e7 9c e3 bne	a5, a4, 0x800025c0
è¯»å–åœ°å€ 0x800025c0
å†™å…¥åœ°å€ 0x8000bd2a
0x800025c0: 00 b7 80 23 sb	a1, 0(a5)
è¯»å–åœ°å€ 0x800025c4
0x800025c4: 00 17 87 93 addi	a5, a5, 1
è¯»å–åœ°å€ 0x800025c8
0x800025c8: fe e7 9c e3 bne	a5, a4, 0x800025c0
è¯»å–åœ°å€ 0x800025c0
å†™å…¥åœ°å€ 0x8000bd2b
0x800025c0: 00 b7 80 23 sb	a1, 0(a5)
è¯»å–åœ°å€ 0x800025c4
0x800025c4: 00 17 87 93 addi	a5, a5, 1
è¯»å–åœ°å€ 0x800025c8
0x800025c8: fe e7 9c e3 bne	a5, a4, 0x800025c0
è¯»å–åœ°å€ 0x800025c0
å†™å…¥åœ°å€ 0x8000bd2c
0x800025c0: 00 b7 80 23 sb	a1, 0(a5)
è¯»å–åœ°å€ 0x800025c4
0x800025c4: 00 17 87 93 addi	a5, a5, 1
è¯»å–åœ°å€ 0x800025c8
0x800025c8: fe e7 9c e3 bne	a5, a4, 0x800025c0
è¯»å–åœ°å€ 0x800025c0
å†™å…¥åœ°å€ 0x8000bd2d
0x800025c0: 00 b7 80 23 sb	a1, 0(a5)
è¯»å–åœ°å€ 0x800025c4
0x800025c4: 00 17 87 93 addi	a5, a5, 1
è¯»å–åœ°å€ 0x800025c8
0x800025c8: fe e7 9c e3 bne	a5, a4, 0x800025c0
è¯»å–åœ°å€ 0x800025c0
å†™å…¥åœ°å€ 0x8000bd2e
0x800025c0: 00 b7 80 23 sb	a1, 0(a5)
è¯»å–åœ°å€ 0x800025c4
0x800025c4: 00 17 87 93 addi	a5, a5, 1
è¯»å–åœ°å€ 0x800025c8
0x800025c8: fe e7 9c e3 bne	a5, a4, 0x800025c0
è¯»å–åœ°å€ 0x800025c0
å†™å…¥åœ°å€ 0x8000bd2f
0x800025c0: 00 b7 80 23 sb	a1, 0(a5)
è¯»å–åœ°å€ 0x800025c4
0x800025c4: 00 17 87 93 addi	a5, a5, 1
è¯»å–åœ°å€ 0x800025c8
0x800025c8: fe e7 9c e3 bne	a5, a4, 0x800025c0
è¯»å–åœ°å€ 0x800025c0
å†™å…¥åœ°å€ 0x8000bd30
0x800025c0: 00 b7 80 23 sb	a1, 0(a5)
è¯»å–åœ°å€ 0x800025c4
0x800025c4: 00 17 87 93 addi	a5, a5, 1
è¯»å–åœ°å€ 0x800025c8
0x800025c8: fe e7 9c e3 bne	a5, a4, 0x800025c0
è¯»å–åœ°å€ 0x800025c0
å†™å…¥åœ°å€ 0x8000bd31
0x800025c0: 00 b7 80 23 sb	a1, 0(a5)
è¯»å–åœ°å€ 0x800025c4
0x800025c4: 00 17 87 93 addi	a5, a5, 1
è¯»å–åœ°å€ 0x800025c8
0x800025c8: fe e7 9c e3 bne	a5, a4, 0x800025c0
è¯»å–åœ°å€ 0x800025c0
å†™å…¥åœ°å€ 0x8000bd32
0x800025c0: 00 b7 80 23 sb	a1, 0(a5)
è¯»å–åœ°å€ 0x800025c4
0x800025c4: 00 17 87 93 addi	a5, a5, 1
è¯»å–åœ°å€ 0x800025c8
0x800025c8: fe e7 9c e3 bne	a5, a4, 0x800025c0
è¯»å–åœ°å€ 0x800025c0
å†™å…¥åœ°å€ 0x8000bd33
0x800025c0: 00 b7 80 23 sb	a1, 0(a5)
è¯»å–åœ°å€ 0x800025c4
0x800025c4: 00 17 87 93 addi	a5, a5, 1
è¯»å–åœ°å€ 0x800025c8
0x800025c8: fe e7 9c e3 bne	a5, a4, 0x800025c0
è¯»å–åœ°å€ 0x800025c0
å†™å…¥åœ°å€ 0x8000bd34
0x800025c0: 00 b7 80 23 sb	a1, 0(a5)
è¯»å–åœ°å€ 0x800025c4
0x800025c4: 00 17 87 93 addi	a5, a5, 1
è¯»å–åœ°å€ 0x800025c8
0x800025c8: fe e7 9c e3 bne	a5, a4, 0x800025c0
è¯»å–åœ°å€ 0x800025c0
å†™å…¥åœ°å€ 0x8000bd35
0x800025c0: 00 b7 80 23 sb	a1, 0(a5)
è¯»å–åœ°å€ 0x800025c4
0x800025c4: 00 17 87 93 addi	a5, a5, 1
è¯»å–åœ°å€ 0x800025c8
0x800025c8: fe e7 9c e3 bne	a5, a4, 0x800025c0
è¯»å–åœ°å€ 0x800025c0
å†™å…¥åœ°å€ 0x8000bd36
0x800025c0: 00 b7 80 23 sb	a1, 0(a5)
è¯»å–åœ°å€ 0x800025c4
0x800025c4: 00 17 87 93 addi	a5, a5, 1
è¯»å–åœ°å€ 0x800025c8
0x800025c8: fe e7 9c e3 bne	a5, a4, 0x800025c0
è¯»å–åœ°å€ 0x800025c0
å†™å…¥åœ°å€ 0x8000bd37
0x800025c0: 00 b7 80 23 sb	a1, 0(a5)
è¯»å–åœ°å€ 0x800025c4
0x800025c4: 00 17 87 93 addi	a5, a5, 1
è¯»å–åœ°å€ 0x800025c8
0x800025c8: fe e7 9c e3 bne	a5, a4, 0x800025c0
è¯»å–åœ°å€ 0x800025c0
å†™å…¥åœ°å€ 0x8000bd38
0x800025c0: 00 b7 80 23 sb	a1, 0(a5)
è¯»å–åœ°å€ 0x800025c4
0x800025c4: 00 17 87 93 addi	a5, a5, 1
è¯»å–åœ°å€ 0x800025c8
0x800025c8: fe e7 9c e3 bne	a5, a4, 0x800025c0
è¯»å–åœ°å€ 0x800025c0
å†™å…¥åœ°å€ 0x8000bd39
0x800025c0: 00 b7 80 23 sb	a1, 0(a5)
è¯»å–åœ°å€ 0x800025c4
0x800025c4: 00 17 87 93 addi	a5, a5, 1
è¯»å–åœ°å€ 0x800025c8
0x800025c8: fe e7 9c e3 bne	a5, a4, 0x800025c0
è¯»å–åœ°å€ 0x800025c0
å†™å…¥åœ°å€ 0x8000bd3a
0x800025c0: 00 b7 80 23 sb	a1, 0(a5)
è¯»å–åœ°å€ 0x800025c4
0x800025c4: 00 17 87 93 addi	a5, a5, 1
è¯»å–åœ°å€ 0x800025c8
0x800025c8: fe e7 9c e3 bne	a5, a4, 0x800025c0
è¯»å–åœ°å€ 0x800025c0
å†™å…¥åœ°å€ 0x8000bd3b
0x800025c0: 00 b7 80 23 sb	a1, 0(a5)
è¯»å–åœ°å€ 0x800025c4
0x800025c4: 00 17 87 93 addi	a5, a5, 1
è¯»å–åœ°å€ 0x800025c8
0x800025c8: fe e7 9c e3 bne	a5, a4, 0x800025c0
è¯»å–åœ°å€ 0x800025c0
å†™å…¥åœ°å€ 0x8000bd3c
0x800025c0: 00 b7 80 23 sb	a1, 0(a5)
è¯»å–åœ°å€ 0x800025c4
0x800025c4: 00 17 87 93 addi	a5, a5, 1
è¯»å–åœ°å€ 0x800025c8
0x800025c8: fe e7 9c e3 bne	a5, a4, 0x800025c0
è¯»å–åœ°å€ 0x800025c0
å†™å…¥åœ°å€ 0x8000bd3d
0x800025c0: 00 b7 80 23 sb	a1, 0(a5)
è¯»å–åœ°å€ 0x800025c4
0x800025c4: 00 17 87 93 addi	a5, a5, 1
è¯»å–åœ°å€ 0x800025c8
0x800025c8: fe e7 9c e3 bne	a5, a4, 0x800025c0
è¯»å–åœ°å€ 0x800025c0
å†™å…¥åœ°å€ 0x8000bd3e
0x800025c0: 00 b7 80 23 sb	a1, 0(a5)
è¯»å–åœ°å€ 0x800025c4
0x800025c4: 00 17 87 93 addi	a5, a5, 1
è¯»å–åœ°å€ 0x800025c8
0x800025c8: fe e7 9c e3 bne	a5, a4, 0x800025c0
è¯»å–åœ°å€ 0x800025c0
å†™å…¥åœ°å€ 0x8000bd3f
0x800025c0: 00 b7 80 23 sb	a1, 0(a5)
è¯»å–åœ°å€ 0x800025c4
0x800025c4: 00 17 87 93 addi	a5, a5, 1
è¯»å–åœ°å€ 0x800025c8
0x800025c8: fe e7 9c e3 bne	a5, a4, 0x800025c0
è¯»å–åœ°å€ 0x800025c0
å†™å…¥åœ°å€ 0x8000bd40
0x800025c0: 00 b7 80 23 sb	a1, 0(a5)
è¯»å–åœ°å€ 0x800025c4
0x800025c4: 00 17 87 93 addi	a5, a5, 1
è¯»å–åœ°å€ 0x800025c8
0x800025c8: fe e7 9c e3 bne	a5, a4, 0x800025c0
è¯»å–åœ°å€ 0x800025c0
å†™å…¥åœ°å€ 0x8000bd41
0x800025c0: 00 b7 80 23 sb	a1, 0(a5)
è¯»å–åœ°å€ 0x800025c4
0x800025c4: 00 17 87 93 addi	a5, a5, 1
è¯»å–åœ°å€ 0x800025c8
0x800025c8: fe e7 9c e3 bne	a5, a4, 0x800025c0
è¯»å–åœ°å€ 0x800025c0
å†™å…¥åœ°å€ 0x8000bd42
0x800025c0: 00 b7 80 23 sb	a1, 0(a5)
è¯»å–åœ°å€ 0x800025c4
0x800025c4: 00 17 87 93 addi	a5, a5, 1
è¯»å–åœ°å€ 0x800025c8
0x800025c8: fe e7 9c e3 bne	a5, a4, 0x800025c0
è¯»å–åœ°å€ 0x800025c0
å†™å…¥åœ°å€ 0x8000bd43
0x800025c0: 00 b7 80 23 sb	a1, 0(a5)
è¯»å–åœ°å€ 0x800025c4
0x800025c4: 00 17 87 93 addi	a5, a5, 1
è¯»å–åœ°å€ 0x800025c8
0x800025c8: fe e7 9c e3 bne	a5, a4, 0x800025c0
è¯»å–åœ°å€ 0x800025c0
å†™å…¥åœ°å€ 0x8000bd44
0x800025c0: 00 b7 80 23 sb	a1, 0(a5)
è¯»å–åœ°å€ 0x800025c4
0x800025c4: 00 17 87 93 addi	a5, a5, 1
è¯»å–åœ°å€ 0x800025c8
0x800025c8: fe e7 9c e3 bne	a5, a4, 0x800025c0
è¯»å–åœ°å€ 0x800025c0
å†™å…¥åœ°å€ 0x8000bd45
0x800025c0: 00 b7 80 23 sb	a1, 0(a5)
è¯»å–åœ°å€ 0x800025c4
0x800025c4: 00 17 87 93 addi	a5, a5, 1
è¯»å–åœ°å€ 0x800025c8
0x800025c8: fe e7 9c e3 bne	a5, a4, 0x800025c0
è¯»å–åœ°å€ 0x800025c0
å†™å…¥åœ°å€ 0x8000bd46
0x800025c0: 00 b7 80 23 sb	a1, 0(a5)
è¯»å–åœ°å€ 0x800025c4
0x800025c4: 00 17 87 93 addi	a5, a5, 1
è¯»å–åœ°å€ 0x800025c8
0x800025c8: fe e7 9c e3 bne	a5, a4, 0x800025c0
è¯»å–åœ°å€ 0x800025c0
å†™å…¥åœ°å€ 0x8000bd47
0x800025c0: 00 b7 80 23 sb	a1, 0(a5)
è¯»å–åœ°å€ 0x800025c4
0x800025c4: 00 17 87 93 addi	a5, a5, 1
è¯»å–åœ°å€ 0x800025c8
0x800025c8: fe e7 9c e3 bne	a5, a4, 0x800025c0
è¯»å–åœ°å€ 0x800025c0
å†™å…¥åœ°å€ 0x8000bd48
0x800025c0: 00 b7 80 23 sb	a1, 0(a5)
è¯»å–åœ°å€ 0x800025c4
0x800025c4: 00 17 87 93 addi	a5, a5, 1
è¯»å–åœ°å€ 0x800025c8
0x800025c8: fe e7 9c e3 bne	a5, a4, 0x800025c0
è¯»å–åœ°å€ 0x800025c0
å†™å…¥åœ°å€ 0x8000bd49
0x800025c0: 00 b7 80 23 sb	a1, 0(a5)
è¯»å–åœ°å€ 0x800025c4
0x800025c4: 00 17 87 93 addi	a5, a5, 1
è¯»å–åœ°å€ 0x800025c8
0x800025c8: fe e7 9c e3 bne	a5, a4, 0x800025c0
è¯»å–åœ°å€ 0x800025c0
å†™å…¥åœ°å€ 0x8000bd4a
0x800025c0: 00 b7 80 23 sb	a1, 0(a5)
è¯»å–åœ°å€ 0x800025c4
0x800025c4: 00 17 87 93 addi	a5, a5, 1
è¯»å–åœ°å€ 0x800025c8
0x800025c8: fe e7 9c e3 bne	a5, a4, 0x800025c0
è¯»å–åœ°å€ 0x800025c0
å†™å…¥åœ°å€ 0x8000bd4b
0x800025c0: 00 b7 80 23 sb	a1, 0(a5)
è¯»å–åœ°å€ 0x800025c4
0x800025c4: 00 17 87 93 addi	a5, a5, 1
è¯»å–åœ°å€ 0x800025c8
0x800025c8: fe e7 9c e3 bne	a5, a4, 0x800025c0
è¯»å–åœ°å€ 0x800025c0
å†™å…¥åœ°å€ 0x8000bd4c
0x800025c0: 00 b7 80 23 sb	a1, 0(a5)
è¯»å–åœ°å€ 0x800025c4
0x800025c4: 00 17 87 93 addi	a5, a5, 1
è¯»å–åœ°å€ 0x800025c8
0x800025c8: fe e7 9c e3 bne	a5, a4, 0x800025c0
è¯»å–åœ°å€ 0x800025c0
å†™å…¥åœ°å€ 0x8000bd4d
0x800025c0: 00 b7 80 23 sb	a1, 0(a5)
è¯»å–åœ°å€ 0x800025c4
0x800025c4: 00 17 87 93 addi	a5, a5, 1
è¯»å–åœ°å€ 0x800025c8
0x800025c8: fe e7 9c e3 bne	a5, a4, 0x800025c0
è¯»å–åœ°å€ 0x800025c0
å†™å…¥åœ°å€ 0x8000bd4e
0x800025c0: 00 b7 80 23 sb	a1, 0(a5)
è¯»å–åœ°å€ 0x800025c4
0x800025c4: 00 17 87 93 addi	a5, a5, 1
è¯»å–åœ°å€ 0x800025c8
0x800025c8: fe e7 9c e3 bne	a5, a4, 0x800025c0
è¯»å–åœ°å€ 0x800025c0
å†™å…¥åœ°å€ 0x8000bd4f
0x800025c0: 00 b7 80 23 sb	a1, 0(a5)
è¯»å–åœ°å€ 0x800025c4
0x800025c4: 00 17 87 93 addi	a5, a5, 1
è¯»å–åœ°å€ 0x800025c8
0x800025c8: fe e7 9c e3 bne	a5, a4, 0x800025c0
è¯»å–åœ°å€ 0x800025c0
å†™å…¥åœ°å€ 0x8000bd50
0x800025c0: 00 b7 80 23 sb	a1, 0(a5)
è¯»å–åœ°å€ 0x800025c4
0x800025c4: 00 17 87 93 addi	a5, a5, 1
è¯»å–åœ°å€ 0x800025c8
0x800025c8: fe e7 9c e3 bne	a5, a4, 0x800025c0
è¯»å–åœ°å€ 0x800025c0
å†™å…¥åœ°å€ 0x8000bd51
0x800025c0: 00 b7 80 23 sb	a1, 0(a5)
è¯»å–åœ°å€ 0x800025c4
0x800025c4: 00 17 87 93 addi	a5, a5, 1
è¯»å–åœ°å€ 0x800025c8
0x800025c8: fe e7 9c e3 bne	a5, a4, 0x800025c0
è¯»å–åœ°å€ 0x800025c0
å†™å…¥åœ°å€ 0x8000bd52
0x800025c0: 00 b7 80 23 sb	a1, 0(a5)
è¯»å–åœ°å€ 0x800025c4
0x800025c4: 00 17 87 93 addi	a5, a5, 1
è¯»å–åœ°å€ 0x800025c8
0x800025c8: fe e7 9c e3 bne	a5, a4, 0x800025c0
è¯»å–åœ°å€ 0x800025c0
å†™å…¥åœ°å€ 0x8000bd53
0x800025c0: 00 b7 80 23 sb	a1, 0(a5)
è¯»å–åœ°å€ 0x800025c4
0x800025c4: 00 17 87 93 addi	a5, a5, 1
è¯»å–åœ°å€ 0x800025c8
0x800025c8: fe e7 9c e3 bne	a5, a4, 0x800025c0
è¯»å–åœ°å€ 0x800025c0
å†™å…¥åœ°å€ 0x8000bd54
0x800025c0: 00 b7 80 23 sb	a1, 0(a5)
è¯»å–åœ°å€ 0x800025c4
0x800025c4: 00 17 87 93 addi	a5, a5, 1
è¯»å–åœ°å€ 0x800025c8
0x800025c8: fe e7 9c e3 bne	a5, a4, 0x800025c0
è¯»å–åœ°å€ 0x800025c0
å†™å…¥åœ°å€ 0x8000bd55
0x800025c0: 00 b7 80 23 sb	a1, 0(a5)
è¯»å–åœ°å€ 0x800025c4
0x800025c4: 00 17 87 93 addi	a5, a5, 1
è¯»å–åœ°å€ 0x800025c8
0x800025c8: fe e7 9c e3 bne	a5, a4, 0x800025c0
è¯»å–åœ°å€ 0x800025c0
å†™å…¥åœ°å€ 0x8000bd56
0x800025c0: 00 b7 80 23 sb	a1, 0(a5)
è¯»å–åœ°å€ 0x800025c4
0x800025c4: 00 17 87 93 addi	a5, a5, 1
è¯»å–åœ°å€ 0x800025c8
0x800025c8: fe e7 9c e3 bne	a5, a4, 0x800025c0
è¯»å–åœ°å€ 0x800025c0
å†™å…¥åœ°å€ 0x8000bd57
0x800025c0: 00 b7 80 23 sb	a1, 0(a5)
è¯»å–åœ°å€ 0x800025c4
0x800025c4: 00 17 87 93 addi	a5, a5, 1
è¯»å–åœ°å€ 0x800025c8
0x800025c8: fe e7 9c e3 bne	a5, a4, 0x800025c0
è¯»å–åœ°å€ 0x800025c0
å†™å…¥åœ°å€ 0x8000bd58
0x800025c0: 00 b7 80 23 sb	a1, 0(a5)
è¯»å–åœ°å€ 0x800025c4
0x800025c4: 00 17 87 93 addi	a5, a5, 1
è¯»å–åœ°å€ 0x800025c8
0x800025c8: fe e7 9c e3 bne	a5, a4, 0x800025c0
è¯»å–åœ°å€ 0x800025c0
å†™å…¥åœ°å€ 0x8000bd59
0x800025c0: 00 b7 80 23 sb	a1, 0(a5)
è¯»å–åœ°å€ 0x800025c4
0x800025c4: 00 17 87 93 addi	a5, a5, 1
è¯»å–åœ°å€ 0x800025c8
0x800025c8: fe e7 9c e3 bne	a5, a4, 0x800025c0
è¯»å–åœ°å€ 0x800025c0
å†™å…¥åœ°å€ 0x8000bd5a
0x800025c0: 00 b7 80 23 sb	a1, 0(a5)
è¯»å–åœ°å€ 0x800025c4
0x800025c4: 00 17 87 93 addi	a5, a5, 1
è¯»å–åœ°å€ 0x800025c8
0x800025c8: fe e7 9c e3 bne	a5, a4, 0x800025c0
è¯»å–åœ°å€ 0x800025c0
å†™å…¥åœ°å€ 0x8000bd5b
0x800025c0: 00 b7 80 23 sb	a1, 0(a5)
è¯»å–åœ°å€ 0x800025c4
0x800025c4: 00 17 87 93 addi	a5, a5, 1
è¯»å–åœ°å€ 0x800025c8
0x800025c8: fe e7 9c e3 bne	a5, a4, 0x800025c0
è¯»å–åœ°å€ 0x800025c0
å†™å…¥åœ°å€ 0x8000bd5c
0x800025c0: 00 b7 80 23 sb	a1, 0(a5)
è¯»å–åœ°å€ 0x800025c4
0x800025c4: 00 17 87 93 addi	a5, a5, 1
è¯»å–åœ°å€ 0x800025c8
0x800025c8: fe e7 9c e3 bne	a5, a4, 0x800025c0
è¯»å–åœ°å€ 0x800025c0
å†™å…¥åœ°å€ 0x8000bd5d
0x800025c0: 00 b7 80 23 sb	a1, 0(a5)
è¯»å–åœ°å€ 0x800025c4
0x800025c4: 00 17 87 93 addi	a5, a5, 1
è¯»å–åœ°å€ 0x800025c8
0x800025c8: fe e7 9c e3 bne	a5, a4, 0x800025c0
è¯»å–åœ°å€ 0x800025c0
å†™å…¥åœ°å€ 0x8000bd5e
0x800025c0: 00 b7 80 23 sb	a1, 0(a5)
è¯»å–åœ°å€ 0x800025c4
0x800025c4: 00 17 87 93 addi	a5, a5, 1
è¯»å–åœ°å€ 0x800025c8
0x800025c8: fe e7 9c e3 bne	a5, a4, 0x800025c0
è¯»å–åœ°å€ 0x800025c0
å†™å…¥åœ°å€ 0x8000bd5f
0x800025c0: 00 b7 80 23 sb	a1, 0(a5)
è¯»å–åœ°å€ 0x800025c4
0x800025c4: 00 17 87 93 addi	a5, a5, 1
è¯»å–åœ°å€ 0x800025c8
0x800025c8: fe e7 9c e3 bne	a5, a4, 0x800025c0
è¯»å–åœ°å€ 0x800025c0
å†™å…¥åœ°å€ 0x8000bd60
0x800025c0: 00 b7 80 23 sb	a1, 0(a5)
è¯»å–åœ°å€ 0x800025c4
0x800025c4: 00 17 87 93 addi	a5, a5, 1
è¯»å–åœ°å€ 0x800025c8
0x800025c8: fe e7 9c e3 bne	a5, a4, 0x800025c0
è¯»å–åœ°å€ 0x800025c0
å†™å…¥åœ°å€ 0x8000bd61
0x800025c0: 00 b7 80 23 sb	a1, 0(a5)
è¯»å–åœ°å€ 0x800025c4
0x800025c4: 00 17 87 93 addi	a5, a5, 1
è¯»å–åœ°å€ 0x800025c8
0x800025c8: fe e7 9c e3 bne	a5, a4, 0x800025c0
è¯»å–åœ°å€ 0x800025c0
å†™å…¥åœ°å€ 0x8000bd62
0x800025c0: 00 b7 80 23 sb	a1, 0(a5)
è¯»å–åœ°å€ 0x800025c4
0x800025c4: 00 17 87 93 addi	a5, a5, 1
è¯»å–åœ°å€ 0x800025c8
0x800025c8: fe e7 9c e3 bne	a5, a4, 0x800025c0
è¯»å–åœ°å€ 0x800025c0
å†™å…¥åœ°å€ 0x8000bd63
0x800025c0: 00 b7 80 23 sb	a1, 0(a5)
è¯»å–åœ°å€ 0x800025c4
0x800025c4: 00 17 87 93 addi	a5, a5, 1
è¯»å–åœ°å€ 0x800025c8
0x800025c8: fe e7 9c e3 bne	a5, a4, 0x800025c0
è¯»å–åœ°å€ 0x800025c0
å†™å…¥åœ°å€ 0x8000bd64
0x800025c0: 00 b7 80 23 sb	a1, 0(a5)
è¯»å–åœ°å€ 0x800025c4
0x800025c4: 00 17 87 93 addi	a5, a5, 1
è¯»å–åœ°å€ 0x800025c8
0x800025c8: fe e7 9c e3 bne	a5, a4, 0x800025c0
è¯»å–åœ°å€ 0x800025c0
å†™å…¥åœ°å€ 0x8000bd65
0x800025c0: 00 b7 80 23 sb	a1, 0(a5)
è¯»å–åœ°å€ 0x800025c4
0x800025c4: 00 17 87 93 addi	a5, a5, 1
è¯»å–åœ°å€ 0x800025c8
0x800025c8: fe e7 9c e3 bne	a5, a4, 0x800025c0
è¯»å–åœ°å€ 0x800025c0
å†™å…¥åœ°å€ 0x8000bd66
0x800025c0: 00 b7 80 23 sb	a1, 0(a5)
è¯»å–åœ°å€ 0x800025c4
0x800025c4: 00 17 87 93 addi	a5, a5, 1
è¯»å–åœ°å€ 0x800025c8
0x800025c8: fe e7 9c e3 bne	a5, a4, 0x800025c0
è¯»å–åœ°å€ 0x800025c0
å†™å…¥åœ°å€ 0x8000bd67
0x800025c0: 00 b7 80 23 sb	a1, 0(a5)
è¯»å–åœ°å€ 0x800025c4
0x800025c4: 00 17 87 93 addi	a5, a5, 1
è¯»å–åœ°å€ 0x800025c8
0x800025c8: fe e7 9c e3 bne	a5, a4, 0x800025c0
è¯»å–åœ°å€ 0x800025c0
å†™å…¥åœ°å€ 0x8000bd68
0x800025c0: 00 b7 80 23 sb	a1, 0(a5)
è¯»å–åœ°å€ 0x800025c4
0x800025c4: 00 17 87 93 addi	a5, a5, 1
è¯»å–åœ°å€ 0x800025c8
0x800025c8: fe e7 9c e3 bne	a5, a4, 0x800025c0
è¯»å–åœ°å€ 0x800025c0
å†™å…¥åœ°å€ 0x8000bd69
0x800025c0: 00 b7 80 23 sb	a1, 0(a5)
è¯»å–åœ°å€ 0x800025c4
0x800025c4: 00 17 87 93 addi	a5, a5, 1
è¯»å–åœ°å€ 0x800025c8
0x800025c8: fe e7 9c e3 bne	a5, a4, 0x800025c0
è¯»å–åœ°å€ 0x800025c0
å†™å…¥åœ°å€ 0x8000bd6a
0x800025c0: 00 b7 80 23 sb	a1, 0(a5)
è¯»å–åœ°å€ 0x800025c4
0x800025c4: 00 17 87 93 addi	a5, a5, 1
è¯»å–åœ°å€ 0x800025c8
0x800025c8: fe e7 9c e3 bne	a5, a4, 0x800025c0
è¯»å–åœ°å€ 0x800025c0
å†™å…¥åœ°å€ 0x8000bd6b
0x800025c0: 00 b7 80 23 sb	a1, 0(a5)
è¯»å–åœ°å€ 0x800025c4
0x800025c4: 00 17 87 93 addi	a5, a5, 1
è¯»å–åœ°å€ 0x800025c8
0x800025c8: fe e7 9c e3 bne	a5, a4, 0x800025c0
è¯»å–åœ°å€ 0x800025c0
å†™å…¥åœ°å€ 0x8000bd6c
0x800025c0: 00 b7 80 23 sb	a1, 0(a5)
è¯»å–åœ°å€ 0x800025c4
0x800025c4: 00 17 87 93 addi	a5, a5, 1
è¯»å–åœ°å€ 0x800025c8
0x800025c8: fe e7 9c e3 bne	a5, a4, 0x800025c0
è¯»å–åœ°å€ 0x800025c0
å†™å…¥åœ°å€ 0x8000bd6d
0x800025c0: 00 b7 80 23 sb	a1, 0(a5)
è¯»å–åœ°å€ 0x800025c4
0x800025c4: 00 17 87 93 addi	a5, a5, 1
è¯»å–åœ°å€ 0x800025c8
0x800025c8: fe e7 9c e3 bne	a5, a4, 0x800025c0
è¯»å–åœ°å€ 0x800025c0
å†™å…¥åœ°å€ 0x8000bd6e
0x800025c0: 00 b7 80 23 sb	a1, 0(a5)
è¯»å–åœ°å€ 0x800025c4
0x800025c4: 00 17 87 93 addi	a5, a5, 1
è¯»å–åœ°å€ 0x800025c8
0x800025c8: fe e7 9c e3 bne	a5, a4, 0x800025c0
è¯»å–åœ°å€ 0x800025c0
å†™å…¥åœ°å€ 0x8000bd6f
0x800025c0: 00 b7 80 23 sb	a1, 0(a5)
è¯»å–åœ°å€ 0x800025c4
0x800025c4: 00 17 87 93 addi	a5, a5, 1
è¯»å–åœ°å€ 0x800025c8
0x800025c8: fe e7 9c e3 bne	a5, a4, 0x800025c0
è¯»å–åœ°å€ 0x800025c0
å†™å…¥åœ°å€ 0x8000bd70
0x800025c0: 00 b7 80 23 sb	a1, 0(a5)
è¯»å–åœ°å€ 0x800025c4
0x800025c4: 00 17 87 93 addi	a5, a5, 1
è¯»å–åœ°å€ 0x800025c8
0x800025c8: fe e7 9c e3 bne	a5, a4, 0x800025c0
è¯»å–åœ°å€ 0x800025c0
å†™å…¥åœ°å€ 0x8000bd71
0x800025c0: 00 b7 80 23 sb	a1, 0(a5)
è¯»å–åœ°å€ 0x800025c4
0x800025c4: 00 17 87 93 addi	a5, a5, 1
è¯»å–åœ°å€ 0x800025c8
0x800025c8: fe e7 9c e3 bne	a5, a4, 0x800025c0
è¯»å–åœ°å€ 0x800025c0
å†™å…¥åœ°å€ 0x8000bd72
0x800025c0: 00 b7 80 23 sb	a1, 0(a5)
è¯»å–åœ°å€ 0x800025c4
0x800025c4: 00 17 87 93 addi	a5, a5, 1
è¯»å–åœ°å€ 0x800025c8
0x800025c8: fe e7 9c e3 bne	a5, a4, 0x800025c0
è¯»å–åœ°å€ 0x800025c0
å†™å…¥åœ°å€ 0x8000bd73
0x800025c0: 00 b7 80 23 sb	a1, 0(a5)
è¯»å–åœ°å€ 0x800025c4
0x800025c4: 00 17 87 93 addi	a5, a5, 1
è¯»å–åœ°å€ 0x800025c8
0x800025c8: fe e7 9c e3 bne	a5, a4, 0x800025c0
è¯»å–åœ°å€ 0x800025c0
å†™å…¥åœ°å€ 0x8000bd74
0x800025c0: 00 b7 80 23 sb	a1, 0(a5)
è¯»å–åœ°å€ 0x800025c4
0x800025c4: 00 17 87 93 addi	a5, a5, 1
è¯»å–åœ°å€ 0x800025c8
0x800025c8: fe e7 9c e3 bne	a5, a4, 0x800025c0
è¯»å–åœ°å€ 0x800025c0
å†™å…¥åœ°å€ 0x8000bd75
0x800025c0: 00 b7 80 23 sb	a1, 0(a5)
è¯»å–åœ°å€ 0x800025c4
0x800025c4: 00 17 87 93 addi	a5, a5, 1
è¯»å–åœ°å€ 0x800025c8
0x800025c8: fe e7 9c e3 bne	a5, a4, 0x800025c0
è¯»å–åœ°å€ 0x800025c0
å†™å…¥åœ°å€ 0x8000bd76
0x800025c0: 00 b7 80 23 sb	a1, 0(a5)
è¯»å–åœ°å€ 0x800025c4
0x800025c4: 00 17 87 93 addi	a5, a5, 1
è¯»å–åœ°å€ 0x800025c8
0x800025c8: fe e7 9c e3 bne	a5, a4, 0x800025c0
è¯»å–åœ°å€ 0x800025c0
å†™å…¥åœ°å€ 0x8000bd77
0x800025c0: 00 b7 80 23 sb	a1, 0(a5)
è¯»å–åœ°å€ 0x800025c4
0x800025c4: 00 17 87 93 addi	a5, a5, 1
è¯»å–åœ°å€ 0x800025c8
0x800025c8: fe e7 9c e3 bne	a5, a4, 0x800025c0
è¯»å–åœ°å€ 0x800025c0
å†™å…¥åœ°å€ 0x8000bd78
0x800025c0: 00 b7 80 23 sb	a1, 0(a5)
è¯»å–åœ°å€ 0x800025c4
0x800025c4: 00 17 87 93 addi	a5, a5, 1
è¯»å–åœ°å€ 0x800025c8
0x800025c8: fe e7 9c e3 bne	a5, a4, 0x800025c0
è¯»å–åœ°å€ 0x800025c0
å†™å…¥åœ°å€ 0x8000bd79
0x800025c0: 00 b7 80 23 sb	a1, 0(a5)
è¯»å–åœ°å€ 0x800025c4
0x800025c4: 00 17 87 93 addi	a5, a5, 1
è¯»å–åœ°å€ 0x800025c8
0x800025c8: fe e7 9c e3 bne	a5, a4, 0x800025c0
è¯»å–åœ°å€ 0x800025c0
å†™å…¥åœ°å€ 0x8000bd7a
0x800025c0: 00 b7 80 23 sb	a1, 0(a5)
è¯»å–åœ°å€ 0x800025c4
0x800025c4: 00 17 87 93 addi	a5, a5, 1
è¯»å–åœ°å€ 0x800025c8
0x800025c8: fe e7 9c e3 bne	a5, a4, 0x800025c0
è¯»å–åœ°å€ 0x800025c0
å†™å…¥åœ°å€ 0x8000bd7b
0x800025c0: 00 b7 80 23 sb	a1, 0(a5)
è¯»å–åœ°å€ 0x800025c4
0x800025c4: 00 17 87 93 addi	a5, a5, 1
è¯»å–åœ°å€ 0x800025c8
0x800025c8: fe e7 9c e3 bne	a5, a4, 0x800025c0
è¯»å–åœ°å€ 0x800025c0
å†™å…¥åœ°å€ 0x8000bd7c
0x800025c0: 00 b7 80 23 sb	a1, 0(a5)
è¯»å–åœ°å€ 0x800025c4
0x800025c4: 00 17 87 93 addi	a5, a5, 1
è¯»å–åœ°å€ 0x800025c8
0x800025c8: fe e7 9c e3 bne	a5, a4, 0x800025c0
è¯»å–åœ°å€ 0x800025c0
å†™å…¥åœ°å€ 0x8000bd7d
0x800025c0: 00 b7 80 23 sb	a1, 0(a5)
è¯»å–åœ°å€ 0x800025c4
0x800025c4: 00 17 87 93 addi	a5, a5, 1
è¯»å–åœ°å€ 0x800025c8
0x800025c8: fe e7 9c e3 bne	a5, a4, 0x800025c0
è¯»å–åœ°å€ 0x800025c0
å†™å…¥åœ°å€ 0x8000bd7e
0x800025c0: 00 b7 80 23 sb	a1, 0(a5)
è¯»å–åœ°å€ 0x800025c4
0x800025c4: 00 17 87 93 addi	a5, a5, 1
è¯»å–åœ°å€ 0x800025c8
0x800025c8: fe e7 9c e3 bne	a5, a4, 0x800025c0
è¯»å–åœ°å€ 0x800025c0
å†™å…¥åœ°å€ 0x8000bd7f
0x800025c0: 00 b7 80 23 sb	a1, 0(a5)
è¯»å–åœ°å€ 0x800025c4
0x800025c4: 00 17 87 93 addi	a5, a5, 1
è¯»å–åœ°å€ 0x800025c8
0x800025c8: fe e7 9c e3 bne	a5, a4, 0x800025c0
è¯»å–åœ°å€ 0x800025c0
å†™å…¥åœ°å€ 0x8000bd80
0x800025c0: 00 b7 80 23 sb	a1, 0(a5)
è¯»å–åœ°å€ 0x800025c4
0x800025c4: 00 17 87 93 addi	a5, a5, 1
è¯»å–åœ°å€ 0x800025c8
0x800025c8: fe e7 9c e3 bne	a5, a4, 0x800025c0
è¯»å–åœ°å€ 0x800025c0
å†™å…¥åœ°å€ 0x8000bd81
0x800025c0: 00 b7 80 23 sb	a1, 0(a5)
è¯»å–åœ°å€ 0x800025c4
0x800025c4: 00 17 87 93 addi	a5, a5, 1
è¯»å–åœ°å€ 0x800025c8
0x800025c8: fe e7 9c e3 bne	a5, a4, 0x800025c0
è¯»å–åœ°å€ 0x800025c0
å†™å…¥åœ°å€ 0x8000bd82
0x800025c0: 00 b7 80 23 sb	a1, 0(a5)
è¯»å–åœ°å€ 0x800025c4
0x800025c4: 00 17 87 93 addi	a5, a5, 1
è¯»å–åœ°å€ 0x800025c8
0x800025c8: fe e7 9c e3 bne	a5, a4, 0x800025c0
è¯»å–åœ°å€ 0x800025c0
å†™å…¥åœ°å€ 0x8000bd83
0x800025c0: 00 b7 80 23 sb	a1, 0(a5)
è¯»å–åœ°å€ 0x800025c4
0x800025c4: 00 17 87 93 addi	a5, a5, 1
è¯»å–åœ°å€ 0x800025c8
0x800025c8: fe e7 9c e3 bne	a5, a4, 0x800025c0
è¯»å–åœ°å€ 0x800025c0
å†™å…¥åœ°å€ 0x8000bd84
0x800025c0: 00 b7 80 23 sb	a1, 0(a5)
è¯»å–åœ°å€ 0x800025c4
0x800025c4: 00 17 87 93 addi	a5, a5, 1
è¯»å–åœ°å€ 0x800025c8
0x800025c8: fe e7 9c e3 bne	a5, a4, 0x800025c0
è¯»å–åœ°å€ 0x800025c0
å†™å…¥åœ°å€ 0x8000bd85
0x800025c0: 00 b7 80 23 sb	a1, 0(a5)
è¯»å–åœ°å€ 0x800025c4
0x800025c4: 00 17 87 93 addi	a5, a5, 1
è¯»å–åœ°å€ 0x800025c8
0x800025c8: fe e7 9c e3 bne	a5, a4, 0x800025c0
è¯»å–åœ°å€ 0x800025c0
å†™å…¥åœ°å€ 0x8000bd86
0x800025c0: 00 b7 80 23 sb	a1, 0(a5)
è¯»å–åœ°å€ 0x800025c4
0x800025c4: 00 17 87 93 addi	a5, a5, 1
è¯»å–åœ°å€ 0x800025c8
0x800025c8: fe e7 9c e3 bne	a5, a4, 0x800025c0
è¯»å–åœ°å€ 0x800025c0
å†™å…¥åœ°å€ 0x8000bd87
0x800025c0: 00 b7 80 23 sb	a1, 0(a5)
è¯»å–åœ°å€ 0x800025c4
0x800025c4: 00 17 87 93 addi	a5, a5, 1
è¯»å–åœ°å€ 0x800025c8
0x800025c8: fe e7 9c e3 bne	a5, a4, 0x800025c0
è¯»å–åœ°å€ 0x800025c0
å†™å…¥åœ°å€ 0x8000bd88
0x800025c0: 00 b7 80 23 sb	a1, 0(a5)
è¯»å–åœ°å€ 0x800025c4
0x800025c4: 00 17 87 93 addi	a5, a5, 1
è¯»å–åœ°å€ 0x800025c8
0x800025c8: fe e7 9c e3 bne	a5, a4, 0x800025c0
è¯»å–åœ°å€ 0x800025c0
å†™å…¥åœ°å€ 0x8000bd89
0x800025c0: 00 b7 80 23 sb	a1, 0(a5)
è¯»å–åœ°å€ 0x800025c4
0x800025c4: 00 17 87 93 addi	a5, a5, 1
è¯»å–åœ°å€ 0x800025c8
0x800025c8: fe e7 9c e3 bne	a5, a4, 0x800025c0
è¯»å–åœ°å€ 0x800025c0
å†™å…¥åœ°å€ 0x8000bd8a
0x800025c0: 00 b7 80 23 sb	a1, 0(a5)
è¯»å–åœ°å€ 0x800025c4
0x800025c4: 00 17 87 93 addi	a5, a5, 1
è¯»å–åœ°å€ 0x800025c8
0x800025c8: fe e7 9c e3 bne	a5, a4, 0x800025c0
è¯»å–åœ°å€ 0x800025c0
å†™å…¥åœ°å€ 0x8000bd8b
0x800025c0: 00 b7 80 23 sb	a1, 0(a5)
è¯»å–åœ°å€ 0x800025c4
0x800025c4: 00 17 87 93 addi	a5, a5, 1
è¯»å–åœ°å€ 0x800025c8
0x800025c8: fe e7 9c e3 bne	a5, a4, 0x800025c0
è¯»å–åœ°å€ 0x800025c0
å†™å…¥åœ°å€ 0x8000bd8c
0x800025c0: 00 b7 80 23 sb	a1, 0(a5)
è¯»å–åœ°å€ 0x800025c4
0x800025c4: 00 17 87 93 addi	a5, a5, 1
è¯»å–åœ°å€ 0x800025c8
0x800025c8: fe e7 9c e3 bne	a5, a4, 0x800025c0
è¯»å–åœ°å€ 0x800025c0
å†™å…¥åœ°å€ 0x8000bd8d
0x800025c0: 00 b7 80 23 sb	a1, 0(a5)
è¯»å–åœ°å€ 0x800025c4
0x800025c4: 00 17 87 93 addi	a5, a5, 1
è¯»å–åœ°å€ 0x800025c8
0x800025c8: fe e7 9c e3 bne	a5, a4, 0x800025c0
è¯»å–åœ°å€ 0x800025c0
å†™å…¥åœ°å€ 0x8000bd8e
0x800025c0: 00 b7 80 23 sb	a1, 0(a5)
è¯»å–åœ°å€ 0x800025c4
0x800025c4: 00 17 87 93 addi	a5, a5, 1
è¯»å–åœ°å€ 0x800025c8
0x800025c8: fe e7 9c e3 bne	a5, a4, 0x800025c0
è¯»å–åœ°å€ 0x800025c0
å†™å…¥åœ°å€ 0x8000bd8f
0x800025c0: 00 b7 80 23 sb	a1, 0(a5)
è¯»å–åœ°å€ 0x800025c4
0x800025c4: 00 17 87 93 addi	a5, a5, 1
è¯»å–åœ°å€ 0x800025c8
0x800025c8: fe e7 9c e3 bne	a5, a4, 0x800025c0
è¯»å–åœ°å€ 0x800025c0
å†™å…¥åœ°å€ 0x8000bd90
0x800025c0: 00 b7 80 23 sb	a1, 0(a5)
è¯»å–åœ°å€ 0x800025c4
0x800025c4: 00 17 87 93 addi	a5, a5, 1
è¯»å–åœ°å€ 0x800025c8
0x800025c8: fe e7 9c e3 bne	a5, a4, 0x800025c0
è¯»å–åœ°å€ 0x800025c0
å†™å…¥åœ°å€ 0x8000bd91
0x800025c0: 00 b7 80 23 sb	a1, 0(a5)
è¯»å–åœ°å€ 0x800025c4
0x800025c4: 00 17 87 93 addi	a5, a5, 1
è¯»å–åœ°å€ 0x800025c8
0x800025c8: fe e7 9c e3 bne	a5, a4, 0x800025c0
è¯»å–åœ°å€ 0x800025c0
å†™å…¥åœ°å€ 0x8000bd92
0x800025c0: 00 b7 80 23 sb	a1, 0(a5)
è¯»å–åœ°å€ 0x800025c4
0x800025c4: 00 17 87 93 addi	a5, a5, 1
è¯»å–åœ°å€ 0x800025c8
0x800025c8: fe e7 9c e3 bne	a5, a4, 0x800025c0
è¯»å–åœ°å€ 0x800025c0
å†™å…¥åœ°å€ 0x8000bd93
0x800025c0: 00 b7 80 23 sb	a1, 0(a5)
è¯»å–åœ°å€ 0x800025c4
0x800025c4: 00 17 87 93 addi	a5, a5, 1
è¯»å–åœ°å€ 0x800025c8
0x800025c8: fe e7 9c e3 bne	a5, a4, 0x800025c0
è¯»å–åœ°å€ 0x800025c0
å†™å…¥åœ°å€ 0x8000bd94
0x800025c0: 00 b7 80 23 sb	a1, 0(a5)
è¯»å–åœ°å€ 0x800025c4
0x800025c4: 00 17 87 93 addi	a5, a5, 1
è¯»å–åœ°å€ 0x800025c8
0x800025c8: fe e7 9c e3 bne	a5, a4, 0x800025c0
è¯»å–åœ°å€ 0x800025c0
å†™å…¥åœ°å€ 0x8000bd95
0x800025c0: 00 b7 80 23 sb	a1, 0(a5)
è¯»å–åœ°å€ 0x800025c4
0x800025c4: 00 17 87 93 addi	a5, a5, 1
è¯»å–åœ°å€ 0x800025c8
0x800025c8: fe e7 9c e3 bne	a5, a4, 0x800025c0
è¯»å–åœ°å€ 0x800025c0
å†™å…¥åœ°å€ 0x8000bd96
0x800025c0: 00 b7 80 23 sb	a1, 0(a5)
è¯»å–åœ°å€ 0x800025c4
0x800025c4: 00 17 87 93 addi	a5, a5, 1
è¯»å–åœ°å€ 0x800025c8
0x800025c8: fe e7 9c e3 bne	a5, a4, 0x800025c0
è¯»å–åœ°å€ 0x800025c0
å†™å…¥åœ°å€ 0x8000bd97
0x800025c0: 00 b7 80 23 sb	a1, 0(a5)
è¯»å–åœ°å€ 0x800025c4
0x800025c4: 00 17 87 93 addi	a5, a5, 1
è¯»å–åœ°å€ 0x800025c8
0x800025c8: fe e7 9c e3 bne	a5, a4, 0x800025c0
è¯»å–åœ°å€ 0x800025c0
å†™å…¥åœ°å€ 0x8000bd98
0x800025c0: 00 b7 80 23 sb	a1, 0(a5)
è¯»å–åœ°å€ 0x800025c4
0x800025c4: 00 17 87 93 addi	a5, a5, 1
è¯»å–åœ°å€ 0x800025c8
0x800025c8: fe e7 9c e3 bne	a5, a4, 0x800025c0
è¯»å–åœ°å€ 0x800025c0
å†™å…¥åœ°å€ 0x8000bd99
0x800025c0: 00 b7 80 23 sb	a1, 0(a5)
è¯»å–åœ°å€ 0x800025c4
0x800025c4: 00 17 87 93 addi	a5, a5, 1
è¯»å–åœ°å€ 0x800025c8
0x800025c8: fe e7 9c e3 bne	a5, a4, 0x800025c0
è¯»å–åœ°å€ 0x800025c0
å†™å…¥åœ°å€ 0x8000bd9a
0x800025c0: 00 b7 80 23 sb	a1, 0(a5)
è¯»å–åœ°å€ 0x800025c4
0x800025c4: 00 17 87 93 addi	a5, a5, 1
è¯»å–åœ°å€ 0x800025c8
0x800025c8: fe e7 9c e3 bne	a5, a4, 0x800025c0
è¯»å–åœ°å€ 0x800025c0
å†™å…¥åœ°å€ 0x8000bd9b
0x800025c0: 00 b7 80 23 sb	a1, 0(a5)
è¯»å–åœ°å€ 0x800025c4
0x800025c4: 00 17 87 93 addi	a5, a5, 1
è¯»å–åœ°å€ 0x800025c8
0x800025c8: fe e7 9c e3 bne	a5, a4, 0x800025c0
è¯»å–åœ°å€ 0x800025c0
å†™å…¥åœ°å€ 0x8000bd9c
0x800025c0: 00 b7 80 23 sb	a1, 0(a5)
è¯»å–åœ°å€ 0x800025c4
0x800025c4: 00 17 87 93 addi	a5, a5, 1
è¯»å–åœ°å€ 0x800025c8
0x800025c8: fe e7 9c e3 bne	a5, a4, 0x800025c0
è¯»å–åœ°å€ 0x800025c0
å†™å…¥åœ°å€ 0x8000bd9d
0x800025c0: 00 b7 80 23 sb	a1, 0(a5)
è¯»å–åœ°å€ 0x800025c4
0x800025c4: 00 17 87 93 addi	a5, a5, 1
è¯»å–åœ°å€ 0x800025c8
0x800025c8: fe e7 9c e3 bne	a5, a4, 0x800025c0
è¯»å–åœ°å€ 0x800025c0
å†™å…¥åœ°å€ 0x8000bd9e
0x800025c0: 00 b7 80 23 sb	a1, 0(a5)
è¯»å–åœ°å€ 0x800025c4
0x800025c4: 00 17 87 93 addi	a5, a5, 1
è¯»å–åœ°å€ 0x800025c8
0x800025c8: fe e7 9c e3 bne	a5, a4, 0x800025c0
è¯»å–åœ°å€ 0x800025c0
å†™å…¥åœ°å€ 0x8000bd9f
0x800025c0: 00 b7 80 23 sb	a1, 0(a5)
è¯»å–åœ°å€ 0x800025c4
0x800025c4: 00 17 87 93 addi	a5, a5, 1
è¯»å–åœ°å€ 0x800025c8
0x800025c8: fe e7 9c e3 bne	a5, a4, 0x800025c0
è¯»å–åœ°å€ 0x800025c0
å†™å…¥åœ°å€ 0x8000bda0
0x800025c0: 00 b7 80 23 sb	a1, 0(a5)
è¯»å–åœ°å€ 0x800025c4
0x800025c4: 00 17 87 93 addi	a5, a5, 1
è¯»å–åœ°å€ 0x800025c8
0x800025c8: fe e7 9c e3 bne	a5, a4, 0x800025c0
è¯»å–åœ°å€ 0x800025c0
å†™å…¥åœ°å€ 0x8000bda1
0x800025c0: 00 b7 80 23 sb	a1, 0(a5)
è¯»å–åœ°å€ 0x800025c4
0x800025c4: 00 17 87 93 addi	a5, a5, 1
è¯»å–åœ°å€ 0x800025c8
0x800025c8: fe e7 9c e3 bne	a5, a4, 0x800025c0
è¯»å–åœ°å€ 0x800025c0
å†™å…¥åœ°å€ 0x8000bda2
0x800025c0: 00 b7 80 23 sb	a1, 0(a5)
è¯»å–åœ°å€ 0x800025c4
0x800025c4: 00 17 87 93 addi	a5, a5, 1
è¯»å–åœ°å€ 0x800025c8
0x800025c8: fe e7 9c e3 bne	a5, a4, 0x800025c0
è¯»å–åœ°å€ 0x800025c0
å†™å…¥åœ°å€ 0x8000bda3
0x800025c0: 00 b7 80 23 sb	a1, 0(a5)
è¯»å–åœ°å€ 0x800025c4
0x800025c4: 00 17 87 93 addi	a5, a5, 1
è¯»å–åœ°å€ 0x800025c8
0x800025c8: fe e7 9c e3 bne	a5, a4, 0x800025c0
è¯»å–åœ°å€ 0x800025c0
å†™å…¥åœ°å€ 0x8000bda4
0x800025c0: 00 b7 80 23 sb	a1, 0(a5)
è¯»å–åœ°å€ 0x800025c4
0x800025c4: 00 17 87 93 addi	a5, a5, 1
è¯»å–åœ°å€ 0x800025c8
0x800025c8: fe e7 9c e3 bne	a5, a4, 0x800025c0
è¯»å–åœ°å€ 0x800025c0
å†™å…¥åœ°å€ 0x8000bda5
0x800025c0: 00 b7 80 23 sb	a1, 0(a5)
è¯»å–åœ°å€ 0x800025c4
0x800025c4: 00 17 87 93 addi	a5, a5, 1
è¯»å–åœ°å€ 0x800025c8
0x800025c8: fe e7 9c e3 bne	a5, a4, 0x800025c0
è¯»å–åœ°å€ 0x800025c0
å†™å…¥åœ°å€ 0x8000bda6
0x800025c0: 00 b7 80 23 sb	a1, 0(a5)
è¯»å–åœ°å€ 0x800025c4
0x800025c4: 00 17 87 93 addi	a5, a5, 1
è¯»å–åœ°å€ 0x800025c8
0x800025c8: fe e7 9c e3 bne	a5, a4, 0x800025c0
è¯»å–åœ°å€ 0x800025c0
å†™å…¥åœ°å€ 0x8000bda7
0x800025c0: 00 b7 80 23 sb	a1, 0(a5)
è¯»å–åœ°å€ 0x800025c4
0x800025c4: 00 17 87 93 addi	a5, a5, 1
è¯»å–åœ°å€ 0x800025c8
0x800025c8: fe e7 9c e3 bne	a5, a4, 0x800025c0
è¯»å–åœ°å€ 0x800025c0
å†™å…¥åœ°å€ 0x8000bda8
0x800025c0: 00 b7 80 23 sb	a1, 0(a5)
è¯»å–åœ°å€ 0x800025c4
0x800025c4: 00 17 87 93 addi	a5, a5, 1
è¯»å–åœ°å€ 0x800025c8
0x800025c8: fe e7 9c e3 bne	a5, a4, 0x800025c0
è¯»å–åœ°å€ 0x800025c0
å†™å…¥åœ°å€ 0x8000bda9
0x800025c0: 00 b7 80 23 sb	a1, 0(a5)
è¯»å–åœ°å€ 0x800025c4
0x800025c4: 00 17 87 93 addi	a5, a5, 1
è¯»å–åœ°å€ 0x800025c8
0x800025c8: fe e7 9c e3 bne	a5, a4, 0x800025c0
è¯»å–åœ°å€ 0x800025c0
å†™å…¥åœ°å€ 0x8000bdaa
0x800025c0: 00 b7 80 23 sb	a1, 0(a5)
è¯»å–åœ°å€ 0x800025c4
0x800025c4: 00 17 87 93 addi	a5, a5, 1
è¯»å–åœ°å€ 0x800025c8
0x800025c8: fe e7 9c e3 bne	a5, a4, 0x800025c0
è¯»å–åœ°å€ 0x800025c0
å†™å…¥åœ°å€ 0x8000bdab
0x800025c0: 00 b7 80 23 sb	a1, 0(a5)
è¯»å–åœ°å€ 0x800025c4
0x800025c4: 00 17 87 93 addi	a5, a5, 1
è¯»å–åœ°å€ 0x800025c8
0x800025c8: fe e7 9c e3 bne	a5, a4, 0x800025c0
è¯»å–åœ°å€ 0x800025c0
å†™å…¥åœ°å€ 0x8000bdac
0x800025c0: 00 b7 80 23 sb	a1, 0(a5)
è¯»å–åœ°å€ 0x800025c4
0x800025c4: 00 17 87 93 addi	a5, a5, 1
è¯»å–åœ°å€ 0x800025c8
0x800025c8: fe e7 9c e3 bne	a5, a4, 0x800025c0
è¯»å–åœ°å€ 0x800025c0
å†™å…¥åœ°å€ 0x8000bdad
0x800025c0: 00 b7 80 23 sb	a1, 0(a5)
è¯»å–åœ°å€ 0x800025c4
0x800025c4: 00 17 87 93 addi	a5, a5, 1
è¯»å–åœ°å€ 0x800025c8
0x800025c8: fe e7 9c e3 bne	a5, a4, 0x800025c0
è¯»å–åœ°å€ 0x800025c0
å†™å…¥åœ°å€ 0x8000bdae
0x800025c0: 00 b7 80 23 sb	a1, 0(a5)
è¯»å–åœ°å€ 0x800025c4
0x800025c4: 00 17 87 93 addi	a5, a5, 1
è¯»å–åœ°å€ 0x800025c8
0x800025c8: fe e7 9c e3 bne	a5, a4, 0x800025c0
è¯»å–åœ°å€ 0x800025c0
å†™å…¥åœ°å€ 0x8000bdaf
0x800025c0: 00 b7 80 23 sb	a1, 0(a5)
è¯»å–åœ°å€ 0x800025c4
0x800025c4: 00 17 87 93 addi	a5, a5, 1
è¯»å–åœ°å€ 0x800025c8
0x800025c8: fe e7 9c e3 bne	a5, a4, 0x800025c0
è¯»å–åœ°å€ 0x800025c0
å†™å…¥åœ°å€ 0x8000bdb0
0x800025c0: 00 b7 80 23 sb	a1, 0(a5)
è¯»å–åœ°å€ 0x800025c4
0x800025c4: 00 17 87 93 addi	a5, a5, 1
è¯»å–åœ°å€ 0x800025c8
0x800025c8: fe e7 9c e3 bne	a5, a4, 0x800025c0
è¯»å–åœ°å€ 0x800025c0
å†™å…¥åœ°å€ 0x8000bdb1
0x800025c0: 00 b7 80 23 sb	a1, 0(a5)
è¯»å–åœ°å€ 0x800025c4
0x800025c4: 00 17 87 93 addi	a5, a5, 1
è¯»å–åœ°å€ 0x800025c8
0x800025c8: fe e7 9c e3 bne	a5, a4, 0x800025c0
è¯»å–åœ°å€ 0x800025c0
å†™å…¥åœ°å€ 0x8000bdb2
0x800025c0: 00 b7 80 23 sb	a1, 0(a5)
è¯»å–åœ°å€ 0x800025c4
0x800025c4: 00 17 87 93 addi	a5, a5, 1
è¯»å–åœ°å€ 0x800025c8
0x800025c8: fe e7 9c e3 bne	a5, a4, 0x800025c0
è¯»å–åœ°å€ 0x800025c0
å†™å…¥åœ°å€ 0x8000bdb3
0x800025c0: 00 b7 80 23 sb	a1, 0(a5)
è¯»å–åœ°å€ 0x800025c4
0x800025c4: 00 17 87 93 addi	a5, a5, 1
è¯»å–åœ°å€ 0x800025c8
0x800025c8: fe e7 9c e3 bne	a5, a4, 0x800025c0
è¯»å–åœ°å€ 0x800025c0
å†™å…¥åœ°å€ 0x8000bdb4
0x800025c0: 00 b7 80 23 sb	a1, 0(a5)
è¯»å–åœ°å€ 0x800025c4
0x800025c4: 00 17 87 93 addi	a5, a5, 1
è¯»å–åœ°å€ 0x800025c8
0x800025c8: fe e7 9c e3 bne	a5, a4, 0x800025c0
è¯»å–åœ°å€ 0x800025c0
å†™å…¥åœ°å€ 0x8000bdb5
0x800025c0: 00 b7 80 23 sb	a1, 0(a5)
è¯»å–åœ°å€ 0x800025c4
0x800025c4: 00 17 87 93 addi	a5, a5, 1
è¯»å–åœ°å€ 0x800025c8
0x800025c8: fe e7 9c e3 bne	a5, a4, 0x800025c0
è¯»å–åœ°å€ 0x800025c0
å†™å…¥åœ°å€ 0x8000bdb6
0x800025c0: 00 b7 80 23 sb	a1, 0(a5)
è¯»å–åœ°å€ 0x800025c4
0x800025c4: 00 17 87 93 addi	a5, a5, 1
è¯»å–åœ°å€ 0x800025c8
0x800025c8: fe e7 9c e3 bne	a5, a4, 0x800025c0
è¯»å–åœ°å€ 0x800025c0
å†™å…¥åœ°å€ 0x8000bdb7
0x800025c0: 00 b7 80 23 sb	a1, 0(a5)
è¯»å–åœ°å€ 0x800025c4
0x800025c4: 00 17 87 93 addi	a5, a5, 1
è¯»å–åœ°å€ 0x800025c8
0x800025c8: fe e7 9c e3 bne	a5, a4, 0x800025c0
è¯»å–åœ°å€ 0x800025c0
å†™å…¥åœ°å€ 0x8000bdb8
0x800025c0: 00 b7 80 23 sb	a1, 0(a5)
è¯»å–åœ°å€ 0x800025c4
0x800025c4: 00 17 87 93 addi	a5, a5, 1
è¯»å–åœ°å€ 0x800025c8
0x800025c8: fe e7 9c e3 bne	a5, a4, 0x800025c0
è¯»å–åœ°å€ 0x800025c0
å†™å…¥åœ°å€ 0x8000bdb9
0x800025c0: 00 b7 80 23 sb	a1, 0(a5)
è¯»å–åœ°å€ 0x800025c4
0x800025c4: 00 17 87 93 addi	a5, a5, 1
è¯»å–åœ°å€ 0x800025c8
0x800025c8: fe e7 9c e3 bne	a5, a4, 0x800025c0
è¯»å–åœ°å€ 0x800025c0
å†™å…¥åœ°å€ 0x8000bdba
0x800025c0: 00 b7 80 23 sb	a1, 0(a5)
è¯»å–åœ°å€ 0x800025c4
0x800025c4: 00 17 87 93 addi	a5, a5, 1
è¯»å–åœ°å€ 0x800025c8
0x800025c8: fe e7 9c e3 bne	a5, a4, 0x800025c0
è¯»å–åœ°å€ 0x800025c0
å†™å…¥åœ°å€ 0x8000bdbb
0x800025c0: 00 b7 80 23 sb	a1, 0(a5)
è¯»å–åœ°å€ 0x800025c4
0x800025c4: 00 17 87 93 addi	a5, a5, 1
è¯»å–åœ°å€ 0x800025c8
0x800025c8: fe e7 9c e3 bne	a5, a4, 0x800025c0
è¯»å–åœ°å€ 0x800025c0
å†™å…¥åœ°å€ 0x8000bdbc
0x800025c0: 00 b7 80 23 sb	a1, 0(a5)
è¯»å–åœ°å€ 0x800025c4
0x800025c4: 00 17 87 93 addi	a5, a5, 1
è¯»å–åœ°å€ 0x800025c8
0x800025c8: fe e7 9c e3 bne	a5, a4, 0x800025c0
è¯»å–åœ°å€ 0x800025c0
å†™å…¥åœ°å€ 0x8000bdbd
0x800025c0: 00 b7 80 23 sb	a1, 0(a5)
è¯»å–åœ°å€ 0x800025c4
0x800025c4: 00 17 87 93 addi	a5, a5, 1
è¯»å–åœ°å€ 0x800025c8
0x800025c8: fe e7 9c e3 bne	a5, a4, 0x800025c0
è¯»å–åœ°å€ 0x800025c0
å†™å…¥åœ°å€ 0x8000bdbe
0x800025c0: 00 b7 80 23 sb	a1, 0(a5)
è¯»å–åœ°å€ 0x800025c4
0x800025c4: 00 17 87 93 addi	a5, a5, 1
è¯»å–åœ°å€ 0x800025c8
0x800025c8: fe e7 9c e3 bne	a5, a4, 0x800025c0
è¯»å–åœ°å€ 0x800025c0
å†™å…¥åœ°å€ 0x8000bdbf
0x800025c0: 00 b7 80 23 sb	a1, 0(a5)
è¯»å–åœ°å€ 0x800025c4
0x800025c4: 00 17 87 93 addi	a5, a5, 1
è¯»å–åœ°å€ 0x800025c8
0x800025c8: fe e7 9c e3 bne	a5, a4, 0x800025c0
è¯»å–åœ°å€ 0x800025c0
å†™å…¥åœ°å€ 0x8000bdc0
0x800025c0: 00 b7 80 23 sb	a1, 0(a5)
è¯»å–åœ°å€ 0x800025c4
0x800025c4: 00 17 87 93 addi	a5, a5, 1
è¯»å–åœ°å€ 0x800025c8
0x800025c8: fe e7 9c e3 bne	a5, a4, 0x800025c0
è¯»å–åœ°å€ 0x800025c0
å†™å…¥åœ°å€ 0x8000bdc1
0x800025c0: 00 b7 80 23 sb	a1, 0(a5)
è¯»å–åœ°å€ 0x800025c4
0x800025c4: 00 17 87 93 addi	a5, a5, 1
è¯»å–åœ°å€ 0x800025c8
0x800025c8: fe e7 9c e3 bne	a5, a4, 0x800025c0
è¯»å–åœ°å€ 0x800025c0
å†™å…¥åœ°å€ 0x8000bdc2
0x800025c0: 00 b7 80 23 sb	a1, 0(a5)
è¯»å–åœ°å€ 0x800025c4
0x800025c4: 00 17 87 93 addi	a5, a5, 1
è¯»å–åœ°å€ 0x800025c8
0x800025c8: fe e7 9c e3 bne	a5, a4, 0x800025c0
è¯»å–åœ°å€ 0x800025c0
å†™å…¥åœ°å€ 0x8000bdc3
0x800025c0: 00 b7 80 23 sb	a1, 0(a5)
è¯»å–åœ°å€ 0x800025c4
0x800025c4: 00 17 87 93 addi	a5, a5, 1
è¯»å–åœ°å€ 0x800025c8
0x800025c8: fe e7 9c e3 bne	a5, a4, 0x800025c0
è¯»å–åœ°å€ 0x800025c0
å†™å…¥åœ°å€ 0x8000bdc4
0x800025c0: 00 b7 80 23 sb	a1, 0(a5)
è¯»å–åœ°å€ 0x800025c4
0x800025c4: 00 17 87 93 addi	a5, a5, 1
è¯»å–åœ°å€ 0x800025c8
0x800025c8: fe e7 9c e3 bne	a5, a4, 0x800025c0
è¯»å–åœ°å€ 0x800025c0
å†™å…¥åœ°å€ 0x8000bdc5
0x800025c0: 00 b7 80 23 sb	a1, 0(a5)
è¯»å–åœ°å€ 0x800025c4
0x800025c4: 00 17 87 93 addi	a5, a5, 1
è¯»å–åœ°å€ 0x800025c8
0x800025c8: fe e7 9c e3 bne	a5, a4, 0x800025c0
è¯»å–åœ°å€ 0x800025c0
å†™å…¥åœ°å€ 0x8000bdc6
0x800025c0: 00 b7 80 23 sb	a1, 0(a5)
è¯»å–åœ°å€ 0x800025c4
0x800025c4: 00 17 87 93 addi	a5, a5, 1
è¯»å–åœ°å€ 0x800025c8
0x800025c8: fe e7 9c e3 bne	a5, a4, 0x800025c0
è¯»å–åœ°å€ 0x800025c0
å†™å…¥åœ°å€ 0x8000bdc7
0x800025c0: 00 b7 80 23 sb	a1, 0(a5)
è¯»å–åœ°å€ 0x800025c4
0x800025c4: 00 17 87 93 addi	a5, a5, 1
è¯»å–åœ°å€ 0x800025c8
0x800025c8: fe e7 9c e3 bne	a5, a4, 0x800025c0
è¯»å–åœ°å€ 0x800025c0
å†™å…¥åœ°å€ 0x8000bdc8
0x800025c0: 00 b7 80 23 sb	a1, 0(a5)
è¯»å–åœ°å€ 0x800025c4
0x800025c4: 00 17 87 93 addi	a5, a5, 1
è¯»å–åœ°å€ 0x800025c8
0x800025c8: fe e7 9c e3 bne	a5, a4, 0x800025c0
è¯»å–åœ°å€ 0x800025c0
å†™å…¥åœ°å€ 0x8000bdc9
0x800025c0: 00 b7 80 23 sb	a1, 0(a5)
è¯»å–åœ°å€ 0x800025c4
0x800025c4: 00 17 87 93 addi	a5, a5, 1
è¯»å–åœ°å€ 0x800025c8
0x800025c8: fe e7 9c e3 bne	a5, a4, 0x800025c0
è¯»å–åœ°å€ 0x800025c0
å†™å…¥åœ°å€ 0x8000bdca
0x800025c0: 00 b7 80 23 sb	a1, 0(a5)
è¯»å–åœ°å€ 0x800025c4
0x800025c4: 00 17 87 93 addi	a5, a5, 1
è¯»å–åœ°å€ 0x800025c8
0x800025c8: fe e7 9c e3 bne	a5, a4, 0x800025c0
è¯»å–åœ°å€ 0x800025c0
å†™å…¥åœ°å€ 0x8000bdcb
0x800025c0: 00 b7 80 23 sb	a1, 0(a5)
è¯»å–åœ°å€ 0x800025c4
0x800025c4: 00 17 87 93 addi	a5, a5, 1
è¯»å–åœ°å€ 0x800025c8
0x800025c8: fe e7 9c e3 bne	a5, a4, 0x800025c0
è¯»å–åœ°å€ 0x800025c0
å†™å…¥åœ°å€ 0x8000bdcc
0x800025c0: 00 b7 80 23 sb	a1, 0(a5)
è¯»å–åœ°å€ 0x800025c4
0x800025c4: 00 17 87 93 addi	a5, a5, 1
è¯»å–åœ°å€ 0x800025c8
0x800025c8: fe e7 9c e3 bne	a5, a4, 0x800025c0
è¯»å–åœ°å€ 0x800025c0
å†™å…¥åœ°å€ 0x8000bdcd
0x800025c0: 00 b7 80 23 sb	a1, 0(a5)
è¯»å–åœ°å€ 0x800025c4
0x800025c4: 00 17 87 93 addi	a5, a5, 1
è¯»å–åœ°å€ 0x800025c8
0x800025c8: fe e7 9c e3 bne	a5, a4, 0x800025c0
è¯»å–åœ°å€ 0x800025c0
å†™å…¥åœ°å€ 0x8000bdce
0x800025c0: 00 b7 80 23 sb	a1, 0(a5)
è¯»å–åœ°å€ 0x800025c4
0x800025c4: 00 17 87 93 addi	a5, a5, 1
è¯»å–åœ°å€ 0x800025c8
0x800025c8: fe e7 9c e3 bne	a5, a4, 0x800025c0
è¯»å–åœ°å€ 0x800025c0
å†™å…¥åœ°å€ 0x8000bdcf
0x800025c0: 00 b7 80 23 sb	a1, 0(a5)
è¯»å–åœ°å€ 0x800025c4
0x800025c4: 00 17 87 93 addi	a5, a5, 1
è¯»å–åœ°å€ 0x800025c8
0x800025c8: fe e7 9c e3 bne	a5, a4, 0x800025c0
è¯»å–åœ°å€ 0x800025c0
å†™å…¥åœ°å€ 0x8000bdd0
0x800025c0: 00 b7 80 23 sb	a1, 0(a5)
è¯»å–åœ°å€ 0x800025c4
0x800025c4: 00 17 87 93 addi	a5, a5, 1
è¯»å–åœ°å€ 0x800025c8
0x800025c8: fe e7 9c e3 bne	a5, a4, 0x800025c0
è¯»å–åœ°å€ 0x800025c0
å†™å…¥åœ°å€ 0x8000bdd1
0x800025c0: 00 b7 80 23 sb	a1, 0(a5)
è¯»å–åœ°å€ 0x800025c4
0x800025c4: 00 17 87 93 addi	a5, a5, 1
è¯»å–åœ°å€ 0x800025c8
0x800025c8: fe e7 9c e3 bne	a5, a4, 0x800025c0
è¯»å–åœ°å€ 0x800025c0
å†™å…¥åœ°å€ 0x8000bdd2
0x800025c0: 00 b7 80 23 sb	a1, 0(a5)
è¯»å–åœ°å€ 0x800025c4
0x800025c4: 00 17 87 93 addi	a5, a5, 1
è¯»å–åœ°å€ 0x800025c8
0x800025c8: fe e7 9c e3 bne	a5, a4, 0x800025c0
è¯»å–åœ°å€ 0x800025c0
å†™å…¥åœ°å€ 0x8000bdd3
0x800025c0: 00 b7 80 23 sb	a1, 0(a5)
è¯»å–åœ°å€ 0x800025c4
0x800025c4: 00 17 87 93 addi	a5, a5, 1
è¯»å–åœ°å€ 0x800025c8
0x800025c8: fe e7 9c e3 bne	a5, a4, 0x800025c0
è¯»å–åœ°å€ 0x800025c0
å†™å…¥åœ°å€ 0x8000bdd4
0x800025c0: 00 b7 80 23 sb	a1, 0(a5)
è¯»å–åœ°å€ 0x800025c4
0x800025c4: 00 17 87 93 addi	a5, a5, 1
è¯»å–åœ°å€ 0x800025c8
0x800025c8: fe e7 9c e3 bne	a5, a4, 0x800025c0
è¯»å–åœ°å€ 0x800025c0
å†™å…¥åœ°å€ 0x8000bdd5
0x800025c0: 00 b7 80 23 sb	a1, 0(a5)
è¯»å–åœ°å€ 0x800025c4
0x800025c4: 00 17 87 93 addi	a5, a5, 1
è¯»å–åœ°å€ 0x800025c8
0x800025c8: fe e7 9c e3 bne	a5, a4, 0x800025c0
è¯»å–åœ°å€ 0x800025c0
å†™å…¥åœ°å€ 0x8000bdd6
0x800025c0: 00 b7 80 23 sb	a1, 0(a5)
è¯»å–åœ°å€ 0x800025c4
0x800025c4: 00 17 87 93 addi	a5, a5, 1
è¯»å–åœ°å€ 0x800025c8
0x800025c8: fe e7 9c e3 bne	a5, a4, 0x800025c0
è¯»å–åœ°å€ 0x800025c0
å†™å…¥åœ°å€ 0x8000bdd7
0x800025c0: 00 b7 80 23 sb	a1, 0(a5)
è¯»å–åœ°å€ 0x800025c4
0x800025c4: 00 17 87 93 addi	a5, a5, 1
è¯»å–åœ°å€ 0x800025c8
0x800025c8: fe e7 9c e3 bne	a5, a4, 0x800025c0
è¯»å–åœ°å€ 0x800025c0
å†™å…¥åœ°å€ 0x8000bdd8
0x800025c0: 00 b7 80 23 sb	a1, 0(a5)
è¯»å–åœ°å€ 0x800025c4
0x800025c4: 00 17 87 93 addi	a5, a5, 1
è¯»å–åœ°å€ 0x800025c8
0x800025c8: fe e7 9c e3 bne	a5, a4, 0x800025c0
è¯»å–åœ°å€ 0x800025c0
å†™å…¥åœ°å€ 0x8000bdd9
0x800025c0: 00 b7 80 23 sb	a1, 0(a5)
è¯»å–åœ°å€ 0x800025c4
0x800025c4: 00 17 87 93 addi	a5, a5, 1
è¯»å–åœ°å€ 0x800025c8
0x800025c8: fe e7 9c e3 bne	a5, a4, 0x800025c0
è¯»å–åœ°å€ 0x800025c0
å†™å…¥åœ°å€ 0x8000bdda
0x800025c0: 00 b7 80 23 sb	a1, 0(a5)
è¯»å–åœ°å€ 0x800025c4
0x800025c4: 00 17 87 93 addi	a5, a5, 1
è¯»å–åœ°å€ 0x800025c8
0x800025c8: fe e7 9c e3 bne	a5, a4, 0x800025c0
è¯»å–åœ°å€ 0x800025c0
å†™å…¥åœ°å€ 0x8000bddb
0x800025c0: 00 b7 80 23 sb	a1, 0(a5)
è¯»å–åœ°å€ 0x800025c4
0x800025c4: 00 17 87 93 addi	a5, a5, 1
è¯»å–åœ°å€ 0x800025c8
0x800025c8: fe e7 9c e3 bne	a5, a4, 0x800025c0
è¯»å–åœ°å€ 0x800025c0
å†™å…¥åœ°å€ 0x8000bddc
0x800025c0: 00 b7 80 23 sb	a1, 0(a5)
è¯»å–åœ°å€ 0x800025c4
0x800025c4: 00 17 87 93 addi	a5, a5, 1
è¯»å–åœ°å€ 0x800025c8
0x800025c8: fe e7 9c e3 bne	a5, a4, 0x800025c0
è¯»å–åœ°å€ 0x800025c0
å†™å…¥åœ°å€ 0x8000bddd
0x800025c0: 00 b7 80 23 sb	a1, 0(a5)
è¯»å–åœ°å€ 0x800025c4
0x800025c4: 00 17 87 93 addi	a5, a5, 1
è¯»å–åœ°å€ 0x800025c8
0x800025c8: fe e7 9c e3 bne	a5, a4, 0x800025c0
è¯»å–åœ°å€ 0x800025c0
å†™å…¥åœ°å€ 0x8000bdde
0x800025c0: 00 b7 80 23 sb	a1, 0(a5)
è¯»å–åœ°å€ 0x800025c4
0x800025c4: 00 17 87 93 addi	a5, a5, 1
è¯»å–åœ°å€ 0x800025c8
0x800025c8: fe e7 9c e3 bne	a5, a4, 0x800025c0
è¯»å–åœ°å€ 0x800025c0
å†™å…¥åœ°å€ 0x8000bddf
0x800025c0: 00 b7 80 23 sb	a1, 0(a5)
è¯»å–åœ°å€ 0x800025c4
0x800025c4: 00 17 87 93 addi	a5, a5, 1
è¯»å–åœ°å€ 0x800025c8
0x800025c8: fe e7 9c e3 bne	a5, a4, 0x800025c0
è¯»å–åœ°å€ 0x800025c0
å†™å…¥åœ°å€ 0x8000bde0
0x800025c0: 00 b7 80 23 sb	a1, 0(a5)
è¯»å–åœ°å€ 0x800025c4
0x800025c4: 00 17 87 93 addi	a5, a5, 1
è¯»å–åœ°å€ 0x800025c8
0x800025c8: fe e7 9c e3 bne	a5, a4, 0x800025c0
è¯»å–åœ°å€ 0x800025c0
å†™å…¥åœ°å€ 0x8000bde1
0x800025c0: 00 b7 80 23 sb	a1, 0(a5)
è¯»å–åœ°å€ 0x800025c4
0x800025c4: 00 17 87 93 addi	a5, a5, 1
è¯»å–åœ°å€ 0x800025c8
0x800025c8: fe e7 9c e3 bne	a5, a4, 0x800025c0
è¯»å–åœ°å€ 0x800025c0
å†™å…¥åœ°å€ 0x8000bde2
0x800025c0: 00 b7 80 23 sb	a1, 0(a5)
è¯»å–åœ°å€ 0x800025c4
0x800025c4: 00 17 87 93 addi	a5, a5, 1
è¯»å–åœ°å€ 0x800025c8
0x800025c8: fe e7 9c e3 bne	a5, a4, 0x800025c0
è¯»å–åœ°å€ 0x800025c0
å†™å…¥åœ°å€ 0x8000bde3
0x800025c0: 00 b7 80 23 sb	a1, 0(a5)
è¯»å–åœ°å€ 0x800025c4
0x800025c4: 00 17 87 93 addi	a5, a5, 1
è¯»å–åœ°å€ 0x800025c8
0x800025c8: fe e7 9c e3 bne	a5, a4, 0x800025c0
è¯»å–åœ°å€ 0x800025c0
å†™å…¥åœ°å€ 0x8000bde4
0x800025c0: 00 b7 80 23 sb	a1, 0(a5)
è¯»å–åœ°å€ 0x800025c4
0x800025c4: 00 17 87 93 addi	a5, a5, 1
è¯»å–åœ°å€ 0x800025c8
0x800025c8: fe e7 9c e3 bne	a5, a4, 0x800025c0
è¯»å–åœ°å€ 0x800025c0
å†™å…¥åœ°å€ 0x8000bde5
0x800025c0: 00 b7 80 23 sb	a1, 0(a5)
è¯»å–åœ°å€ 0x800025c4
0x800025c4: 00 17 87 93 addi	a5, a5, 1
è¯»å–åœ°å€ 0x800025c8
0x800025c8: fe e7 9c e3 bne	a5, a4, 0x800025c0
è¯»å–åœ°å€ 0x800025c0
å†™å…¥åœ°å€ 0x8000bde6
0x800025c0: 00 b7 80 23 sb	a1, 0(a5)
è¯»å–åœ°å€ 0x800025c4
0x800025c4: 00 17 87 93 addi	a5, a5, 1
è¯»å–åœ°å€ 0x800025c8
0x800025c8: fe e7 9c e3 bne	a5, a4, 0x800025c0
è¯»å–åœ°å€ 0x800025c0
å†™å…¥åœ°å€ 0x8000bde7
0x800025c0: 00 b7 80 23 sb	a1, 0(a5)
è¯»å–åœ°å€ 0x800025c4
0x800025c4: 00 17 87 93 addi	a5, a5, 1
è¯»å–åœ°å€ 0x800025c8
0x800025c8: fe e7 9c e3 bne	a5, a4, 0x800025c0
è¯»å–åœ°å€ 0x800025c0
å†™å…¥åœ°å€ 0x8000bde8
0x800025c0: 00 b7 80 23 sb	a1, 0(a5)
è¯»å–åœ°å€ 0x800025c4
0x800025c4: 00 17 87 93 addi	a5, a5, 1
è¯»å–åœ°å€ 0x800025c8
0x800025c8: fe e7 9c e3 bne	a5, a4, 0x800025c0
è¯»å–åœ°å€ 0x800025c0
å†™å…¥åœ°å€ 0x8000bde9
0x800025c0: 00 b7 80 23 sb	a1, 0(a5)
è¯»å–åœ°å€ 0x800025c4
0x800025c4: 00 17 87 93 addi	a5, a5, 1
è¯»å–åœ°å€ 0x800025c8
0x800025c8: fe e7 9c e3 bne	a5, a4, 0x800025c0
è¯»å–åœ°å€ 0x800025c0
å†™å…¥åœ°å€ 0x8000bdea
0x800025c0: 00 b7 80 23 sb	a1, 0(a5)
è¯»å–åœ°å€ 0x800025c4
0x800025c4: 00 17 87 93 addi	a5, a5, 1
è¯»å–åœ°å€ 0x800025c8
0x800025c8: fe e7 9c e3 bne	a5, a4, 0x800025c0
è¯»å–åœ°å€ 0x800025c0
å†™å…¥åœ°å€ 0x8000bdeb
0x800025c0: 00 b7 80 23 sb	a1, 0(a5)
è¯»å–åœ°å€ 0x800025c4
0x800025c4: 00 17 87 93 addi	a5, a5, 1
è¯»å–åœ°å€ 0x800025c8
0x800025c8: fe e7 9c e3 bne	a5, a4, 0x800025c0
è¯»å–åœ°å€ 0x800025c0
å†™å…¥åœ°å€ 0x8000bdec
0x800025c0: 00 b7 80 23 sb	a1, 0(a5)
è¯»å–åœ°å€ 0x800025c4
0x800025c4: 00 17 87 93 addi	a5, a5, 1
è¯»å–åœ°å€ 0x800025c8
0x800025c8: fe e7 9c e3 bne	a5, a4, 0x800025c0
è¯»å–åœ°å€ 0x800025c0
å†™å…¥åœ°å€ 0x8000bded
0x800025c0: 00 b7 80 23 sb	a1, 0(a5)
è¯»å–åœ°å€ 0x800025c4
0x800025c4: 00 17 87 93 addi	a5, a5, 1
è¯»å–åœ°å€ 0x800025c8
0x800025c8: fe e7 9c e3 bne	a5, a4, 0x800025c0
è¯»å–åœ°å€ 0x800025c0
å†™å…¥åœ°å€ 0x8000bdee
0x800025c0: 00 b7 80 23 sb	a1, 0(a5)
è¯»å–åœ°å€ 0x800025c4
0x800025c4: 00 17 87 93 addi	a5, a5, 1
è¯»å–åœ°å€ 0x800025c8
0x800025c8: fe e7 9c e3 bne	a5, a4, 0x800025c0
è¯»å–åœ°å€ 0x800025c0
å†™å…¥åœ°å€ 0x8000bdef
0x800025c0: 00 b7 80 23 sb	a1, 0(a5)
è¯»å–åœ°å€ 0x800025c4
0x800025c4: 00 17 87 93 addi	a5, a5, 1
è¯»å–åœ°å€ 0x800025c8
0x800025c8: fe e7 9c e3 bne	a5, a4, 0x800025c0
è¯»å–åœ°å€ 0x800025c0
å†™å…¥åœ°å€ 0x8000bdf0
0x800025c0: 00 b7 80 23 sb	a1, 0(a5)
è¯»å–åœ°å€ 0x800025c4
0x800025c4: 00 17 87 93 addi	a5, a5, 1
è¯»å–åœ°å€ 0x800025c8
0x800025c8: fe e7 9c e3 bne	a5, a4, 0x800025c0
è¯»å–åœ°å€ 0x800025c0
å†™å…¥åœ°å€ 0x8000bdf1
0x800025c0: 00 b7 80 23 sb	a1, 0(a5)
è¯»å–åœ°å€ 0x800025c4
0x800025c4: 00 17 87 93 addi	a5, a5, 1
è¯»å–åœ°å€ 0x800025c8
0x800025c8: fe e7 9c e3 bne	a5, a4, 0x800025c0
è¯»å–åœ°å€ 0x800025c0
å†™å…¥åœ°å€ 0x8000bdf2
0x800025c0: 00 b7 80 23 sb	a1, 0(a5)
è¯»å–åœ°å€ 0x800025c4
0x800025c4: 00 17 87 93 addi	a5, a5, 1
è¯»å–åœ°å€ 0x800025c8
0x800025c8: fe e7 9c e3 bne	a5, a4, 0x800025c0
è¯»å–åœ°å€ 0x800025c0
å†™å…¥åœ°å€ 0x8000bdf3
0x800025c0: 00 b7 80 23 sb	a1, 0(a5)
è¯»å–åœ°å€ 0x800025c4
0x800025c4: 00 17 87 93 addi	a5, a5, 1
è¯»å–åœ°å€ 0x800025c8
0x800025c8: fe e7 9c e3 bne	a5, a4, 0x800025c0
è¯»å–åœ°å€ 0x800025c0
å†™å…¥åœ°å€ 0x8000bdf4
0x800025c0: 00 b7 80 23 sb	a1, 0(a5)
è¯»å–åœ°å€ 0x800025c4
0x800025c4: 00 17 87 93 addi	a5, a5, 1
è¯»å–åœ°å€ 0x800025c8
0x800025c8: fe e7 9c e3 bne	a5, a4, 0x800025c0
è¯»å–åœ°å€ 0x800025c0
å†™å…¥åœ°å€ 0x8000bdf5
0x800025c0: 00 b7 80 23 sb	a1, 0(a5)
è¯»å–åœ°å€ 0x800025c4
0x800025c4: 00 17 87 93 addi	a5, a5, 1
è¯»å–åœ°å€ 0x800025c8
0x800025c8: fe e7 9c e3 bne	a5, a4, 0x800025c0
è¯»å–åœ°å€ 0x800025c0
å†™å…¥åœ°å€ 0x8000bdf6
0x800025c0: 00 b7 80 23 sb	a1, 0(a5)
è¯»å–åœ°å€ 0x800025c4
0x800025c4: 00 17 87 93 addi	a5, a5, 1
è¯»å–åœ°å€ 0x800025c8
0x800025c8: fe e7 9c e3 bne	a5, a4, 0x800025c0
è¯»å–åœ°å€ 0x800025c0
å†™å…¥åœ°å€ 0x8000bdf7
0x800025c0: 00 b7 80 23 sb	a1, 0(a5)
è¯»å–åœ°å€ 0x800025c4
0x800025c4: 00 17 87 93 addi	a5, a5, 1
è¯»å–åœ°å€ 0x800025c8
0x800025c8: fe e7 9c e3 bne	a5, a4, 0x800025c0
è¯»å–åœ°å€ 0x800025c0
å†™å…¥åœ°å€ 0x8000bdf8
0x800025c0: 00 b7 80 23 sb	a1, 0(a5)
è¯»å–åœ°å€ 0x800025c4
0x800025c4: 00 17 87 93 addi	a5, a5, 1
è¯»å–åœ°å€ 0x800025c8
0x800025c8: fe e7 9c e3 bne	a5, a4, 0x800025c0
è¯»å–åœ°å€ 0x800025c0
å†™å…¥åœ°å€ 0x8000bdf9
0x800025c0: 00 b7 80 23 sb	a1, 0(a5)
è¯»å–åœ°å€ 0x800025c4
0x800025c4: 00 17 87 93 addi	a5, a5, 1
è¯»å–åœ°å€ 0x800025c8
0x800025c8: fe e7 9c e3 bne	a5, a4, 0x800025c0
è¯»å–åœ°å€ 0x800025c0
å†™å…¥åœ°å€ 0x8000bdfa
0x800025c0: 00 b7 80 23 sb	a1, 0(a5)
è¯»å–åœ°å€ 0x800025c4
0x800025c4: 00 17 87 93 addi	a5, a5, 1
è¯»å–åœ°å€ 0x800025c8
0x800025c8: fe e7 9c e3 bne	a5, a4, 0x800025c0
è¯»å–åœ°å€ 0x800025c0
å†™å…¥åœ°å€ 0x8000bdfb
0x800025c0: 00 b7 80 23 sb	a1, 0(a5)
è¯»å–åœ°å€ 0x800025c4
0x800025c4: 00 17 87 93 addi	a5, a5, 1
è¯»å–åœ°å€ 0x800025c8
0x800025c8: fe e7 9c e3 bne	a5, a4, 0x800025c0
è¯»å–åœ°å€ 0x800025c0
å†™å…¥åœ°å€ 0x8000bdfc
0x800025c0: 00 b7 80 23 sb	a1, 0(a5)
è¯»å–åœ°å€ 0x800025c4
0x800025c4: 00 17 87 93 addi	a5, a5, 1
è¯»å–åœ°å€ 0x800025c8
0x800025c8: fe e7 9c e3 bne	a5, a4, 0x800025c0
è¯»å–åœ°å€ 0x800025c0
å†™å…¥åœ°å€ 0x8000bdfd
0x800025c0: 00 b7 80 23 sb	a1, 0(a5)
è¯»å–åœ°å€ 0x800025c4
0x800025c4: 00 17 87 93 addi	a5, a5, 1
è¯»å–åœ°å€ 0x800025c8
0x800025c8: fe e7 9c e3 bne	a5, a4, 0x800025c0
è¯»å–åœ°å€ 0x800025c0
å†™å…¥åœ°å€ 0x8000bdfe
0x800025c0: 00 b7 80 23 sb	a1, 0(a5)
è¯»å–åœ°å€ 0x800025c4
0x800025c4: 00 17 87 93 addi	a5, a5, 1
è¯»å–åœ°å€ 0x800025c8
0x800025c8: fe e7 9c e3 bne	a5, a4, 0x800025c0
è¯»å–åœ°å€ 0x800025c0
å†™å…¥åœ°å€ 0x8000bdff
0x800025c0: 00 b7 80 23 sb	a1, 0(a5)
è¯»å–åœ°å€ 0x800025c4
0x800025c4: 00 17 87 93 addi	a5, a5, 1
è¯»å–åœ°å€ 0x800025c8
0x800025c8: fe e7 9c e3 bne	a5, a4, 0x800025c0
è¯»å–åœ°å€ 0x800025c0
å†™å…¥åœ°å€ 0x8000be00
0x800025c0: 00 b7 80 23 sb	a1, 0(a5)
è¯»å–åœ°å€ 0x800025c4
0x800025c4: 00 17 87 93 addi	a5, a5, 1
è¯»å–åœ°å€ 0x800025c8
0x800025c8: fe e7 9c e3 bne	a5, a4, 0x800025c0
è¯»å–åœ°å€ 0x800025c0
å†™å…¥åœ°å€ 0x8000be01
0x800025c0: 00 b7 80 23 sb	a1, 0(a5)
è¯»å–åœ°å€ 0x800025c4
0x800025c4: 00 17 87 93 addi	a5, a5, 1
è¯»å–åœ°å€ 0x800025c8
0x800025c8: fe e7 9c e3 bne	a5, a4, 0x800025c0
è¯»å–åœ°å€ 0x800025c0
å†™å…¥åœ°å€ 0x8000be02
0x800025c0: 00 b7 80 23 sb	a1, 0(a5)
è¯»å–åœ°å€ 0x800025c4
0x800025c4: 00 17 87 93 addi	a5, a5, 1
è¯»å–åœ°å€ 0x800025c8
0x800025c8: fe e7 9c e3 bne	a5, a4, 0x800025c0
è¯»å–åœ°å€ 0x800025c0
å†™å…¥åœ°å€ 0x8000be03
0x800025c0: 00 b7 80 23 sb	a1, 0(a5)
è¯»å–åœ°å€ 0x800025c4
0x800025c4: 00 17 87 93 addi	a5, a5, 1
è¯»å–åœ°å€ 0x800025c8
0x800025c8: fe e7 9c e3 bne	a5, a4, 0x800025c0
è¯»å–åœ°å€ 0x800025c0
å†™å…¥åœ°å€ 0x8000be04
0x800025c0: 00 b7 80 23 sb	a1, 0(a5)
è¯»å–åœ°å€ 0x800025c4
0x800025c4: 00 17 87 93 addi	a5, a5, 1
è¯»å–åœ°å€ 0x800025c8
0x800025c8: fe e7 9c e3 bne	a5, a4, 0x800025c0
è¯»å–åœ°å€ 0x800025c0
å†™å…¥åœ°å€ 0x8000be05
0x800025c0: 00 b7 80 23 sb	a1, 0(a5)
è¯»å–åœ°å€ 0x800025c4
0x800025c4: 00 17 87 93 addi	a5, a5, 1
è¯»å–åœ°å€ 0x800025c8
0x800025c8: fe e7 9c e3 bne	a5, a4, 0x800025c0
è¯»å–åœ°å€ 0x800025c0
å†™å…¥åœ°å€ 0x8000be06
0x800025c0: 00 b7 80 23 sb	a1, 0(a5)
è¯»å–åœ°å€ 0x800025c4
0x800025c4: 00 17 87 93 addi	a5, a5, 1
è¯»å–åœ°å€ 0x800025c8
0x800025c8: fe e7 9c e3 bne	a5, a4, 0x800025c0
è¯»å–åœ°å€ 0x800025c0
å†™å…¥åœ°å€ 0x8000be07
0x800025c0: 00 b7 80 23 sb	a1, 0(a5)
è¯»å–åœ°å€ 0x800025c4
0x800025c4: 00 17 87 93 addi	a5, a5, 1
è¯»å–åœ°å€ 0x800025c8
0x800025c8: fe e7 9c e3 bne	a5, a4, 0x800025c0
è¯»å–åœ°å€ 0x800025c0
å†™å…¥åœ°å€ 0x8000be08
0x800025c0: 00 b7 80 23 sb	a1, 0(a5)
è¯»å–åœ°å€ 0x800025c4
0x800025c4: 00 17 87 93 addi	a5, a5, 1
è¯»å–åœ°å€ 0x800025c8
0x800025c8: fe e7 9c e3 bne	a5, a4, 0x800025c0
è¯»å–åœ°å€ 0x800025c0
å†™å…¥åœ°å€ 0x8000be09
0x800025c0: 00 b7 80 23 sb	a1, 0(a5)
è¯»å–åœ°å€ 0x800025c4
0x800025c4: 00 17 87 93 addi	a5, a5, 1
è¯»å–åœ°å€ 0x800025c8
0x800025c8: fe e7 9c e3 bne	a5, a4, 0x800025c0
è¯»å–åœ°å€ 0x800025c0
å†™å…¥åœ°å€ 0x8000be0a
0x800025c0: 00 b7 80 23 sb	a1, 0(a5)
è¯»å–åœ°å€ 0x800025c4
0x800025c4: 00 17 87 93 addi	a5, a5, 1
è¯»å–åœ°å€ 0x800025c8
0x800025c8: fe e7 9c e3 bne	a5, a4, 0x800025c0
è¯»å–åœ°å€ 0x800025c0
å†™å…¥åœ°å€ 0x8000be0b
0x800025c0: 00 b7 80 23 sb	a1, 0(a5)
è¯»å–åœ°å€ 0x800025c4
0x800025c4: 00 17 87 93 addi	a5, a5, 1
è¯»å–åœ°å€ 0x800025c8
0x800025c8: fe e7 9c e3 bne	a5, a4, 0x800025c0
è¯»å–åœ°å€ 0x800025c0
å†™å…¥åœ°å€ 0x8000be0c
0x800025c0: 00 b7 80 23 sb	a1, 0(a5)
è¯»å–åœ°å€ 0x800025c4
0x800025c4: 00 17 87 93 addi	a5, a5, 1
è¯»å–åœ°å€ 0x800025c8
0x800025c8: fe e7 9c e3 bne	a5, a4, 0x800025c0
è¯»å–åœ°å€ 0x800025c0
å†™å…¥åœ°å€ 0x8000be0d
0x800025c0: 00 b7 80 23 sb	a1, 0(a5)
è¯»å–åœ°å€ 0x800025c4
0x800025c4: 00 17 87 93 addi	a5, a5, 1
è¯»å–åœ°å€ 0x800025c8
0x800025c8: fe e7 9c e3 bne	a5, a4, 0x800025c0
è¯»å–åœ°å€ 0x800025c0
å†™å…¥åœ°å€ 0x8000be0e
0x800025c0: 00 b7 80 23 sb	a1, 0(a5)
è¯»å–åœ°å€ 0x800025c4
0x800025c4: 00 17 87 93 addi	a5, a5, 1
è¯»å–åœ°å€ 0x800025c8
0x800025c8: fe e7 9c e3 bne	a5, a4, 0x800025c0
è¯»å–åœ°å€ 0x800025c0
å†™å…¥åœ°å€ 0x8000be0f
0x800025c0: 00 b7 80 23 sb	a1, 0(a5)
è¯»å–åœ°å€ 0x800025c4
0x800025c4: 00 17 87 93 addi	a5, a5, 1
è¯»å–åœ°å€ 0x800025c8
0x800025c8: fe e7 9c e3 bne	a5, a4, 0x800025c0
è¯»å–åœ°å€ 0x800025c0
å†™å…¥åœ°å€ 0x8000be10
0x800025c0: 00 b7 80 23 sb	a1, 0(a5)
è¯»å–åœ°å€ 0x800025c4
0x800025c4: 00 17 87 93 addi	a5, a5, 1
è¯»å–åœ°å€ 0x800025c8
0x800025c8: fe e7 9c e3 bne	a5, a4, 0x800025c0
è¯»å–åœ°å€ 0x800025c0
å†™å…¥åœ°å€ 0x8000be11
0x800025c0: 00 b7 80 23 sb	a1, 0(a5)
è¯»å–åœ°å€ 0x800025c4
0x800025c4: 00 17 87 93 addi	a5, a5, 1
è¯»å–åœ°å€ 0x800025c8
0x800025c8: fe e7 9c e3 bne	a5, a4, 0x800025c0
è¯»å–åœ°å€ 0x800025c0
å†™å…¥åœ°å€ 0x8000be12
0x800025c0: 00 b7 80 23 sb	a1, 0(a5)
è¯»å–åœ°å€ 0x800025c4
0x800025c4: 00 17 87 93 addi	a5, a5, 1
è¯»å–åœ°å€ 0x800025c8
0x800025c8: fe e7 9c e3 bne	a5, a4, 0x800025c0
è¯»å–åœ°å€ 0x800025c0
å†™å…¥åœ°å€ 0x8000be13
0x800025c0: 00 b7 80 23 sb	a1, 0(a5)
è¯»å–åœ°å€ 0x800025c4
0x800025c4: 00 17 87 93 addi	a5, a5, 1
è¯»å–åœ°å€ 0x800025c8
0x800025c8: fe e7 9c e3 bne	a5, a4, 0x800025c0
è¯»å–åœ°å€ 0x800025c0
å†™å…¥åœ°å€ 0x8000be14
0x800025c0: 00 b7 80 23 sb	a1, 0(a5)
è¯»å–åœ°å€ 0x800025c4
0x800025c4: 00 17 87 93 addi	a5, a5, 1
è¯»å–åœ°å€ 0x800025c8
0x800025c8: fe e7 9c e3 bne	a5, a4, 0x800025c0
è¯»å–åœ°å€ 0x800025c0
å†™å…¥åœ°å€ 0x8000be15
0x800025c0: 00 b7 80 23 sb	a1, 0(a5)
è¯»å–åœ°å€ 0x800025c4
0x800025c4: 00 17 87 93 addi	a5, a5, 1
è¯»å–åœ°å€ 0x800025c8
0x800025c8: fe e7 9c e3 bne	a5, a4, 0x800025c0
è¯»å–åœ°å€ 0x800025c0
å†™å…¥åœ°å€ 0x8000be16
0x800025c0: 00 b7 80 23 sb	a1, 0(a5)
è¯»å–åœ°å€ 0x800025c4
0x800025c4: 00 17 87 93 addi	a5, a5, 1
è¯»å–åœ°å€ 0x800025c8
0x800025c8: fe e7 9c e3 bne	a5, a4, 0x800025c0
è¯»å–åœ°å€ 0x800025c0
å†™å…¥åœ°å€ 0x8000be17
0x800025c0: 00 b7 80 23 sb	a1, 0(a5)
è¯»å–åœ°å€ 0x800025c4
0x800025c4: 00 17 87 93 addi	a5, a5, 1
è¯»å–åœ°å€ 0x800025c8
0x800025c8: fe e7 9c e3 bne	a5, a4, 0x800025c0
è¯»å–åœ°å€ 0x800025c0
å†™å…¥åœ°å€ 0x8000be18
0x800025c0: 00 b7 80 23 sb	a1, 0(a5)
è¯»å–åœ°å€ 0x800025c4
0x800025c4: 00 17 87 93 addi	a5, a5, 1
è¯»å–åœ°å€ 0x800025c8
0x800025c8: fe e7 9c e3 bne	a5, a4, 0x800025c0
è¯»å–åœ°å€ 0x800025c0
å†™å…¥åœ°å€ 0x8000be19
0x800025c0: 00 b7 80 23 sb	a1, 0(a5)
è¯»å–åœ°å€ 0x800025c4
0x800025c4: 00 17 87 93 addi	a5, a5, 1
è¯»å–åœ°å€ 0x800025c8
0x800025c8: fe e7 9c e3 bne	a5, a4, 0x800025c0
è¯»å–åœ°å€ 0x800025c0
å†™å…¥åœ°å€ 0x8000be1a
0x800025c0: 00 b7 80 23 sb	a1, 0(a5)
è¯»å–åœ°å€ 0x800025c4
0x800025c4: 00 17 87 93 addi	a5, a5, 1
è¯»å–åœ°å€ 0x800025c8
0x800025c8: fe e7 9c e3 bne	a5, a4, 0x800025c0
è¯»å–åœ°å€ 0x800025c0
å†™å…¥åœ°å€ 0x8000be1b
0x800025c0: 00 b7 80 23 sb	a1, 0(a5)
è¯»å–åœ°å€ 0x800025c4
0x800025c4: 00 17 87 93 addi	a5, a5, 1
è¯»å–åœ°å€ 0x800025c8
0x800025c8: fe e7 9c e3 bne	a5, a4, 0x800025c0
è¯»å–åœ°å€ 0x800025c0
å†™å…¥åœ°å€ 0x8000be1c
0x800025c0: 00 b7 80 23 sb	a1, 0(a5)
è¯»å–åœ°å€ 0x800025c4
0x800025c4: 00 17 87 93 addi	a5, a5, 1
è¯»å–åœ°å€ 0x800025c8
0x800025c8: fe e7 9c e3 bne	a5, a4, 0x800025c0
è¯»å–åœ°å€ 0x800025c0
å†™å…¥åœ°å€ 0x8000be1d
0x800025c0: 00 b7 80 23 sb	a1, 0(a5)
è¯»å–åœ°å€ 0x800025c4
0x800025c4: 00 17 87 93 addi	a5, a5, 1
è¯»å–åœ°å€ 0x800025c8
0x800025c8: fe e7 9c e3 bne	a5, a4, 0x800025c0
è¯»å–åœ°å€ 0x800025c0
å†™å…¥åœ°å€ 0x8000be1e
0x800025c0: 00 b7 80 23 sb	a1, 0(a5)
è¯»å–åœ°å€ 0x800025c4
0x800025c4: 00 17 87 93 addi	a5, a5, 1
è¯»å–åœ°å€ 0x800025c8
0x800025c8: fe e7 9c e3 bne	a5, a4, 0x800025c0
è¯»å–åœ°å€ 0x800025c0
å†™å…¥åœ°å€ 0x8000be1f
0x800025c0: 00 b7 80 23 sb	a1, 0(a5)
è¯»å–åœ°å€ 0x800025c4
0x800025c4: 00 17 87 93 addi	a5, a5, 1
è¯»å–åœ°å€ 0x800025c8
0x800025c8: fe e7 9c e3 bne	a5, a4, 0x800025c0
è¯»å–åœ°å€ 0x800025c0
å†™å…¥åœ°å€ 0x8000be20
0x800025c0: 00 b7 80 23 sb	a1, 0(a5)
è¯»å–åœ°å€ 0x800025c4
0x800025c4: 00 17 87 93 addi	a5, a5, 1
è¯»å–åœ°å€ 0x800025c8
0x800025c8: fe e7 9c e3 bne	a5, a4, 0x800025c0
è¯»å–åœ°å€ 0x800025c0
å†™å…¥åœ°å€ 0x8000be21
0x800025c0: 00 b7 80 23 sb	a1, 0(a5)
è¯»å–åœ°å€ 0x800025c4
0x800025c4: 00 17 87 93 addi	a5, a5, 1
è¯»å–åœ°å€ 0x800025c8
0x800025c8: fe e7 9c e3 bne	a5, a4, 0x800025c0
è¯»å–åœ°å€ 0x800025c0
å†™å…¥åœ°å€ 0x8000be22
0x800025c0: 00 b7 80 23 sb	a1, 0(a5)
è¯»å–åœ°å€ 0x800025c4
0x800025c4: 00 17 87 93 addi	a5, a5, 1
è¯»å–åœ°å€ 0x800025c8
0x800025c8: fe e7 9c e3 bne	a5, a4, 0x800025c0
è¯»å–åœ°å€ 0x800025c0
å†™å…¥åœ°å€ 0x8000be23
0x800025c0: 00 b7 80 23 sb	a1, 0(a5)
è¯»å–åœ°å€ 0x800025c4
0x800025c4: 00 17 87 93 addi	a5, a5, 1
è¯»å–åœ°å€ 0x800025c8
0x800025c8: fe e7 9c e3 bne	a5, a4, 0x800025c0
è¯»å–åœ°å€ 0x800025c0
å†™å…¥åœ°å€ 0x8000be24
0x800025c0: 00 b7 80 23 sb	a1, 0(a5)
è¯»å–åœ°å€ 0x800025c4
0x800025c4: 00 17 87 93 addi	a5, a5, 1
è¯»å–åœ°å€ 0x800025c8
0x800025c8: fe e7 9c e3 bne	a5, a4, 0x800025c0
è¯»å–åœ°å€ 0x800025c0
å†™å…¥åœ°å€ 0x8000be25
0x800025c0: 00 b7 80 23 sb	a1, 0(a5)
è¯»å–åœ°å€ 0x800025c4
0x800025c4: 00 17 87 93 addi	a5, a5, 1
è¯»å–åœ°å€ 0x800025c8
0x800025c8: fe e7 9c e3 bne	a5, a4, 0x800025c0
è¯»å–åœ°å€ 0x800025c0
å†™å…¥åœ°å€ 0x8000be26
0x800025c0: 00 b7 80 23 sb	a1, 0(a5)
è¯»å–åœ°å€ 0x800025c4
0x800025c4: 00 17 87 93 addi	a5, a5, 1
è¯»å–åœ°å€ 0x800025c8
0x800025c8: fe e7 9c e3 bne	a5, a4, 0x800025c0
è¯»å–åœ°å€ 0x800025c0
å†™å…¥åœ°å€ 0x8000be27
0x800025c0: 00 b7 80 23 sb	a1, 0(a5)
è¯»å–åœ°å€ 0x800025c4
0x800025c4: 00 17 87 93 addi	a5, a5, 1
è¯»å–åœ°å€ 0x800025c8
0x800025c8: fe e7 9c e3 bne	a5, a4, 0x800025c0
è¯»å–åœ°å€ 0x800025c0
å†™å…¥åœ°å€ 0x8000be28
0x800025c0: 00 b7 80 23 sb	a1, 0(a5)
è¯»å–åœ°å€ 0x800025c4
0x800025c4: 00 17 87 93 addi	a5, a5, 1
è¯»å–åœ°å€ 0x800025c8
0x800025c8: fe e7 9c e3 bne	a5, a4, 0x800025c0
è¯»å–åœ°å€ 0x800025c0
å†™å…¥åœ°å€ 0x8000be29
0x800025c0: 00 b7 80 23 sb	a1, 0(a5)
è¯»å–åœ°å€ 0x800025c4
0x800025c4: 00 17 87 93 addi	a5, a5, 1
è¯»å–åœ°å€ 0x800025c8
0x800025c8: fe e7 9c e3 bne	a5, a4, 0x800025c0
è¯»å–åœ°å€ 0x800025c0
å†™å…¥åœ°å€ 0x8000be2a
0x800025c0: 00 b7 80 23 sb	a1, 0(a5)
è¯»å–åœ°å€ 0x800025c4
0x800025c4: 00 17 87 93 addi	a5, a5, 1
è¯»å–åœ°å€ 0x800025c8
0x800025c8: fe e7 9c e3 bne	a5, a4, 0x800025c0
è¯»å–åœ°å€ 0x800025c0
å†™å…¥åœ°å€ 0x8000be2b
0x800025c0: 00 b7 80 23 sb	a1, 0(a5)
è¯»å–åœ°å€ 0x800025c4
0x800025c4: 00 17 87 93 addi	a5, a5, 1
è¯»å–åœ°å€ 0x800025c8
0x800025c8: fe e7 9c e3 bne	a5, a4, 0x800025c0
è¯»å–åœ°å€ 0x800025c0
å†™å…¥åœ°å€ 0x8000be2c
0x800025c0: 00 b7 80 23 sb	a1, 0(a5)
è¯»å–åœ°å€ 0x800025c4
0x800025c4: 00 17 87 93 addi	a5, a5, 1
è¯»å–åœ°å€ 0x800025c8
0x800025c8: fe e7 9c e3 bne	a5, a4, 0x800025c0
è¯»å–åœ°å€ 0x800025c0
å†™å…¥åœ°å€ 0x8000be2d
0x800025c0: 00 b7 80 23 sb	a1, 0(a5)
è¯»å–åœ°å€ 0x800025c4
0x800025c4: 00 17 87 93 addi	a5, a5, 1
è¯»å–åœ°å€ 0x800025c8
0x800025c8: fe e7 9c e3 bne	a5, a4, 0x800025c0
è¯»å–åœ°å€ 0x800025c0
å†™å…¥åœ°å€ 0x8000be2e
0x800025c0: 00 b7 80 23 sb	a1, 0(a5)
è¯»å–åœ°å€ 0x800025c4
0x800025c4: 00 17 87 93 addi	a5, a5, 1
è¯»å–åœ°å€ 0x800025c8
0x800025c8: fe e7 9c e3 bne	a5, a4, 0x800025c0
è¯»å–åœ°å€ 0x800025c0
å†™å…¥åœ°å€ 0x8000be2f
0x800025c0: 00 b7 80 23 sb	a1, 0(a5)
è¯»å–åœ°å€ 0x800025c4
0x800025c4: 00 17 87 93 addi	a5, a5, 1
è¯»å–åœ°å€ 0x800025c8
0x800025c8: fe e7 9c e3 bne	a5, a4, 0x800025c0
è¯»å–åœ°å€ 0x800025c0
å†™å…¥åœ°å€ 0x8000be30
0x800025c0: 00 b7 80 23 sb	a1, 0(a5)
è¯»å–åœ°å€ 0x800025c4
0x800025c4: 00 17 87 93 addi	a5, a5, 1
è¯»å–åœ°å€ 0x800025c8
0x800025c8: fe e7 9c e3 bne	a5, a4, 0x800025c0
è¯»å–åœ°å€ 0x800025c0
å†™å…¥åœ°å€ 0x8000be31
0x800025c0: 00 b7 80 23 sb	a1, 0(a5)
è¯»å–åœ°å€ 0x800025c4
0x800025c4: 00 17 87 93 addi	a5, a5, 1
è¯»å–åœ°å€ 0x800025c8
0x800025c8: fe e7 9c e3 bne	a5, a4, 0x800025c0
è¯»å–åœ°å€ 0x800025c0
å†™å…¥åœ°å€ 0x8000be32
0x800025c0: 00 b7 80 23 sb	a1, 0(a5)
è¯»å–åœ°å€ 0x800025c4
0x800025c4: 00 17 87 93 addi	a5, a5, 1
è¯»å–åœ°å€ 0x800025c8
0x800025c8: fe e7 9c e3 bne	a5, a4, 0x800025c0
è¯»å–åœ°å€ 0x800025c0
å†™å…¥åœ°å€ 0x8000be33
0x800025c0: 00 b7 80 23 sb	a1, 0(a5)
è¯»å–åœ°å€ 0x800025c4
0x800025c4: 00 17 87 93 addi	a5, a5, 1
è¯»å–åœ°å€ 0x800025c8
0x800025c8: fe e7 9c e3 bne	a5, a4, 0x800025c0
è¯»å–åœ°å€ 0x800025c0
å†™å…¥åœ°å€ 0x8000be34
0x800025c0: 00 b7 80 23 sb	a1, 0(a5)
è¯»å–åœ°å€ 0x800025c4
0x800025c4: 00 17 87 93 addi	a5, a5, 1
è¯»å–åœ°å€ 0x800025c8
0x800025c8: fe e7 9c e3 bne	a5, a4, 0x800025c0
è¯»å–åœ°å€ 0x800025c0
å†™å…¥åœ°å€ 0x8000be35
0x800025c0: 00 b7 80 23 sb	a1, 0(a5)
è¯»å–åœ°å€ 0x800025c4
0x800025c4: 00 17 87 93 addi	a5, a5, 1
è¯»å–åœ°å€ 0x800025c8
0x800025c8: fe e7 9c e3 bne	a5, a4, 0x800025c0
è¯»å–åœ°å€ 0x800025c0
å†™å…¥åœ°å€ 0x8000be36
0x800025c0: 00 b7 80 23 sb	a1, 0(a5)
è¯»å–åœ°å€ 0x800025c4
0x800025c4: 00 17 87 93 addi	a5, a5, 1
è¯»å–åœ°å€ 0x800025c8
0x800025c8: fe e7 9c e3 bne	a5, a4, 0x800025c0
è¯»å–åœ°å€ 0x800025c0
å†™å…¥åœ°å€ 0x8000be37
0x800025c0: 00 b7 80 23 sb	a1, 0(a5)
è¯»å–åœ°å€ 0x800025c4
0x800025c4: 00 17 87 93 addi	a5, a5, 1
è¯»å–åœ°å€ 0x800025c8
0x800025c8: fe e7 9c e3 bne	a5, a4, 0x800025c0
è¯»å–åœ°å€ 0x800025c0
å†™å…¥åœ°å€ 0x8000be38
0x800025c0: 00 b7 80 23 sb	a1, 0(a5)
è¯»å–åœ°å€ 0x800025c4
0x800025c4: 00 17 87 93 addi	a5, a5, 1
è¯»å–åœ°å€ 0x800025c8
0x800025c8: fe e7 9c e3 bne	a5, a4, 0x800025c0
è¯»å–åœ°å€ 0x800025c0
å†™å…¥åœ°å€ 0x8000be39
0x800025c0: 00 b7 80 23 sb	a1, 0(a5)
è¯»å–åœ°å€ 0x800025c4
0x800025c4: 00 17 87 93 addi	a5, a5, 1
è¯»å–åœ°å€ 0x800025c8
0x800025c8: fe e7 9c e3 bne	a5, a4, 0x800025c0
è¯»å–åœ°å€ 0x800025c0
å†™å…¥åœ°å€ 0x8000be3a
0x800025c0: 00 b7 80 23 sb	a1, 0(a5)
è¯»å–åœ°å€ 0x800025c4
0x800025c4: 00 17 87 93 addi	a5, a5, 1
è¯»å–åœ°å€ 0x800025c8
0x800025c8: fe e7 9c e3 bne	a5, a4, 0x800025c0
è¯»å–åœ°å€ 0x800025c0
å†™å…¥åœ°å€ 0x8000be3b
0x800025c0: 00 b7 80 23 sb	a1, 0(a5)
è¯»å–åœ°å€ 0x800025c4
0x800025c4: 00 17 87 93 addi	a5, a5, 1
è¯»å–åœ°å€ 0x800025c8
0x800025c8: fe e7 9c e3 bne	a5, a4, 0x800025c0
è¯»å–åœ°å€ 0x800025c0
å†™å…¥åœ°å€ 0x8000be3c
0x800025c0: 00 b7 80 23 sb	a1, 0(a5)
è¯»å–åœ°å€ 0x800025c4
0x800025c4: 00 17 87 93 addi	a5, a5, 1
è¯»å–åœ°å€ 0x800025c8
0x800025c8: fe e7 9c e3 bne	a5, a4, 0x800025c0
è¯»å–åœ°å€ 0x800025c0
å†™å…¥åœ°å€ 0x8000be3d
0x800025c0: 00 b7 80 23 sb	a1, 0(a5)
è¯»å–åœ°å€ 0x800025c4
0x800025c4: 00 17 87 93 addi	a5, a5, 1
è¯»å–åœ°å€ 0x800025c8
0x800025c8: fe e7 9c e3 bne	a5, a4, 0x800025c0
è¯»å–åœ°å€ 0x800025c0
å†™å…¥åœ°å€ 0x8000be3e
0x800025c0: 00 b7 80 23 sb	a1, 0(a5)
è¯»å–åœ°å€ 0x800025c4
0x800025c4: 00 17 87 93 addi	a5, a5, 1
è¯»å–åœ°å€ 0x800025c8
0x800025c8: fe e7 9c e3 bne	a5, a4, 0x800025c0
è¯»å–åœ°å€ 0x800025c0
å†™å…¥åœ°å€ 0x8000be3f
0x800025c0: 00 b7 80 23 sb	a1, 0(a5)
è¯»å–åœ°å€ 0x800025c4
0x800025c4: 00 17 87 93 addi	a5, a5, 1
è¯»å–åœ°å€ 0x800025c8
0x800025c8: fe e7 9c e3 bne	a5, a4, 0x800025c0
è¯»å–åœ°å€ 0x800025c0
å†™å…¥åœ°å€ 0x8000be40
0x800025c0: 00 b7 80 23 sb	a1, 0(a5)
è¯»å–åœ°å€ 0x800025c4
0x800025c4: 00 17 87 93 addi	a5, a5, 1
è¯»å–åœ°å€ 0x800025c8
0x800025c8: fe e7 9c e3 bne	a5, a4, 0x800025c0
è¯»å–åœ°å€ 0x800025c0
å†™å…¥åœ°å€ 0x8000be41
0x800025c0: 00 b7 80 23 sb	a1, 0(a5)
è¯»å–åœ°å€ 0x800025c4
0x800025c4: 00 17 87 93 addi	a5, a5, 1
è¯»å–åœ°å€ 0x800025c8
0x800025c8: fe e7 9c e3 bne	a5, a4, 0x800025c0
è¯»å–åœ°å€ 0x800025c0
å†™å…¥åœ°å€ 0x8000be42
0x800025c0: 00 b7 80 23 sb	a1, 0(a5)
è¯»å–åœ°å€ 0x800025c4
0x800025c4: 00 17 87 93 addi	a5, a5, 1
è¯»å–åœ°å€ 0x800025c8
0x800025c8: fe e7 9c e3 bne	a5, a4, 0x800025c0
è¯»å–åœ°å€ 0x800025c0
å†™å…¥åœ°å€ 0x8000be43
0x800025c0: 00 b7 80 23 sb	a1, 0(a5)
è¯»å–åœ°å€ 0x800025c4
0x800025c4: 00 17 87 93 addi	a5, a5, 1
è¯»å–åœ°å€ 0x800025c8
0x800025c8: fe e7 9c e3 bne	a5, a4, 0x800025c0
è¯»å–åœ°å€ 0x800025c0
å†™å…¥åœ°å€ 0x8000be44
0x800025c0: 00 b7 80 23 sb	a1, 0(a5)
è¯»å–åœ°å€ 0x800025c4
0x800025c4: 00 17 87 93 addi	a5, a5, 1
è¯»å–åœ°å€ 0x800025c8
0x800025c8: fe e7 9c e3 bne	a5, a4, 0x800025c0
è¯»å–åœ°å€ 0x800025c0
å†™å…¥åœ°å€ 0x8000be45
0x800025c0: 00 b7 80 23 sb	a1, 0(a5)
è¯»å–åœ°å€ 0x800025c4
0x800025c4: 00 17 87 93 addi	a5, a5, 1
è¯»å–åœ°å€ 0x800025c8
0x800025c8: fe e7 9c e3 bne	a5, a4, 0x800025c0
è¯»å–åœ°å€ 0x800025c0
å†™å…¥åœ°å€ 0x8000be46
0x800025c0: 00 b7 80 23 sb	a1, 0(a5)
è¯»å–åœ°å€ 0x800025c4
0x800025c4: 00 17 87 93 addi	a5, a5, 1
è¯»å–åœ°å€ 0x800025c8
0x800025c8: fe e7 9c e3 bne	a5, a4, 0x800025c0
è¯»å–åœ°å€ 0x800025c0
å†™å…¥åœ°å€ 0x8000be47
0x800025c0: 00 b7 80 23 sb	a1, 0(a5)
è¯»å–åœ°å€ 0x800025c4
0x800025c4: 00 17 87 93 addi	a5, a5, 1
è¯»å–åœ°å€ 0x800025c8
0x800025c8: fe e7 9c e3 bne	a5, a4, 0x800025c0
è¯»å–åœ°å€ 0x800025c0
å†™å…¥åœ°å€ 0x8000be48
0x800025c0: 00 b7 80 23 sb	a1, 0(a5)
è¯»å–åœ°å€ 0x800025c4
0x800025c4: 00 17 87 93 addi	a5, a5, 1
è¯»å–åœ°å€ 0x800025c8
0x800025c8: fe e7 9c e3 bne	a5, a4, 0x800025c0
è¯»å–åœ°å€ 0x800025c0
å†™å…¥åœ°å€ 0x8000be49
0x800025c0: 00 b7 80 23 sb	a1, 0(a5)
è¯»å–åœ°å€ 0x800025c4
0x800025c4: 00 17 87 93 addi	a5, a5, 1
è¯»å–åœ°å€ 0x800025c8
0x800025c8: fe e7 9c e3 bne	a5, a4, 0x800025c0
è¯»å–åœ°å€ 0x800025c0
å†™å…¥åœ°å€ 0x8000be4a
0x800025c0: 00 b7 80 23 sb	a1, 0(a5)
è¯»å–åœ°å€ 0x800025c4
0x800025c4: 00 17 87 93 addi	a5, a5, 1
è¯»å–åœ°å€ 0x800025c8
0x800025c8: fe e7 9c e3 bne	a5, a4, 0x800025c0
è¯»å–åœ°å€ 0x800025c0
å†™å…¥åœ°å€ 0x8000be4b
0x800025c0: 00 b7 80 23 sb	a1, 0(a5)
è¯»å–åœ°å€ 0x800025c4
0x800025c4: 00 17 87 93 addi	a5, a5, 1
è¯»å–åœ°å€ 0x800025c8
0x800025c8: fe e7 9c e3 bne	a5, a4, 0x800025c0
è¯»å–åœ°å€ 0x800025c0
å†™å…¥åœ°å€ 0x8000be4c
0x800025c0: 00 b7 80 23 sb	a1, 0(a5)
è¯»å–åœ°å€ 0x800025c4
0x800025c4: 00 17 87 93 addi	a5, a5, 1
è¯»å–åœ°å€ 0x800025c8
0x800025c8: fe e7 9c e3 bne	a5, a4, 0x800025c0
è¯»å–åœ°å€ 0x800025c0
å†™å…¥åœ°å€ 0x8000be4d
0x800025c0: 00 b7 80 23 sb	a1, 0(a5)
è¯»å–åœ°å€ 0x800025c4
0x800025c4: 00 17 87 93 addi	a5, a5, 1
è¯»å–åœ°å€ 0x800025c8
0x800025c8: fe e7 9c e3 bne	a5, a4, 0x800025c0
è¯»å–åœ°å€ 0x800025c0
å†™å…¥åœ°å€ 0x8000be4e
0x800025c0: 00 b7 80 23 sb	a1, 0(a5)
è¯»å–åœ°å€ 0x800025c4
0x800025c4: 00 17 87 93 addi	a5, a5, 1
è¯»å–åœ°å€ 0x800025c8
0x800025c8: fe e7 9c e3 bne	a5, a4, 0x800025c0
è¯»å–åœ°å€ 0x800025c0
å†™å…¥åœ°å€ 0x8000be4f
0x800025c0: 00 b7 80 23 sb	a1, 0(a5)
è¯»å–åœ°å€ 0x800025c4
0x800025c4: 00 17 87 93 addi	a5, a5, 1
è¯»å–åœ°å€ 0x800025c8
0x800025c8: fe e7 9c e3 bne	a5, a4, 0x800025c0
è¯»å–åœ°å€ 0x800025c0
å†™å…¥åœ°å€ 0x8000be50
0x800025c0: 00 b7 80 23 sb	a1, 0(a5)
è¯»å–åœ°å€ 0x800025c4
0x800025c4: 00 17 87 93 addi	a5, a5, 1
è¯»å–åœ°å€ 0x800025c8
0x800025c8: fe e7 9c e3 bne	a5, a4, 0x800025c0
è¯»å–åœ°å€ 0x800025c0
å†™å…¥åœ°å€ 0x8000be51
0x800025c0: 00 b7 80 23 sb	a1, 0(a5)
è¯»å–åœ°å€ 0x800025c4
0x800025c4: 00 17 87 93 addi	a5, a5, 1
è¯»å–åœ°å€ 0x800025c8
0x800025c8: fe e7 9c e3 bne	a5, a4, 0x800025c0
è¯»å–åœ°å€ 0x800025c0
å†™å…¥åœ°å€ 0x8000be52
0x800025c0: 00 b7 80 23 sb	a1, 0(a5)
è¯»å–åœ°å€ 0x800025c4
0x800025c4: 00 17 87 93 addi	a5, a5, 1
è¯»å–åœ°å€ 0x800025c8
0x800025c8: fe e7 9c e3 bne	a5, a4, 0x800025c0
è¯»å–åœ°å€ 0x800025c0
å†™å…¥åœ°å€ 0x8000be53
0x800025c0: 00 b7 80 23 sb	a1, 0(a5)
è¯»å–åœ°å€ 0x800025c4
0x800025c4: 00 17 87 93 addi	a5, a5, 1
è¯»å–åœ°å€ 0x800025c8
0x800025c8: fe e7 9c e3 bne	a5, a4, 0x800025c0
è¯»å–åœ°å€ 0x800025c0
å†™å…¥åœ°å€ 0x8000be54
0x800025c0: 00 b7 80 23 sb	a1, 0(a5)
è¯»å–åœ°å€ 0x800025c4
0x800025c4: 00 17 87 93 addi	a5, a5, 1
è¯»å–åœ°å€ 0x800025c8
0x800025c8: fe e7 9c e3 bne	a5, a4, 0x800025c0
è¯»å–åœ°å€ 0x800025c0
å†™å…¥åœ°å€ 0x8000be55
0x800025c0: 00 b7 80 23 sb	a1, 0(a5)
è¯»å–åœ°å€ 0x800025c4
0x800025c4: 00 17 87 93 addi	a5, a5, 1
è¯»å–åœ°å€ 0x800025c8
0x800025c8: fe e7 9c e3 bne	a5, a4, 0x800025c0
è¯»å–åœ°å€ 0x800025c0
å†™å…¥åœ°å€ 0x8000be56
0x800025c0: 00 b7 80 23 sb	a1, 0(a5)
è¯»å–åœ°å€ 0x800025c4
0x800025c4: 00 17 87 93 addi	a5, a5, 1
è¯»å–åœ°å€ 0x800025c8
0x800025c8: fe e7 9c e3 bne	a5, a4, 0x800025c0
è¯»å–åœ°å€ 0x800025c0
å†™å…¥åœ°å€ 0x8000be57
0x800025c0: 00 b7 80 23 sb	a1, 0(a5)
è¯»å–åœ°å€ 0x800025c4
0x800025c4: 00 17 87 93 addi	a5, a5, 1
è¯»å–åœ°å€ 0x800025c8
0x800025c8: fe e7 9c e3 bne	a5, a4, 0x800025c0
è¯»å–åœ°å€ 0x800025c0
å†™å…¥åœ°å€ 0x8000be58
0x800025c0: 00 b7 80 23 sb	a1, 0(a5)
è¯»å–åœ°å€ 0x800025c4
0x800025c4: 00 17 87 93 addi	a5, a5, 1
è¯»å–åœ°å€ 0x800025c8
0x800025c8: fe e7 9c e3 bne	a5, a4, 0x800025c0
è¯»å–åœ°å€ 0x800025c0
å†™å…¥åœ°å€ 0x8000be59
0x800025c0: 00 b7 80 23 sb	a1, 0(a5)
è¯»å–åœ°å€ 0x800025c4
0x800025c4: 00 17 87 93 addi	a5, a5, 1
è¯»å–åœ°å€ 0x800025c8
0x800025c8: fe e7 9c e3 bne	a5, a4, 0x800025c0
è¯»å–åœ°å€ 0x800025c0
å†™å…¥åœ°å€ 0x8000be5a
0x800025c0: 00 b7 80 23 sb	a1, 0(a5)
è¯»å–åœ°å€ 0x800025c4
0x800025c4: 00 17 87 93 addi	a5, a5, 1
è¯»å–åœ°å€ 0x800025c8
0x800025c8: fe e7 9c e3 bne	a5, a4, 0x800025c0
è¯»å–åœ°å€ 0x800025c0
å†™å…¥åœ°å€ 0x8000be5b
0x800025c0: 00 b7 80 23 sb	a1, 0(a5)
è¯»å–åœ°å€ 0x800025c4
0x800025c4: 00 17 87 93 addi	a5, a5, 1
è¯»å–åœ°å€ 0x800025c8
0x800025c8: fe e7 9c e3 bne	a5, a4, 0x800025c0
è¯»å–åœ°å€ 0x800025c0
å†™å…¥åœ°å€ 0x8000be5c
0x800025c0: 00 b7 80 23 sb	a1, 0(a5)
è¯»å–åœ°å€ 0x800025c4
0x800025c4: 00 17 87 93 addi	a5, a5, 1
è¯»å–åœ°å€ 0x800025c8
0x800025c8: fe e7 9c e3 bne	a5, a4, 0x800025c0
è¯»å–åœ°å€ 0x800025c0
å†™å…¥åœ°å€ 0x8000be5d
0x800025c0: 00 b7 80 23 sb	a1, 0(a5)
è¯»å–åœ°å€ 0x800025c4
0x800025c4: 00 17 87 93 addi	a5, a5, 1
è¯»å–åœ°å€ 0x800025c8
0x800025c8: fe e7 9c e3 bne	a5, a4, 0x800025c0
è¯»å–åœ°å€ 0x800025c0
å†™å…¥åœ°å€ 0x8000be5e
0x800025c0: 00 b7 80 23 sb	a1, 0(a5)
è¯»å–åœ°å€ 0x800025c4
0x800025c4: 00 17 87 93 addi	a5, a5, 1
è¯»å–åœ°å€ 0x800025c8
0x800025c8: fe e7 9c e3 bne	a5, a4, 0x800025c0
è¯»å–åœ°å€ 0x800025c0
å†™å…¥åœ°å€ 0x8000be5f
0x800025c0: 00 b7 80 23 sb	a1, 0(a5)
è¯»å–åœ°å€ 0x800025c4
0x800025c4: 00 17 87 93 addi	a5, a5, 1
è¯»å–åœ°å€ 0x800025c8
0x800025c8: fe e7 9c e3 bne	a5, a4, 0x800025c0
è¯»å–åœ°å€ 0x800025c0
å†™å…¥åœ°å€ 0x8000be60
0x800025c0: 00 b7 80 23 sb	a1, 0(a5)
è¯»å–åœ°å€ 0x800025c4
0x800025c4: 00 17 87 93 addi	a5, a5, 1
è¯»å–åœ°å€ 0x800025c8
0x800025c8: fe e7 9c e3 bne	a5, a4, 0x800025c0
è¯»å–åœ°å€ 0x800025c0
å†™å…¥åœ°å€ 0x8000be61
0x800025c0: 00 b7 80 23 sb	a1, 0(a5)
è¯»å–åœ°å€ 0x800025c4
0x800025c4: 00 17 87 93 addi	a5, a5, 1
è¯»å–åœ°å€ 0x800025c8
0x800025c8: fe e7 9c e3 bne	a5, a4, 0x800025c0
è¯»å–åœ°å€ 0x800025c0
å†™å…¥åœ°å€ 0x8000be62
0x800025c0: 00 b7 80 23 sb	a1, 0(a5)
è¯»å–åœ°å€ 0x800025c4
0x800025c4: 00 17 87 93 addi	a5, a5, 1
è¯»å–åœ°å€ 0x800025c8
0x800025c8: fe e7 9c e3 bne	a5, a4, 0x800025c0
è¯»å–åœ°å€ 0x800025c0
å†™å…¥åœ°å€ 0x8000be63
0x800025c0: 00 b7 80 23 sb	a1, 0(a5)
è¯»å–åœ°å€ 0x800025c4
0x800025c4: 00 17 87 93 addi	a5, a5, 1
è¯»å–åœ°å€ 0x800025c8
0x800025c8: fe e7 9c e3 bne	a5, a4, 0x800025c0
è¯»å–åœ°å€ 0x800025c0
å†™å…¥åœ°å€ 0x8000be64
0x800025c0: 00 b7 80 23 sb	a1, 0(a5)
è¯»å–åœ°å€ 0x800025c4
0x800025c4: 00 17 87 93 addi	a5, a5, 1
è¯»å–åœ°å€ 0x800025c8
0x800025c8: fe e7 9c e3 bne	a5, a4, 0x800025c0
è¯»å–åœ°å€ 0x800025c0
å†™å…¥åœ°å€ 0x8000be65
0x800025c0: 00 b7 80 23 sb	a1, 0(a5)
è¯»å–åœ°å€ 0x800025c4
0x800025c4: 00 17 87 93 addi	a5, a5, 1
è¯»å–åœ°å€ 0x800025c8
0x800025c8: fe e7 9c e3 bne	a5, a4, 0x800025c0
è¯»å–åœ°å€ 0x800025c0
å†™å…¥åœ°å€ 0x8000be66
0x800025c0: 00 b7 80 23 sb	a1, 0(a5)
è¯»å–åœ°å€ 0x800025c4
0x800025c4: 00 17 87 93 addi	a5, a5, 1
è¯»å–åœ°å€ 0x800025c8
0x800025c8: fe e7 9c e3 bne	a5, a4, 0x800025c0
è¯»å–åœ°å€ 0x800025c0
å†™å…¥åœ°å€ 0x8000be67
0x800025c0: 00 b7 80 23 sb	a1, 0(a5)
è¯»å–åœ°å€ 0x800025c4
0x800025c4: 00 17 87 93 addi	a5, a5, 1
è¯»å–åœ°å€ 0x800025c8
0x800025c8: fe e7 9c e3 bne	a5, a4, 0x800025c0
è¯»å–åœ°å€ 0x800025c0
å†™å…¥åœ°å€ 0x8000be68
0x800025c0: 00 b7 80 23 sb	a1, 0(a5)
è¯»å–åœ°å€ 0x800025c4
0x800025c4: 00 17 87 93 addi	a5, a5, 1
è¯»å–åœ°å€ 0x800025c8
0x800025c8: fe e7 9c e3 bne	a5, a4, 0x800025c0
è¯»å–åœ°å€ 0x800025c0
å†™å…¥åœ°å€ 0x8000be69
0x800025c0: 00 b7 80 23 sb	a1, 0(a5)
è¯»å–åœ°å€ 0x800025c4
0x800025c4: 00 17 87 93 addi	a5, a5, 1
è¯»å–åœ°å€ 0x800025c8
0x800025c8: fe e7 9c e3 bne	a5, a4, 0x800025c0
è¯»å–åœ°å€ 0x800025c0
å†™å…¥åœ°å€ 0x8000be6a
0x800025c0: 00 b7 80 23 sb	a1, 0(a5)
è¯»å–åœ°å€ 0x800025c4
0x800025c4: 00 17 87 93 addi	a5, a5, 1
è¯»å–åœ°å€ 0x800025c8
0x800025c8: fe e7 9c e3 bne	a5, a4, 0x800025c0
è¯»å–åœ°å€ 0x800025c0
å†™å…¥åœ°å€ 0x8000be6b
0x800025c0: 00 b7 80 23 sb	a1, 0(a5)
è¯»å–åœ°å€ 0x800025c4
0x800025c4: 00 17 87 93 addi	a5, a5, 1
è¯»å–åœ°å€ 0x800025c8
0x800025c8: fe e7 9c e3 bne	a5, a4, 0x800025c0
è¯»å–åœ°å€ 0x800025c0
å†™å…¥åœ°å€ 0x8000be6c
0x800025c0: 00 b7 80 23 sb	a1, 0(a5)
è¯»å–åœ°å€ 0x800025c4
0x800025c4: 00 17 87 93 addi	a5, a5, 1
è¯»å–åœ°å€ 0x800025c8
0x800025c8: fe e7 9c e3 bne	a5, a4, 0x800025c0
è¯»å–åœ°å€ 0x800025c0
å†™å…¥åœ°å€ 0x8000be6d
0x800025c0: 00 b7 80 23 sb	a1, 0(a5)
è¯»å–åœ°å€ 0x800025c4
0x800025c4: 00 17 87 93 addi	a5, a5, 1
è¯»å–åœ°å€ 0x800025c8
0x800025c8: fe e7 9c e3 bne	a5, a4, 0x800025c0
è¯»å–åœ°å€ 0x800025c0
å†™å…¥åœ°å€ 0x8000be6e
0x800025c0: 00 b7 80 23 sb	a1, 0(a5)
è¯»å–åœ°å€ 0x800025c4
0x800025c4: 00 17 87 93 addi	a5, a5, 1
è¯»å–åœ°å€ 0x800025c8
0x800025c8: fe e7 9c e3 bne	a5, a4, 0x800025c0
è¯»å–åœ°å€ 0x800025c0
å†™å…¥åœ°å€ 0x8000be6f
0x800025c0: 00 b7 80 23 sb	a1, 0(a5)
è¯»å–åœ°å€ 0x800025c4
0x800025c4: 00 17 87 93 addi	a5, a5, 1
è¯»å–åœ°å€ 0x800025c8
0x800025c8: fe e7 9c e3 bne	a5, a4, 0x800025c0
è¯»å–åœ°å€ 0x800025c0
å†™å…¥åœ°å€ 0x8000be70
0x800025c0: 00 b7 80 23 sb	a1, 0(a5)
è¯»å–åœ°å€ 0x800025c4
0x800025c4: 00 17 87 93 addi	a5, a5, 1
è¯»å–åœ°å€ 0x800025c8
0x800025c8: fe e7 9c e3 bne	a5, a4, 0x800025c0
è¯»å–åœ°å€ 0x800025c0
å†™å…¥åœ°å€ 0x8000be71
0x800025c0: 00 b7 80 23 sb	a1, 0(a5)
è¯»å–åœ°å€ 0x800025c4
0x800025c4: 00 17 87 93 addi	a5, a5, 1
è¯»å–åœ°å€ 0x800025c8
0x800025c8: fe e7 9c e3 bne	a5, a4, 0x800025c0
è¯»å–åœ°å€ 0x800025c0
å†™å…¥åœ°å€ 0x8000be72
0x800025c0: 00 b7 80 23 sb	a1, 0(a5)
è¯»å–åœ°å€ 0x800025c4
0x800025c4: 00 17 87 93 addi	a5, a5, 1
è¯»å–åœ°å€ 0x800025c8
0x800025c8: fe e7 9c e3 bne	a5, a4, 0x800025c0
è¯»å–åœ°å€ 0x800025c0
å†™å…¥åœ°å€ 0x8000be73
0x800025c0: 00 b7 80 23 sb	a1, 0(a5)
è¯»å–åœ°å€ 0x800025c4
0x800025c4: 00 17 87 93 addi	a5, a5, 1
è¯»å–åœ°å€ 0x800025c8
0x800025c8: fe e7 9c e3 bne	a5, a4, 0x800025c0
è¯»å–åœ°å€ 0x800025c0
å†™å…¥åœ°å€ 0x8000be74
0x800025c0: 00 b7 80 23 sb	a1, 0(a5)
è¯»å–åœ°å€ 0x800025c4
0x800025c4: 00 17 87 93 addi	a5, a5, 1
è¯»å–åœ°å€ 0x800025c8
0x800025c8: fe e7 9c e3 bne	a5, a4, 0x800025c0
è¯»å–åœ°å€ 0x800025c0
å†™å…¥åœ°å€ 0x8000be75
0x800025c0: 00 b7 80 23 sb	a1, 0(a5)
è¯»å–åœ°å€ 0x800025c4
0x800025c4: 00 17 87 93 addi	a5, a5, 1
è¯»å–åœ°å€ 0x800025c8
0x800025c8: fe e7 9c e3 bne	a5, a4, 0x800025c0
è¯»å–åœ°å€ 0x800025c0
å†™å…¥åœ°å€ 0x8000be76
0x800025c0: 00 b7 80 23 sb	a1, 0(a5)
è¯»å–åœ°å€ 0x800025c4
0x800025c4: 00 17 87 93 addi	a5, a5, 1
è¯»å–åœ°å€ 0x800025c8
0x800025c8: fe e7 9c e3 bne	a5, a4, 0x800025c0
è¯»å–åœ°å€ 0x800025c0
å†™å…¥åœ°å€ 0x8000be77
0x800025c0: 00 b7 80 23 sb	a1, 0(a5)
è¯»å–åœ°å€ 0x800025c4
0x800025c4: 00 17 87 93 addi	a5, a5, 1
è¯»å–åœ°å€ 0x800025c8
0x800025c8: fe e7 9c e3 bne	a5, a4, 0x800025c0
è¯»å–åœ°å€ 0x800025c0
å†™å…¥åœ°å€ 0x8000be78
0x800025c0: 00 b7 80 23 sb	a1, 0(a5)
è¯»å–åœ°å€ 0x800025c4
0x800025c4: 00 17 87 93 addi	a5, a5, 1
è¯»å–åœ°å€ 0x800025c8
0x800025c8: fe e7 9c e3 bne	a5, a4, 0x800025c0
è¯»å–åœ°å€ 0x800025c0
å†™å…¥åœ°å€ 0x8000be79
0x800025c0: 00 b7 80 23 sb	a1, 0(a5)
è¯»å–åœ°å€ 0x800025c4
0x800025c4: 00 17 87 93 addi	a5, a5, 1
è¯»å–åœ°å€ 0x800025c8
0x800025c8: fe e7 9c e3 bne	a5, a4, 0x800025c0
è¯»å–åœ°å€ 0x800025c0
å†™å…¥åœ°å€ 0x8000be7a
0x800025c0: 00 b7 80 23 sb	a1, 0(a5)
è¯»å–åœ°å€ 0x800025c4
0x800025c4: 00 17 87 93 addi	a5, a5, 1
è¯»å–åœ°å€ 0x800025c8
0x800025c8: fe e7 9c e3 bne	a5, a4, 0x800025c0
è¯»å–åœ°å€ 0x800025c0
å†™å…¥åœ°å€ 0x8000be7b
0x800025c0: 00 b7 80 23 sb	a1, 0(a5)
è¯»å–åœ°å€ 0x800025c4
0x800025c4: 00 17 87 93 addi	a5, a5, 1
è¯»å–åœ°å€ 0x800025c8
0x800025c8: fe e7 9c e3 bne	a5, a4, 0x800025c0
è¯»å–åœ°å€ 0x800025c0
å†™å…¥åœ°å€ 0x8000be7c
0x800025c0: 00 b7 80 23 sb	a1, 0(a5)
è¯»å–åœ°å€ 0x800025c4
0x800025c4: 00 17 87 93 addi	a5, a5, 1
è¯»å–åœ°å€ 0x800025c8
0x800025c8: fe e7 9c e3 bne	a5, a4, 0x800025c0
è¯»å–åœ°å€ 0x800025c0
å†™å…¥åœ°å€ 0x8000be7d
0x800025c0: 00 b7 80 23 sb	a1, 0(a5)
è¯»å–åœ°å€ 0x800025c4
0x800025c4: 00 17 87 93 addi	a5, a5, 1
è¯»å–åœ°å€ 0x800025c8
0x800025c8: fe e7 9c e3 bne	a5, a4, 0x800025c0
è¯»å–åœ°å€ 0x800025c0
å†™å…¥åœ°å€ 0x8000be7e
0x800025c0: 00 b7 80 23 sb	a1, 0(a5)
è¯»å–åœ°å€ 0x800025c4
0x800025c4: 00 17 87 93 addi	a5, a5, 1
è¯»å–åœ°å€ 0x800025c8
0x800025c8: fe e7 9c e3 bne	a5, a4, 0x800025c0
è¯»å–åœ°å€ 0x800025c0
å†™å…¥åœ°å€ 0x8000be7f
0x800025c0: 00 b7 80 23 sb	a1, 0(a5)
è¯»å–åœ°å€ 0x800025c4
0x800025c4: 00 17 87 93 addi	a5, a5, 1
è¯»å–åœ°å€ 0x800025c8
0x800025c8: fe e7 9c e3 bne	a5, a4, 0x800025c0
è¯»å–åœ°å€ 0x800025c0
å†™å…¥åœ°å€ 0x8000be80
0x800025c0: 00 b7 80 23 sb	a1, 0(a5)
è¯»å–åœ°å€ 0x800025c4
0x800025c4: 00 17 87 93 addi	a5, a5, 1
è¯»å–åœ°å€ 0x800025c8
0x800025c8: fe e7 9c e3 bne	a5, a4, 0x800025c0
è¯»å–åœ°å€ 0x800025c0
å†™å…¥åœ°å€ 0x8000be81
0x800025c0: 00 b7 80 23 sb	a1, 0(a5)
è¯»å–åœ°å€ 0x800025c4
0x800025c4: 00 17 87 93 addi	a5, a5, 1
è¯»å–åœ°å€ 0x800025c8
0x800025c8: fe e7 9c e3 bne	a5, a4, 0x800025c0
è¯»å–åœ°å€ 0x800025c0
å†™å…¥åœ°å€ 0x8000be82
0x800025c0: 00 b7 80 23 sb	a1, 0(a5)
è¯»å–åœ°å€ 0x800025c4
0x800025c4: 00 17 87 93 addi	a5, a5, 1
è¯»å–åœ°å€ 0x800025c8
0x800025c8: fe e7 9c e3 bne	a5, a4, 0x800025c0
è¯»å–åœ°å€ 0x800025c0
å†™å…¥åœ°å€ 0x8000be83
0x800025c0: 00 b7 80 23 sb	a1, 0(a5)
è¯»å–åœ°å€ 0x800025c4
0x800025c4: 00 17 87 93 addi	a5, a5, 1
è¯»å–åœ°å€ 0x800025c8
0x800025c8: fe e7 9c e3 bne	a5, a4, 0x800025c0
è¯»å–åœ°å€ 0x800025c0
å†™å…¥åœ°å€ 0x8000be84
0x800025c0: 00 b7 80 23 sb	a1, 0(a5)
è¯»å–åœ°å€ 0x800025c4
0x800025c4: 00 17 87 93 addi	a5, a5, 1
è¯»å–åœ°å€ 0x800025c8
0x800025c8: fe e7 9c e3 bne	a5, a4, 0x800025c0
è¯»å–åœ°å€ 0x800025c0
å†™å…¥åœ°å€ 0x8000be85
0x800025c0: 00 b7 80 23 sb	a1, 0(a5)
è¯»å–åœ°å€ 0x800025c4
0x800025c4: 00 17 87 93 addi	a5, a5, 1
è¯»å–åœ°å€ 0x800025c8
0x800025c8: fe e7 9c e3 bne	a5, a4, 0x800025c0
è¯»å–åœ°å€ 0x800025c0
å†™å…¥åœ°å€ 0x8000be86
0x800025c0: 00 b7 80 23 sb	a1, 0(a5)
è¯»å–åœ°å€ 0x800025c4
0x800025c4: 00 17 87 93 addi	a5, a5, 1
è¯»å–åœ°å€ 0x800025c8
0x800025c8: fe e7 9c e3 bne	a5, a4, 0x800025c0
è¯»å–åœ°å€ 0x800025c0
å†™å…¥åœ°å€ 0x8000be87
0x800025c0: 00 b7 80 23 sb	a1, 0(a5)
è¯»å–åœ°å€ 0x800025c4
0x800025c4: 00 17 87 93 addi	a5, a5, 1
è¯»å–åœ°å€ 0x800025c8
0x800025c8: fe e7 9c e3 bne	a5, a4, 0x800025c0
è¯»å–åœ°å€ 0x800025c0
å†™å…¥åœ°å€ 0x8000be88
0x800025c0: 00 b7 80 23 sb	a1, 0(a5)
è¯»å–åœ°å€ 0x800025c4
0x800025c4: 00 17 87 93 addi	a5, a5, 1
è¯»å–åœ°å€ 0x800025c8
0x800025c8: fe e7 9c e3 bne	a5, a4, 0x800025c0
è¯»å–åœ°å€ 0x800025c0
å†™å…¥åœ°å€ 0x8000be89
0x800025c0: 00 b7 80 23 sb	a1, 0(a5)
è¯»å–åœ°å€ 0x800025c4
0x800025c4: 00 17 87 93 addi	a5, a5, 1
è¯»å–åœ°å€ 0x800025c8
0x800025c8: fe e7 9c e3 bne	a5, a4, 0x800025c0
è¯»å–åœ°å€ 0x800025c0
å†™å…¥åœ°å€ 0x8000be8a
0x800025c0: 00 b7 80 23 sb	a1, 0(a5)
è¯»å–åœ°å€ 0x800025c4
0x800025c4: 00 17 87 93 addi	a5, a5, 1
è¯»å–åœ°å€ 0x800025c8
0x800025c8: fe e7 9c e3 bne	a5, a4, 0x800025c0
è¯»å–åœ°å€ 0x800025c0
å†™å…¥åœ°å€ 0x8000be8b
0x800025c0: 00 b7 80 23 sb	a1, 0(a5)
è¯»å–åœ°å€ 0x800025c4
0x800025c4: 00 17 87 93 addi	a5, a5, 1
è¯»å–åœ°å€ 0x800025c8
0x800025c8: fe e7 9c e3 bne	a5, a4, 0x800025c0
è¯»å–åœ°å€ 0x800025c0
å†™å…¥åœ°å€ 0x8000be8c
0x800025c0: 00 b7 80 23 sb	a1, 0(a5)
è¯»å–åœ°å€ 0x800025c4
0x800025c4: 00 17 87 93 addi	a5, a5, 1
è¯»å–åœ°å€ 0x800025c8
0x800025c8: fe e7 9c e3 bne	a5, a4, 0x800025c0
è¯»å–åœ°å€ 0x800025c0
å†™å…¥åœ°å€ 0x8000be8d
0x800025c0: 00 b7 80 23 sb	a1, 0(a5)
è¯»å–åœ°å€ 0x800025c4
0x800025c4: 00 17 87 93 addi	a5, a5, 1
è¯»å–åœ°å€ 0x800025c8
0x800025c8: fe e7 9c e3 bne	a5, a4, 0x800025c0
è¯»å–åœ°å€ 0x800025c0
å†™å…¥åœ°å€ 0x8000be8e
0x800025c0: 00 b7 80 23 sb	a1, 0(a5)
è¯»å–åœ°å€ 0x800025c4
0x800025c4: 00 17 87 93 addi	a5, a5, 1
è¯»å–åœ°å€ 0x800025c8
0x800025c8: fe e7 9c e3 bne	a5, a4, 0x800025c0
è¯»å–åœ°å€ 0x800025c0
å†™å…¥åœ°å€ 0x8000be8f
0x800025c0: 00 b7 80 23 sb	a1, 0(a5)
è¯»å–åœ°å€ 0x800025c4
0x800025c4: 00 17 87 93 addi	a5, a5, 1
è¯»å–åœ°å€ 0x800025c8
0x800025c8: fe e7 9c e3 bne	a5, a4, 0x800025c0
è¯»å–åœ°å€ 0x800025c0
å†™å…¥åœ°å€ 0x8000be90
0x800025c0: 00 b7 80 23 sb	a1, 0(a5)
è¯»å–åœ°å€ 0x800025c4
0x800025c4: 00 17 87 93 addi	a5, a5, 1
è¯»å–åœ°å€ 0x800025c8
0x800025c8: fe e7 9c e3 bne	a5, a4, 0x800025c0
è¯»å–åœ°å€ 0x800025c0
å†™å…¥åœ°å€ 0x8000be91
0x800025c0: 00 b7 80 23 sb	a1, 0(a5)
è¯»å–åœ°å€ 0x800025c4
0x800025c4: 00 17 87 93 addi	a5, a5, 1
è¯»å–åœ°å€ 0x800025c8
0x800025c8: fe e7 9c e3 bne	a5, a4, 0x800025c0
è¯»å–åœ°å€ 0x800025c0
å†™å…¥åœ°å€ 0x8000be92
0x800025c0: 00 b7 80 23 sb	a1, 0(a5)
è¯»å–åœ°å€ 0x800025c4
0x800025c4: 00 17 87 93 addi	a5, a5, 1
è¯»å–åœ°å€ 0x800025c8
0x800025c8: fe e7 9c e3 bne	a5, a4, 0x800025c0
è¯»å–åœ°å€ 0x800025c0
å†™å…¥åœ°å€ 0x8000be93
0x800025c0: 00 b7 80 23 sb	a1, 0(a5)
è¯»å–åœ°å€ 0x800025c4
0x800025c4: 00 17 87 93 addi	a5, a5, 1
è¯»å–åœ°å€ 0x800025c8
0x800025c8: fe e7 9c e3 bne	a5, a4, 0x800025c0
è¯»å–åœ°å€ 0x800025c0
å†™å…¥åœ°å€ 0x8000be94
0x800025c0: 00 b7 80 23 sb	a1, 0(a5)
è¯»å–åœ°å€ 0x800025c4
0x800025c4: 00 17 87 93 addi	a5, a5, 1
è¯»å–åœ°å€ 0x800025c8
0x800025c8: fe e7 9c e3 bne	a5, a4, 0x800025c0
è¯»å–åœ°å€ 0x800025c0
å†™å…¥åœ°å€ 0x8000be95
0x800025c0: 00 b7 80 23 sb	a1, 0(a5)
è¯»å–åœ°å€ 0x800025c4
0x800025c4: 00 17 87 93 addi	a5, a5, 1
è¯»å–åœ°å€ 0x800025c8
0x800025c8: fe e7 9c e3 bne	a5, a4, 0x800025c0
è¯»å–åœ°å€ 0x800025c0
å†™å…¥åœ°å€ 0x8000be96
0x800025c0: 00 b7 80 23 sb	a1, 0(a5)
è¯»å–åœ°å€ 0x800025c4
0x800025c4: 00 17 87 93 addi	a5, a5, 1
è¯»å–åœ°å€ 0x800025c8
0x800025c8: fe e7 9c e3 bne	a5, a4, 0x800025c0
è¯»å–åœ°å€ 0x800025c0
å†™å…¥åœ°å€ 0x8000be97
0x800025c0: 00 b7 80 23 sb	a1, 0(a5)
è¯»å–åœ°å€ 0x800025c4
0x800025c4: 00 17 87 93 addi	a5, a5, 1
è¯»å–åœ°å€ 0x800025c8
0x800025c8: fe e7 9c e3 bne	a5, a4, 0x800025c0
è¯»å–åœ°å€ 0x800025c0
å†™å…¥åœ°å€ 0x8000be98
0x800025c0: 00 b7 80 23 sb	a1, 0(a5)
è¯»å–åœ°å€ 0x800025c4
0x800025c4: 00 17 87 93 addi	a5, a5, 1
è¯»å–åœ°å€ 0x800025c8
0x800025c8: fe e7 9c e3 bne	a5, a4, 0x800025c0
è¯»å–åœ°å€ 0x800025c0
å†™å…¥åœ°å€ 0x8000be99
0x800025c0: 00 b7 80 23 sb	a1, 0(a5)
è¯»å–åœ°å€ 0x800025c4
0x800025c4: 00 17 87 93 addi	a5, a5, 1
è¯»å–åœ°å€ 0x800025c8
0x800025c8: fe e7 9c e3 bne	a5, a4, 0x800025c0
è¯»å–åœ°å€ 0x800025c0
å†™å…¥åœ°å€ 0x8000be9a
0x800025c0: 00 b7 80 23 sb	a1, 0(a5)
è¯»å–åœ°å€ 0x800025c4
0x800025c4: 00 17 87 93 addi	a5, a5, 1
è¯»å–åœ°å€ 0x800025c8
0x800025c8: fe e7 9c e3 bne	a5, a4, 0x800025c0
è¯»å–åœ°å€ 0x800025c0
å†™å…¥åœ°å€ 0x8000be9b
0x800025c0: 00 b7 80 23 sb	a1, 0(a5)
è¯»å–åœ°å€ 0x800025c4
0x800025c4: 00 17 87 93 addi	a5, a5, 1
è¯»å–åœ°å€ 0x800025c8
0x800025c8: fe e7 9c e3 bne	a5, a4, 0x800025c0
è¯»å–åœ°å€ 0x800025c0
å†™å…¥åœ°å€ 0x8000be9c
0x800025c0: 00 b7 80 23 sb	a1, 0(a5)
è¯»å–åœ°å€ 0x800025c4
0x800025c4: 00 17 87 93 addi	a5, a5, 1
è¯»å–åœ°å€ 0x800025c8
0x800025c8: fe e7 9c e3 bne	a5, a4, 0x800025c0
è¯»å–åœ°å€ 0x800025c0
å†™å…¥åœ°å€ 0x8000be9d
0x800025c0: 00 b7 80 23 sb	a1, 0(a5)
è¯»å–åœ°å€ 0x800025c4
0x800025c4: 00 17 87 93 addi	a5, a5, 1
è¯»å–åœ°å€ 0x800025c8
0x800025c8: fe e7 9c e3 bne	a5, a4, 0x800025c0
è¯»å–åœ°å€ 0x800025c0
å†™å…¥åœ°å€ 0x8000be9e
0x800025c0: 00 b7 80 23 sb	a1, 0(a5)
è¯»å–åœ°å€ 0x800025c4
0x800025c4: 00 17 87 93 addi	a5, a5, 1
è¯»å–åœ°å€ 0x800025c8
0x800025c8: fe e7 9c e3 bne	a5, a4, 0x800025c0
è¯»å–åœ°å€ 0x800025c0
å†™å…¥åœ°å€ 0x8000be9f
0x800025c0: 00 b7 80 23 sb	a1, 0(a5)
è¯»å–åœ°å€ 0x800025c4
0x800025c4: 00 17 87 93 addi	a5, a5, 1
è¯»å–åœ°å€ 0x800025c8
0x800025c8: fe e7 9c e3 bne	a5, a4, 0x800025c0
è¯»å–åœ°å€ 0x800025c0
å†™å…¥åœ°å€ 0x8000bea0
0x800025c0: 00 b7 80 23 sb	a1, 0(a5)
è¯»å–åœ°å€ 0x800025c4
0x800025c4: 00 17 87 93 addi	a5, a5, 1
è¯»å–åœ°å€ 0x800025c8
0x800025c8: fe e7 9c e3 bne	a5, a4, 0x800025c0
è¯»å–åœ°å€ 0x800025c0
å†™å…¥åœ°å€ 0x8000bea1
0x800025c0: 00 b7 80 23 sb	a1, 0(a5)
è¯»å–åœ°å€ 0x800025c4
0x800025c4: 00 17 87 93 addi	a5, a5, 1
è¯»å–åœ°å€ 0x800025c8
0x800025c8: fe e7 9c e3 bne	a5, a4, 0x800025c0
è¯»å–åœ°å€ 0x800025c0
å†™å…¥åœ°å€ 0x8000bea2
0x800025c0: 00 b7 80 23 sb	a1, 0(a5)
è¯»å–åœ°å€ 0x800025c4
0x800025c4: 00 17 87 93 addi	a5, a5, 1
è¯»å–åœ°å€ 0x800025c8
0x800025c8: fe e7 9c e3 bne	a5, a4, 0x800025c0
è¯»å–åœ°å€ 0x800025c0
å†™å…¥åœ°å€ 0x8000bea3
0x800025c0: 00 b7 80 23 sb	a1, 0(a5)
è¯»å–åœ°å€ 0x800025c4
0x800025c4: 00 17 87 93 addi	a5, a5, 1
è¯»å–åœ°å€ 0x800025c8
0x800025c8: fe e7 9c e3 bne	a5, a4, 0x800025c0
è¯»å–åœ°å€ 0x800025c0
å†™å…¥åœ°å€ 0x8000bea4
0x800025c0: 00 b7 80 23 sb	a1, 0(a5)
è¯»å–åœ°å€ 0x800025c4
0x800025c4: 00 17 87 93 addi	a5, a5, 1
è¯»å–åœ°å€ 0x800025c8
0x800025c8: fe e7 9c e3 bne	a5, a4, 0x800025c0
è¯»å–åœ°å€ 0x800025c0
å†™å…¥åœ°å€ 0x8000bea5
0x800025c0: 00 b7 80 23 sb	a1, 0(a5)
è¯»å–åœ°å€ 0x800025c4
0x800025c4: 00 17 87 93 addi	a5, a5, 1
è¯»å–åœ°å€ 0x800025c8
0x800025c8: fe e7 9c e3 bne	a5, a4, 0x800025c0
è¯»å–åœ°å€ 0x800025c0
å†™å…¥åœ°å€ 0x8000bea6
0x800025c0: 00 b7 80 23 sb	a1, 0(a5)
è¯»å–åœ°å€ 0x800025c4
0x800025c4: 00 17 87 93 addi	a5, a5, 1
è¯»å–åœ°å€ 0x800025c8
0x800025c8: fe e7 9c e3 bne	a5, a4, 0x800025c0
è¯»å–åœ°å€ 0x800025c0
å†™å…¥åœ°å€ 0x8000bea7
0x800025c0: 00 b7 80 23 sb	a1, 0(a5)
è¯»å–åœ°å€ 0x800025c4
0x800025c4: 00 17 87 93 addi	a5, a5, 1
è¯»å–åœ°å€ 0x800025c8
0x800025c8: fe e7 9c e3 bne	a5, a4, 0x800025c0
è¯»å–åœ°å€ 0x800025c0
å†™å…¥åœ°å€ 0x8000bea8
0x800025c0: 00 b7 80 23 sb	a1, 0(a5)
è¯»å–åœ°å€ 0x800025c4
0x800025c4: 00 17 87 93 addi	a5, a5, 1
è¯»å–åœ°å€ 0x800025c8
0x800025c8: fe e7 9c e3 bne	a5, a4, 0x800025c0
è¯»å–åœ°å€ 0x800025c0
å†™å…¥åœ°å€ 0x8000bea9
0x800025c0: 00 b7 80 23 sb	a1, 0(a5)
è¯»å–åœ°å€ 0x800025c4
0x800025c4: 00 17 87 93 addi	a5, a5, 1
è¯»å–åœ°å€ 0x800025c8
0x800025c8: fe e7 9c e3 bne	a5, a4, 0x800025c0
è¯»å–åœ°å€ 0x800025c0
å†™å…¥åœ°å€ 0x8000beaa
0x800025c0: 00 b7 80 23 sb	a1, 0(a5)
è¯»å–åœ°å€ 0x800025c4
0x800025c4: 00 17 87 93 addi	a5, a5, 1
è¯»å–åœ°å€ 0x800025c8
0x800025c8: fe e7 9c e3 bne	a5, a4, 0x800025c0
è¯»å–åœ°å€ 0x800025c0
å†™å…¥åœ°å€ 0x8000beab
0x800025c0: 00 b7 80 23 sb	a1, 0(a5)
è¯»å–åœ°å€ 0x800025c4
0x800025c4: 00 17 87 93 addi	a5, a5, 1
è¯»å–åœ°å€ 0x800025c8
0x800025c8: fe e7 9c e3 bne	a5, a4, 0x800025c0
è¯»å–åœ°å€ 0x800025c0
å†™å…¥åœ°å€ 0x8000beac
0x800025c0: 00 b7 80 23 sb	a1, 0(a5)
è¯»å–åœ°å€ 0x800025c4
0x800025c4: 00 17 87 93 addi	a5, a5, 1
è¯»å–åœ°å€ 0x800025c8
0x800025c8: fe e7 9c e3 bne	a5, a4, 0x800025c0
è¯»å–åœ°å€ 0x800025c0
å†™å…¥åœ°å€ 0x8000bead
0x800025c0: 00 b7 80 23 sb	a1, 0(a5)
è¯»å–åœ°å€ 0x800025c4
0x800025c4: 00 17 87 93 addi	a5, a5, 1
è¯»å–åœ°å€ 0x800025c8
0x800025c8: fe e7 9c e3 bne	a5, a4, 0x800025c0
è¯»å–åœ°å€ 0x800025c0
å†™å…¥åœ°å€ 0x8000beae
0x800025c0: 00 b7 80 23 sb	a1, 0(a5)
è¯»å–åœ°å€ 0x800025c4
0x800025c4: 00 17 87 93 addi	a5, a5, 1
è¯»å–åœ°å€ 0x800025c8
0x800025c8: fe e7 9c e3 bne	a5, a4, 0x800025c0
è¯»å–åœ°å€ 0x800025c0
å†™å…¥åœ°å€ 0x8000beaf
0x800025c0: 00 b7 80 23 sb	a1, 0(a5)
è¯»å–åœ°å€ 0x800025c4
0x800025c4: 00 17 87 93 addi	a5, a5, 1
è¯»å–åœ°å€ 0x800025c8
0x800025c8: fe e7 9c e3 bne	a5, a4, 0x800025c0
è¯»å–åœ°å€ 0x800025c0
å†™å…¥åœ°å€ 0x8000beb0
0x800025c0: 00 b7 80 23 sb	a1, 0(a5)
è¯»å–åœ°å€ 0x800025c4
0x800025c4: 00 17 87 93 addi	a5, a5, 1
è¯»å–åœ°å€ 0x800025c8
0x800025c8: fe e7 9c e3 bne	a5, a4, 0x800025c0
è¯»å–åœ°å€ 0x800025c0
å†™å…¥åœ°å€ 0x8000beb1
0x800025c0: 00 b7 80 23 sb	a1, 0(a5)
è¯»å–åœ°å€ 0x800025c4
0x800025c4: 00 17 87 93 addi	a5, a5, 1
è¯»å–åœ°å€ 0x800025c8
0x800025c8: fe e7 9c e3 bne	a5, a4, 0x800025c0
è¯»å–åœ°å€ 0x800025c0
å†™å…¥åœ°å€ 0x8000beb2
0x800025c0: 00 b7 80 23 sb	a1, 0(a5)
è¯»å–åœ°å€ 0x800025c4
0x800025c4: 00 17 87 93 addi	a5, a5, 1
è¯»å–åœ°å€ 0x800025c8
0x800025c8: fe e7 9c e3 bne	a5, a4, 0x800025c0
è¯»å–åœ°å€ 0x800025c0
å†™å…¥åœ°å€ 0x8000beb3
0x800025c0: 00 b7 80 23 sb	a1, 0(a5)
è¯»å–åœ°å€ 0x800025c4
0x800025c4: 00 17 87 93 addi	a5, a5, 1
è¯»å–åœ°å€ 0x800025c8
0x800025c8: fe e7 9c e3 bne	a5, a4, 0x800025c0
è¯»å–åœ°å€ 0x800025c0
å†™å…¥åœ°å€ 0x8000beb4
0x800025c0: 00 b7 80 23 sb	a1, 0(a5)
è¯»å–åœ°å€ 0x800025c4
0x800025c4: 00 17 87 93 addi	a5, a5, 1
è¯»å–åœ°å€ 0x800025c8
0x800025c8: fe e7 9c e3 bne	a5, a4, 0x800025c0
è¯»å–åœ°å€ 0x800025c0
å†™å…¥åœ°å€ 0x8000beb5
0x800025c0: 00 b7 80 23 sb	a1, 0(a5)
è¯»å–åœ°å€ 0x800025c4
0x800025c4: 00 17 87 93 addi	a5, a5, 1
è¯»å–åœ°å€ 0x800025c8
0x800025c8: fe e7 9c e3 bne	a5, a4, 0x800025c0
è¯»å–åœ°å€ 0x800025c0
å†™å…¥åœ°å€ 0x8000beb6
0x800025c0: 00 b7 80 23 sb	a1, 0(a5)
è¯»å–åœ°å€ 0x800025c4
0x800025c4: 00 17 87 93 addi	a5, a5, 1
è¯»å–åœ°å€ 0x800025c8
0x800025c8: fe e7 9c e3 bne	a5, a4, 0x800025c0
è¯»å–åœ°å€ 0x800025c0
å†™å…¥åœ°å€ 0x8000beb7
0x800025c0: 00 b7 80 23 sb	a1, 0(a5)
è¯»å–åœ°å€ 0x800025c4
0x800025c4: 00 17 87 93 addi	a5, a5, 1
è¯»å–åœ°å€ 0x800025c8
0x800025c8: fe e7 9c e3 bne	a5, a4, 0x800025c0
è¯»å–åœ°å€ 0x800025c0
å†™å…¥åœ°å€ 0x8000beb8
0x800025c0: 00 b7 80 23 sb	a1, 0(a5)
è¯»å–åœ°å€ 0x800025c4
0x800025c4: 00 17 87 93 addi	a5, a5, 1
è¯»å–åœ°å€ 0x800025c8
0x800025c8: fe e7 9c e3 bne	a5, a4, 0x800025c0
è¯»å–åœ°å€ 0x800025c0
å†™å…¥åœ°å€ 0x8000beb9
0x800025c0: 00 b7 80 23 sb	a1, 0(a5)
è¯»å–åœ°å€ 0x800025c4
0x800025c4: 00 17 87 93 addi	a5, a5, 1
è¯»å–åœ°å€ 0x800025c8
0x800025c8: fe e7 9c e3 bne	a5, a4, 0x800025c0
è¯»å–åœ°å€ 0x800025c0
å†™å…¥åœ°å€ 0x8000beba
0x800025c0: 00 b7 80 23 sb	a1, 0(a5)
è¯»å–åœ°å€ 0x800025c4
0x800025c4: 00 17 87 93 addi	a5, a5, 1
è¯»å–åœ°å€ 0x800025c8
0x800025c8: fe e7 9c e3 bne	a5, a4, 0x800025c0
è¯»å–åœ°å€ 0x800025c0
å†™å…¥åœ°å€ 0x8000bebb
0x800025c0: 00 b7 80 23 sb	a1, 0(a5)
è¯»å–åœ°å€ 0x800025c4
0x800025c4: 00 17 87 93 addi	a5, a5, 1
è¯»å–åœ°å€ 0x800025c8
0x800025c8: fe e7 9c e3 bne	a5, a4, 0x800025c0
è¯»å–åœ°å€ 0x800025c0
å†™å…¥åœ°å€ 0x8000bebc
0x800025c0: 00 b7 80 23 sb	a1, 0(a5)
è¯»å–åœ°å€ 0x800025c4
0x800025c4: 00 17 87 93 addi	a5, a5, 1
è¯»å–åœ°å€ 0x800025c8
0x800025c8: fe e7 9c e3 bne	a5, a4, 0x800025c0
è¯»å–åœ°å€ 0x800025c0
å†™å…¥åœ°å€ 0x8000bebd
0x800025c0: 00 b7 80 23 sb	a1, 0(a5)
è¯»å–åœ°å€ 0x800025c4
0x800025c4: 00 17 87 93 addi	a5, a5, 1
è¯»å–åœ°å€ 0x800025c8
0x800025c8: fe e7 9c e3 bne	a5, a4, 0x800025c0
è¯»å–åœ°å€ 0x800025c0
å†™å…¥åœ°å€ 0x8000bebe
0x800025c0: 00 b7 80 23 sb	a1, 0(a5)
è¯»å–åœ°å€ 0x800025c4
0x800025c4: 00 17 87 93 addi	a5, a5, 1
è¯»å–åœ°å€ 0x800025c8
0x800025c8: fe e7 9c e3 bne	a5, a4, 0x800025c0
è¯»å–åœ°å€ 0x800025c0
å†™å…¥åœ°å€ 0x8000bebf
0x800025c0: 00 b7 80 23 sb	a1, 0(a5)
è¯»å–åœ°å€ 0x800025c4
0x800025c4: 00 17 87 93 addi	a5, a5, 1
è¯»å–åœ°å€ 0x800025c8
0x800025c8: fe e7 9c e3 bne	a5, a4, 0x800025c0
è¯»å–åœ°å€ 0x800025c0
å†™å…¥åœ°å€ 0x8000bec0
0x800025c0: 00 b7 80 23 sb	a1, 0(a5)
è¯»å–åœ°å€ 0x800025c4
0x800025c4: 00 17 87 93 addi	a5, a5, 1
è¯»å–åœ°å€ 0x800025c8
0x800025c8: fe e7 9c e3 bne	a5, a4, 0x800025c0
è¯»å–åœ°å€ 0x800025c0
å†™å…¥åœ°å€ 0x8000bec1
0x800025c0: 00 b7 80 23 sb	a1, 0(a5)
è¯»å–åœ°å€ 0x800025c4
0x800025c4: 00 17 87 93 addi	a5, a5, 1
è¯»å–åœ°å€ 0x800025c8
0x800025c8: fe e7 9c e3 bne	a5, a4, 0x800025c0
è¯»å–åœ°å€ 0x800025c0
å†™å…¥åœ°å€ 0x8000bec2
0x800025c0: 00 b7 80 23 sb	a1, 0(a5)
è¯»å–åœ°å€ 0x800025c4
0x800025c4: 00 17 87 93 addi	a5, a5, 1
è¯»å–åœ°å€ 0x800025c8
0x800025c8: fe e7 9c e3 bne	a5, a4, 0x800025c0
è¯»å–åœ°å€ 0x800025c0
å†™å…¥åœ°å€ 0x8000bec3
0x800025c0: 00 b7 80 23 sb	a1, 0(a5)
è¯»å–åœ°å€ 0x800025c4
0x800025c4: 00 17 87 93 addi	a5, a5, 1
è¯»å–åœ°å€ 0x800025c8
0x800025c8: fe e7 9c e3 bne	a5, a4, 0x800025c0
è¯»å–åœ°å€ 0x800025c0
å†™å…¥åœ°å€ 0x8000bec4
0x800025c0: 00 b7 80 23 sb	a1, 0(a5)
è¯»å–åœ°å€ 0x800025c4
0x800025c4: 00 17 87 93 addi	a5, a5, 1
è¯»å–åœ°å€ 0x800025c8
0x800025c8: fe e7 9c e3 bne	a5, a4, 0x800025c0
è¯»å–åœ°å€ 0x800025c0
å†™å…¥åœ°å€ 0x8000bec5
0x800025c0: 00 b7 80 23 sb	a1, 0(a5)
è¯»å–åœ°å€ 0x800025c4
0x800025c4: 00 17 87 93 addi	a5, a5, 1
è¯»å–åœ°å€ 0x800025c8
0x800025c8: fe e7 9c e3 bne	a5, a4, 0x800025c0
è¯»å–åœ°å€ 0x800025c0
å†™å…¥åœ°å€ 0x8000bec6
0x800025c0: 00 b7 80 23 sb	a1, 0(a5)
è¯»å–åœ°å€ 0x800025c4
0x800025c4: 00 17 87 93 addi	a5, a5, 1
è¯»å–åœ°å€ 0x800025c8
0x800025c8: fe e7 9c e3 bne	a5, a4, 0x800025c0
è¯»å–åœ°å€ 0x800025c0
å†™å…¥åœ°å€ 0x8000bec7
0x800025c0: 00 b7 80 23 sb	a1, 0(a5)
è¯»å–åœ°å€ 0x800025c4
0x800025c4: 00 17 87 93 addi	a5, a5, 1
è¯»å–åœ°å€ 0x800025c8
0x800025c8: fe e7 9c e3 bne	a5, a4, 0x800025c0
è¯»å–åœ°å€ 0x800025c0
å†™å…¥åœ°å€ 0x8000bec8
0x800025c0: 00 b7 80 23 sb	a1, 0(a5)
è¯»å–åœ°å€ 0x800025c4
0x800025c4: 00 17 87 93 addi	a5, a5, 1
è¯»å–åœ°å€ 0x800025c8
0x800025c8: fe e7 9c e3 bne	a5, a4, 0x800025c0
è¯»å–åœ°å€ 0x800025c0
å†™å…¥åœ°å€ 0x8000bec9
0x800025c0: 00 b7 80 23 sb	a1, 0(a5)
è¯»å–åœ°å€ 0x800025c4
0x800025c4: 00 17 87 93 addi	a5, a5, 1
è¯»å–åœ°å€ 0x800025c8
0x800025c8: fe e7 9c e3 bne	a5, a4, 0x800025c0
è¯»å–åœ°å€ 0x800025c0
å†™å…¥åœ°å€ 0x8000beca
0x800025c0: 00 b7 80 23 sb	a1, 0(a5)
è¯»å–åœ°å€ 0x800025c4
0x800025c4: 00 17 87 93 addi	a5, a5, 1
è¯»å–åœ°å€ 0x800025c8
0x800025c8: fe e7 9c e3 bne	a5, a4, 0x800025c0
è¯»å–åœ°å€ 0x800025c0
å†™å…¥åœ°å€ 0x8000becb
0x800025c0: 00 b7 80 23 sb	a1, 0(a5)
è¯»å–åœ°å€ 0x800025c4
0x800025c4: 00 17 87 93 addi	a5, a5, 1
è¯»å–åœ°å€ 0x800025c8
0x800025c8: fe e7 9c e3 bne	a5, a4, 0x800025c0
è¯»å–åœ°å€ 0x800025c0
å†™å…¥åœ°å€ 0x8000becc
0x800025c0: 00 b7 80 23 sb	a1, 0(a5)
è¯»å–åœ°å€ 0x800025c4
0x800025c4: 00 17 87 93 addi	a5, a5, 1
è¯»å–åœ°å€ 0x800025c8
0x800025c8: fe e7 9c e3 bne	a5, a4, 0x800025c0
è¯»å–åœ°å€ 0x800025c0
å†™å…¥åœ°å€ 0x8000becd
0x800025c0: 00 b7 80 23 sb	a1, 0(a5)
è¯»å–åœ°å€ 0x800025c4
0x800025c4: 00 17 87 93 addi	a5, a5, 1
è¯»å–åœ°å€ 0x800025c8
0x800025c8: fe e7 9c e3 bne	a5, a4, 0x800025c0
è¯»å–åœ°å€ 0x800025c0
å†™å…¥åœ°å€ 0x8000bece
0x800025c0: 00 b7 80 23 sb	a1, 0(a5)
è¯»å–åœ°å€ 0x800025c4
0x800025c4: 00 17 87 93 addi	a5, a5, 1
è¯»å–åœ°å€ 0x800025c8
0x800025c8: fe e7 9c e3 bne	a5, a4, 0x800025c0
è¯»å–åœ°å€ 0x800025c0
å†™å…¥åœ°å€ 0x8000becf
0x800025c0: 00 b7 80 23 sb	a1, 0(a5)
è¯»å–åœ°å€ 0x800025c4
0x800025c4: 00 17 87 93 addi	a5, a5, 1
è¯»å–åœ°å€ 0x800025c8
0x800025c8: fe e7 9c e3 bne	a5, a4, 0x800025c0
è¯»å–åœ°å€ 0x800025c0
å†™å…¥åœ°å€ 0x8000bed0
0x800025c0: 00 b7 80 23 sb	a1, 0(a5)
è¯»å–åœ°å€ 0x800025c4
0x800025c4: 00 17 87 93 addi	a5, a5, 1
è¯»å–åœ°å€ 0x800025c8
0x800025c8: fe e7 9c e3 bne	a5, a4, 0x800025c0
è¯»å–åœ°å€ 0x800025c0
å†™å…¥åœ°å€ 0x8000bed1
0x800025c0: 00 b7 80 23 sb	a1, 0(a5)
è¯»å–åœ°å€ 0x800025c4
0x800025c4: 00 17 87 93 addi	a5, a5, 1
è¯»å–åœ°å€ 0x800025c8
0x800025c8: fe e7 9c e3 bne	a5, a4, 0x800025c0
è¯»å–åœ°å€ 0x800025c0
å†™å…¥åœ°å€ 0x8000bed2
0x800025c0: 00 b7 80 23 sb	a1, 0(a5)
è¯»å–åœ°å€ 0x800025c4
0x800025c4: 00 17 87 93 addi	a5, a5, 1
è¯»å–åœ°å€ 0x800025c8
0x800025c8: fe e7 9c e3 bne	a5, a4, 0x800025c0
è¯»å–åœ°å€ 0x800025c0
å†™å…¥åœ°å€ 0x8000bed3
0x800025c0: 00 b7 80 23 sb	a1, 0(a5)
è¯»å–åœ°å€ 0x800025c4
0x800025c4: 00 17 87 93 addi	a5, a5, 1
è¯»å–åœ°å€ 0x800025c8
0x800025c8: fe e7 9c e3 bne	a5, a4, 0x800025c0
è¯»å–åœ°å€ 0x800025c0
å†™å…¥åœ°å€ 0x8000bed4
0x800025c0: 00 b7 80 23 sb	a1, 0(a5)
è¯»å–åœ°å€ 0x800025c4
0x800025c4: 00 17 87 93 addi	a5, a5, 1
è¯»å–åœ°å€ 0x800025c8
0x800025c8: fe e7 9c e3 bne	a5, a4, 0x800025c0
è¯»å–åœ°å€ 0x800025c0
å†™å…¥åœ°å€ 0x8000bed5
0x800025c0: 00 b7 80 23 sb	a1, 0(a5)
è¯»å–åœ°å€ 0x800025c4
0x800025c4: 00 17 87 93 addi	a5, a5, 1
è¯»å–åœ°å€ 0x800025c8
0x800025c8: fe e7 9c e3 bne	a5, a4, 0x800025c0
è¯»å–åœ°å€ 0x800025c0
å†™å…¥åœ°å€ 0x8000bed6
0x800025c0: 00 b7 80 23 sb	a1, 0(a5)
è¯»å–åœ°å€ 0x800025c4
0x800025c4: 00 17 87 93 addi	a5, a5, 1
è¯»å–åœ°å€ 0x800025c8
0x800025c8: fe e7 9c e3 bne	a5, a4, 0x800025c0
è¯»å–åœ°å€ 0x800025c0
å†™å…¥åœ°å€ 0x8000bed7
0x800025c0: 00 b7 80 23 sb	a1, 0(a5)
è¯»å–åœ°å€ 0x800025c4
0x800025c4: 00 17 87 93 addi	a5, a5, 1
è¯»å–åœ°å€ 0x800025c8
0x800025c8: fe e7 9c e3 bne	a5, a4, 0x800025c0
è¯»å–åœ°å€ 0x800025c0
å†™å…¥åœ°å€ 0x8000bed8
0x800025c0: 00 b7 80 23 sb	a1, 0(a5)
è¯»å–åœ°å€ 0x800025c4
0x800025c4: 00 17 87 93 addi	a5, a5, 1
è¯»å–åœ°å€ 0x800025c8
0x800025c8: fe e7 9c e3 bne	a5, a4, 0x800025c0
è¯»å–åœ°å€ 0x800025c0
å†™å…¥åœ°å€ 0x8000bed9
0x800025c0: 00 b7 80 23 sb	a1, 0(a5)
è¯»å–åœ°å€ 0x800025c4
0x800025c4: 00 17 87 93 addi	a5, a5, 1
è¯»å–åœ°å€ 0x800025c8
0x800025c8: fe e7 9c e3 bne	a5, a4, 0x800025c0
è¯»å–åœ°å€ 0x800025c0
å†™å…¥åœ°å€ 0x8000beda
0x800025c0: 00 b7 80 23 sb	a1, 0(a5)
è¯»å–åœ°å€ 0x800025c4
0x800025c4: 00 17 87 93 addi	a5, a5, 1
è¯»å–åœ°å€ 0x800025c8
0x800025c8: fe e7 9c e3 bne	a5, a4, 0x800025c0
è¯»å–åœ°å€ 0x800025c0
å†™å…¥åœ°å€ 0x8000bedb
0x800025c0: 00 b7 80 23 sb	a1, 0(a5)
è¯»å–åœ°å€ 0x800025c4
0x800025c4: 00 17 87 93 addi	a5, a5, 1
è¯»å–åœ°å€ 0x800025c8
0x800025c8: fe e7 9c e3 bne	a5, a4, 0x800025c0
è¯»å–åœ°å€ 0x800025c0
å†™å…¥åœ°å€ 0x8000bedc
0x800025c0: 00 b7 80 23 sb	a1, 0(a5)
è¯»å–åœ°å€ 0x800025c4
0x800025c4: 00 17 87 93 addi	a5, a5, 1
è¯»å–åœ°å€ 0x800025c8
0x800025c8: fe e7 9c e3 bne	a5, a4, 0x800025c0
è¯»å–åœ°å€ 0x800025c0
å†™å…¥åœ°å€ 0x8000bedd
0x800025c0: 00 b7 80 23 sb	a1, 0(a5)
è¯»å–åœ°å€ 0x800025c4
0x800025c4: 00 17 87 93 addi	a5, a5, 1
è¯»å–åœ°å€ 0x800025c8
0x800025c8: fe e7 9c e3 bne	a5, a4, 0x800025c0
è¯»å–åœ°å€ 0x800025c0
å†™å…¥åœ°å€ 0x8000bede
0x800025c0: 00 b7 80 23 sb	a1, 0(a5)
è¯»å–åœ°å€ 0x800025c4
0x800025c4: 00 17 87 93 addi	a5, a5, 1
è¯»å–åœ°å€ 0x800025c8
0x800025c8: fe e7 9c e3 bne	a5, a4, 0x800025c0
è¯»å–åœ°å€ 0x800025c0
å†™å…¥åœ°å€ 0x8000bedf
0x800025c0: 00 b7 80 23 sb	a1, 0(a5)
è¯»å–åœ°å€ 0x800025c4
0x800025c4: 00 17 87 93 addi	a5, a5, 1
è¯»å–åœ°å€ 0x800025c8
0x800025c8: fe e7 9c e3 bne	a5, a4, 0x800025c0
è¯»å–åœ°å€ 0x800025c0
å†™å…¥åœ°å€ 0x8000bee0
0x800025c0: 00 b7 80 23 sb	a1, 0(a5)
è¯»å–åœ°å€ 0x800025c4
0x800025c4: 00 17 87 93 addi	a5, a5, 1
è¯»å–åœ°å€ 0x800025c8
0x800025c8: fe e7 9c e3 bne	a5, a4, 0x800025c0
è¯»å–åœ°å€ 0x800025c0
å†™å…¥åœ°å€ 0x8000bee1
0x800025c0: 00 b7 80 23 sb	a1, 0(a5)
è¯»å–åœ°å€ 0x800025c4
0x800025c4: 00 17 87 93 addi	a5, a5, 1
è¯»å–åœ°å€ 0x800025c8
0x800025c8: fe e7 9c e3 bne	a5, a4, 0x800025c0
è¯»å–åœ°å€ 0x800025c0
å†™å…¥åœ°å€ 0x8000bee2
0x800025c0: 00 b7 80 23 sb	a1, 0(a5)
è¯»å–åœ°å€ 0x800025c4
0x800025c4: 00 17 87 93 addi	a5, a5, 1
è¯»å–åœ°å€ 0x800025c8
0x800025c8: fe e7 9c e3 bne	a5, a4, 0x800025c0
è¯»å–åœ°å€ 0x800025c0
å†™å…¥åœ°å€ 0x8000bee3
0x800025c0: 00 b7 80 23 sb	a1, 0(a5)
è¯»å–åœ°å€ 0x800025c4
0x800025c4: 00 17 87 93 addi	a5, a5, 1
è¯»å–åœ°å€ 0x800025c8
0x800025c8: fe e7 9c e3 bne	a5, a4, 0x800025c0
è¯»å–åœ°å€ 0x800025c0
å†™å…¥åœ°å€ 0x8000bee4
0x800025c0: 00 b7 80 23 sb	a1, 0(a5)
è¯»å–åœ°å€ 0x800025c4
0x800025c4: 00 17 87 93 addi	a5, a5, 1
è¯»å–åœ°å€ 0x800025c8
0x800025c8: fe e7 9c e3 bne	a5, a4, 0x800025c0
è¯»å–åœ°å€ 0x800025c0
å†™å…¥åœ°å€ 0x8000bee5
0x800025c0: 00 b7 80 23 sb	a1, 0(a5)
è¯»å–åœ°å€ 0x800025c4
0x800025c4: 00 17 87 93 addi	a5, a5, 1
è¯»å–åœ°å€ 0x800025c8
0x800025c8: fe e7 9c e3 bne	a5, a4, 0x800025c0
è¯»å–åœ°å€ 0x800025c0
å†™å…¥åœ°å€ 0x8000bee6
0x800025c0: 00 b7 80 23 sb	a1, 0(a5)
è¯»å–åœ°å€ 0x800025c4
0x800025c4: 00 17 87 93 addi	a5, a5, 1
è¯»å–åœ°å€ 0x800025c8
0x800025c8: fe e7 9c e3 bne	a5, a4, 0x800025c0
è¯»å–åœ°å€ 0x800025c0
å†™å…¥åœ°å€ 0x8000bee7
0x800025c0: 00 b7 80 23 sb	a1, 0(a5)
è¯»å–åœ°å€ 0x800025c4
0x800025c4: 00 17 87 93 addi	a5, a5, 1
è¯»å–åœ°å€ 0x800025c8
0x800025c8: fe e7 9c e3 bne	a5, a4, 0x800025c0
è¯»å–åœ°å€ 0x800025c0
å†™å…¥åœ°å€ 0x8000bee8
0x800025c0: 00 b7 80 23 sb	a1, 0(a5)
è¯»å–åœ°å€ 0x800025c4
0x800025c4: 00 17 87 93 addi	a5, a5, 1
è¯»å–åœ°å€ 0x800025c8
0x800025c8: fe e7 9c e3 bne	a5, a4, 0x800025c0
è¯»å–åœ°å€ 0x800025c0
å†™å…¥åœ°å€ 0x8000bee9
0x800025c0: 00 b7 80 23 sb	a1, 0(a5)
è¯»å–åœ°å€ 0x800025c4
0x800025c4: 00 17 87 93 addi	a5, a5, 1
è¯»å–åœ°å€ 0x800025c8
0x800025c8: fe e7 9c e3 bne	a5, a4, 0x800025c0
è¯»å–åœ°å€ 0x800025c0
å†™å…¥åœ°å€ 0x8000beea
0x800025c0: 00 b7 80 23 sb	a1, 0(a5)
è¯»å–åœ°å€ 0x800025c4
0x800025c4: 00 17 87 93 addi	a5, a5, 1
è¯»å–åœ°å€ 0x800025c8
0x800025c8: fe e7 9c e3 bne	a5, a4, 0x800025c0
è¯»å–åœ°å€ 0x800025c0
å†™å…¥åœ°å€ 0x8000beeb
0x800025c0: 00 b7 80 23 sb	a1, 0(a5)
è¯»å–åœ°å€ 0x800025c4
0x800025c4: 00 17 87 93 addi	a5, a5, 1
è¯»å–åœ°å€ 0x800025c8
0x800025c8: fe e7 9c e3 bne	a5, a4, 0x800025c0
è¯»å–åœ°å€ 0x800025c0
å†™å…¥åœ°å€ 0x8000beec
0x800025c0: 00 b7 80 23 sb	a1, 0(a5)
è¯»å–åœ°å€ 0x800025c4
0x800025c4: 00 17 87 93 addi	a5, a5, 1
è¯»å–åœ°å€ 0x800025c8
0x800025c8: fe e7 9c e3 bne	a5, a4, 0x800025c0
è¯»å–åœ°å€ 0x800025c0
å†™å…¥åœ°å€ 0x8000beed
0x800025c0: 00 b7 80 23 sb	a1, 0(a5)
è¯»å–åœ°å€ 0x800025c4
0x800025c4: 00 17 87 93 addi	a5, a5, 1
è¯»å–åœ°å€ 0x800025c8
0x800025c8: fe e7 9c e3 bne	a5, a4, 0x800025c0
è¯»å–åœ°å€ 0x800025c0
å†™å…¥åœ°å€ 0x8000beee
0x800025c0: 00 b7 80 23 sb	a1, 0(a5)
è¯»å–åœ°å€ 0x800025c4
0x800025c4: 00 17 87 93 addi	a5, a5, 1
è¯»å–åœ°å€ 0x800025c8
0x800025c8: fe e7 9c e3 bne	a5, a4, 0x800025c0
è¯»å–åœ°å€ 0x800025c0
å†™å…¥åœ°å€ 0x8000beef
0x800025c0: 00 b7 80 23 sb	a1, 0(a5)
è¯»å–åœ°å€ 0x800025c4
0x800025c4: 00 17 87 93 addi	a5, a5, 1
è¯»å–åœ°å€ 0x800025c8
0x800025c8: fe e7 9c e3 bne	a5, a4, 0x800025c0
è¯»å–åœ°å€ 0x800025c0
å†™å…¥åœ°å€ 0x8000bef0
0x800025c0: 00 b7 80 23 sb	a1, 0(a5)
è¯»å–åœ°å€ 0x800025c4
0x800025c4: 00 17 87 93 addi	a5, a5, 1
è¯»å–åœ°å€ 0x800025c8
0x800025c8: fe e7 9c e3 bne	a5, a4, 0x800025c0
è¯»å–åœ°å€ 0x800025c0
å†™å…¥åœ°å€ 0x8000bef1
0x800025c0: 00 b7 80 23 sb	a1, 0(a5)
è¯»å–åœ°å€ 0x800025c4
0x800025c4: 00 17 87 93 addi	a5, a5, 1
è¯»å–åœ°å€ 0x800025c8
0x800025c8: fe e7 9c e3 bne	a5, a4, 0x800025c0
è¯»å–åœ°å€ 0x800025c0
å†™å…¥åœ°å€ 0x8000bef2
0x800025c0: 00 b7 80 23 sb	a1, 0(a5)
è¯»å–åœ°å€ 0x800025c4
0x800025c4: 00 17 87 93 addi	a5, a5, 1
è¯»å–åœ°å€ 0x800025c8
0x800025c8: fe e7 9c e3 bne	a5, a4, 0x800025c0
è¯»å–åœ°å€ 0x800025c0
å†™å…¥åœ°å€ 0x8000bef3
0x800025c0: 00 b7 80 23 sb	a1, 0(a5)
è¯»å–åœ°å€ 0x800025c4
0x800025c4: 00 17 87 93 addi	a5, a5, 1
è¯»å–åœ°å€ 0x800025c8
0x800025c8: fe e7 9c e3 bne	a5, a4, 0x800025c0
è¯»å–åœ°å€ 0x800025c0
å†™å…¥åœ°å€ 0x8000bef4
0x800025c0: 00 b7 80 23 sb	a1, 0(a5)
è¯»å–åœ°å€ 0x800025c4
0x800025c4: 00 17 87 93 addi	a5, a5, 1
è¯»å–åœ°å€ 0x800025c8
0x800025c8: fe e7 9c e3 bne	a5, a4, 0x800025c0
è¯»å–åœ°å€ 0x800025c0
å†™å…¥åœ°å€ 0x8000bef5
0x800025c0: 00 b7 80 23 sb	a1, 0(a5)
è¯»å–åœ°å€ 0x800025c4
0x800025c4: 00 17 87 93 addi	a5, a5, 1
è¯»å–åœ°å€ 0x800025c8
0x800025c8: fe e7 9c e3 bne	a5, a4, 0x800025c0
è¯»å–åœ°å€ 0x800025c0
å†™å…¥åœ°å€ 0x8000bef6
0x800025c0: 00 b7 80 23 sb	a1, 0(a5)
è¯»å–åœ°å€ 0x800025c4
0x800025c4: 00 17 87 93 addi	a5, a5, 1
è¯»å–åœ°å€ 0x800025c8
0x800025c8: fe e7 9c e3 bne	a5, a4, 0x800025c0
è¯»å–åœ°å€ 0x800025c0
å†™å…¥åœ°å€ 0x8000bef7
0x800025c0: 00 b7 80 23 sb	a1, 0(a5)
è¯»å–åœ°å€ 0x800025c4
0x800025c4: 00 17 87 93 addi	a5, a5, 1
è¯»å–åœ°å€ 0x800025c8
0x800025c8: fe e7 9c e3 bne	a5, a4, 0x800025c0
è¯»å–åœ°å€ 0x800025c0
å†™å…¥åœ°å€ 0x8000bef8
0x800025c0: 00 b7 80 23 sb	a1, 0(a5)
è¯»å–åœ°å€ 0x800025c4
0x800025c4: 00 17 87 93 addi	a5, a5, 1
è¯»å–åœ°å€ 0x800025c8
0x800025c8: fe e7 9c e3 bne	a5, a4, 0x800025c0
è¯»å–åœ°å€ 0x800025c0
å†™å…¥åœ°å€ 0x8000bef9
0x800025c0: 00 b7 80 23 sb	a1, 0(a5)
è¯»å–åœ°å€ 0x800025c4
0x800025c4: 00 17 87 93 addi	a5, a5, 1
è¯»å–åœ°å€ 0x800025c8
0x800025c8: fe e7 9c e3 bne	a5, a4, 0x800025c0
è¯»å–åœ°å€ 0x800025c0
å†™å…¥åœ°å€ 0x8000befa
0x800025c0: 00 b7 80 23 sb	a1, 0(a5)
è¯»å–åœ°å€ 0x800025c4
0x800025c4: 00 17 87 93 addi	a5, a5, 1
è¯»å–åœ°å€ 0x800025c8
0x800025c8: fe e7 9c e3 bne	a5, a4, 0x800025c0
è¯»å–åœ°å€ 0x800025c0
å†™å…¥åœ°å€ 0x8000befb
0x800025c0: 00 b7 80 23 sb	a1, 0(a5)
è¯»å–åœ°å€ 0x800025c4
0x800025c4: 00 17 87 93 addi	a5, a5, 1
è¯»å–åœ°å€ 0x800025c8
0x800025c8: fe e7 9c e3 bne	a5, a4, 0x800025c0
è¯»å–åœ°å€ 0x800025c0
å†™å…¥åœ°å€ 0x8000befc
0x800025c0: 00 b7 80 23 sb	a1, 0(a5)
è¯»å–åœ°å€ 0x800025c4
0x800025c4: 00 17 87 93 addi	a5, a5, 1
è¯»å–åœ°å€ 0x800025c8
0x800025c8: fe e7 9c e3 bne	a5, a4, 0x800025c0
è¯»å–åœ°å€ 0x800025c0
å†™å…¥åœ°å€ 0x8000befd
0x800025c0: 00 b7 80 23 sb	a1, 0(a5)
è¯»å–åœ°å€ 0x800025c4
0x800025c4: 00 17 87 93 addi	a5, a5, 1
è¯»å–åœ°å€ 0x800025c8
0x800025c8: fe e7 9c e3 bne	a5, a4, 0x800025c0
è¯»å–åœ°å€ 0x800025c0
å†™å…¥åœ°å€ 0x8000befe
0x800025c0: 00 b7 80 23 sb	a1, 0(a5)
è¯»å–åœ°å€ 0x800025c4
0x800025c4: 00 17 87 93 addi	a5, a5, 1
è¯»å–åœ°å€ 0x800025c8
0x800025c8: fe e7 9c e3 bne	a5, a4, 0x800025c0
è¯»å–åœ°å€ 0x800025c0
å†™å…¥åœ°å€ 0x8000beff
0x800025c0: 00 b7 80 23 sb	a1, 0(a5)
è¯»å–åœ°å€ 0x800025c4
0x800025c4: 00 17 87 93 addi	a5, a5, 1
è¯»å–åœ°å€ 0x800025c8
0x800025c8: fe e7 9c e3 bne	a5, a4, 0x800025c0
è¯»å–åœ°å€ 0x800025c0
å†™å…¥åœ°å€ 0x8000bf00
0x800025c0: 00 b7 80 23 sb	a1, 0(a5)
è¯»å–åœ°å€ 0x800025c4
0x800025c4: 00 17 87 93 addi	a5, a5, 1
è¯»å–åœ°å€ 0x800025c8
0x800025c8: fe e7 9c e3 bne	a5, a4, 0x800025c0
è¯»å–åœ°å€ 0x800025c0
å†™å…¥åœ°å€ 0x8000bf01
0x800025c0: 00 b7 80 23 sb	a1, 0(a5)
è¯»å–åœ°å€ 0x800025c4
0x800025c4: 00 17 87 93 addi	a5, a5, 1
è¯»å–åœ°å€ 0x800025c8
0x800025c8: fe e7 9c e3 bne	a5, a4, 0x800025c0
è¯»å–åœ°å€ 0x800025c0
å†™å…¥åœ°å€ 0x8000bf02
0x800025c0: 00 b7 80 23 sb	a1, 0(a5)
è¯»å–åœ°å€ 0x800025c4
0x800025c4: 00 17 87 93 addi	a5, a5, 1
è¯»å–åœ°å€ 0x800025c8
0x800025c8: fe e7 9c e3 bne	a5, a4, 0x800025c0
è¯»å–åœ°å€ 0x800025c0
å†™å…¥åœ°å€ 0x8000bf03
0x800025c0: 00 b7 80 23 sb	a1, 0(a5)
è¯»å–åœ°å€ 0x800025c4
0x800025c4: 00 17 87 93 addi	a5, a5, 1
è¯»å–åœ°å€ 0x800025c8
0x800025c8: fe e7 9c e3 bne	a5, a4, 0x800025c0
è¯»å–åœ°å€ 0x800025c0
å†™å…¥åœ°å€ 0x8000bf04
0x800025c0: 00 b7 80 23 sb	a1, 0(a5)
è¯»å–åœ°å€ 0x800025c4
0x800025c4: 00 17 87 93 addi	a5, a5, 1
è¯»å–åœ°å€ 0x800025c8
0x800025c8: fe e7 9c e3 bne	a5, a4, 0x800025c0
è¯»å–åœ°å€ 0x800025c0
å†™å…¥åœ°å€ 0x8000bf05
0x800025c0: 00 b7 80 23 sb	a1, 0(a5)
è¯»å–åœ°å€ 0x800025c4
0x800025c4: 00 17 87 93 addi	a5, a5, 1
è¯»å–åœ°å€ 0x800025c8
0x800025c8: fe e7 9c e3 bne	a5, a4, 0x800025c0
è¯»å–åœ°å€ 0x800025c0
å†™å…¥åœ°å€ 0x8000bf06
0x800025c0: 00 b7 80 23 sb	a1, 0(a5)
è¯»å–åœ°å€ 0x800025c4
0x800025c4: 00 17 87 93 addi	a5, a5, 1
è¯»å–åœ°å€ 0x800025c8
0x800025c8: fe e7 9c e3 bne	a5, a4, 0x800025c0
è¯»å–åœ°å€ 0x800025c0
å†™å…¥åœ°å€ 0x8000bf07
0x800025c0: 00 b7 80 23 sb	a1, 0(a5)
è¯»å–åœ°å€ 0x800025c4
0x800025c4: 00 17 87 93 addi	a5, a5, 1
è¯»å–åœ°å€ 0x800025c8
0x800025c8: fe e7 9c e3 bne	a5, a4, 0x800025c0
è¯»å–åœ°å€ 0x800025c0
å†™å…¥åœ°å€ 0x8000bf08
0x800025c0: 00 b7 80 23 sb	a1, 0(a5)
è¯»å–åœ°å€ 0x800025c4
0x800025c4: 00 17 87 93 addi	a5, a5, 1
è¯»å–åœ°å€ 0x800025c8
0x800025c8: fe e7 9c e3 bne	a5, a4, 0x800025c0
è¯»å–åœ°å€ 0x800025c0
å†™å…¥åœ°å€ 0x8000bf09
0x800025c0: 00 b7 80 23 sb	a1, 0(a5)
è¯»å–åœ°å€ 0x800025c4
0x800025c4: 00 17 87 93 addi	a5, a5, 1
è¯»å–åœ°å€ 0x800025c8
0x800025c8: fe e7 9c e3 bne	a5, a4, 0x800025c0
è¯»å–åœ°å€ 0x800025c0
å†™å…¥åœ°å€ 0x8000bf0a
0x800025c0: 00 b7 80 23 sb	a1, 0(a5)
è¯»å–åœ°å€ 0x800025c4
0x800025c4: 00 17 87 93 addi	a5, a5, 1
è¯»å–åœ°å€ 0x800025c8
0x800025c8: fe e7 9c e3 bne	a5, a4, 0x800025c0
è¯»å–åœ°å€ 0x800025c0
å†™å…¥åœ°å€ 0x8000bf0b
0x800025c0: 00 b7 80 23 sb	a1, 0(a5)
è¯»å–åœ°å€ 0x800025c4
0x800025c4: 00 17 87 93 addi	a5, a5, 1
è¯»å–åœ°å€ 0x800025c8
0x800025c8: fe e7 9c e3 bne	a5, a4, 0x800025c0
è¯»å–åœ°å€ 0x800025c0
å†™å…¥åœ°å€ 0x8000bf0c
0x800025c0: 00 b7 80 23 sb	a1, 0(a5)
è¯»å–åœ°å€ 0x800025c4
0x800025c4: 00 17 87 93 addi	a5, a5, 1
è¯»å–åœ°å€ 0x800025c8
0x800025c8: fe e7 9c e3 bne	a5, a4, 0x800025c0
è¯»å–åœ°å€ 0x800025c0
å†™å…¥åœ°å€ 0x8000bf0d
0x800025c0: 00 b7 80 23 sb	a1, 0(a5)
è¯»å–åœ°å€ 0x800025c4
0x800025c4: 00 17 87 93 addi	a5, a5, 1
è¯»å–åœ°å€ 0x800025c8
0x800025c8: fe e7 9c e3 bne	a5, a4, 0x800025c0
è¯»å–åœ°å€ 0x800025c0
å†™å…¥åœ°å€ 0x8000bf0e
0x800025c0: 00 b7 80 23 sb	a1, 0(a5)
è¯»å–åœ°å€ 0x800025c4
0x800025c4: 00 17 87 93 addi	a5, a5, 1
è¯»å–åœ°å€ 0x800025c8
0x800025c8: fe e7 9c e3 bne	a5, a4, 0x800025c0
è¯»å–åœ°å€ 0x800025c0
å†™å…¥åœ°å€ 0x8000bf0f
0x800025c0: 00 b7 80 23 sb	a1, 0(a5)
è¯»å–åœ°å€ 0x800025c4
0x800025c4: 00 17 87 93 addi	a5, a5, 1
è¯»å–åœ°å€ 0x800025c8
0x800025c8: fe e7 9c e3 bne	a5, a4, 0x800025c0
è¯»å–åœ°å€ 0x800025c0
å†™å…¥åœ°å€ 0x8000bf10
0x800025c0: 00 b7 80 23 sb	a1, 0(a5)
è¯»å–åœ°å€ 0x800025c4
0x800025c4: 00 17 87 93 addi	a5, a5, 1
è¯»å–åœ°å€ 0x800025c8
0x800025c8: fe e7 9c e3 bne	a5, a4, 0x800025c0
è¯»å–åœ°å€ 0x800025c0
å†™å…¥åœ°å€ 0x8000bf11
0x800025c0: 00 b7 80 23 sb	a1, 0(a5)
è¯»å–åœ°å€ 0x800025c4
0x800025c4: 00 17 87 93 addi	a5, a5, 1
è¯»å–åœ°å€ 0x800025c8
0x800025c8: fe e7 9c e3 bne	a5, a4, 0x800025c0
è¯»å–åœ°å€ 0x800025c0
å†™å…¥åœ°å€ 0x8000bf12
0x800025c0: 00 b7 80 23 sb	a1, 0(a5)
è¯»å–åœ°å€ 0x800025c4
0x800025c4: 00 17 87 93 addi	a5, a5, 1
è¯»å–åœ°å€ 0x800025c8
0x800025c8: fe e7 9c e3 bne	a5, a4, 0x800025c0
è¯»å–åœ°å€ 0x800025c0
å†™å…¥åœ°å€ 0x8000bf13
0x800025c0: 00 b7 80 23 sb	a1, 0(a5)
è¯»å–åœ°å€ 0x800025c4
0x800025c4: 00 17 87 93 addi	a5, a5, 1
è¯»å–åœ°å€ 0x800025c8
0x800025c8: fe e7 9c e3 bne	a5, a4, 0x800025c0
è¯»å–åœ°å€ 0x800025c0
å†™å…¥åœ°å€ 0x8000bf14
0x800025c0: 00 b7 80 23 sb	a1, 0(a5)
è¯»å–åœ°å€ 0x800025c4
0x800025c4: 00 17 87 93 addi	a5, a5, 1
è¯»å–åœ°å€ 0x800025c8
0x800025c8: fe e7 9c e3 bne	a5, a4, 0x800025c0
è¯»å–åœ°å€ 0x800025c0
å†™å…¥åœ°å€ 0x8000bf15
0x800025c0: 00 b7 80 23 sb	a1, 0(a5)
è¯»å–åœ°å€ 0x800025c4
0x800025c4: 00 17 87 93 addi	a5, a5, 1
è¯»å–åœ°å€ 0x800025c8
0x800025c8: fe e7 9c e3 bne	a5, a4, 0x800025c0
è¯»å–åœ°å€ 0x800025c0
å†™å…¥åœ°å€ 0x8000bf16
0x800025c0: 00 b7 80 23 sb	a1, 0(a5)
è¯»å–åœ°å€ 0x800025c4
0x800025c4: 00 17 87 93 addi	a5, a5, 1
è¯»å–åœ°å€ 0x800025c8
0x800025c8: fe e7 9c e3 bne	a5, a4, 0x800025c0
è¯»å–åœ°å€ 0x800025c0
å†™å…¥åœ°å€ 0x8000bf17
0x800025c0: 00 b7 80 23 sb	a1, 0(a5)
è¯»å–åœ°å€ 0x800025c4
0x800025c4: 00 17 87 93 addi	a5, a5, 1
è¯»å–åœ°å€ 0x800025c8
0x800025c8: fe e7 9c e3 bne	a5, a4, 0x800025c0
è¯»å–åœ°å€ 0x800025c0
å†™å…¥åœ°å€ 0x8000bf18
0x800025c0: 00 b7 80 23 sb	a1, 0(a5)
è¯»å–åœ°å€ 0x800025c4
0x800025c4: 00 17 87 93 addi	a5, a5, 1
è¯»å–åœ°å€ 0x800025c8
0x800025c8: fe e7 9c e3 bne	a5, a4, 0x800025c0
è¯»å–åœ°å€ 0x800025c0
å†™å…¥åœ°å€ 0x8000bf19
0x800025c0: 00 b7 80 23 sb	a1, 0(a5)
è¯»å–åœ°å€ 0x800025c4
0x800025c4: 00 17 87 93 addi	a5, a5, 1
è¯»å–åœ°å€ 0x800025c8
0x800025c8: fe e7 9c e3 bne	a5, a4, 0x800025c0
è¯»å–åœ°å€ 0x800025c0
å†™å…¥åœ°å€ 0x8000bf1a
0x800025c0: 00 b7 80 23 sb	a1, 0(a5)
è¯»å–åœ°å€ 0x800025c4
0x800025c4: 00 17 87 93 addi	a5, a5, 1
è¯»å–åœ°å€ 0x800025c8
0x800025c8: fe e7 9c e3 bne	a5, a4, 0x800025c0
è¯»å–åœ°å€ 0x800025c0
å†™å…¥åœ°å€ 0x8000bf1b
0x800025c0: 00 b7 80 23 sb	a1, 0(a5)
è¯»å–åœ°å€ 0x800025c4
0x800025c4: 00 17 87 93 addi	a5, a5, 1
è¯»å–åœ°å€ 0x800025c8
0x800025c8: fe e7 9c e3 bne	a5, a4, 0x800025c0
è¯»å–åœ°å€ 0x800025c0
å†™å…¥åœ°å€ 0x8000bf1c
0x800025c0: 00 b7 80 23 sb	a1, 0(a5)
è¯»å–åœ°å€ 0x800025c4
0x800025c4: 00 17 87 93 addi	a5, a5, 1
è¯»å–åœ°å€ 0x800025c8
0x800025c8: fe e7 9c e3 bne	a5, a4, 0x800025c0
è¯»å–åœ°å€ 0x800025c0
å†™å…¥åœ°å€ 0x8000bf1d
0x800025c0: 00 b7 80 23 sb	a1, 0(a5)
è¯»å–åœ°å€ 0x800025c4
0x800025c4: 00 17 87 93 addi	a5, a5, 1
è¯»å–åœ°å€ 0x800025c8
0x800025c8: fe e7 9c e3 bne	a5, a4, 0x800025c0
è¯»å–åœ°å€ 0x800025c0
å†™å…¥åœ°å€ 0x8000bf1e
0x800025c0: 00 b7 80 23 sb	a1, 0(a5)
è¯»å–åœ°å€ 0x800025c4
0x800025c4: 00 17 87 93 addi	a5, a5, 1
è¯»å–åœ°å€ 0x800025c8
0x800025c8: fe e7 9c e3 bne	a5, a4, 0x800025c0
è¯»å–åœ°å€ 0x800025c0
å†™å…¥åœ°å€ 0x8000bf1f
0x800025c0: 00 b7 80 23 sb	a1, 0(a5)
è¯»å–åœ°å€ 0x800025c4
0x800025c4: 00 17 87 93 addi	a5, a5, 1
è¯»å–åœ°å€ 0x800025c8
0x800025c8: fe e7 9c e3 bne	a5, a4, 0x800025c0
è¯»å–åœ°å€ 0x800025cc
0x800025cc: 00 00 80 67 jalr	zero, 0(ra)
è¯»å–åœ°å€ 0x800024d0
0x800024d0: 00 04 86 13 addi	a2, s1, 0
è¯»å–åœ°å€ 0x800024d4
0x800024d4: 00 04 05 93 addi	a1, s0, 0
è¯»å–åœ°å€ 0x800024d8
0x800024d8: 01 01 05 13 addi	a0, sp, 16
è¯»å–åœ°å€ 0x800024dc
0x800024dc: dd 5f f0 ef jal	ra, 0x800022b0
è¯»å–åœ°å€ 0x800022b0
0x800022b0: fc 01 01 13 addi	sp, sp, -64
è¯»å–åœ°å€ 0x800022b4
å†™å…¥åœ°å€ 0x8000bae8
0x800022b4: 01 81 2c 23 sw	s8, 24(sp)
è¯»å–åœ°å€ 0x800022b8
å†™å…¥åœ°å€ 0x8000bb0c
0x800022b8: 02 11 2e 23 sw	ra, 60(sp)
è¯»å–åœ°å€ 0x800022bc
å†™å…¥åœ°å€ 0x8000bb08
0x800022bc: 02 81 2c 23 sw	s0, 56(sp)
è¯»å–åœ°å€ 0x800022c0
å†™å…¥åœ°å€ 0x8000bb04
0x800022c0: 02 91 2a 23 sw	s1, 52(sp)
è¯»å–åœ°å€ 0x800022c4
å†™å…¥åœ°å€ 0x8000bb00
0x800022c4: 03 21 28 23 sw	s2, 48(sp)
è¯»å–åœ°å€ 0x800022c8
å†™å…¥åœ°å€ 0x8000bafc
0x800022c8: 03 31 26 23 sw	s3, 44(sp)
è¯»å–åœ°å€ 0x800022cc
å†™å…¥åœ°å€ 0x8000baf8
0x800022cc: 03 41 24 23 sw	s4, 40(sp)
è¯»å–åœ°å€ 0x800022d0
å†™å…¥åœ°å€ 0x8000baf4
0x800022d0: 03 51 22 23 sw	s5, 36(sp)
è¯»å–åœ°å€ 0x800022d4
å†™å…¥åœ°å€ 0x8000baf0
0x800022d4: 03 61 20 23 sw	s6, 32(sp)
è¯»å–åœ°å€ 0x800022d8
å†™å…¥åœ°å€ 0x8000baec
0x800022d8: 01 71 2e 23 sw	s7, 28(sp)
è¯»å–åœ°å€ 0x800022dc
å†™å…¥åœ°å€ 0x8000bae4
0x800022dc: 01 91 2a 23 sw	s9, 20(sp)
è¯»å–åœ°å€ 0x800022e0
å†™å…¥åœ°å€ 0x8000bae0
0x800022e0: 01 a1 28 23 sw	s10, 16(sp)
è¯»å–åœ°å€ 0x800022e4
å†™å…¥åœ°å€ 0x8000badc
0x800022e4: 01 b1 26 23 sw	s11, 12(sp)
è¯»å–åœ°å€ 0x800022e8
è¯»å–åœ°å€ 0x80002b10
0x800022e8: 00 05 c7 83 lbu	a5, 0(a1)
è¯»å–åœ°å€ 0x800022ec
0x800022ec: 00 05 0c 13 addi	s8, a0, 0
è¯»å–åœ°å€ 0x800022f0
0x800022f0: 18 07 82 63 beq	a5, zero, 0x80002474
è¯»å–åœ°å€ 0x800022f4
0x800022f4: 00 05 84 13 addi	s0, a1, 0
è¯»å–åœ°å€ 0x800022f8
0x800022f8: 00 05 04 93 addi	s1, a0, 0
è¯»å–åœ°å€ 0x800022fc
0x800022fc: 02 50 0a 93 addi	s5, zero, 37
è¯»å–åœ°å€ 0x80002300
0x80002300: 06 40 0b 93 addi	s7, zero, 100
è¯»å–åœ°å€ 0x80002304
0x80002304: 00 a0 0b 13 addi	s6, zero, 10
è¯»å–åœ°å€ 0x80002308
0x80002308: 00 10 09 13 addi	s2, zero, 1
è¯»å–åœ°å€ 0x8000230c
0x8000230c: 03 00 09 93 addi	s3, zero, 48
è¯»å–åœ°å€ 0x80002310
0x80002310: 07 30 0d 13 addi	s10, zero, 115
è¯»å–åœ°å€ 0x80002314
0x80002314: 06 30 0c 93 addi	s9, zero, 99
è¯»å–åœ°å€ 0x80002318
0x80002318: 00 14 07 13 addi	a4, s0, 1
è¯»å–åœ°å€ 0x8000231c
0x8000231c: 07 57 9c 63 bne	a5, s5, 0x80002394
è¯»å–åœ°å€ 0x80002394
å†™å…¥åœ°å€ 0x8000bb20
0x80002394: 00 f4 80 23 sb	a5, 0(s1)
è¯»å–åœ°å€ 0x80002398
è¯»å–åœ°å€ 0x80002b11
0x80002398: 00 14 47 83 lbu	a5, 1(s0)
è¯»å–åœ°å€ 0x8000239c
0x8000239c: 00 14 84 93 addi	s1, s1, 1
è¯»å–åœ°å€ 0x800023a0
0x800023a0: 00 07 04 13 addi	s0, a4, 0
è¯»å–åœ°å€ 0x800023a4
0x800023a4: f6 07 9a e3 bne	a5, zero, 0x80002318
è¯»å–åœ°å€ 0x80002318
0x80002318: 00 14 07 13 addi	a4, s0, 1
è¯»å–åœ°å€ 0x8000231c
0x8000231c: 07 57 9c 63 bne	a5, s5, 0x80002394
è¯»å–åœ°å€ 0x80002394
å†™å…¥åœ°å€ 0x8000bb21
0x80002394: 00 f4 80 23 sb	a5, 0(s1)
è¯»å–åœ°å€ 0x80002398
è¯»å–åœ°å€ 0x80002b12
0x80002398: 00 14 47 83 lbu	a5, 1(s0)
è¯»å–åœ°å€ 0x8000239c
0x8000239c: 00 14 84 93 addi	s1, s1, 1
è¯»å–åœ°å€ 0x800023a0
0x800023a0: 00 07 04 13 addi	s0, a4, 0
è¯»å–åœ°å€ 0x800023a4
0x800023a4: f6 07 9a e3 bne	a5, zero, 0x80002318
è¯»å–åœ°å€ 0x80002318
0x80002318: 00 14 07 13 addi	a4, s0, 1
è¯»å–åœ°å€ 0x8000231c
0x8000231c: 07 57 9c 63 bne	a5, s5, 0x80002394
è¯»å–åœ°å€ 0x80002394
å†™å…¥åœ°å€ 0x8000bb22
0x80002394: 00 f4 80 23 sb	a5, 0(s1)
è¯»å–åœ°å€ 0x80002398
è¯»å–åœ°å€ 0x80002b13
0x80002398: 00 14 47 83 lbu	a5, 1(s0)
è¯»å–åœ°å€ 0x8000239c
0x8000239c: 00 14 84 93 addi	s1, s1, 1
è¯»å–åœ°å€ 0x800023a0
0x800023a0: 00 07 04 13 addi	s0, a4, 0
è¯»å–åœ°å€ 0x800023a4
0x800023a4: f6 07 9a e3 bne	a5, zero, 0x80002318
è¯»å–åœ°å€ 0x80002318
0x80002318: 00 14 07 13 addi	a4, s0, 1
è¯»å–åœ°å€ 0x8000231c
0x8000231c: 07 57 9c 63 bne	a5, s5, 0x80002394
è¯»å–åœ°å€ 0x80002394
å†™å…¥åœ°å€ 0x8000bb23
0x80002394: 00 f4 80 23 sb	a5, 0(s1)
è¯»å–åœ°å€ 0x80002398
è¯»å–åœ°å€ 0x80002b14
0x80002398: 00 14 47 83 lbu	a5, 1(s0)
è¯»å–åœ°å€ 0x8000239c
0x8000239c: 00 14 84 93 addi	s1, s1, 1
è¯»å–åœ°å€ 0x800023a0
0x800023a0: 00 07 04 13 addi	s0, a4, 0
è¯»å–åœ°å€ 0x800023a4
0x800023a4: f6 07 9a e3 bne	a5, zero, 0x80002318
è¯»å–åœ°å€ 0x80002318
0x80002318: 00 14 07 13 addi	a4, s0, 1
è¯»å–åœ°å€ 0x8000231c
0x8000231c: 07 57 9c 63 bne	a5, s5, 0x80002394
è¯»å–åœ°å€ 0x80002394
å†™å…¥åœ°å€ 0x8000bb24
0x80002394: 00 f4 80 23 sb	a5, 0(s1)
è¯»å–åœ°å€ 0x80002398
è¯»å–åœ°å€ 0x80002b15
0x80002398: 00 14 47 83 lbu	a5, 1(s0)
è¯»å–åœ°å€ 0x8000239c
0x8000239c: 00 14 84 93 addi	s1, s1, 1
è¯»å–åœ°å€ 0x800023a0
0x800023a0: 00 07 04 13 addi	s0, a4, 0
è¯»å–åœ°å€ 0x800023a4
0x800023a4: f6 07 9a e3 bne	a5, zero, 0x80002318
è¯»å–åœ°å€ 0x80002318
0x80002318: 00 14 07 13 addi	a4, s0, 1
è¯»å–åœ°å€ 0x8000231c
0x8000231c: 07 57 9c 63 bne	a5, s5, 0x80002394
è¯»å–åœ°å€ 0x80002394
å†™å…¥åœ°å€ 0x8000bb25
0x80002394: 00 f4 80 23 sb	a5, 0(s1)
è¯»å–åœ°å€ 0x80002398
è¯»å–åœ°å€ 0x80002b16
0x80002398: 00 14 47 83 lbu	a5, 1(s0)
è¯»å–åœ°å€ 0x8000239c
0x8000239c: 00 14 84 93 addi	s1, s1, 1
è¯»å–åœ°å€ 0x800023a0
0x800023a0: 00 07 04 13 addi	s0, a4, 0
è¯»å–åœ°å€ 0x800023a4
0x800023a4: f6 07 9a e3 bne	a5, zero, 0x80002318
è¯»å–åœ°å€ 0x80002318
0x80002318: 00 14 07 13 addi	a4, s0, 1
è¯»å–åœ°å€ 0x8000231c
0x8000231c: 07 57 9c 63 bne	a5, s5, 0x80002394
è¯»å–åœ°å€ 0x80002394
å†™å…¥åœ°å€ 0x8000bb26
0x80002394: 00 f4 80 23 sb	a5, 0(s1)
è¯»å–åœ°å€ 0x80002398
è¯»å–åœ°å€ 0x80002b17
0x80002398: 00 14 47 83 lbu	a5, 1(s0)
è¯»å–åœ°å€ 0x8000239c
0x8000239c: 00 14 84 93 addi	s1, s1, 1
è¯»å–åœ°å€ 0x800023a0
0x800023a0: 00 07 04 13 addi	s0, a4, 0
è¯»å–åœ°å€ 0x800023a4
0x800023a4: f6 07 9a e3 bne	a5, zero, 0x80002318
è¯»å–åœ°å€ 0x80002318
0x80002318: 00 14 07 13 addi	a4, s0, 1
è¯»å–åœ°å€ 0x8000231c
0x8000231c: 07 57 9c 63 bne	a5, s5, 0x80002394
è¯»å–åœ°å€ 0x80002394
å†™å…¥åœ°å€ 0x8000bb27
0x80002394: 00 f4 80 23 sb	a5, 0(s1)
è¯»å–åœ°å€ 0x80002398
è¯»å–åœ°å€ 0x80002b18
0x80002398: 00 14 47 83 lbu	a5, 1(s0)
è¯»å–åœ°å€ 0x8000239c
0x8000239c: 00 14 84 93 addi	s1, s1, 1
è¯»å–åœ°å€ 0x800023a0
0x800023a0: 00 07 04 13 addi	s0, a4, 0
è¯»å–åœ°å€ 0x800023a4
0x800023a4: f6 07 9a e3 bne	a5, zero, 0x80002318
è¯»å–åœ°å€ 0x80002318
0x80002318: 00 14 07 13 addi	a4, s0, 1
è¯»å–åœ°å€ 0x8000231c
0x8000231c: 07 57 9c 63 bne	a5, s5, 0x80002394
è¯»å–åœ°å€ 0x80002394
å†™å…¥åœ°å€ 0x8000bb28
0x80002394: 00 f4 80 23 sb	a5, 0(s1)
è¯»å–åœ°å€ 0x80002398
è¯»å–åœ°å€ 0x80002b19
0x80002398: 00 14 47 83 lbu	a5, 1(s0)
è¯»å–åœ°å€ 0x8000239c
0x8000239c: 00 14 84 93 addi	s1, s1, 1
è¯»å–åœ°å€ 0x800023a0
0x800023a0: 00 07 04 13 addi	s0, a4, 0
è¯»å–åœ°å€ 0x800023a4
0x800023a4: f6 07 9a e3 bne	a5, zero, 0x80002318
è¯»å–åœ°å€ 0x80002318
0x80002318: 00 14 07 13 addi	a4, s0, 1
è¯»å–åœ°å€ 0x8000231c
0x8000231c: 07 57 9c 63 bne	a5, s5, 0x80002394
è¯»å–åœ°å€ 0x80002394
å†™å…¥åœ°å€ 0x8000bb29
0x80002394: 00 f4 80 23 sb	a5, 0(s1)
è¯»å–åœ°å€ 0x80002398
è¯»å–åœ°å€ 0x80002b1a
0x80002398: 00 14 47 83 lbu	a5, 1(s0)
è¯»å–åœ°å€ 0x8000239c
0x8000239c: 00 14 84 93 addi	s1, s1, 1
è¯»å–åœ°å€ 0x800023a0
0x800023a0: 00 07 04 13 addi	s0, a4, 0
è¯»å–åœ°å€ 0x800023a4
0x800023a4: f6 07 9a e3 bne	a5, zero, 0x80002318
è¯»å–åœ°å€ 0x80002318
0x80002318: 00 14 07 13 addi	a4, s0, 1
è¯»å–åœ°å€ 0x8000231c
0x8000231c: 07 57 9c 63 bne	a5, s5, 0x80002394
è¯»å–åœ°å€ 0x80002394
å†™å…¥åœ°å€ 0x8000bb2a
0x80002394: 00 f4 80 23 sb	a5, 0(s1)
è¯»å–åœ°å€ 0x80002398
è¯»å–åœ°å€ 0x80002b1b
0x80002398: 00 14 47 83 lbu	a5, 1(s0)
è¯»å–åœ°å€ 0x8000239c
0x8000239c: 00 14 84 93 addi	s1, s1, 1
è¯»å–åœ°å€ 0x800023a0
0x800023a0: 00 07 04 13 addi	s0, a4, 0
è¯»å–åœ°å€ 0x800023a4
0x800023a4: f6 07 9a e3 bne	a5, zero, 0x80002318
è¯»å–åœ°å€ 0x80002318
0x80002318: 00 14 07 13 addi	a4, s0, 1
è¯»å–åœ°å€ 0x8000231c
0x8000231c: 07 57 9c 63 bne	a5, s5, 0x80002394
è¯»å–åœ°å€ 0x80002394
å†™å…¥åœ°å€ 0x8000bb2b
0x80002394: 00 f4 80 23 sb	a5, 0(s1)
è¯»å–åœ°å€ 0x80002398
è¯»å–åœ°å€ 0x80002b1c
0x80002398: 00 14 47 83 lbu	a5, 1(s0)
è¯»å–åœ°å€ 0x8000239c
0x8000239c: 00 14 84 93 addi	s1, s1, 1
è¯»å–åœ°å€ 0x800023a0
0x800023a0: 00 07 04 13 addi	s0, a4, 0
è¯»å–åœ°å€ 0x800023a4
0x800023a4: f6 07 9a e3 bne	a5, zero, 0x80002318
è¯»å–åœ°å€ 0x80002318
0x80002318: 00 14 07 13 addi	a4, s0, 1
è¯»å–åœ°å€ 0x8000231c
0x8000231c: 07 57 9c 63 bne	a5, s5, 0x80002394
è¯»å–åœ°å€ 0x80002394
å†™å…¥åœ°å€ 0x8000bb2c
0x80002394: 00 f4 80 23 sb	a5, 0(s1)
è¯»å–åœ°å€ 0x80002398
è¯»å–åœ°å€ 0x80002b1d
0x80002398: 00 14 47 83 lbu	a5, 1(s0)
è¯»å–åœ°å€ 0x8000239c
0x8000239c: 00 14 84 93 addi	s1, s1, 1
è¯»å–åœ°å€ 0x800023a0
0x800023a0: 00 07 04 13 addi	s0, a4, 0
è¯»å–åœ°å€ 0x800023a4
0x800023a4: f6 07 9a e3 bne	a5, zero, 0x80002318
è¯»å–åœ°å€ 0x80002318
0x80002318: 00 14 07 13 addi	a4, s0, 1
è¯»å–åœ°å€ 0x8000231c
0x8000231c: 07 57 9c 63 bne	a5, s5, 0x80002394
è¯»å–åœ°å€ 0x80002394
å†™å…¥åœ°å€ 0x8000bb2d
0x80002394: 00 f4 80 23 sb	a5, 0(s1)
è¯»å–åœ°å€ 0x80002398
è¯»å–åœ°å€ 0x80002b1e
0x80002398: 00 14 47 83 lbu	a5, 1(s0)
è¯»å–åœ°å€ 0x8000239c
0x8000239c: 00 14 84 93 addi	s1, s1, 1
è¯»å–åœ°å€ 0x800023a0
0x800023a0: 00 07 04 13 addi	s0, a4, 0
è¯»å–åœ°å€ 0x800023a4
0x800023a4: f6 07 9a e3 bne	a5, zero, 0x80002318
è¯»å–åœ°å€ 0x80002318
0x80002318: 00 14 07 13 addi	a4, s0, 1
è¯»å–åœ°å€ 0x8000231c
0x8000231c: 07 57 9c 63 bne	a5, s5, 0x80002394
è¯»å–åœ°å€ 0x80002394
å†™å…¥åœ°å€ 0x8000bb2e
0x80002394: 00 f4 80 23 sb	a5, 0(s1)
è¯»å–åœ°å€ 0x80002398
è¯»å–åœ°å€ 0x80002b1f
0x80002398: 00 14 47 83 lbu	a5, 1(s0)
è¯»å–åœ°å€ 0x8000239c
0x8000239c: 00 14 84 93 addi	s1, s1, 1
è¯»å–åœ°å€ 0x800023a0
0x800023a0: 00 07 04 13 addi	s0, a4, 0
è¯»å–åœ°å€ 0x800023a4
0x800023a4: f6 07 9a e3 bne	a5, zero, 0x80002318
è¯»å–åœ°å€ 0x80002318
0x80002318: 00 14 07 13 addi	a4, s0, 1
è¯»å–åœ°å€ 0x8000231c
0x8000231c: 07 57 9c 63 bne	a5, s5, 0x80002394
è¯»å–åœ°å€ 0x80002394
å†™å…¥åœ°å€ 0x8000bb2f
0x80002394: 00 f4 80 23 sb	a5, 0(s1)
è¯»å–åœ°å€ 0x80002398
è¯»å–åœ°å€ 0x80002b20
0x80002398: 00 14 47 83 lbu	a5, 1(s0)
è¯»å–åœ°å€ 0x8000239c
0x8000239c: 00 14 84 93 addi	s1, s1, 1
è¯»å–åœ°å€ 0x800023a0
0x800023a0: 00 07 04 13 addi	s0, a4, 0
è¯»å–åœ°å€ 0x800023a4
0x800023a4: f6 07 9a e3 bne	a5, zero, 0x80002318
è¯»å–åœ°å€ 0x80002318
0x80002318: 00 14 07 13 addi	a4, s0, 1
è¯»å–åœ°å€ 0x8000231c
0x8000231c: 07 57 9c 63 bne	a5, s5, 0x80002394
è¯»å–åœ°å€ 0x80002394
å†™å…¥åœ°å€ 0x8000bb30
0x80002394: 00 f4 80 23 sb	a5, 0(s1)
è¯»å–åœ°å€ 0x80002398
è¯»å–åœ°å€ 0x80002b21
0x80002398: 00 14 47 83 lbu	a5, 1(s0)
è¯»å–åœ°å€ 0x8000239c
0x8000239c: 00 14 84 93 addi	s1, s1, 1
è¯»å–åœ°å€ 0x800023a0
0x800023a0: 00 07 04 13 addi	s0, a4, 0
è¯»å–åœ°å€ 0x800023a4
0x800023a4: f6 07 9a e3 bne	a5, zero, 0x80002318
è¯»å–åœ°å€ 0x80002318
0x80002318: 00 14 07 13 addi	a4, s0, 1
è¯»å–åœ°å€ 0x8000231c
0x8000231c: 07 57 9c 63 bne	a5, s5, 0x80002394
è¯»å–åœ°å€ 0x80002394
å†™å…¥åœ°å€ 0x8000bb31
0x80002394: 00 f4 80 23 sb	a5, 0(s1)
è¯»å–åœ°å€ 0x80002398
è¯»å–åœ°å€ 0x80002b22
0x80002398: 00 14 47 83 lbu	a5, 1(s0)
è¯»å–åœ°å€ 0x8000239c
0x8000239c: 00 14 84 93 addi	s1, s1, 1
è¯»å–åœ°å€ 0x800023a0
0x800023a0: 00 07 04 13 addi	s0, a4, 0
è¯»å–åœ°å€ 0x800023a4
0x800023a4: f6 07 9a e3 bne	a5, zero, 0x80002318
è¯»å–åœ°å€ 0x80002318
0x80002318: 00 14 07 13 addi	a4, s0, 1
è¯»å–åœ°å€ 0x8000231c
0x8000231c: 07 57 9c 63 bne	a5, s5, 0x80002394
è¯»å–åœ°å€ 0x80002394
å†™å…¥åœ°å€ 0x8000bb32
0x80002394: 00 f4 80 23 sb	a5, 0(s1)
è¯»å–åœ°å€ 0x80002398
è¯»å–åœ°å€ 0x80002b23
0x80002398: 00 14 47 83 lbu	a5, 1(s0)
è¯»å–åœ°å€ 0x8000239c
0x8000239c: 00 14 84 93 addi	s1, s1, 1
è¯»å–åœ°å€ 0x800023a0
0x800023a0: 00 07 04 13 addi	s0, a4, 0
è¯»å–åœ°å€ 0x800023a4
0x800023a4: f6 07 9a e3 bne	a5, zero, 0x80002318
è¯»å–åœ°å€ 0x80002318
0x80002318: 00 14 07 13 addi	a4, s0, 1
è¯»å–åœ°å€ 0x8000231c
0x8000231c: 07 57 9c 63 bne	a5, s5, 0x80002394
è¯»å–åœ°å€ 0x80002394
å†™å…¥åœ°å€ 0x8000bb33
0x80002394: 00 f4 80 23 sb	a5, 0(s1)
è¯»å–åœ°å€ 0x80002398
è¯»å–åœ°å€ 0x80002b24
0x80002398: 00 14 47 83 lbu	a5, 1(s0)
è¯»å–åœ°å€ 0x8000239c
0x8000239c: 00 14 84 93 addi	s1, s1, 1
è¯»å–åœ°å€ 0x800023a0
0x800023a0: 00 07 04 13 addi	s0, a4, 0
è¯»å–åœ°å€ 0x800023a4
0x800023a4: f6 07 9a e3 bne	a5, zero, 0x80002318
è¯»å–åœ°å€ 0x80002318
0x80002318: 00 14 07 13 addi	a4, s0, 1
è¯»å–åœ°å€ 0x8000231c
0x8000231c: 07 57 9c 63 bne	a5, s5, 0x80002394
è¯»å–åœ°å€ 0x80002394
å†™å…¥åœ°å€ 0x8000bb34
0x80002394: 00 f4 80 23 sb	a5, 0(s1)
è¯»å–åœ°å€ 0x80002398
è¯»å–åœ°å€ 0x80002b25
0x80002398: 00 14 47 83 lbu	a5, 1(s0)
è¯»å–åœ°å€ 0x8000239c
0x8000239c: 00 14 84 93 addi	s1, s1, 1
è¯»å–åœ°å€ 0x800023a0
0x800023a0: 00 07 04 13 addi	s0, a4, 0
è¯»å–åœ°å€ 0x800023a4
0x800023a4: f6 07 9a e3 bne	a5, zero, 0x80002318
è¯»å–åœ°å€ 0x80002318
0x80002318: 00 14 07 13 addi	a4, s0, 1
è¯»å–åœ°å€ 0x8000231c
0x8000231c: 07 57 9c 63 bne	a5, s5, 0x80002394
è¯»å–åœ°å€ 0x80002320
è¯»å–åœ°å€ 0x80002b26
0x80002320: 00 14 47 83 lbu	a5, 1(s0)
è¯»å–åœ°å€ 0x80002324
0x80002324: 0d 77 84 63 beq	a5, s7, 0x800023ec
è¯»å–åœ°å€ 0x800023ec
è¯»å–åœ°å€ 0x8000bf34
0x800023ec: 00 06 26 83 lw	a3, 0(a2)
è¯»å–åœ°å€ 0x800023f0
0x800023f0: 00 46 06 13 addi	a2, a2, 4
è¯»å–åœ°å€ 0x800023f4
0x800023f4: 06 06 88 63 beq	a3, zero, 0x80002464
è¯»å–åœ°å€ 0x800023f8
0x800023f8: 41 f6 d7 93 srai	a5, a3, 31
è¯»å–åœ°å€ 0x800023fc
0x800023fc: 00 d7 c6 b3 xor	a3, a5, a3
è¯»å–åœ°å€ 0x80002400
0x80002400: 40 f6 86 b3 sub	a3, a3, a5
è¯»å–åœ°å€ 0x80002404
0x80002404: 00 04 85 93 addi	a1, s1, 0
è¯»å–åœ°å€ 0x80002408
0x80002408: 40 99 08 33 sub	a6, s2, s1
è¯»å–åœ°å€ 0x8000240c
0x8000240c: 03 66 e7 33 rem	a4, a3, s6
è¯»å–åœ°å€ 0x80002410
0x80002410: 00 05 87 93 addi	a5, a1, 0
è¯»å–åœ°å€ 0x80002414
0x80002414: 01 05 85 33 add	a0, a1, a6
è¯»å–åœ°å€ 0x80002418
0x80002418: 00 15 85 93 addi	a1, a1, 1
è¯»å–åœ°å€ 0x8000241c
0x8000241c: 03 66 c6 b3 div	a3, a3, s6
è¯»å–åœ°å€ 0x80002420
0x80002420: 03 07 07 13 addi	a4, a4, 48
è¯»å–åœ°å€ 0x80002424
0x80002424: 0f f7 77 13 andi	a4, a4, 255
è¯»å–åœ°å€ 0x80002428
å†™å…¥åœ°å€ 0x8000bb35
0x80002428: fe e5 8f a3 sb	a4, -1(a1)
è¯»å–åœ°å€ 0x8000242c
0x8000242c: fe 06 90 e3 bne	a3, zero, 0x8000240c
è¯»å–åœ°å€ 0x8000240c
0x8000240c: 03 66 e7 33 rem	a4, a3, s6
è¯»å–åœ°å€ 0x80002410
0x80002410: 00 05 87 93 addi	a5, a1, 0
è¯»å–åœ°å€ 0x80002414
0x80002414: 01 05 85 33 add	a0, a1, a6
è¯»å–åœ°å€ 0x80002418
0x80002418: 00 15 85 93 addi	a1, a1, 1
è¯»å–åœ°å€ 0x8000241c
0x8000241c: 03 66 c6 b3 div	a3, a3, s6
è¯»å–åœ°å€ 0x80002420
0x80002420: 03 07 07 13 addi	a4, a4, 48
è¯»å–åœ°å€ 0x80002424
0x80002424: 0f f7 77 13 andi	a4, a4, 255
è¯»å–åœ°å€ 0x80002428
å†™å…¥åœ°å€ 0x8000bb36
0x80002428: fe e5 8f a3 sb	a4, -1(a1)
è¯»å–åœ°å€ 0x8000242c
0x8000242c: fe 06 90 e3 bne	a3, zero, 0x8000240c
è¯»å–åœ°å€ 0x8000240c
0x8000240c: 03 66 e7 33 rem	a4, a3, s6
è¯»å–åœ°å€ 0x80002410
0x80002410: 00 05 87 93 addi	a5, a1, 0
è¯»å–åœ°å€ 0x80002414
0x80002414: 01 05 85 33 add	a0, a1, a6
è¯»å–åœ°å€ 0x80002418
0x80002418: 00 15 85 93 addi	a1, a1, 1
è¯»å–åœ°å€ 0x8000241c
0x8000241c: 03 66 c6 b3 div	a3, a3, s6
è¯»å–åœ°å€ 0x80002420
0x80002420: 03 07 07 13 addi	a4, a4, 48
è¯»å–åœ°å€ 0x80002424
0x80002424: 0f f7 77 13 andi	a4, a4, 255
è¯»å–åœ°å€ 0x80002428
å†™å…¥åœ°å€ 0x8000bb37
0x80002428: fe e5 8f a3 sb	a4, -1(a1)
è¯»å–åœ°å€ 0x8000242c
0x8000242c: fe 06 90 e3 bne	a3, zero, 0x8000240c
è¯»å–åœ°å€ 0x8000240c
0x8000240c: 03 66 e7 33 rem	a4, a3, s6
è¯»å–åœ°å€ 0x80002410
0x80002410: 00 05 87 93 addi	a5, a1, 0
è¯»å–åœ°å€ 0x80002414
0x80002414: 01 05 85 33 add	a0, a1, a6
è¯»å–åœ°å€ 0x80002418
0x80002418: 00 15 85 93 addi	a1, a1, 1
è¯»å–åœ°å€ 0x8000241c
0x8000241c: 03 66 c6 b3 div	a3, a3, s6
è¯»å–åœ°å€ 0x80002420
0x80002420: 03 07 07 13 addi	a4, a4, 48
è¯»å–åœ°å€ 0x80002424
0x80002424: 0f f7 77 13 andi	a4, a4, 255
è¯»å–åœ°å€ 0x80002428
å†™å…¥åœ°å€ 0x8000bb38
0x80002428: fe e5 8f a3 sb	a4, -1(a1)
è¯»å–åœ°å€ 0x8000242c
0x8000242c: fe 06 90 e3 bne	a3, zero, 0x8000240c
è¯»å–åœ°å€ 0x80002430
0x80002430: 02 f4 f4 63 bgeu	s1, a5, 0x80002458
è¯»å–åœ°å€ 0x80002434
0x80002434: 00 04 86 93 addi	a3, s1, 0
è¯»å–åœ°å€ 0x80002438
0x80002438: 00 80 00 6f jal	zero, 0x80002440
è¯»å–åœ°å€ 0x80002440
è¯»å–åœ°å€ 0x8000bb35
0x80002440: 00 06 c5 83 lbu	a1, 0(a3)
è¯»å–åœ°å€ 0x80002444
0x80002444: ff f7 87 93 addi	a5, a5, -1
è¯»å–åœ°å€ 0x80002448
0x80002448: 00 16 86 93 addi	a3, a3, 1
è¯»å–åœ°å€ 0x8000244c
å†™å…¥åœ°å€ 0x8000bb35
0x8000244c: fe e6 8f a3 sb	a4, -1(a3)
è¯»å–åœ°å€ 0x80002450
å†™å…¥åœ°å€ 0x8000bb38
0x80002450: 00 b7 80 a3 sb	a1, 1(a5)
è¯»å–åœ°å€ 0x80002454
0x80002454: fe f6 e4 e3 bltu	a3, a5, 0x8000243c
è¯»å–åœ°å€ 0x8000243c
è¯»å–åœ°å€ 0x8000bb37
0x8000243c: 00 07 c7 03 lbu	a4, 0(a5)
è¯»å–åœ°å€ 0x80002440
è¯»å–åœ°å€ 0x8000bb36
0x80002440: 00 06 c5 83 lbu	a1, 0(a3)
è¯»å–åœ°å€ 0x80002444
0x80002444: ff f7 87 93 addi	a5, a5, -1
è¯»å–åœ°å€ 0x80002448
0x80002448: 00 16 86 93 addi	a3, a3, 1
è¯»å–åœ°å€ 0x8000244c
å†™å…¥åœ°å€ 0x8000bb36
0x8000244c: fe e6 8f a3 sb	a4, -1(a3)
è¯»å–åœ°å€ 0x80002450
å†™å…¥åœ°å€ 0x8000bb37
0x80002450: 00 b7 80 a3 sb	a1, 1(a5)
è¯»å–åœ°å€ 0x80002454
0x80002454: fe f6 e4 e3 bltu	a3, a5, 0x8000243c
è¯»å–åœ°å€ 0x80002458
0x80002458: 00 a4 84 b3 add	s1, s1, a0
è¯»å–åœ°å€ 0x8000245c
å†™å…¥åœ°å€ 0x8000bb39
0x8000245c: 00 04 80 23 sb	zero, 0(s1)
è¯»å–åœ°å€ 0x80002460
0x80002460: ee 5f f0 6f jal	zero, 0x80002344
è¯»å–åœ°å€ 0x80002344
è¯»å–åœ°å€ 0x80002b27
0x80002344: 00 24 47 83 lbu	a5, 2(s0)
è¯»å–åœ°å€ 0x80002348
0x80002348: 00 24 04 13 addi	s0, s0, 2
è¯»å–åœ°å€ 0x8000234c
0x8000234c: fc 07 96 e3 bne	a5, zero, 0x80002318
è¯»å–åœ°å€ 0x80002318
0x80002318: 00 14 07 13 addi	a4, s0, 1
è¯»å–åœ°å€ 0x8000231c
0x8000231c: 07 57 9c 63 bne	a5, s5, 0x80002394
è¯»å–åœ°å€ 0x80002394
å†™å…¥åœ°å€ 0x8000bb39
0x80002394: 00 f4 80 23 sb	a5, 0(s1)
è¯»å–åœ°å€ 0x80002398
è¯»å–åœ°å€ 0x80002b28
0x80002398: 00 14 47 83 lbu	a5, 1(s0)
è¯»å–åœ°å€ 0x8000239c
0x8000239c: 00 14 84 93 addi	s1, s1, 1
è¯»å–åœ°å€ 0x800023a0
0x800023a0: 00 07 04 13 addi	s0, a4, 0
è¯»å–åœ°å€ 0x800023a4
0x800023a4: f6 07 9a e3 bne	a5, zero, 0x80002318
è¯»å–åœ°å€ 0x80002318
0x80002318: 00 14 07 13 addi	a4, s0, 1
è¯»å–åœ°å€ 0x8000231c
0x8000231c: 07 57 9c 63 bne	a5, s5, 0x80002394
è¯»å–åœ°å€ 0x80002394
å†™å…¥åœ°å€ 0x8000bb3a
0x80002394: 00 f4 80 23 sb	a5, 0(s1)
è¯»å–åœ°å€ 0x80002398
è¯»å–åœ°å€ 0x80002b29
0x80002398: 00 14 47 83 lbu	a5, 1(s0)
è¯»å–åœ°å€ 0x8000239c
0x8000239c: 00 14 84 93 addi	s1, s1, 1
è¯»å–åœ°å€ 0x800023a0
0x800023a0: 00 07 04 13 addi	s0, a4, 0
è¯»å–åœ°å€ 0x800023a4
0x800023a4: f6 07 9a e3 bne	a5, zero, 0x80002318
è¯»å–åœ°å€ 0x80002318
0x80002318: 00 14 07 13 addi	a4, s0, 1
è¯»å–åœ°å€ 0x8000231c
0x8000231c: 07 57 9c 63 bne	a5, s5, 0x80002394
è¯»å–åœ°å€ 0x80002394
å†™å…¥åœ°å€ 0x8000bb3b
0x80002394: 00 f4 80 23 sb	a5, 0(s1)
è¯»å–åœ°å€ 0x80002398
è¯»å–åœ°å€ 0x80002b2a
0x80002398: 00 14 47 83 lbu	a5, 1(s0)
è¯»å–åœ°å€ 0x8000239c
0x8000239c: 00 14 84 93 addi	s1, s1, 1
è¯»å–åœ°å€ 0x800023a0
0x800023a0: 00 07 04 13 addi	s0, a4, 0
è¯»å–åœ°å€ 0x800023a4
0x800023a4: f6 07 9a e3 bne	a5, zero, 0x80002318
è¯»å–åœ°å€ 0x80002318
0x80002318: 00 14 07 13 addi	a4, s0, 1
è¯»å–åœ°å€ 0x8000231c
0x8000231c: 07 57 9c 63 bne	a5, s5, 0x80002394
è¯»å–åœ°å€ 0x80002394
å†™å…¥åœ°å€ 0x8000bb3c
0x80002394: 00 f4 80 23 sb	a5, 0(s1)
è¯»å–åœ°å€ 0x80002398
è¯»å–åœ°å€ 0x80002b2b
0x80002398: 00 14 47 83 lbu	a5, 1(s0)
è¯»å–åœ°å€ 0x8000239c
0x8000239c: 00 14 84 93 addi	s1, s1, 1
è¯»å–åœ°å€ 0x800023a0
0x800023a0: 00 07 04 13 addi	s0, a4, 0
è¯»å–åœ°å€ 0x800023a4
0x800023a4: f6 07 9a e3 bne	a5, zero, 0x80002318
è¯»å–åœ°å€ 0x80002318
0x80002318: 00 14 07 13 addi	a4, s0, 1
è¯»å–åœ°å€ 0x8000231c
0x8000231c: 07 57 9c 63 bne	a5, s5, 0x80002394
è¯»å–åœ°å€ 0x80002394
å†™å…¥åœ°å€ 0x8000bb3d
0x80002394: 00 f4 80 23 sb	a5, 0(s1)
è¯»å–åœ°å€ 0x80002398
è¯»å–åœ°å€ 0x80002b2c
0x80002398: 00 14 47 83 lbu	a5, 1(s0)
è¯»å–åœ°å€ 0x8000239c
0x8000239c: 00 14 84 93 addi	s1, s1, 1
è¯»å–åœ°å€ 0x800023a0
0x800023a0: 00 07 04 13 addi	s0, a4, 0
è¯»å–åœ°å€ 0x800023a4
0x800023a4: f6 07 9a e3 bne	a5, zero, 0x80002318
è¯»å–åœ°å€ 0x80002318
0x80002318: 00 14 07 13 addi	a4, s0, 1
è¯»å–åœ°å€ 0x8000231c
0x8000231c: 07 57 9c 63 bne	a5, s5, 0x80002394
è¯»å–åœ°å€ 0x80002394
å†™å…¥åœ°å€ 0x8000bb3e
0x80002394: 00 f4 80 23 sb	a5, 0(s1)
è¯»å–åœ°å€ 0x80002398
è¯»å–åœ°å€ 0x80002b2d
0x80002398: 00 14 47 83 lbu	a5, 1(s0)
è¯»å–åœ°å€ 0x8000239c
0x8000239c: 00 14 84 93 addi	s1, s1, 1
è¯»å–åœ°å€ 0x800023a0
0x800023a0: 00 07 04 13 addi	s0, a4, 0
è¯»å–åœ°å€ 0x800023a4
0x800023a4: f6 07 9a e3 bne	a5, zero, 0x80002318
è¯»å–åœ°å€ 0x80002318
0x80002318: 00 14 07 13 addi	a4, s0, 1
è¯»å–åœ°å€ 0x8000231c
0x8000231c: 07 57 9c 63 bne	a5, s5, 0x80002394
è¯»å–åœ°å€ 0x80002394
å†™å…¥åœ°å€ 0x8000bb3f
0x80002394: 00 f4 80 23 sb	a5, 0(s1)
è¯»å–åœ°å€ 0x80002398
è¯»å–åœ°å€ 0x80002b2e
0x80002398: 00 14 47 83 lbu	a5, 1(s0)
è¯»å–åœ°å€ 0x8000239c
0x8000239c: 00 14 84 93 addi	s1, s1, 1
è¯»å–åœ°å€ 0x800023a0
0x800023a0: 00 07 04 13 addi	s0, a4, 0
è¯»å–åœ°å€ 0x800023a4
0x800023a4: f6 07 9a e3 bne	a5, zero, 0x80002318
è¯»å–åœ°å€ 0x80002318
0x80002318: 00 14 07 13 addi	a4, s0, 1
è¯»å–åœ°å€ 0x8000231c
0x8000231c: 07 57 9c 63 bne	a5, s5, 0x80002394
è¯»å–åœ°å€ 0x80002394
å†™å…¥åœ°å€ 0x8000bb40
0x80002394: 00 f4 80 23 sb	a5, 0(s1)
è¯»å–åœ°å€ 0x80002398
è¯»å–åœ°å€ 0x80002b2f
0x80002398: 00 14 47 83 lbu	a5, 1(s0)
è¯»å–åœ°å€ 0x8000239c
0x8000239c: 00 14 84 93 addi	s1, s1, 1
è¯»å–åœ°å€ 0x800023a0
0x800023a0: 00 07 04 13 addi	s0, a4, 0
è¯»å–åœ°å€ 0x800023a4
0x800023a4: f6 07 9a e3 bne	a5, zero, 0x80002318
è¯»å–åœ°å€ 0x80002318
0x80002318: 00 14 07 13 addi	a4, s0, 1
è¯»å–åœ°å€ 0x8000231c
0x8000231c: 07 57 9c 63 bne	a5, s5, 0x80002394
è¯»å–åœ°å€ 0x80002394
å†™å…¥åœ°å€ 0x8000bb41
0x80002394: 00 f4 80 23 sb	a5, 0(s1)
è¯»å–åœ°å€ 0x80002398
è¯»å–åœ°å€ 0x80002b30
0x80002398: 00 14 47 83 lbu	a5, 1(s0)
è¯»å–åœ°å€ 0x8000239c
0x8000239c: 00 14 84 93 addi	s1, s1, 1
è¯»å–åœ°å€ 0x800023a0
0x800023a0: 00 07 04 13 addi	s0, a4, 0
è¯»å–åœ°å€ 0x800023a4
0x800023a4: f6 07 9a e3 bne	a5, zero, 0x80002318
è¯»å–åœ°å€ 0x80002318
0x80002318: 00 14 07 13 addi	a4, s0, 1
è¯»å–åœ°å€ 0x8000231c
0x8000231c: 07 57 9c 63 bne	a5, s5, 0x80002394
è¯»å–åœ°å€ 0x80002394
å†™å…¥åœ°å€ 0x8000bb42
0x80002394: 00 f4 80 23 sb	a5, 0(s1)
è¯»å–åœ°å€ 0x80002398
è¯»å–åœ°å€ 0x80002b31
0x80002398: 00 14 47 83 lbu	a5, 1(s0)
è¯»å–åœ°å€ 0x8000239c
0x8000239c: 00 14 84 93 addi	s1, s1, 1
è¯»å–åœ°å€ 0x800023a0
0x800023a0: 00 07 04 13 addi	s0, a4, 0
è¯»å–åœ°å€ 0x800023a4
0x800023a4: f6 07 9a e3 bne	a5, zero, 0x80002318
è¯»å–åœ°å€ 0x80002318
0x80002318: 00 14 07 13 addi	a4, s0, 1
è¯»å–åœ°å€ 0x8000231c
0x8000231c: 07 57 9c 63 bne	a5, s5, 0x80002394
è¯»å–åœ°å€ 0x80002394
å†™å…¥åœ°å€ 0x8000bb43
0x80002394: 00 f4 80 23 sb	a5, 0(s1)
è¯»å–åœ°å€ 0x80002398
è¯»å–åœ°å€ 0x80002b32
0x80002398: 00 14 47 83 lbu	a5, 1(s0)
è¯»å–åœ°å€ 0x8000239c
0x8000239c: 00 14 84 93 addi	s1, s1, 1
è¯»å–åœ°å€ 0x800023a0
0x800023a0: 00 07 04 13 addi	s0, a4, 0
è¯»å–åœ°å€ 0x800023a4
0x800023a4: f6 07 9a e3 bne	a5, zero, 0x80002318
è¯»å–åœ°å€ 0x80002318
0x80002318: 00 14 07 13 addi	a4, s0, 1
è¯»å–åœ°å€ 0x8000231c
0x8000231c: 07 57 9c 63 bne	a5, s5, 0x80002394
è¯»å–åœ°å€ 0x80002394
å†™å…¥åœ°å€ 0x8000bb44
0x80002394: 00 f4 80 23 sb	a5, 0(s1)
è¯»å–åœ°å€ 0x80002398
è¯»å–åœ°å€ 0x80002b33
0x80002398: 00 14 47 83 lbu	a5, 1(s0)
è¯»å–åœ°å€ 0x8000239c
0x8000239c: 00 14 84 93 addi	s1, s1, 1
è¯»å–åœ°å€ 0x800023a0
0x800023a0: 00 07 04 13 addi	s0, a4, 0
è¯»å–åœ°å€ 0x800023a4
0x800023a4: f6 07 9a e3 bne	a5, zero, 0x80002318
è¯»å–åœ°å€ 0x800023a8
0x800023a8: fa 9f f0 6f jal	zero, 0x80002350
è¯»å–åœ°å€ 0x80002350
0x80002350: 41 84 85 33 sub	a0, s1, s8
è¯»å–åœ°å€ 0x80002354
å†™å…¥åœ°å€ 0x8000bb45
0x80002354: 00 04 80 23 sb	zero, 0(s1)
è¯»å–åœ°å€ 0x80002358
è¯»å–åœ°å€ 0x8000bb0c
0x80002358: 03 c1 20 83 lw	ra, 60(sp)
è¯»å–åœ°å€ 0x8000235c
è¯»å–åœ°å€ 0x8000bb08
0x8000235c: 03 81 24 03 lw	s0, 56(sp)
è¯»å–åœ°å€ 0x80002360
è¯»å–åœ°å€ 0x8000bb04
0x80002360: 03 41 24 83 lw	s1, 52(sp)
è¯»å–åœ°å€ 0x80002364
è¯»å–åœ°å€ 0x8000bb00
0x80002364: 03 01 29 03 lw	s2, 48(sp)
è¯»å–åœ°å€ 0x80002368
è¯»å–åœ°å€ 0x8000bafc
0x80002368: 02 c1 29 83 lw	s3, 44(sp)
è¯»å–åœ°å€ 0x8000236c
è¯»å–åœ°å€ 0x8000baf8
0x8000236c: 02 81 2a 03 lw	s4, 40(sp)
è¯»å–åœ°å€ 0x80002370
è¯»å–åœ°å€ 0x8000baf4
0x80002370: 02 41 2a 83 lw	s5, 36(sp)
è¯»å–åœ°å€ 0x80002374
è¯»å–åœ°å€ 0x8000baf0
0x80002374: 02 01 2b 03 lw	s6, 32(sp)
è¯»å–åœ°å€ 0x80002378
è¯»å–åœ°å€ 0x8000baec
0x80002378: 01 c1 2b 83 lw	s7, 28(sp)
è¯»å–åœ°å€ 0x8000237c
è¯»å–åœ°å€ 0x8000bae8
0x8000237c: 01 81 2c 03 lw	s8, 24(sp)
è¯»å–åœ°å€ 0x80002380
è¯»å–åœ°å€ 0x8000bae4
0x80002380: 01 41 2c 83 lw	s9, 20(sp)
è¯»å–åœ°å€ 0x80002384
è¯»å–åœ°å€ 0x8000bae0
0x80002384: 01 01 2d 03 lw	s10, 16(sp)
è¯»å–åœ°å€ 0x80002388
è¯»å–åœ°å€ 0x8000badc
0x80002388: 00 c1 2d 83 lw	s11, 12(sp)
è¯»å–åœ°å€ 0x8000238c
0x8000238c: 04 01 01 13 addi	sp, sp, 64
è¯»å–åœ°å€ 0x80002390
0x80002390: 00 00 80 67 jalr	zero, 0(ra)
è¯»å–åœ°å€ 0x800024e0
0x800024e0: 00 05 09 13 addi	s2, a0, 0
è¯»å–åœ°å€ 0x800024e4
0x800024e4: 00 a0 5e 63 bge	zero, a0, 0x80002500
è¯»å–åœ°å€ 0x800024e8
0x800024e8: 01 01 04 13 addi	s0, sp, 16
è¯»å–åœ°å€ 0x800024ec
0x800024ec: 00 a4 04 b3 add	s1, s0, a0
è¯»å–åœ°å€ 0x800024f0
è¯»å–åœ°å€ 0x8000bb20
0x800024f0: 00 04 45 03 lbu	a0, 0(s0)
è¯»å–åœ°å€ 0x800024f4
0x800024f4: 00 14 04 13 addi	s0, s0, 1
è¯»å–åœ°å€ 0x800024f8
0x800024f8: d8 1f f0 ef jal	ra, 0x80002278
è¯»å–åœ°å€ 0x80002278
0x80002278: a0 00 07 b7 lui	a5, 655360
è¯»å–åœ°å€ 0x8000227c
write device name = serial 	 addr = 0xa00003f8 
0x8000227c: 3e a7 8c 23 sb	a0, 1016(a5)
è¯»å–åœ°å€ 0x80002280
0x80002280: 00 00 80 67 jalr	zero, 0(ra)
è¯»å–åœ°å€ 0x800024fc
0x800024fc: fe 94 1a e3 bne	s0, s1, 0x800024f0
è¯»å–åœ°å€ 0x800024f0
è¯»å–åœ°å€ 0x8000bb21
0x800024f0: 00 04 45 03 lbu	a0, 0(s0)
è¯»å–åœ°å€ 0x800024f4
0x800024f4: 00 14 04 13 addi	s0, s0, 1
è¯»å–åœ°å€ 0x800024f8
0x800024f8: d8 1f f0 ef jal	ra, 0x80002278
è¯»å–åœ°å€ 0x80002278
0x80002278: a0 00 07 b7 lui	a5, 655360
è¯»å–åœ°å€ 0x8000227c
write device name = serial 	 addr = 0xa00003f8 
0x8000227c: 3e a7 8c 23 sb	a0, 1016(a5)
è¯»å–åœ°å€ 0x80002280
0x80002280: 00 00 80 67 jalr	zero, 0(ra)
è¯»å–åœ°å€ 0x800024fc
0x800024fc: fe 94 1a e3 bne	s0, s1, 0x800024f0
è¯»å–åœ°å€ 0x800024f0
è¯»å–åœ°å€ 0x8000bb22
0x800024f0: 00 04 45 03 lbu	a0, 0(s0)
è¯»å–åœ°å€ 0x800024f4
0x800024f4: 00 14 04 13 addi	s0, s0, 1
è¯»å–åœ°å€ 0x800024f8
0x800024f8: d8 1f f0 ef jal	ra, 0x80002278
è¯»å–åœ°å€ 0x80002278
0x80002278: a0 00 07 b7 lui	a5, 655360
è¯»å–åœ°å€ 0x8000227c
write device name = serial 	 addr = 0xa00003f8 
0x8000227c: 3e a7 8c 23 sb	a0, 1016(a5)
è¯»å–åœ°å€ 0x80002280
0x80002280: 00 00 80 67 jalr	zero, 0(ra)
è¯»å–åœ°å€ 0x800024fc
0x800024fc: fe 94 1a e3 bne	s0, s1, 0x800024f0
è¯»å–åœ°å€ 0x800024f0
è¯»å–åœ°å€ 0x8000bb23
0x800024f0: 00 04 45 03 lbu	a0, 0(s0)
è¯»å–åœ°å€ 0x800024f4
0x800024f4: 00 14 04 13 addi	s0, s0, 1
è¯»å–åœ°å€ 0x800024f8
0x800024f8: d8 1f f0 ef jal	ra, 0x80002278
è¯»å–åœ°å€ 0x80002278
0x80002278: a0 00 07 b7 lui	a5, 655360
è¯»å–åœ°å€ 0x8000227c
write device name = serial 	 addr = 0xa00003f8 
0x8000227c: 3e a7 8c 23 sb	a0, 1016(a5)
è¯»å–åœ°å€ 0x80002280
0x80002280: 00 00 80 67 jalr	zero, 0(ra)
è¯»å–åœ°å€ 0x800024fc
0x800024fc: fe 94 1a e3 bne	s0, s1, 0x800024f0
è¯»å–åœ°å€ 0x800024f0
è¯»å–åœ°å€ 0x8000bb24
0x800024f0: 00 04 45 03 lbu	a0, 0(s0)
è¯»å–åœ°å€ 0x800024f4
0x800024f4: 00 14 04 13 addi	s0, s0, 1
è¯»å–åœ°å€ 0x800024f8
0x800024f8: d8 1f f0 ef jal	ra, 0x80002278
è¯»å–åœ°å€ 0x80002278
0x80002278: a0 00 07 b7 lui	a5, 655360
è¯»å–åœ°å€ 0x8000227c
write device name = serial 	 addr = 0xa00003f8 
0x8000227c: 3e a7 8c 23 sb	a0, 1016(a5)
è¯»å–åœ°å€ 0x80002280
0x80002280: 00 00 80 67 jalr	zero, 0(ra)
è¯»å–åœ°å€ 0x800024fc
0x800024fc: fe 94 1a e3 bne	s0, s1, 0x800024f0
è¯»å–åœ°å€ 0x800024f0
è¯»å–åœ°å€ 0x8000bb25
0x800024f0: 00 04 45 03 lbu	a0, 0(s0)
è¯»å–åœ°å€ 0x800024f4
0x800024f4: 00 14 04 13 addi	s0, s0, 1
è¯»å–åœ°å€ 0x800024f8
0x800024f8: d8 1f f0 ef jal	ra, 0x80002278
è¯»å–åœ°å€ 0x80002278
0x80002278: a0 00 07 b7 lui	a5, 655360
è¯»å–åœ°å€ 0x8000227c
write device name = serial 	 addr = 0xa00003f8 
0x8000227c: 3e a7 8c 23 sb	a0, 1016(a5)
è¯»å–åœ°å€ 0x80002280
0x80002280: 00 00 80 67 jalr	zero, 0(ra)
è¯»å–åœ°å€ 0x800024fc
0x800024fc: fe 94 1a e3 bne	s0, s1, 0x800024f0
è¯»å–åœ°å€ 0x800024f0
è¯»å–åœ°å€ 0x8000bb26
0x800024f0: 00 04 45 03 lbu	a0, 0(s0)
è¯»å–åœ°å€ 0x800024f4
0x800024f4: 00 14 04 13 addi	s0, s0, 1
è¯»å–åœ°å€ 0x800024f8
0x800024f8: d8 1f f0 ef jal	ra, 0x80002278
è¯»å–åœ°å€ 0x80002278
0x80002278: a0 00 07 b7 lui	a5, 655360
è¯»å–åœ°å€ 0x8000227c
write device name = serial 	 addr = 0xa00003f8 
0x8000227c: 3e a7 8c 23 sb	a0, 1016(a5)
è¯»å–åœ°å€ 0x80002280
0x80002280: 00 00 80 67 jalr	zero, 0(ra)
è¯»å–åœ°å€ 0x800024fc
0x800024fc: fe 94 1a e3 bne	s0, s1, 0x800024f0
è¯»å–åœ°å€ 0x800024f0
è¯»å–åœ°å€ 0x8000bb27
0x800024f0: 00 04 45 03 lbu	a0, 0(s0)
è¯»å–åœ°å€ 0x800024f4
0x800024f4: 00 14 04 13 addi	s0, s0, 1
è¯»å–åœ°å€ 0x800024f8
0x800024f8: d8 1f f0 ef jal	ra, 0x80002278
è¯»å–åœ°å€ 0x80002278
0x80002278: a0 00 07 b7 lui	a5, 655360
è¯»å–åœ°å€ 0x8000227c
write device name = serial 	 addr = 0xa00003f8 
0x8000227c: 3e a7 8c 23 sb	a0, 1016(a5)
è¯»å–åœ°å€ 0x80002280
0x80002280: 00 00 80 67 jalr	zero, 0(ra)
è¯»å–åœ°å€ 0x800024fc
0x800024fc: fe 94 1a e3 bne	s0, s1, 0x800024f0
è¯»å–åœ°å€ 0x800024f0
è¯»å–åœ°å€ 0x8000bb28
0x800024f0: 00 04 45 03 lbu	a0, 0(s0)
è¯»å–åœ°å€ 0x800024f4
0x800024f4: 00 14 04 13 addi	s0, s0, 1
è¯»å–åœ°å€ 0x800024f8
0x800024f8: d8 1f f0 ef jal	ra, 0x80002278
è¯»å–åœ°å€ 0x80002278
0x80002278: a0 00 07 b7 lui	a5, 655360
è¯»å–åœ°å€ 0x8000227c
write device name = serial 	 addr = 0xa00003f8 
0x8000227c: 3e a7 8c 23 sb	a0, 1016(a5)
è¯»å–åœ°å€ 0x80002280
0x80002280: 00 00 80 67 jalr	zero, 0(ra)
è¯»å–åœ°å€ 0x800024fc
0x800024fc: fe 94 1a e3 bne	s0, s1, 0x800024f0
è¯»å–åœ°å€ 0x800024f0
è¯»å–åœ°å€ 0x8000bb29
0x800024f0: 00 04 45 03 lbu	a0, 0(s0)
è¯»å–åœ°å€ 0x800024f4
0x800024f4: 00 14 04 13 addi	s0, s0, 1
è¯»å–åœ°å€ 0x800024f8
0x800024f8: d8 1f f0 ef jal	ra, 0x80002278
è¯»å–åœ°å€ 0x80002278
0x80002278: a0 00 07 b7 lui	a5, 655360
è¯»å–åœ°å€ 0x8000227c
write device name = serial 	 addr = 0xa00003f8 
0x8000227c: 3e a7 8c 23 sb	a0, 1016(a5)
è¯»å–åœ°å€ 0x80002280
0x80002280: 00 00 80 67 jalr	zero, 0(ra)
è¯»å–åœ°å€ 0x800024fc
0x800024fc: fe 94 1a e3 bne	s0, s1, 0x800024f0
è¯»å–åœ°å€ 0x800024f0
è¯»å–åœ°å€ 0x8000bb2a
0x800024f0: 00 04 45 03 lbu	a0, 0(s0)
è¯»å–åœ°å€ 0x800024f4
0x800024f4: 00 14 04 13 addi	s0, s0, 1
è¯»å–åœ°å€ 0x800024f8
0x800024f8: d8 1f f0 ef jal	ra, 0x80002278
è¯»å–åœ°å€ 0x80002278
0x80002278: a0 00 07 b7 lui	a5, 655360
è¯»å–åœ°å€ 0x8000227c
write device name = serial 	 addr = 0xa00003f8 
0x8000227c: 3e a7 8c 23 sb	a0, 1016(a5)
è¯»å–åœ°å€ 0x80002280
0x80002280: 00 00 80 67 jalr	zero, 0(ra)
è¯»å–åœ°å€ 0x800024fc
0x800024fc: fe 94 1a e3 bne	s0, s1, 0x800024f0
è¯»å–åœ°å€ 0x800024f0
è¯»å–åœ°å€ 0x8000bb2b
0x800024f0: 00 04 45 03 lbu	a0, 0(s0)
è¯»å–åœ°å€ 0x800024f4
0x800024f4: 00 14 04 13 addi	s0, s0, 1
è¯»å–åœ°å€ 0x800024f8
0x800024f8: d8 1f f0 ef jal	ra, 0x80002278
è¯»å–åœ°å€ 0x80002278
0x80002278: a0 00 07 b7 lui	a5, 655360
è¯»å–åœ°å€ 0x8000227c
write device name = serial 	 addr = 0xa00003f8 
0x8000227c: 3e a7 8c 23 sb	a0, 1016(a5)
è¯»å–åœ°å€ 0x80002280
0x80002280: 00 00 80 67 jalr	zero, 0(ra)
è¯»å–åœ°å€ 0x800024fc
0x800024fc: fe 94 1a e3 bne	s0, s1, 0x800024f0
è¯»å–åœ°å€ 0x800024f0
è¯»å–åœ°å€ 0x8000bb2c
0x800024f0: 00 04 45 03 lbu	a0, 0(s0)
è¯»å–åœ°å€ 0x800024f4
0x800024f4: 00 14 04 13 addi	s0, s0, 1
è¯»å–åœ°å€ 0x800024f8
0x800024f8: d8 1f f0 ef jal	ra, 0x80002278
è¯»å–åœ°å€ 0x80002278
0x80002278: a0 00 07 b7 lui	a5, 655360
è¯»å–åœ°å€ 0x8000227c
write device name = serial 	 addr = 0xa00003f8 
0x8000227c: 3e a7 8c 23 sb	a0, 1016(a5)
è¯»å–åœ°å€ 0x80002280
0x80002280: 00 00 80 67 jalr	zero, 0(ra)
è¯»å–åœ°å€ 0x800024fc
0x800024fc: fe 94 1a e3 bne	s0, s1, 0x800024f0
è¯»å–åœ°å€ 0x800024f0
è¯»å–åœ°å€ 0x8000bb2d
0x800024f0: 00 04 45 03 lbu	a0, 0(s0)
è¯»å–åœ°å€ 0x800024f4
0x800024f4: 00 14 04 13 addi	s0, s0, 1
è¯»å–åœ°å€ 0x800024f8
0x800024f8: d8 1f f0 ef jal	ra, 0x80002278
è¯»å–åœ°å€ 0x80002278
0x80002278: a0 00 07 b7 lui	a5, 655360
è¯»å–åœ°å€ 0x8000227c
write device name = serial 	 addr = 0xa00003f8 
0x8000227c: 3e a7 8c 23 sb	a0, 1016(a5)
è¯»å–åœ°å€ 0x80002280
0x80002280: 00 00 80 67 jalr	zero, 0(ra)
è¯»å–åœ°å€ 0x800024fc
0x800024fc: fe 94 1a e3 bne	s0, s1, 0x800024f0
è¯»å–åœ°å€ 0x800024f0
è¯»å–åœ°å€ 0x8000bb2e
0x800024f0: 00 04 45 03 lbu	a0, 0(s0)
è¯»å–åœ°å€ 0x800024f4
0x800024f4: 00 14 04 13 addi	s0, s0, 1
è¯»å–åœ°å€ 0x800024f8
0x800024f8: d8 1f f0 ef jal	ra, 0x80002278
è¯»å–åœ°å€ 0x80002278
0x80002278: a0 00 07 b7 lui	a5, 655360
è¯»å–åœ°å€ 0x8000227c
write device name = serial 	 addr = 0xa00003f8 
0x8000227c: 3e a7 8c 23 sb	a0, 1016(a5)
è¯»å–åœ°å€ 0x80002280
0x80002280: 00 00 80 67 jalr	zero, 0(ra)
è¯»å–åœ°å€ 0x800024fc
0x800024fc: fe 94 1a e3 bne	s0, s1, 0x800024f0
è¯»å–åœ°å€ 0x800024f0
è¯»å–åœ°å€ 0x8000bb2f
0x800024f0: 00 04 45 03 lbu	a0, 0(s0)
è¯»å–åœ°å€ 0x800024f4
0x800024f4: 00 14 04 13 addi	s0, s0, 1
è¯»å–åœ°å€ 0x800024f8
0x800024f8: d8 1f f0 ef jal	ra, 0x80002278
è¯»å–åœ°å€ 0x80002278
0x80002278: a0 00 07 b7 lui	a5, 655360
è¯»å–åœ°å€ 0x8000227c
write device name = serial 	 addr = 0xa00003f8 
0x8000227c: 3e a7 8c 23 sb	a0, 1016(a5)
è¯»å–åœ°å€ 0x80002280
0x80002280: 00 00 80 67 jalr	zero, 0(ra)
è¯»å–åœ°å€ 0x800024fc
0x800024fc: fe 94 1a e3 bne	s0, s1, 0x800024f0
è¯»å–åœ°å€ 0x800024f0
è¯»å–åœ°å€ 0x8000bb30
0x800024f0: 00 04 45 03 lbu	a0, 0(s0)
è¯»å–åœ°å€ 0x800024f4
0x800024f4: 00 14 04 13 addi	s0, s0, 1
è¯»å–åœ°å€ 0x800024f8
0x800024f8: d8 1f f0 ef jal	ra, 0x80002278
è¯»å–åœ°å€ 0x80002278
0x80002278: a0 00 07 b7 lui	a5, 655360
è¯»å–åœ°å€ 0x8000227c
write device name = serial 	 addr = 0xa00003f8 
0x8000227c: 3e a7 8c 23 sb	a0, 1016(a5)
è¯»å–åœ°å€ 0x80002280
0x80002280: 00 00 80 67 jalr	zero, 0(ra)
è¯»å–åœ°å€ 0x800024fc
0x800024fc: fe 94 1a e3 bne	s0, s1, 0x800024f0
è¯»å–åœ°å€ 0x800024f0
è¯»å–åœ°å€ 0x8000bb31
0x800024f0: 00 04 45 03 lbu	a0, 0(s0)
è¯»å–åœ°å€ 0x800024f4
0x800024f4: 00 14 04 13 addi	s0, s0, 1
è¯»å–åœ°å€ 0x800024f8
0x800024f8: d8 1f f0 ef jal	ra, 0x80002278
è¯»å–åœ°å€ 0x80002278
0x80002278: a0 00 07 b7 lui	a5, 655360
è¯»å–åœ°å€ 0x8000227c
write device name = serial 	 addr = 0xa00003f8 
0x8000227c: 3e a7 8c 23 sb	a0, 1016(a5)
è¯»å–åœ°å€ 0x80002280
0x80002280: 00 00 80 67 jalr	zero, 0(ra)
è¯»å–åœ°å€ 0x800024fc
0x800024fc: fe 94 1a e3 bne	s0, s1, 0x800024f0
è¯»å–åœ°å€ 0x800024f0
è¯»å–åœ°å€ 0x8000bb32
0x800024f0: 00 04 45 03 lbu	a0, 0(s0)
è¯»å–åœ°å€ 0x800024f4
0x800024f4: 00 14 04 13 addi	s0, s0, 1
è¯»å–åœ°å€ 0x800024f8
0x800024f8: d8 1f f0 ef jal	ra, 0x80002278
è¯»å–åœ°å€ 0x80002278
0x80002278: a0 00 07 b7 lui	a5, 655360
è¯»å–åœ°å€ 0x8000227c
write device name = serial 	 addr = 0xa00003f8 
0x8000227c: 3e a7 8c 23 sb	a0, 1016(a5)
è¯»å–åœ°å€ 0x80002280
0x80002280: 00 00 80 67 jalr	zero, 0(ra)
è¯»å–åœ°å€ 0x800024fc
0x800024fc: fe 94 1a e3 bne	s0, s1, 0x800024f0
è¯»å–åœ°å€ 0x800024f0
è¯»å–åœ°å€ 0x8000bb33
0x800024f0: 00 04 45 03 lbu	a0, 0(s0)
è¯»å–åœ°å€ 0x800024f4
0x800024f4: 00 14 04 13 addi	s0, s0, 1
è¯»å–åœ°å€ 0x800024f8
0x800024f8: d8 1f f0 ef jal	ra, 0x80002278
è¯»å–åœ°å€ 0x80002278
0x80002278: a0 00 07 b7 lui	a5, 655360
è¯»å–åœ°å€ 0x8000227c
write device name = serial 	 addr = 0xa00003f8 
0x8000227c: 3e a7 8c 23 sb	a0, 1016(a5)
è¯»å–åœ°å€ 0x80002280
0x80002280: 00 00 80 67 jalr	zero, 0(ra)
è¯»å–åœ°å€ 0x800024fc
0x800024fc: fe 94 1a e3 bne	s0, s1, 0x800024f0
è¯»å–åœ°å€ 0x800024f0
è¯»å–åœ°å€ 0x8000bb34
0x800024f0: 00 04 45 03 lbu	a0, 0(s0)
è¯»å–åœ°å€ 0x800024f4
0x800024f4: 00 14 04 13 addi	s0, s0, 1
è¯»å–åœ°å€ 0x800024f8
0x800024f8: d8 1f f0 ef jal	ra, 0x80002278
è¯»å–åœ°å€ 0x80002278
0x80002278: a0 00 07 b7 lui	a5, 655360
è¯»å–åœ°å€ 0x8000227c
write device name = serial 	 addr = 0xa00003f8 
0x8000227c: 3e a7 8c 23 sb	a0, 1016(a5)
è¯»å–åœ°å€ 0x80002280
0x80002280: 00 00 80 67 jalr	zero, 0(ra)
è¯»å–åœ°å€ 0x800024fc
0x800024fc: fe 94 1a e3 bne	s0, s1, 0x800024f0
è¯»å–åœ°å€ 0x800024f0
è¯»å–åœ°å€ 0x8000bb35
0x800024f0: 00 04 45 03 lbu	a0, 0(s0)
è¯»å–åœ°å€ 0x800024f4
0x800024f4: 00 14 04 13 addi	s0, s0, 1
è¯»å–åœ°å€ 0x800024f8
0x800024f8: d8 1f f0 ef jal	ra, 0x80002278
è¯»å–åœ°å€ 0x80002278
0x80002278: a0 00 07 b7 lui	a5, 655360
è¯»å–åœ°å€ 0x8000227c
write device name = serial 	 addr = 0xa00003f8 
0x8000227c: 3e a7 8c 23 sb	a0, 1016(a5)
è¯»å–åœ°å€ 0x80002280
0x80002280: 00 00 80 67 jalr	zero, 0(ra)
è¯»å–åœ°å€ 0x800024fc
0x800024fc: fe 94 1a e3 bne	s0, s1, 0x800024f0
è¯»å–åœ°å€ 0x800024f0
è¯»å–åœ°å€ 0x8000bb36
0x800024f0: 00 04 45 03 lbu	a0, 0(s0)
è¯»å–åœ°å€ 0x800024f4
0x800024f4: 00 14 04 13 addi	s0, s0, 1
è¯»å–åœ°å€ 0x800024f8
0x800024f8: d8 1f f0 ef jal	ra, 0x80002278
è¯»å–åœ°å€ 0x80002278
0x80002278: a0 00 07 b7 lui	a5, 655360
è¯»å–åœ°å€ 0x8000227c
write device name = serial 	 addr = 0xa00003f8 
0x8000227c: 3e a7 8c 23 sb	a0, 1016(a5)
è¯»å–åœ°å€ 0x80002280
0x80002280: 00 00 80 67 jalr	zero, 0(ra)
è¯»å–åœ°å€ 0x800024fc
0x800024fc: fe 94 1a e3 bne	s0, s1, 0x800024f0
è¯»å–åœ°å€ 0x800024f0
è¯»å–åœ°å€ 0x8000bb37
0x800024f0: 00 04 45 03 lbu	a0, 0(s0)
è¯»å–åœ°å€ 0x800024f4
0x800024f4: 00 14 04 13 addi	s0, s0, 1
è¯»å–åœ°å€ 0x800024f8
0x800024f8: d8 1f f0 ef jal	ra, 0x80002278
è¯»å–åœ°å€ 0x80002278
0x80002278: a0 00 07 b7 lui	a5, 655360
è¯»å–åœ°å€ 0x8000227c
write device name = serial 	 addr = 0xa00003f8 
0x8000227c: 3e a7 8c 23 sb	a0, 1016(a5)
è¯»å–åœ°å€ 0x80002280
0x80002280: 00 00 80 67 jalr	zero, 0(ra)
è¯»å–åœ°å€ 0x800024fc
0x800024fc: fe 94 1a e3 bne	s0, s1, 0x800024f0
è¯»å–åœ°å€ 0x800024f0
è¯»å–åœ°å€ 0x8000bb38
0x800024f0: 00 04 45 03 lbu	a0, 0(s0)
è¯»å–åœ°å€ 0x800024f4
0x800024f4: 00 14 04 13 addi	s0, s0, 1
è¯»å–åœ°å€ 0x800024f8
0x800024f8: d8 1f f0 ef jal	ra, 0x80002278
è¯»å–åœ°å€ 0x80002278
0x80002278: a0 00 07 b7 lui	a5, 655360
è¯»å–åœ°å€ 0x8000227c
write device name = serial 	 addr = 0xa00003f8 
0x8000227c: 3e a7 8c 23 sb	a0, 1016(a5)
è¯»å–åœ°å€ 0x80002280
0x80002280: 00 00 80 67 jalr	zero, 0(ra)
è¯»å–åœ°å€ 0x800024fc
0x800024fc: fe 94 1a e3 bne	s0, s1, 0x800024f0
è¯»å–åœ°å€ 0x800024f0
è¯»å–åœ°å€ 0x8000bb39
0x800024f0: 00 04 45 03 lbu	a0, 0(s0)
è¯»å–åœ°å€ 0x800024f4
0x800024f4: 00 14 04 13 addi	s0, s0, 1
è¯»å–åœ°å€ 0x800024f8
0x800024f8: d8 1f f0 ef jal	ra, 0x80002278
è¯»å–åœ°å€ 0x80002278
0x80002278: a0 00 07 b7 lui	a5, 655360
è¯»å–åœ°å€ 0x8000227c
write device name = serial 	 addr = 0xa00003f8 
0x8000227c: 3e a7 8c 23 sb	a0, 1016(a5)
è¯»å–åœ°å€ 0x80002280
0x80002280: 00 00 80 67 jalr	zero, 0(ra)
è¯»å–åœ°å€ 0x800024fc
0x800024fc: fe 94 1a e3 bne	s0, s1, 0x800024f0
è¯»å–åœ°å€ 0x800024f0
è¯»å–åœ°å€ 0x8000bb3a
0x800024f0: 00 04 45 03 lbu	a0, 0(s0)
è¯»å–åœ°å€ 0x800024f4
0x800024f4: 00 14 04 13 addi	s0, s0, 1
è¯»å–åœ°å€ 0x800024f8
0x800024f8: d8 1f f0 ef jal	ra, 0x80002278
è¯»å–åœ°å€ 0x80002278
0x80002278: a0 00 07 b7 lui	a5, 655360
è¯»å–åœ°å€ 0x8000227c
write device name = serial 	 addr = 0xa00003f8 
0x8000227c: 3e a7 8c 23 sb	a0, 1016(a5)
è¯»å–åœ°å€ 0x80002280
0x80002280: 00 00 80 67 jalr	zero, 0(ra)
è¯»å–åœ°å€ 0x800024fc
0x800024fc: fe 94 1a e3 bne	s0, s1, 0x800024f0
è¯»å–åœ°å€ 0x800024f0
è¯»å–åœ°å€ 0x8000bb3b
0x800024f0: 00 04 45 03 lbu	a0, 0(s0)
è¯»å–åœ°å€ 0x800024f4
0x800024f4: 00 14 04 13 addi	s0, s0, 1
è¯»å–åœ°å€ 0x800024f8
0x800024f8: d8 1f f0 ef jal	ra, 0x80002278
è¯»å–åœ°å€ 0x80002278
0x80002278: a0 00 07 b7 lui	a5, 655360
è¯»å–åœ°å€ 0x8000227c
write device name = serial 	 addr = 0xa00003f8 
0x8000227c: 3e a7 8c 23 sb	a0, 1016(a5)
è¯»å–åœ°å€ 0x80002280
0x80002280: 00 00 80 67 jalr	zero, 0(ra)
è¯»å–åœ°å€ 0x800024fc
0x800024fc: fe 94 1a e3 bne	s0, s1, 0x800024f0
è¯»å–åœ°å€ 0x800024f0
è¯»å–åœ°å€ 0x8000bb3c
0x800024f0: 00 04 45 03 lbu	a0, 0(s0)
è¯»å–åœ°å€ 0x800024f4
0x800024f4: 00 14 04 13 addi	s0, s0, 1
è¯»å–åœ°å€ 0x800024f8
0x800024f8: d8 1f f0 ef jal	ra, 0x80002278
è¯»å–åœ°å€ 0x80002278
0x80002278: a0 00 07 b7 lui	a5, 655360
è¯»å–åœ°å€ 0x8000227c
write device name = serial 	 addr = 0xa00003f8 
0x8000227c: 3e a7 8c 23 sb	a0, 1016(a5)
è¯»å–åœ°å€ 0x80002280
0x80002280: 00 00 80 67 jalr	zero, 0(ra)
è¯»å–åœ°å€ 0x800024fc
0x800024fc: fe 94 1a e3 bne	s0, s1, 0x800024f0
è¯»å–åœ°å€ 0x800024f0
è¯»å–åœ°å€ 0x8000bb3d
0x800024f0: 00 04 45 03 lbu	a0, 0(s0)
è¯»å–åœ°å€ 0x800024f4
0x800024f4: 00 14 04 13 addi	s0, s0, 1
è¯»å–åœ°å€ 0x800024f8
0x800024f8: d8 1f f0 ef jal	ra, 0x80002278
è¯»å–åœ°å€ 0x80002278
0x80002278: a0 00 07 b7 lui	a5, 655360
è¯»å–åœ°å€ 0x8000227c
write device name = serial 	 addr = 0xa00003f8 
0x8000227c: 3e a7 8c 23 sb	a0, 1016(a5)
è¯»å–åœ°å€ 0x80002280
0x80002280: 00 00 80 67 jalr	zero, 0(ra)
è¯»å–åœ°å€ 0x800024fc
0x800024fc: fe 94 1a e3 bne	s0, s1, 0x800024f0
è¯»å–åœ°å€ 0x800024f0
è¯»å–åœ°å€ 0x8000bb3e
0x800024f0: 00 04 45 03 lbu	a0, 0(s0)
è¯»å–åœ°å€ 0x800024f4
0x800024f4: 00 14 04 13 addi	s0, s0, 1
è¯»å–åœ°å€ 0x800024f8
0x800024f8: d8 1f f0 ef jal	ra, 0x80002278
è¯»å–åœ°å€ 0x80002278
0x80002278: a0 00 07 b7 lui	a5, 655360
è¯»å–åœ°å€ 0x8000227c
write device name = serial 	 addr = 0xa00003f8 
0x8000227c: 3e a7 8c 23 sb	a0, 1016(a5)
è¯»å–åœ°å€ 0x80002280
0x80002280: 00 00 80 67 jalr	zero, 0(ra)
è¯»å–åœ°å€ 0x800024fc
0x800024fc: fe 94 1a e3 bne	s0, s1, 0x800024f0
è¯»å–åœ°å€ 0x800024f0
è¯»å–åœ°å€ 0x8000bb3f
0x800024f0: 00 04 45 03 lbu	a0, 0(s0)
è¯»å–åœ°å€ 0x800024f4
0x800024f4: 00 14 04 13 addi	s0, s0, 1
è¯»å–åœ°å€ 0x800024f8
0x800024f8: d8 1f f0 ef jal	ra, 0x80002278
è¯»å–åœ°å€ 0x80002278
0x80002278: a0 00 07 b7 lui	a5, 655360
è¯»å–åœ°å€ 0x8000227c
write device name = serial 	 addr = 0xa00003f8 
0x8000227c: 3e a7 8c 23 sb	a0, 1016(a5)
è¯»å–åœ°å€ 0x80002280
0x80002280: 00 00 80 67 jalr	zero, 0(ra)
è¯»å–åœ°å€ 0x800024fc
0x800024fc: fe 94 1a e3 bne	s0, s1, 0x800024f0
è¯»å–åœ°å€ 0x800024f0
è¯»å–åœ°å€ 0x8000bb40
0x800024f0: 00 04 45 03 lbu	a0, 0(s0)
è¯»å–åœ°å€ 0x800024f4
0x800024f4: 00 14 04 13 addi	s0, s0, 1
è¯»å–åœ°å€ 0x800024f8
0x800024f8: d8 1f f0 ef jal	ra, 0x80002278
è¯»å–åœ°å€ 0x80002278
0x80002278: a0 00 07 b7 lui	a5, 655360
è¯»å–åœ°å€ 0x8000227c
write device name = serial 	 addr = 0xa00003f8 
0x8000227c: 3e a7 8c 23 sb	a0, 1016(a5)
è¯»å–åœ°å€ 0x80002280
0x80002280: 00 00 80 67 jalr	zero, 0(ra)
è¯»å–åœ°å€ 0x800024fc
0x800024fc: fe 94 1a e3 bne	s0, s1, 0x800024f0
è¯»å–åœ°å€ 0x800024f0
è¯»å–åœ°å€ 0x8000bb41
0x800024f0: 00 04 45 03 lbu	a0, 0(s0)
è¯»å–åœ°å€ 0x800024f4
0x800024f4: 00 14 04 13 addi	s0, s0, 1
è¯»å–åœ°å€ 0x800024f8
0x800024f8: d8 1f f0 ef jal	ra, 0x80002278
è¯»å–åœ°å€ 0x80002278
0x80002278: a0 00 07 b7 lui	a5, 655360
è¯»å–åœ°å€ 0x8000227c
write device name = serial 	 addr = 0xa00003f8 
0x8000227c: 3e a7 8c 23 sb	a0, 1016(a5)
è¯»å–åœ°å€ 0x80002280
0x80002280: 00 00 80 67 jalr	zero, 0(ra)
è¯»å–åœ°å€ 0x800024fc
0x800024fc: fe 94 1a e3 bne	s0, s1, 0x800024f0
è¯»å–åœ°å€ 0x800024f0
è¯»å–åœ°å€ 0x8000bb42
0x800024f0: 00 04 45 03 lbu	a0, 0(s0)
è¯»å–åœ°å€ 0x800024f4
0x800024f4: 00 14 04 13 addi	s0, s0, 1
è¯»å–åœ°å€ 0x800024f8
0x800024f8: d8 1f f0 ef jal	ra, 0x80002278
è¯»å–åœ°å€ 0x80002278
0x80002278: a0 00 07 b7 lui	a5, 655360
è¯»å–åœ°å€ 0x8000227c
write device name = serial 	 addr = 0xa00003f8 
0x8000227c: 3e a7 8c 23 sb	a0, 1016(a5)
è¯»å–åœ°å€ 0x80002280
0x80002280: 00 00 80 67 jalr	zero, 0(ra)
è¯»å–åœ°å€ 0x800024fc
0x800024fc: fe 94 1a e3 bne	s0, s1, 0x800024f0
è¯»å–åœ°å€ 0x800024f0
è¯»å–åœ°å€ 0x8000bb43
0x800024f0: 00 04 45 03 lbu	a0, 0(s0)
è¯»å–åœ°å€ 0x800024f4
0x800024f4: 00 14 04 13 addi	s0, s0, 1
è¯»å–åœ°å€ 0x800024f8
0x800024f8: d8 1f f0 ef jal	ra, 0x80002278
è¯»å–åœ°å€ 0x80002278
0x80002278: a0 00 07 b7 lui	a5, 655360
è¯»å–åœ°å€ 0x8000227c
write device name = serial 	 addr = 0xa00003f8 
0x8000227c: 3e a7 8c 23 sb	a0, 1016(a5)
è¯»å–åœ°å€ 0x80002280
0x80002280: 00 00 80 67 jalr	zero, 0(ra)
è¯»å–åœ°å€ 0x800024fc
0x800024fc: fe 94 1a e3 bne	s0, s1, 0x800024f0
è¯»å–åœ°å€ 0x800024f0
è¯»å–åœ°å€ 0x8000bb44
0x800024f0: 00 04 45 03 lbu	a0, 0(s0)
è¯»å–åœ°å€ 0x800024f4
0x800024f4: 00 14 04 13 addi	s0, s0, 1
è¯»å–åœ°å€ 0x800024f8
0x800024f8: d8 1f f0 ef jal	ra, 0x80002278
è¯»å–åœ°å€ 0x80002278
0x80002278: a0 00 07 b7 lui	a5, 655360
è¯»å–åœ°å€ 0x8000227c
write device name = serial 	 addr = 0xa00003f8 
0x8000227c: 3e a7 8c 23 sb	a0, 1016(a5)
è¯»å–åœ°å€ 0x80002280
0x80002280: 00 00 80 67 jalr	zero, 0(ra)
è¯»å–åœ°å€ 0x800024fc
0x800024fc: fe 94 1a e3 bne	s0, s1, 0x800024f0
è¯»å–åœ°å€ 0x80002500
è¯»å–åœ°å€ 0x8000bf2c
0x80002500: 41 c1 20 83 lw	ra, 1052(sp)
è¯»å–åœ°å€ 0x80002504
è¯»å–åœ°å€ 0x8000bf28
0x80002504: 41 81 24 03 lw	s0, 1048(sp)
è¯»å–åœ°å€ 0x80002508
è¯»å–åœ°å€ 0x8000bf24
0x80002508: 41 41 24 83 lw	s1, 1044(sp)
è¯»å–åœ°å€ 0x8000250c
0x8000250c: 00 09 05 13 addi	a0, s2, 0
è¯»å–åœ°å€ 0x80002510
è¯»å–åœ°å€ 0x8000bf20
0x80002510: 41 01 29 03 lw	s2, 1040(sp)
è¯»å–åœ°å€ 0x80002514
0x80002514: 44 01 01 13 addi	sp, sp, 1088
è¯»å–åœ°å€ 0x80002518
0x80002518: 00 00 80 67 jalr	zero, 0(ra)
è¯»å–åœ°å€ 0x800019c8
0x800019c8: 00 04 06 13 addi	a2, s0, 0
è¯»å–åœ°å€ 0x800019cc
0x800019cc: 00 c1 05 93 addi	a1, sp, 12
è¯»å–åœ°å€ 0x800019d0
0x800019d0: 05 e1 05 13 addi	a0, sp, 94
è¯»å–åœ°å€ 0x800019d4
0x800019d4: ee 0f e0 ef jal	ra, 0x800000b4
è¯»å–åœ°å€ 0x800000b4
0x800000b4: 00 10 07 93 addi	a5, zero, 1
è¯»å–åœ°å€ 0x800000b8
å†™å…¥åœ°å€ 0x8000bfae
0x800000b8: 00 f5 00 23 sb	a5, 0(a0)
è¯»å–åœ°å€ 0x800000bc
0x800000bc: 00 00 80 67 jalr	zero, 0(ra)
è¯»å–åœ°å€ 0x800019d8
0x800019d8: 00 10 05 13 addi	a0, zero, 1
è¯»å–åœ°å€ 0x800019dc
0x800019dc: ee cf e0 ef jal	ra, 0x800000c8
è¯»å–åœ°å€ 0x800000c8
0x800000c8: 00 50 07 93 addi	a5, zero, 5
è¯»å–åœ°å€ 0x800000cc
0x800000cc: 04 a7 ec 63 bltu	a5, a0, 0x80000124
è¯»å–åœ°å€ 0x800000d0
0x800000d0: 80 00 37 b7 lui	a5, 524291
è¯»å–åœ°å€ 0x800000d4
0x800000d4: a0 87 87 93 addi	a5, a5, -1528
è¯»å–åœ°å€ 0x800000d8
0x800000d8: 00 25 15 13 slli	a0, a0, 2
è¯»å–åœ°å€ 0x800000dc
0x800000dc: 00 f5 05 33 add	a0, a0, a5
è¯»å–åœ°å€ 0x800000e0
è¯»å–åœ°å€ 0x80002a0c
0x800000e0: 00 05 27 83 lw	a5, 0(a0)
è¯»å–åœ°å€ 0x800000e4
0x800000e4: 00 07 80 67 jalr	zero, 0(a5)
è¯»å–åœ°å€ 0x800000f4
0x800000f4: 80 00 47 b7 lui	a5, 524292
è¯»å–åœ°å€ 0x800000f8
è¯»å–åœ°å€ 0x80003950
0x800000f8: 95 07 a5 03 lw	a0, -1712(a5)
è¯»å–åœ°å€ 0x800000fc
0x800000fc: 00 00 80 67 jalr	zero, 0(ra)
è¯»å–åœ°å€ 0x800019e0
0x800019e0: 00 05 07 93 addi	a5, a0, 0
è¯»å–åœ°å€ 0x800019e4
0x800019e4: 00 20 05 13 addi	a0, zero, 2
è¯»å–åœ°å€ 0x800019e8
å†™å…¥åœ°å€ 0x8000bf6c
0x800019e8: 00 f1 1e 23 sh	a5, 28(sp)
è¯»å–åœ°å€ 0x800019ec
0x800019ec: ed cf e0 ef jal	ra, 0x800000c8
è¯»å–åœ°å€ 0x800000c8
0x800000c8: 00 50 07 93 addi	a5, zero, 5
è¯»å–åœ°å€ 0x800000cc
0x800000cc: 04 a7 ec 63 bltu	a5, a0, 0x80000124
è¯»å–åœ°å€ 0x800000d0
0x800000d0: 80 00 37 b7 lui	a5, 524291
è¯»å–åœ°å€ 0x800000d4
0x800000d4: a0 87 87 93 addi	a5, a5, -1528
è¯»å–åœ°å€ 0x800000d8
0x800000d8: 00 25 15 13 slli	a0, a0, 2
è¯»å–åœ°å€ 0x800000dc
0x800000dc: 00 f5 05 33 add	a0, a0, a5
è¯»å–åœ°å€ 0x800000e0
è¯»å–åœ°å€ 0x80002a10
0x800000e0: 00 05 27 83 lw	a5, 0(a0)
è¯»å–åœ°å€ 0x800000e4
0x800000e4: 00 07 80 67 jalr	zero, 0(a5)
è¯»å–åœ°å€ 0x80000100
0x80000100: 80 00 47 b7 lui	a5, 524292
è¯»å–åœ°å€ 0x80000104
è¯»å–åœ°å€ 0x80003954
0x80000104: 95 47 a5 03 lw	a0, -1708(a5)
è¯»å–åœ°å€ 0x80000108
0x80000108: 00 00 80 67 jalr	zero, 0(ra)
è¯»å–åœ°å€ 0x800019f0
0x800019f0: 00 05 07 93 addi	a5, a0, 0
è¯»å–åœ°å€ 0x800019f4
0x800019f4: 00 30 05 13 addi	a0, zero, 3
è¯»å–åœ°å€ 0x800019f8
å†™å…¥åœ°å€ 0x8000bf6e
0x800019f8: 00 f1 1f 23 sh	a5, 30(sp)
è¯»å–åœ°å€ 0x800019fc
0x800019fc: ec cf e0 ef jal	ra, 0x800000c8
è¯»å–åœ°å€ 0x800000c8
0x800000c8: 00 50 07 93 addi	a5, zero, 5
è¯»å–åœ°å€ 0x800000cc
0x800000cc: 04 a7 ec 63 bltu	a5, a0, 0x80000124
è¯»å–åœ°å€ 0x800000d0
0x800000d0: 80 00 37 b7 lui	a5, 524291
è¯»å–åœ°å€ 0x800000d4
0x800000d4: a0 87 87 93 addi	a5, a5, -1528
è¯»å–åœ°å€ 0x800000d8
0x800000d8: 00 25 15 13 slli	a0, a0, 2
è¯»å–åœ°å€ 0x800000dc
0x800000dc: 00 f5 05 33 add	a0, a0, a5
è¯»å–åœ°å€ 0x800000e0
è¯»å–åœ°å€ 0x80002a14
0x800000e0: 00 05 27 83 lw	a5, 0(a0)
è¯»å–åœ°å€ 0x800000e4
0x800000e4: 00 07 80 67 jalr	zero, 0(a5)
è¯»å–åœ°å€ 0x8000010c
0x8000010c: 80 00 37 b7 lui	a5, 524291
è¯»å–åœ°å€ 0x80000110
è¯»å–åœ°å€ 0x80002f78
0x80000110: f7 87 a5 03 lw	a0, -136(a5)
è¯»å–åœ°å€ 0x80000114
0x80000114: 00 00 80 67 jalr	zero, 0(ra)
è¯»å–åœ°å€ 0x80001a00
0x80001a00: 00 05 07 93 addi	a5, a0, 0
è¯»å–åœ°å€ 0x80001a04
0x80001a04: 00 40 05 13 addi	a0, zero, 4
è¯»å–åœ°å€ 0x80001a08
å†™å…¥åœ°å€ 0x8000bf70
0x80001a08: 02 f1 10 23 sh	a5, 32(sp)
è¯»å–åœ°å€ 0x80001a0c
0x80001a0c: eb cf e0 ef jal	ra, 0x800000c8
è¯»å–åœ°å€ 0x800000c8
0x800000c8: 00 50 07 93 addi	a5, zero, 5
è¯»å–åœ°å€ 0x800000cc
0x800000cc: 04 a7 ec 63 bltu	a5, a0, 0x80000124
è¯»å–åœ°å€ 0x800000d0
0x800000d0: 80 00 37 b7 lui	a5, 524291
è¯»å–åœ°å€ 0x800000d4
0x800000d4: a0 87 87 93 addi	a5, a5, -1528
è¯»å–åœ°å€ 0x800000d8
0x800000d8: 00 25 15 13 slli	a0, a0, 2
è¯»å–åœ°å€ 0x800000dc
0x800000dc: 00 f5 05 33 add	a0, a0, a5
è¯»å–åœ°å€ 0x800000e0
è¯»å–åœ°å€ 0x80002a18
0x800000e0: 00 05 27 83 lw	a5, 0(a0)
è¯»å–åœ°å€ 0x800000e4
0x800000e4: 00 07 80 67 jalr	zero, 0(a5)
è¯»å–åœ°å€ 0x80000118
0x80000118: 80 00 37 b7 lui	a5, 524291
è¯»å–åœ°å€ 0x8000011c
è¯»å–åœ°å€ 0x80002f7c
0x8000011c: f7 c7 a5 03 lw	a0, -132(a5)
è¯»å–åœ°å€ 0x80000120
0x80000120: 00 00 80 67 jalr	zero, 0(ra)
è¯»å–åœ°å€ 0x80001a10
0x80001a10: 00 05 07 93 addi	a5, a0, 0
è¯»å–åœ°å€ 0x80001a14
0x80001a14: 00 50 05 13 addi	a0, zero, 5
è¯»å–åœ°å€ 0x80001a18
å†™å…¥åœ°å€ 0x8000bf88
0x80001a18: 02 f1 2c 23 sw	a5, 56(sp)
è¯»å–åœ°å€ 0x80001a1c
0x80001a1c: ea cf e0 ef jal	ra, 0x800000c8
è¯»å–åœ°å€ 0x800000c8
0x800000c8: 00 50 07 93 addi	a5, zero, 5
è¯»å–åœ°å€ 0x800000cc
0x800000cc: 04 a7 ec 63 bltu	a5, a0, 0x80000124
è¯»å–åœ°å€ 0x800000d0
0x800000d0: 80 00 37 b7 lui	a5, 524291
è¯»å–åœ°å€ 0x800000d4
0x800000d4: a0 87 87 93 addi	a5, a5, -1528
è¯»å–åœ°å€ 0x800000d8
0x800000d8: 00 25 15 13 slli	a0, a0, 2
è¯»å–åœ°å€ 0x800000dc
0x800000dc: 00 f5 05 33 add	a0, a0, a5
è¯»å–åœ°å€ 0x800000e0
è¯»å–åœ°å€ 0x80002a1c
0x800000e0: 00 05 27 83 lw	a5, 0(a0)
è¯»å–åœ°å€ 0x800000e4
0x800000e4: 00 07 80 67 jalr	zero, 0(a5)
è¯»å–åœ°å€ 0x800000e8
0x800000e8: 80 00 47 b7 lui	a5, 524292
è¯»å–åœ°å€ 0x800000ec
è¯»å–åœ°å€ 0x80003958
0x800000ec: 95 87 a5 03 lw	a0, -1704(a5)
è¯»å–åœ°å€ 0x800000f0
0x800000f0: 00 00 80 67 jalr	zero, 0(ra)
è¯»å–åœ°å€ 0x80001a20
0x80001a20: 00 70 07 93 addi	a5, zero, 7
è¯»å–åœ°å€ 0x80001a24
0x80001a24: 00 05 04 63 beq	a0, zero, 0x80001a2c
è¯»å–åœ°å€ 0x80001a2c
è¯»å–åœ°å€ 0x8000bf6c
0x80001a2c: 01 c1 27 03 lw	a4, 28(sp)
è¯»å–åœ°å€ 0x80001a30
å†™å…¥åœ°å€ 0x8000bf8c
0x80001a30: 02 f1 2e 23 sw	a5, 60(sp)
è¯»å–åœ°å€ 0x80001a34
0x80001a34: 58 07 14 63 bne	a4, zero, 0x80001fbc
è¯»å–åœ°å€ 0x80001a38
è¯»å–åœ°å€ 0x8000bf70
0x80001a38: 02 01 17 03 lh	a4, 32(sp)
è¯»å–åœ°å€ 0x80001a3c
0x80001a3c: 58 07 0e 63 beq	a4, zero, 0x80001fd8
è¯»å–åœ°å€ 0x80001a40
0x80001a40: 80 00 38 b7 lui	a7, 524291
è¯»å–åœ°å€ 0x80001a44
0x80001a44: 18 08 88 93 addi	a7, a7, 384
è¯»å–åœ°å€ 0x80001a48
0x80001a48: 00 27 f7 13 andi	a4, a5, 2
è¯»å–åœ°å€ 0x80001a4c
0x80001a4c: 00 17 f6 93 andi	a3, a5, 1
è¯»å–åœ°å€ 0x80001a50
0x80001a50: 00 e0 35 b3 sltu	a1, zero, a4
è¯»å–åœ°å€ 0x80001a54
å†™å…¥åœ°å€ 0x8000bf74
0x80001a54: 03 11 22 23 sw	a7, 36(sp)
è¯»å–åœ°å€ 0x80001a58
å†™å…¥åœ°å€ 0x8000bfac
0x80001a58: 04 01 1e 23 sh	zero, 92(sp)
è¯»å–åœ°å€ 0x80001a5c
0x80001a5c: 00 47 f6 13 andi	a2, a5, 4
è¯»å–åœ°å€ 0x80001a60
0x80001a60: 00 06 8e 93 addi	t4, a3, 0
è¯»å–åœ°å€ 0x80001a64
0x80001a64: 00 b6 86 b3 add	a3, a3, a1
è¯»å–åœ°å€ 0x80001a68
0x80001a68: 00 06 08 63 beq	a2, zero, 0x80001a78
è¯»å–åœ°å€ 0x80001a6c
0x80001a6c: 00 16 86 93 addi	a3, a3, 1
è¯»å–åœ°å€ 0x80001a70
0x80001a70: 01 06 96 93 slli	a3, a3, 16
è¯»å–åœ°å€ 0x80001a74
0x80001a74: 01 06 d6 93 srli	a3, a3, 16
è¯»å–åœ°å€ 0x80001a78
0x80001a78: 7d 00 05 13 addi	a0, zero, 2000
è¯»å–åœ°å€ 0x80001a7c
0x80001a7c: 02 d5 55 33 divu	a0, a0, a3
è¯»å–åœ°å€ 0x80001a80
0x80001a80: 01 c1 05 93 addi	a1, sp, 28
è¯»å–åœ°å€ 0x80001a84
0x80001a84: 00 00 06 93 addi	a3, zero, 0
è¯»å–åœ°å€ 0x80001a88
0x80001a88: 00 00 08 13 addi	a6, zero, 0
è¯»å–åœ°å€ 0x80001a8c
0x80001a8c: 00 10 0e 13 addi	t3, zero, 1
è¯»å–åœ°å€ 0x80001a90
0x80001a90: 00 30 03 13 addi	t1, zero, 3
è¯»å–åœ°å€ 0x80001a94
å†™å…¥åœ°å€ 0x8000bf84
0x80001a94: 02 a1 2a 23 sw	a0, 52(sp)
è¯»å–åœ°å€ 0x80001a98
0x80001a98: 00 de 16 33 sll	a2, t3, a3
è¯»å–åœ°å€ 0x80001a9c
0x80001a9c: 00 f6 76 33 and	a2, a2, a5
è¯»å–åœ°å€ 0x80001aa0
0x80001aa0: 00 16 86 93 addi	a3, a3, 1
è¯»å–åœ°å€ 0x80001aa4
0x80001aa4: 4e 06 1e 63 bne	a2, zero, 0x80001fa0
è¯»å–åœ°å€ 0x80001fa0
0x80001fa0: 02 a8 06 33 mul	a2, a6, a0
è¯»å–åœ°å€ 0x80001fa4
0x80001fa4: 00 18 08 13 addi	a6, a6, 1
è¯»å–åœ°å€ 0x80001fa8
0x80001fa8: 01 08 18 13 slli	a6, a6, 16
è¯»å–åœ°å€ 0x80001fac
0x80001fac: 01 08 58 13 srli	a6, a6, 16
è¯»å–åœ°å€ 0x80001fb0
0x80001fb0: 00 c8 86 33 add	a2, a7, a2
è¯»å–åœ°å€ 0x80001fb4
å†™å…¥åœ°å€ 0x8000bf78
0x80001fb4: 00 c5 a6 23 sw	a2, 12(a1)
è¯»å–åœ°å€ 0x80001fb8
0x80001fb8: af 1f f0 6f jal	zero, 0x80001aa8
è¯»å–åœ°å€ 0x80001aa8
0x80001aa8: 00 45 85 93 addi	a1, a1, 4
è¯»å–åœ°å€ 0x80001aac
0x80001aac: fe 66 96 e3 bne	a3, t1, 0x80001a98
è¯»å–åœ°å€ 0x80001a98
0x80001a98: 00 de 16 33 sll	a2, t3, a3
è¯»å–åœ°å€ 0x80001a9c
0x80001a9c: 00 f6 76 33 and	a2, a2, a5
è¯»å–åœ°å€ 0x80001aa0
0x80001aa0: 00 16 86 93 addi	a3, a3, 1
è¯»å–åœ°å€ 0x80001aa4
0x80001aa4: 4e 06 1e 63 bne	a2, zero, 0x80001fa0
è¯»å–åœ°å€ 0x80001fa0
0x80001fa0: 02 a8 06 33 mul	a2, a6, a0
è¯»å–åœ°å€ 0x80001fa4
0x80001fa4: 00 18 08 13 addi	a6, a6, 1
è¯»å–åœ°å€ 0x80001fa8
0x80001fa8: 01 08 18 13 slli	a6, a6, 16
è¯»å–åœ°å€ 0x80001fac
0x80001fac: 01 08 58 13 srli	a6, a6, 16
è¯»å–åœ°å€ 0x80001fb0
0x80001fb0: 00 c8 86 33 add	a2, a7, a2
è¯»å–åœ°å€ 0x80001fb4
å†™å…¥åœ°å€ 0x8000bf7c
0x80001fb4: 00 c5 a6 23 sw	a2, 12(a1)
è¯»å–åœ°å€ 0x80001fb8
0x80001fb8: af 1f f0 6f jal	zero, 0x80001aa8
è¯»å–åœ°å€ 0x80001aa8
0x80001aa8: 00 45 85 93 addi	a1, a1, 4
è¯»å–åœ°å€ 0x80001aac
0x80001aac: fe 66 96 e3 bne	a3, t1, 0x80001a98
è¯»å–åœ°å€ 0x80001a98
0x80001a98: 00 de 16 33 sll	a2, t3, a3
è¯»å–åœ°å€ 0x80001a9c
0x80001a9c: 00 f6 76 33 and	a2, a2, a5
è¯»å–åœ°å€ 0x80001aa0
0x80001aa0: 00 16 86 93 addi	a3, a3, 1
è¯»å–åœ°å€ 0x80001aa4
0x80001aa4: 4e 06 1e 63 bne	a2, zero, 0x80001fa0
è¯»å–åœ°å€ 0x80001fa0
0x80001fa0: 02 a8 06 33 mul	a2, a6, a0
è¯»å–åœ°å€ 0x80001fa4
0x80001fa4: 00 18 08 13 addi	a6, a6, 1
è¯»å–åœ°å€ 0x80001fa8
0x80001fa8: 01 08 18 13 slli	a6, a6, 16
è¯»å–åœ°å€ 0x80001fac
0x80001fac: 01 08 58 13 srli	a6, a6, 16
è¯»å–åœ°å€ 0x80001fb0
0x80001fb0: 00 c8 86 33 add	a2, a7, a2
è¯»å–åœ°å€ 0x80001fb4
å†™å…¥åœ°å€ 0x8000bf80
0x80001fb4: 00 c5 a6 23 sw	a2, 12(a1)
è¯»å–åœ°å€ 0x80001fb8
0x80001fb8: af 1f f0 6f jal	zero, 0x80001aa8
è¯»å–åœ°å€ 0x80001aa8
0x80001aa8: 00 45 85 93 addi	a1, a1, 4
è¯»å–åœ°å€ 0x80001aac
0x80001aac: fe 66 96 e3 bne	a3, t1, 0x80001a98
è¯»å–åœ°å€ 0x80001ab0
0x80001ab0: 22 0e 98 63 bne	t4, zero, 0x80001ce0
è¯»å–åœ°å€ 0x80001ce0
è¯»å–åœ°å€ 0x8000bf6c
0x80001ce0: 01 c1 16 03 lh	a2, 28(sp)
è¯»å–åœ°å€ 0x80001ce4
è¯»å–åœ°å€ 0x8000bf78
0x80001ce4: 02 81 25 83 lw	a1, 40(sp)
è¯»å–åœ°å€ 0x80001ce8
0x80001ce8: ba 8f f0 ef jal	ra, 0x80001090
è¯»å–åœ°å€ 0x80001090
0x80001090: 01 40 07 93 addi	a5, zero, 20
è¯»å–åœ°å€ 0x80001094
0x80001094: 02 f5 5e 33 divu	t3, a0, a5
è¯»å–åœ°å€ 0x80001098
0x80001098: ff ff 87 b7 lui	a5, 1048568
è¯»å–åœ°å€ 0x8000109c
å†™å…¥åœ°å€ 0x80003180
0x8000109c: 00 05 a0 23 sw	zero, 0(a1)
è¯»å–åœ°å€ 0x800010a0
0x800010a0: 08 07 87 13 addi	a4, a5, 128
è¯»å–åœ°å€ 0x800010a4
0x800010a4: 01 05 86 93 addi	a3, a1, 16
è¯»å–åœ°å€ 0x800010a8
0x800010a8: 00 05 85 13 addi	a0, a1, 0
è¯»å–åœ°å€ 0x800010ac
0x800010ac: 00 85 83 13 addi	t1, a1, 8
è¯»å–åœ°å€ 0x800010b0
0x800010b0: ff ee 0e 13 addi	t3, t3, -2
è¯»å–åœ°å€ 0x800010b4
0x800010b4: 00 3e 1f 13 slli	t5, t3, 3
è¯»å–åœ°å€ 0x800010b8
0x800010b8: 01 e5 8f 33 add	t5, a1, t5
è¯»å–åœ°å€ 0x800010bc
å†™å…¥åœ°å€ 0x80003184
0x800010bc: 01 e5 a2 23 sw	t5, 4(a1)
è¯»å–åœ°å€ 0x800010c0
0x800010c0: 00 2e 1f 93 slli	t6, t3, 2
è¯»å–åœ°å€ 0x800010c4
å†™å…¥åœ°å€ 0x80003278
0x800010c4: 00 ef 10 23 sh	a4, 0(t5)
è¯»å–åœ°å€ 0x800010c8
å†™å…¥åœ°å€ 0x8000327a
0x800010c8: 00 0f 11 23 sh	zero, 2(t5)
è¯»å–åœ°å€ 0x800010cc
0x800010cc: 01 ff 0f b3 add	t6, t5, t6
è¯»å–åœ°å€ 0x800010d0
0x800010d0: 00 4f 07 13 addi	a4, t5, 4
è¯»å–åœ°å€ 0x800010d4
0x800010d4: 13 e6 fe 63 bgeu	a3, t5, 0x80001210
è¯»å–åœ°å€ 0x800010d8
0x800010d8: 00 8f 08 93 addi	a7, t5, 8
è¯»å–åœ°å€ 0x800010dc
0x800010dc: 13 f8 fa 63 bgeu	a7, t6, 0x80001210
è¯»å–åœ°å€ 0x800010e0
å†™å…¥åœ°å€ 0x8000318c
0x800010e0: 00 e5 a6 23 sw	a4, 12(a1)
è¯»å–åœ°å€ 0x800010e4
å†™å…¥åœ°å€ 0x80003188
0x800010e4: 00 05 a4 23 sw	zero, 8(a1)
è¯»å–åœ°å€ 0x800010e8
å†™å…¥åœ°å€ 0x80003180
0x800010e8: 00 65 a0 23 sw	t1, 0(a1)
è¯»å–åœ°å€ 0x800010ec
0x800010ec: ff f7 c7 93 xori	a5, a5, -1
è¯»å–åœ°å€ 0x800010f0
0x800010f0: ff f0 07 13 addi	a4, zero, -1
è¯»å–åœ°å€ 0x800010f4
å†™å…¥åœ°å€ 0x8000327c
0x800010f4: 00 ef 12 23 sh	a4, 4(t5)
è¯»å–åœ°å€ 0x800010f8
å†™å…¥åœ°å€ 0x8000327e
0x800010f8: 00 ff 13 23 sh	a5, 6(t5)
è¯»å–åœ°å€ 0x800010fc
0x800010fc: 06 0e 0a 63 beq	t3, zero, 0x80001170
è¯»å–åœ°å€ 0x80001100
0x80001100: 01 06 12 93 slli	t0, a2, 16
è¯»å–åœ°å€ 0x80001104
0x80001104: ff ff 83 b7 lui	t2, 1048568
è¯»å–åœ°å€ 0x80001108
0x80001108: 01 02 d2 93 srli	t0, t0, 16
è¯»å–åœ°å€ 0x8000110c
0x8000110c: 00 00 08 13 addi	a6, zero, 0
è¯»å–åœ°å€ 0x80001110
0x80001110: ff f3 c3 93 xori	t2, t2, -1
è¯»å–åœ°å€ 0x80001114
0x80001114: 01 08 17 13 slli	a4, a6, 16
è¯»å–åœ°å€ 0x80001118
0x80001118: 01 07 57 13 srli	a4, a4, 16
è¯»å–åœ°å€ 0x8000111c
0x8000111c: 00 57 47 b3 xor	a5, a4, t0
è¯»å–åœ°å€ 0x80001120
0x80001120: 00 37 97 93 slli	a5, a5, 3
è¯»å–åœ°å€ 0x80001124
0x80001124: 00 77 77 13 andi	a4, a4, 7
è¯»å–åœ°å€ 0x80001128
0x80001128: 07 87 f7 93 andi	a5, a5, 120
è¯»å–åœ°å€ 0x8000112c
0x8000112c: 00 e7 e7 b3 or	a5, a5, a4
è¯»å–åœ°å€ 0x80001130
0x80001130: 00 87 97 13 slli	a4, a5, 8
è¯»å–åœ°å€ 0x80001134
0x80001134: 00 86 85 93 addi	a1, a3, 8
è¯»å–åœ°å€ 0x80001138
0x80001138: 00 18 08 13 addi	a6, a6, 1
è¯»å–åœ°å€ 0x8000113c
0x8000113c: 00 48 8e 93 addi	t4, a7, 4
è¯»å–åœ°å€ 0x80001140
0x80001140: 00 f7 67 33 or	a4, a4, a5
è¯»å–åœ°å€ 0x80001144
0x80001144: 03 e5 f4 63 bgeu	a1, t5, 0x8000116c
è¯»å–åœ°å€ 0x80001148
0x80001148: 03 fe f2 63 bgeu	t4, t6, 0x8000116c
è¯»å–åœ°å€ 0x8000114c
å†™å…¥åœ°å€ 0x80003190
0x8000114c: 00 66 a0 23 sw	t1, 0(a3)
è¯»å–åœ°å€ 0x80001150
å†™å…¥åœ°å€ 0x80003180
0x80001150: 00 d5 20 23 sw	a3, 0(a0)
è¯»å–åœ°å€ 0x80001154
å†™å…¥åœ°å€ 0x80003194
0x80001154: 01 16 a2 23 sw	a7, 4(a3)
è¯»å–åœ°å€ 0x80001158
å†™å…¥åœ°å€ 0x80003280
0x80001158: 00 e8 90 23 sh	a4, 0(a7)
è¯»å–åœ°å€ 0x8000115c
å†™å…¥åœ°å€ 0x80003282
0x8000115c: 00 78 91 23 sh	t2, 2(a7)
è¯»å–åœ°å€ 0x80001160
0x80001160: 00 06 83 13 addi	t1, a3, 0
è¯»å–åœ°å€ 0x80001164
0x80001164: 00 0e 88 93 addi	a7, t4, 0
è¯»å–åœ°å€ 0x80001168
0x80001168: 00 05 86 93 addi	a3, a1, 0
è¯»å–åœ°å€ 0x8000116c
0x8000116c: fb 0e 14 e3 bne	t3, a6, 0x80001114
è¯»å–åœ°å€ 0x80001114
0x80001114: 01 08 17 13 slli	a4, a6, 16
è¯»å–åœ°å€ 0x80001118
0x80001118: 01 07 57 13 srli	a4, a4, 16
è¯»å–åœ°å€ 0x8000111c
0x8000111c: 00 57 47 b3 xor	a5, a4, t0
è¯»å–åœ°å€ 0x80001120
0x80001120: 00 37 97 93 slli	a5, a5, 3
è¯»å–åœ°å€ 0x80001124
0x80001124: 00 77 77 13 andi	a4, a4, 7
è¯»å–åœ°å€ 0x80001128
0x80001128: 07 87 f7 93 andi	a5, a5, 120
è¯»å–åœ°å€ 0x8000112c
0x8000112c: 00 e7 e7 b3 or	a5, a5, a4
è¯»å–åœ°å€ 0x80001130
0x80001130: 00 87 97 13 slli	a4, a5, 8
è¯»å–åœ°å€ 0x80001134
0x80001134: 00 86 85 93 addi	a1, a3, 8
è¯»å–åœ°å€ 0x80001138
0x80001138: 00 18 08 13 addi	a6, a6, 1
è¯»å–åœ°å€ 0x8000113c
0x8000113c: 00 48 8e 93 addi	t4, a7, 4
è¯»å–åœ°å€ 0x80001140
0x80001140: 00 f7 67 33 or	a4, a4, a5
è¯»å–åœ°å€ 0x80001144
0x80001144: 03 e5 f4 63 bgeu	a1, t5, 0x8000116c
è¯»å–åœ°å€ 0x80001148
0x80001148: 03 fe f2 63 bgeu	t4, t6, 0x8000116c
è¯»å–åœ°å€ 0x8000114c
å†™å…¥åœ°å€ 0x80003198
0x8000114c: 00 66 a0 23 sw	t1, 0(a3)
è¯»å–åœ°å€ 0x80001150
å†™å…¥åœ°å€ 0x80003180
0x80001150: 00 d5 20 23 sw	a3, 0(a0)
è¯»å–åœ°å€ 0x80001154
å†™å…¥åœ°å€ 0x8000319c
0x80001154: 01 16 a2 23 sw	a7, 4(a3)
è¯»å–åœ°å€ 0x80001158
å†™å…¥åœ°å€ 0x80003284
0x80001158: 00 e8 90 23 sh	a4, 0(a7)
è¯»å–åœ°å€ 0x8000115c
å†™å…¥åœ°å€ 0x80003286
0x8000115c: 00 78 91 23 sh	t2, 2(a7)
è¯»å–åœ°å€ 0x80001160
0x80001160: 00 06 83 13 addi	t1, a3, 0
è¯»å–åœ°å€ 0x80001164
0x80001164: 00 0e 88 93 addi	a7, t4, 0
è¯»å–åœ°å€ 0x80001168
0x80001168: 00 05 86 93 addi	a3, a1, 0
è¯»å–åœ°å€ 0x8000116c
0x8000116c: fb 0e 14 e3 bne	t3, a6, 0x80001114
è¯»å–åœ°å€ 0x80001114
0x80001114: 01 08 17 13 slli	a4, a6, 16
è¯»å–åœ°å€ 0x80001118
0x80001118: 01 07 57 13 srli	a4, a4, 16
è¯»å–åœ°å€ 0x8000111c
0x8000111c: 00 57 47 b3 xor	a5, a4, t0
è¯»å–åœ°å€ 0x80001120
0x80001120: 00 37 97 93 slli	a5, a5, 3
è¯»å–åœ°å€ 0x80001124
0x80001124: 00 77 77 13 andi	a4, a4, 7
è¯»å–åœ°å€ 0x80001128
0x80001128: 07 87 f7 93 andi	a5, a5, 120
è¯»å–åœ°å€ 0x8000112c
0x8000112c: 00 e7 e7 b3 or	a5, a5, a4
è¯»å–åœ°å€ 0x80001130
0x80001130: 00 87 97 13 slli	a4, a5, 8
è¯»å–åœ°å€ 0x80001134
0x80001134: 00 86 85 93 addi	a1, a3, 8
è¯»å–åœ°å€ 0x80001138
0x80001138: 00 18 08 13 addi	a6, a6, 1
è¯»å–åœ°å€ 0x8000113c
0x8000113c: 00 48 8e 93 addi	t4, a7, 4
è¯»å–åœ°å€ 0x80001140
0x80001140: 00 f7 67 33 or	a4, a4, a5
è¯»å–åœ°å€ 0x80001144
0x80001144: 03 e5 f4 63 bgeu	a1, t5, 0x8000116c
è¯»å–åœ°å€ 0x80001148
0x80001148: 03 fe f2 63 bgeu	t4, t6, 0x8000116c
è¯»å–åœ°å€ 0x8000114c
å†™å…¥åœ°å€ 0x800031a0
0x8000114c: 00 66 a0 23 sw	t1, 0(a3)
è¯»å–åœ°å€ 0x80001150
å†™å…¥åœ°å€ 0x80003180
0x80001150: 00 d5 20 23 sw	a3, 0(a0)
è¯»å–åœ°å€ 0x80001154
å†™å…¥åœ°å€ 0x800031a4
0x80001154: 01 16 a2 23 sw	a7, 4(a3)
è¯»å–åœ°å€ 0x80001158
å†™å…¥åœ°å€ 0x80003288
0x80001158: 00 e8 90 23 sh	a4, 0(a7)
è¯»å–åœ°å€ 0x8000115c
å†™å…¥åœ°å€ 0x8000328a
0x8000115c: 00 78 91 23 sh	t2, 2(a7)
è¯»å–åœ°å€ 0x80001160
0x80001160: 00 06 83 13 addi	t1, a3, 0
è¯»å–åœ°å€ 0x80001164
0x80001164: 00 0e 88 93 addi	a7, t4, 0
è¯»å–åœ°å€ 0x80001168
0x80001168: 00 05 86 93 addi	a3, a1, 0
è¯»å–åœ°å€ 0x8000116c
0x8000116c: fb 0e 14 e3 bne	t3, a6, 0x80001114
è¯»å–åœ°å€ 0x80001114
0x80001114: 01 08 17 13 slli	a4, a6, 16
è¯»å–åœ°å€ 0x80001118
0x80001118: 01 07 57 13 srli	a4, a4, 16
è¯»å–åœ°å€ 0x8000111c
0x8000111c: 00 57 47 b3 xor	a5, a4, t0
è¯»å–åœ°å€ 0x80001120
0x80001120: 00 37 97 93 slli	a5, a5, 3
è¯»å–åœ°å€ 0x80001124
0x80001124: 00 77 77 13 andi	a4, a4, 7
è¯»å–åœ°å€ 0x80001128
0x80001128: 07 87 f7 93 andi	a5, a5, 120
è¯»å–åœ°å€ 0x8000112c
0x8000112c: 00 e7 e7 b3 or	a5, a5, a4
è¯»å–åœ°å€ 0x80001130
0x80001130: 00 87 97 13 slli	a4, a5, 8
è¯»å–åœ°å€ 0x80001134
0x80001134: 00 86 85 93 addi	a1, a3, 8
è¯»å–åœ°å€ 0x80001138
0x80001138: 00 18 08 13 addi	a6, a6, 1
è¯»å–åœ°å€ 0x8000113c
0x8000113c: 00 48 8e 93 addi	t4, a7, 4
è¯»å–åœ°å€ 0x80001140
0x80001140: 00 f7 67 33 or	a4, a4, a5
è¯»å–åœ°å€ 0x80001144
0x80001144: 03 e5 f4 63 bgeu	a1, t5, 0x8000116c
è¯»å–åœ°å€ 0x80001148
0x80001148: 03 fe f2 63 bgeu	t4, t6, 0x8000116c
è¯»å–åœ°å€ 0x8000114c
å†™å…¥åœ°å€ 0x800031a8
0x8000114c: 00 66 a0 23 sw	t1, 0(a3)
è¯»å–åœ°å€ 0x80001150
å†™å…¥åœ°å€ 0x80003180
0x80001150: 00 d5 20 23 sw	a3, 0(a0)
è¯»å–åœ°å€ 0x80001154
å†™å…¥åœ°å€ 0x800031ac
0x80001154: 01 16 a2 23 sw	a7, 4(a3)
è¯»å–åœ°å€ 0x80001158
å†™å…¥åœ°å€ 0x8000328c
0x80001158: 00 e8 90 23 sh	a4, 0(a7)
è¯»å–åœ°å€ 0x8000115c
å†™å…¥åœ°å€ 0x8000328e
0x8000115c: 00 78 91 23 sh	t2, 2(a7)
è¯»å–åœ°å€ 0x80001160
0x80001160: 00 06 83 13 addi	t1, a3, 0
è¯»å–åœ°å€ 0x80001164
0x80001164: 00 0e 88 93 addi	a7, t4, 0
è¯»å–åœ°å€ 0x80001168
0x80001168: 00 05 86 93 addi	a3, a1, 0
è¯»å–åœ°å€ 0x8000116c
0x8000116c: fb 0e 14 e3 bne	t3, a6, 0x80001114
è¯»å–åœ°å€ 0x80001114
0x80001114: 01 08 17 13 slli	a4, a6, 16
è¯»å–åœ°å€ 0x80001118
0x80001118: 01 07 57 13 srli	a4, a4, 16
è¯»å–åœ°å€ 0x8000111c
0x8000111c: 00 57 47 b3 xor	a5, a4, t0
è¯»å–åœ°å€ 0x80001120
0x80001120: 00 37 97 93 slli	a5, a5, 3
è¯»å–åœ°å€ 0x80001124
0x80001124: 00 77 77 13 andi	a4, a4, 7
è¯»å–åœ°å€ 0x80001128
0x80001128: 07 87 f7 93 andi	a5, a5, 120
è¯»å–åœ°å€ 0x8000112c
0x8000112c: 00 e7 e7 b3 or	a5, a5, a4
è¯»å–åœ°å€ 0x80001130
0x80001130: 00 87 97 13 slli	a4, a5, 8
è¯»å–åœ°å€ 0x80001134
0x80001134: 00 86 85 93 addi	a1, a3, 8
è¯»å–åœ°å€ 0x80001138
0x80001138: 00 18 08 13 addi	a6, a6, 1
è¯»å–åœ°å€ 0x8000113c
0x8000113c: 00 48 8e 93 addi	t4, a7, 4
è¯»å–åœ°å€ 0x80001140
0x80001140: 00 f7 67 33 or	a4, a4, a5
è¯»å–åœ°å€ 0x80001144
0x80001144: 03 e5 f4 63 bgeu	a1, t5, 0x8000116c
è¯»å–åœ°å€ 0x80001148
0x80001148: 03 fe f2 63 bgeu	t4, t6, 0x8000116c
è¯»å–åœ°å€ 0x8000114c
å†™å…¥åœ°å€ 0x800031b0
0x8000114c: 00 66 a0 23 sw	t1, 0(a3)
è¯»å–åœ°å€ 0x80001150
å†™å…¥åœ°å€ 0x80003180
0x80001150: 00 d5 20 23 sw	a3, 0(a0)
è¯»å–åœ°å€ 0x80001154
å†™å…¥åœ°å€ 0x800031b4
0x80001154: 01 16 a2 23 sw	a7, 4(a3)
è¯»å–åœ°å€ 0x80001158
å†™å…¥åœ°å€ 0x80003290
0x80001158: 00 e8 90 23 sh	a4, 0(a7)
è¯»å–åœ°å€ 0x8000115c
å†™å…¥åœ°å€ 0x80003292
0x8000115c: 00 78 91 23 sh	t2, 2(a7)
è¯»å–åœ°å€ 0x80001160
0x80001160: 00 06 83 13 addi	t1, a3, 0
è¯»å–åœ°å€ 0x80001164
0x80001164: 00 0e 88 93 addi	a7, t4, 0
è¯»å–åœ°å€ 0x80001168
0x80001168: 00 05 86 93 addi	a3, a1, 0
è¯»å–åœ°å€ 0x8000116c
0x8000116c: fb 0e 14 e3 bne	t3, a6, 0x80001114
è¯»å–åœ°å€ 0x80001114
0x80001114: 01 08 17 13 slli	a4, a6, 16
è¯»å–åœ°å€ 0x80001118
0x80001118: 01 07 57 13 srli	a4, a4, 16
è¯»å–åœ°å€ 0x8000111c
0x8000111c: 00 57 47 b3 xor	a5, a4, t0
è¯»å–åœ°å€ 0x80001120
0x80001120: 00 37 97 93 slli	a5, a5, 3
è¯»å–åœ°å€ 0x80001124
0x80001124: 00 77 77 13 andi	a4, a4, 7
è¯»å–åœ°å€ 0x80001128
0x80001128: 07 87 f7 93 andi	a5, a5, 120
è¯»å–åœ°å€ 0x8000112c
0x8000112c: 00 e7 e7 b3 or	a5, a5, a4
è¯»å–åœ°å€ 0x80001130
0x80001130: 00 87 97 13 slli	a4, a5, 8
è¯»å–åœ°å€ 0x80001134
0x80001134: 00 86 85 93 addi	a1, a3, 8
è¯»å–åœ°å€ 0x80001138
0x80001138: 00 18 08 13 addi	a6, a6, 1
è¯»å–åœ°å€ 0x8000113c
0x8000113c: 00 48 8e 93 addi	t4, a7, 4
è¯»å–åœ°å€ 0x80001140
0x80001140: 00 f7 67 33 or	a4, a4, a5
è¯»å–åœ°å€ 0x80001144
0x80001144: 03 e5 f4 63 bgeu	a1, t5, 0x8000116c
è¯»å–åœ°å€ 0x80001148
0x80001148: 03 fe f2 63 bgeu	t4, t6, 0x8000116c
è¯»å–åœ°å€ 0x8000114c
å†™å…¥åœ°å€ 0x800031b8
0x8000114c: 00 66 a0 23 sw	t1, 0(a3)
è¯»å–åœ°å€ 0x80001150
å†™å…¥åœ°å€ 0x80003180
0x80001150: 00 d5 20 23 sw	a3, 0(a0)
è¯»å–åœ°å€ 0x80001154
å†™å…¥åœ°å€ 0x800031bc
0x80001154: 01 16 a2 23 sw	a7, 4(a3)
è¯»å–åœ°å€ 0x80001158
å†™å…¥åœ°å€ 0x80003294
0x80001158: 00 e8 90 23 sh	a4, 0(a7)
è¯»å–åœ°å€ 0x8000115c
å†™å…¥åœ°å€ 0x80003296
0x8000115c: 00 78 91 23 sh	t2, 2(a7)
è¯»å–åœ°å€ 0x80001160
0x80001160: 00 06 83 13 addi	t1, a3, 0
è¯»å–åœ°å€ 0x80001164
0x80001164: 00 0e 88 93 addi	a7, t4, 0
è¯»å–åœ°å€ 0x80001168
0x80001168: 00 05 86 93 addi	a3, a1, 0
è¯»å–åœ°å€ 0x8000116c
0x8000116c: fb 0e 14 e3 bne	t3, a6, 0x80001114
è¯»å–åœ°å€ 0x80001114
0x80001114: 01 08 17 13 slli	a4, a6, 16
è¯»å–åœ°å€ 0x80001118
0x80001118: 01 07 57 13 srli	a4, a4, 16
è¯»å–åœ°å€ 0x8000111c
0x8000111c: 00 57 47 b3 xor	a5, a4, t0
è¯»å–åœ°å€ 0x80001120
0x80001120: 00 37 97 93 slli	a5, a5, 3
è¯»å–åœ°å€ 0x80001124
0x80001124: 00 77 77 13 andi	a4, a4, 7
è¯»å–åœ°å€ 0x80001128
0x80001128: 07 87 f7 93 andi	a5, a5, 120
è¯»å–åœ°å€ 0x8000112c
0x8000112c: 00 e7 e7 b3 or	a5, a5, a4
è¯»å–åœ°å€ 0x80001130
0x80001130: 00 87 97 13 slli	a4, a5, 8
è¯»å–åœ°å€ 0x80001134
0x80001134: 00 86 85 93 addi	a1, a3, 8
è¯»å–åœ°å€ 0x80001138
0x80001138: 00 18 08 13 addi	a6, a6, 1
è¯»å–åœ°å€ 0x8000113c
0x8000113c: 00 48 8e 93 addi	t4, a7, 4
è¯»å–åœ°å€ 0x80001140
0x80001140: 00 f7 67 33 or	a4, a4, a5
è¯»å–åœ°å€ 0x80001144
0x80001144: 03 e5 f4 63 bgeu	a1, t5, 0x8000116c
è¯»å–åœ°å€ 0x80001148
0x80001148: 03 fe f2 63 bgeu	t4, t6, 0x8000116c
è¯»å–åœ°å€ 0x8000114c
å†™å…¥åœ°å€ 0x800031c0
0x8000114c: 00 66 a0 23 sw	t1, 0(a3)
è¯»å–åœ°å€ 0x80001150
å†™å…¥åœ°å€ 0x80003180
0x80001150: 00 d5 20 23 sw	a3, 0(a0)
è¯»å–åœ°å€ 0x80001154
å†™å…¥åœ°å€ 0x800031c4
0x80001154: 01 16 a2 23 sw	a7, 4(a3)
è¯»å–åœ°å€ 0x80001158
å†™å…¥åœ°å€ 0x80003298
0x80001158: 00 e8 90 23 sh	a4, 0(a7)
è¯»å–åœ°å€ 0x8000115c
å†™å…¥åœ°å€ 0x8000329a
0x8000115c: 00 78 91 23 sh	t2, 2(a7)
è¯»å–åœ°å€ 0x80001160
0x80001160: 00 06 83 13 addi	t1, a3, 0
è¯»å–åœ°å€ 0x80001164
0x80001164: 00 0e 88 93 addi	a7, t4, 0
è¯»å–åœ°å€ 0x80001168
0x80001168: 00 05 86 93 addi	a3, a1, 0
è¯»å–åœ°å€ 0x8000116c
0x8000116c: fb 0e 14 e3 bne	t3, a6, 0x80001114
è¯»å–åœ°å€ 0x80001114
0x80001114: 01 08 17 13 slli	a4, a6, 16
è¯»å–åœ°å€ 0x80001118
0x80001118: 01 07 57 13 srli	a4, a4, 16
è¯»å–åœ°å€ 0x8000111c
0x8000111c: 00 57 47 b3 xor	a5, a4, t0
è¯»å–åœ°å€ 0x80001120
0x80001120: 00 37 97 93 slli	a5, a5, 3
è¯»å–åœ°å€ 0x80001124
0x80001124: 00 77 77 13 andi	a4, a4, 7
è¯»å–åœ°å€ 0x80001128
0x80001128: 07 87 f7 93 andi	a5, a5, 120
è¯»å–åœ°å€ 0x8000112c
0x8000112c: 00 e7 e7 b3 or	a5, a5, a4
è¯»å–åœ°å€ 0x80001130
0x80001130: 00 87 97 13 slli	a4, a5, 8
è¯»å–åœ°å€ 0x80001134
0x80001134: 00 86 85 93 addi	a1, a3, 8
è¯»å–åœ°å€ 0x80001138
0x80001138: 00 18 08 13 addi	a6, a6, 1
è¯»å–åœ°å€ 0x8000113c
0x8000113c: 00 48 8e 93 addi	t4, a7, 4
è¯»å–åœ°å€ 0x80001140
0x80001140: 00 f7 67 33 or	a4, a4, a5
è¯»å–åœ°å€ 0x80001144
0x80001144: 03 e5 f4 63 bgeu	a1, t5, 0x8000116c
è¯»å–åœ°å€ 0x80001148
0x80001148: 03 fe f2 63 bgeu	t4, t6, 0x8000116c
è¯»å–åœ°å€ 0x8000114c
å†™å…¥åœ°å€ 0x800031c8
0x8000114c: 00 66 a0 23 sw	t1, 0(a3)
è¯»å–åœ°å€ 0x80001150
å†™å…¥åœ°å€ 0x80003180
0x80001150: 00 d5 20 23 sw	a3, 0(a0)
è¯»å–åœ°å€ 0x80001154
å†™å…¥åœ°å€ 0x800031cc
0x80001154: 01 16 a2 23 sw	a7, 4(a3)
è¯»å–åœ°å€ 0x80001158
å†™å…¥åœ°å€ 0x8000329c
0x80001158: 00 e8 90 23 sh	a4, 0(a7)
è¯»å–åœ°å€ 0x8000115c
å†™å…¥åœ°å€ 0x8000329e
0x8000115c: 00 78 91 23 sh	t2, 2(a7)
è¯»å–åœ°å€ 0x80001160
0x80001160: 00 06 83 13 addi	t1, a3, 0
è¯»å–åœ°å€ 0x80001164
0x80001164: 00 0e 88 93 addi	a7, t4, 0
è¯»å–åœ°å€ 0x80001168
0x80001168: 00 05 86 93 addi	a3, a1, 0
è¯»å–åœ°å€ 0x8000116c
0x8000116c: fb 0e 14 e3 bne	t3, a6, 0x80001114
è¯»å–åœ°å€ 0x80001114
0x80001114: 01 08 17 13 slli	a4, a6, 16
è¯»å–åœ°å€ 0x80001118
0x80001118: 01 07 57 13 srli	a4, a4, 16
è¯»å–åœ°å€ 0x8000111c
0x8000111c: 00 57 47 b3 xor	a5, a4, t0
è¯»å–åœ°å€ 0x80001120
0x80001120: 00 37 97 93 slli	a5, a5, 3
è¯»å–åœ°å€ 0x80001124
0x80001124: 00 77 77 13 andi	a4, a4, 7
è¯»å–åœ°å€ 0x80001128
0x80001128: 07 87 f7 93 andi	a5, a5, 120
è¯»å–åœ°å€ 0x8000112c
0x8000112c: 00 e7 e7 b3 or	a5, a5, a4
è¯»å–åœ°å€ 0x80001130
0x80001130: 00 87 97 13 slli	a4, a5, 8
è¯»å–åœ°å€ 0x80001134
0x80001134: 00 86 85 93 addi	a1, a3, 8
è¯»å–åœ°å€ 0x80001138
0x80001138: 00 18 08 13 addi	a6, a6, 1
è¯»å–åœ°å€ 0x8000113c
0x8000113c: 00 48 8e 93 addi	t4, a7, 4
è¯»å–åœ°å€ 0x80001140
0x80001140: 00 f7 67 33 or	a4, a4, a5
è¯»å–åœ°å€ 0x80001144
0x80001144: 03 e5 f4 63 bgeu	a1, t5, 0x8000116c
è¯»å–åœ°å€ 0x80001148
0x80001148: 03 fe f2 63 bgeu	t4, t6, 0x8000116c
è¯»å–åœ°å€ 0x8000114c
å†™å…¥åœ°å€ 0x800031d0
0x8000114c: 00 66 a0 23 sw	t1, 0(a3)
è¯»å–åœ°å€ 0x80001150
å†™å…¥åœ°å€ 0x80003180
0x80001150: 00 d5 20 23 sw	a3, 0(a0)
è¯»å–åœ°å€ 0x80001154
å†™å…¥åœ°å€ 0x800031d4
0x80001154: 01 16 a2 23 sw	a7, 4(a3)
è¯»å–åœ°å€ 0x80001158
å†™å…¥åœ°å€ 0x800032a0
0x80001158: 00 e8 90 23 sh	a4, 0(a7)
è¯»å–åœ°å€ 0x8000115c
å†™å…¥åœ°å€ 0x800032a2
0x8000115c: 00 78 91 23 sh	t2, 2(a7)
è¯»å–åœ°å€ 0x80001160
0x80001160: 00 06 83 13 addi	t1, a3, 0
è¯»å–åœ°å€ 0x80001164
0x80001164: 00 0e 88 93 addi	a7, t4, 0
è¯»å–åœ°å€ 0x80001168
0x80001168: 00 05 86 93 addi	a3, a1, 0
è¯»å–åœ°å€ 0x8000116c
0x8000116c: fb 0e 14 e3 bne	t3, a6, 0x80001114
è¯»å–åœ°å€ 0x80001114
0x80001114: 01 08 17 13 slli	a4, a6, 16
è¯»å–åœ°å€ 0x80001118
0x80001118: 01 07 57 13 srli	a4, a4, 16
è¯»å–åœ°å€ 0x8000111c
0x8000111c: 00 57 47 b3 xor	a5, a4, t0
è¯»å–åœ°å€ 0x80001120
0x80001120: 00 37 97 93 slli	a5, a5, 3
è¯»å–åœ°å€ 0x80001124
0x80001124: 00 77 77 13 andi	a4, a4, 7
è¯»å–åœ°å€ 0x80001128
0x80001128: 07 87 f7 93 andi	a5, a5, 120
è¯»å–åœ°å€ 0x8000112c
0x8000112c: 00 e7 e7 b3 or	a5, a5, a4
è¯»å–åœ°å€ 0x80001130
0x80001130: 00 87 97 13 slli	a4, a5, 8
è¯»å–åœ°å€ 0x80001134
0x80001134: 00 86 85 93 addi	a1, a3, 8
è¯»å–åœ°å€ 0x80001138
0x80001138: 00 18 08 13 addi	a6, a6, 1
è¯»å–åœ°å€ 0x8000113c
0x8000113c: 00 48 8e 93 addi	t4, a7, 4
è¯»å–åœ°å€ 0x80001140
0x80001140: 00 f7 67 33 or	a4, a4, a5
è¯»å–åœ°å€ 0x80001144
0x80001144: 03 e5 f4 63 bgeu	a1, t5, 0x8000116c
è¯»å–åœ°å€ 0x80001148
0x80001148: 03 fe f2 63 bgeu	t4, t6, 0x8000116c
è¯»å–åœ°å€ 0x8000114c
å†™å…¥åœ°å€ 0x800031d8
0x8000114c: 00 66 a0 23 sw	t1, 0(a3)
è¯»å–åœ°å€ 0x80001150
å†™å…¥åœ°å€ 0x80003180
0x80001150: 00 d5 20 23 sw	a3, 0(a0)
è¯»å–åœ°å€ 0x80001154
å†™å…¥åœ°å€ 0x800031dc
0x80001154: 01 16 a2 23 sw	a7, 4(a3)
è¯»å–åœ°å€ 0x80001158
å†™å…¥åœ°å€ 0x800032a4
0x80001158: 00 e8 90 23 sh	a4, 0(a7)
è¯»å–åœ°å€ 0x8000115c
å†™å…¥åœ°å€ 0x800032a6
0x8000115c: 00 78 91 23 sh	t2, 2(a7)
è¯»å–åœ°å€ 0x80001160
0x80001160: 00 06 83 13 addi	t1, a3, 0
è¯»å–åœ°å€ 0x80001164
0x80001164: 00 0e 88 93 addi	a7, t4, 0
è¯»å–åœ°å€ 0x80001168
0x80001168: 00 05 86 93 addi	a3, a1, 0
è¯»å–åœ°å€ 0x8000116c
0x8000116c: fb 0e 14 e3 bne	t3, a6, 0x80001114
è¯»å–åœ°å€ 0x80001114
0x80001114: 01 08 17 13 slli	a4, a6, 16
è¯»å–åœ°å€ 0x80001118
0x80001118: 01 07 57 13 srli	a4, a4, 16
è¯»å–åœ°å€ 0x8000111c
0x8000111c: 00 57 47 b3 xor	a5, a4, t0
è¯»å–åœ°å€ 0x80001120
0x80001120: 00 37 97 93 slli	a5, a5, 3
è¯»å–åœ°å€ 0x80001124
0x80001124: 00 77 77 13 andi	a4, a4, 7
è¯»å–åœ°å€ 0x80001128
0x80001128: 07 87 f7 93 andi	a5, a5, 120
è¯»å–åœ°å€ 0x8000112c
0x8000112c: 00 e7 e7 b3 or	a5, a5, a4
è¯»å–åœ°å€ 0x80001130
0x80001130: 00 87 97 13 slli	a4, a5, 8
è¯»å–åœ°å€ 0x80001134
0x80001134: 00 86 85 93 addi	a1, a3, 8
è¯»å–åœ°å€ 0x80001138
0x80001138: 00 18 08 13 addi	a6, a6, 1
è¯»å–åœ°å€ 0x8000113c
0x8000113c: 00 48 8e 93 addi	t4, a7, 4
è¯»å–åœ°å€ 0x80001140
0x80001140: 00 f7 67 33 or	a4, a4, a5
è¯»å–åœ°å€ 0x80001144
0x80001144: 03 e5 f4 63 bgeu	a1, t5, 0x8000116c
è¯»å–åœ°å€ 0x80001148
0x80001148: 03 fe f2 63 bgeu	t4, t6, 0x8000116c
è¯»å–åœ°å€ 0x8000114c
å†™å…¥åœ°å€ 0x800031e0
0x8000114c: 00 66 a0 23 sw	t1, 0(a3)
è¯»å–åœ°å€ 0x80001150
å†™å…¥åœ°å€ 0x80003180
0x80001150: 00 d5 20 23 sw	a3, 0(a0)
è¯»å–åœ°å€ 0x80001154
å†™å…¥åœ°å€ 0x800031e4
0x80001154: 01 16 a2 23 sw	a7, 4(a3)
è¯»å–åœ°å€ 0x80001158
å†™å…¥åœ°å€ 0x800032a8
0x80001158: 00 e8 90 23 sh	a4, 0(a7)
è¯»å–åœ°å€ 0x8000115c
å†™å…¥åœ°å€ 0x800032aa
0x8000115c: 00 78 91 23 sh	t2, 2(a7)
è¯»å–åœ°å€ 0x80001160
0x80001160: 00 06 83 13 addi	t1, a3, 0
è¯»å–åœ°å€ 0x80001164
0x80001164: 00 0e 88 93 addi	a7, t4, 0
è¯»å–åœ°å€ 0x80001168
0x80001168: 00 05 86 93 addi	a3, a1, 0
è¯»å–åœ°å€ 0x8000116c
0x8000116c: fb 0e 14 e3 bne	t3, a6, 0x80001114
è¯»å–åœ°å€ 0x80001114
0x80001114: 01 08 17 13 slli	a4, a6, 16
è¯»å–åœ°å€ 0x80001118
0x80001118: 01 07 57 13 srli	a4, a4, 16
è¯»å–åœ°å€ 0x8000111c
0x8000111c: 00 57 47 b3 xor	a5, a4, t0
è¯»å–åœ°å€ 0x80001120
0x80001120: 00 37 97 93 slli	a5, a5, 3
è¯»å–åœ°å€ 0x80001124
0x80001124: 00 77 77 13 andi	a4, a4, 7
è¯»å–åœ°å€ 0x80001128
0x80001128: 07 87 f7 93 andi	a5, a5, 120
è¯»å–åœ°å€ 0x8000112c
0x8000112c: 00 e7 e7 b3 or	a5, a5, a4
è¯»å–åœ°å€ 0x80001130
0x80001130: 00 87 97 13 slli	a4, a5, 8
è¯»å–åœ°å€ 0x80001134
0x80001134: 00 86 85 93 addi	a1, a3, 8
è¯»å–åœ°å€ 0x80001138
0x80001138: 00 18 08 13 addi	a6, a6, 1
è¯»å–åœ°å€ 0x8000113c
0x8000113c: 00 48 8e 93 addi	t4, a7, 4
è¯»å–åœ°å€ 0x80001140
0x80001140: 00 f7 67 33 or	a4, a4, a5
è¯»å–åœ°å€ 0x80001144
0x80001144: 03 e5 f4 63 bgeu	a1, t5, 0x8000116c
è¯»å–åœ°å€ 0x80001148
0x80001148: 03 fe f2 63 bgeu	t4, t6, 0x8000116c
è¯»å–åœ°å€ 0x8000114c
å†™å…¥åœ°å€ 0x800031e8
0x8000114c: 00 66 a0 23 sw	t1, 0(a3)
è¯»å–åœ°å€ 0x80001150
å†™å…¥åœ°å€ 0x80003180
0x80001150: 00 d5 20 23 sw	a3, 0(a0)
è¯»å–åœ°å€ 0x80001154
å†™å…¥åœ°å€ 0x800031ec
0x80001154: 01 16 a2 23 sw	a7, 4(a3)
è¯»å–åœ°å€ 0x80001158
å†™å…¥åœ°å€ 0x800032ac
0x80001158: 00 e8 90 23 sh	a4, 0(a7)
è¯»å–åœ°å€ 0x8000115c
å†™å…¥åœ°å€ 0x800032ae
0x8000115c: 00 78 91 23 sh	t2, 2(a7)
è¯»å–åœ°å€ 0x80001160
0x80001160: 00 06 83 13 addi	t1, a3, 0
è¯»å–åœ°å€ 0x80001164
0x80001164: 00 0e 88 93 addi	a7, t4, 0
è¯»å–åœ°å€ 0x80001168
0x80001168: 00 05 86 93 addi	a3, a1, 0
è¯»å–åœ°å€ 0x8000116c
0x8000116c: fb 0e 14 e3 bne	t3, a6, 0x80001114
è¯»å–åœ°å€ 0x80001114
0x80001114: 01 08 17 13 slli	a4, a6, 16
è¯»å–åœ°å€ 0x80001118
0x80001118: 01 07 57 13 srli	a4, a4, 16
è¯»å–åœ°å€ 0x8000111c
0x8000111c: 00 57 47 b3 xor	a5, a4, t0
è¯»å–åœ°å€ 0x80001120
0x80001120: 00 37 97 93 slli	a5, a5, 3
è¯»å–åœ°å€ 0x80001124
0x80001124: 00 77 77 13 andi	a4, a4, 7
è¯»å–åœ°å€ 0x80001128
0x80001128: 07 87 f7 93 andi	a5, a5, 120
è¯»å–åœ°å€ 0x8000112c
0x8000112c: 00 e7 e7 b3 or	a5, a5, a4
è¯»å–åœ°å€ 0x80001130
0x80001130: 00 87 97 13 slli	a4, a5, 8
è¯»å–åœ°å€ 0x80001134
0x80001134: 00 86 85 93 addi	a1, a3, 8
è¯»å–åœ°å€ 0x80001138
0x80001138: 00 18 08 13 addi	a6, a6, 1
è¯»å–åœ°å€ 0x8000113c
0x8000113c: 00 48 8e 93 addi	t4, a7, 4
è¯»å–åœ°å€ 0x80001140
0x80001140: 00 f7 67 33 or	a4, a4, a5
è¯»å–åœ°å€ 0x80001144
0x80001144: 03 e5 f4 63 bgeu	a1, t5, 0x8000116c
è¯»å–åœ°å€ 0x80001148
0x80001148: 03 fe f2 63 bgeu	t4, t6, 0x8000116c
è¯»å–åœ°å€ 0x8000114c
å†™å…¥åœ°å€ 0x800031f0
0x8000114c: 00 66 a0 23 sw	t1, 0(a3)
è¯»å–åœ°å€ 0x80001150
å†™å…¥åœ°å€ 0x80003180
0x80001150: 00 d5 20 23 sw	a3, 0(a0)
è¯»å–åœ°å€ 0x80001154
å†™å…¥åœ°å€ 0x800031f4
0x80001154: 01 16 a2 23 sw	a7, 4(a3)
è¯»å–åœ°å€ 0x80001158
å†™å…¥åœ°å€ 0x800032b0
0x80001158: 00 e8 90 23 sh	a4, 0(a7)
è¯»å–åœ°å€ 0x8000115c
å†™å…¥åœ°å€ 0x800032b2
0x8000115c: 00 78 91 23 sh	t2, 2(a7)
è¯»å–åœ°å€ 0x80001160
0x80001160: 00 06 83 13 addi	t1, a3, 0
è¯»å–åœ°å€ 0x80001164
0x80001164: 00 0e 88 93 addi	a7, t4, 0
è¯»å–åœ°å€ 0x80001168
0x80001168: 00 05 86 93 addi	a3, a1, 0
è¯»å–åœ°å€ 0x8000116c
0x8000116c: fb 0e 14 e3 bne	t3, a6, 0x80001114
è¯»å–åœ°å€ 0x80001114
0x80001114: 01 08 17 13 slli	a4, a6, 16
è¯»å–åœ°å€ 0x80001118
0x80001118: 01 07 57 13 srli	a4, a4, 16
è¯»å–åœ°å€ 0x8000111c
0x8000111c: 00 57 47 b3 xor	a5, a4, t0
è¯»å–åœ°å€ 0x80001120
0x80001120: 00 37 97 93 slli	a5, a5, 3
è¯»å–åœ°å€ 0x80001124
0x80001124: 00 77 77 13 andi	a4, a4, 7
è¯»å–åœ°å€ 0x80001128
0x80001128: 07 87 f7 93 andi	a5, a5, 120
è¯»å–åœ°å€ 0x8000112c
0x8000112c: 00 e7 e7 b3 or	a5, a5, a4
è¯»å–åœ°å€ 0x80001130
0x80001130: 00 87 97 13 slli	a4, a5, 8
è¯»å–åœ°å€ 0x80001134
0x80001134: 00 86 85 93 addi	a1, a3, 8
è¯»å–åœ°å€ 0x80001138
0x80001138: 00 18 08 13 addi	a6, a6, 1
è¯»å–åœ°å€ 0x8000113c
0x8000113c: 00 48 8e 93 addi	t4, a7, 4
è¯»å–åœ°å€ 0x80001140
0x80001140: 00 f7 67 33 or	a4, a4, a5
è¯»å–åœ°å€ 0x80001144
0x80001144: 03 e5 f4 63 bgeu	a1, t5, 0x8000116c
è¯»å–åœ°å€ 0x80001148
0x80001148: 03 fe f2 63 bgeu	t4, t6, 0x8000116c
è¯»å–åœ°å€ 0x8000114c
å†™å…¥åœ°å€ 0x800031f8
0x8000114c: 00 66 a0 23 sw	t1, 0(a3)
è¯»å–åœ°å€ 0x80001150
å†™å…¥åœ°å€ 0x80003180
0x80001150: 00 d5 20 23 sw	a3, 0(a0)
è¯»å–åœ°å€ 0x80001154
å†™å…¥åœ°å€ 0x800031fc
0x80001154: 01 16 a2 23 sw	a7, 4(a3)
è¯»å–åœ°å€ 0x80001158
å†™å…¥åœ°å€ 0x800032b4
0x80001158: 00 e8 90 23 sh	a4, 0(a7)
è¯»å–åœ°å€ 0x8000115c
å†™å…¥åœ°å€ 0x800032b6
0x8000115c: 00 78 91 23 sh	t2, 2(a7)
è¯»å–åœ°å€ 0x80001160
0x80001160: 00 06 83 13 addi	t1, a3, 0
è¯»å–åœ°å€ 0x80001164
0x80001164: 00 0e 88 93 addi	a7, t4, 0
è¯»å–åœ°å€ 0x80001168
0x80001168: 00 05 86 93 addi	a3, a1, 0
è¯»å–åœ°å€ 0x8000116c
0x8000116c: fb 0e 14 e3 bne	t3, a6, 0x80001114
è¯»å–åœ°å€ 0x80001114
0x80001114: 01 08 17 13 slli	a4, a6, 16
è¯»å–åœ°å€ 0x80001118
0x80001118: 01 07 57 13 srli	a4, a4, 16
è¯»å–åœ°å€ 0x8000111c
0x8000111c: 00 57 47 b3 xor	a5, a4, t0
è¯»å–åœ°å€ 0x80001120
0x80001120: 00 37 97 93 slli	a5, a5, 3
è¯»å–åœ°å€ 0x80001124
0x80001124: 00 77 77 13 andi	a4, a4, 7
è¯»å–åœ°å€ 0x80001128
0x80001128: 07 87 f7 93 andi	a5, a5, 120
è¯»å–åœ°å€ 0x8000112c
0x8000112c: 00 e7 e7 b3 or	a5, a5, a4
è¯»å–åœ°å€ 0x80001130
0x80001130: 00 87 97 13 slli	a4, a5, 8
è¯»å–åœ°å€ 0x80001134
0x80001134: 00 86 85 93 addi	a1, a3, 8
è¯»å–åœ°å€ 0x80001138
0x80001138: 00 18 08 13 addi	a6, a6, 1
è¯»å–åœ°å€ 0x8000113c
0x8000113c: 00 48 8e 93 addi	t4, a7, 4
è¯»å–åœ°å€ 0x80001140
0x80001140: 00 f7 67 33 or	a4, a4, a5
è¯»å–åœ°å€ 0x80001144
0x80001144: 03 e5 f4 63 bgeu	a1, t5, 0x8000116c
è¯»å–åœ°å€ 0x80001148
0x80001148: 03 fe f2 63 bgeu	t4, t6, 0x8000116c
è¯»å–åœ°å€ 0x8000114c
å†™å…¥åœ°å€ 0x80003200
0x8000114c: 00 66 a0 23 sw	t1, 0(a3)
è¯»å–åœ°å€ 0x80001150
å†™å…¥åœ°å€ 0x80003180
0x80001150: 00 d5 20 23 sw	a3, 0(a0)
è¯»å–åœ°å€ 0x80001154
å†™å…¥åœ°å€ 0x80003204
0x80001154: 01 16 a2 23 sw	a7, 4(a3)
è¯»å–åœ°å€ 0x80001158
å†™å…¥åœ°å€ 0x800032b8
0x80001158: 00 e8 90 23 sh	a4, 0(a7)
è¯»å–åœ°å€ 0x8000115c
å†™å…¥åœ°å€ 0x800032ba
0x8000115c: 00 78 91 23 sh	t2, 2(a7)
è¯»å–åœ°å€ 0x80001160
0x80001160: 00 06 83 13 addi	t1, a3, 0
è¯»å–åœ°å€ 0x80001164
0x80001164: 00 0e 88 93 addi	a7, t4, 0
è¯»å–åœ°å€ 0x80001168
0x80001168: 00 05 86 93 addi	a3, a1, 0
è¯»å–åœ°å€ 0x8000116c
0x8000116c: fb 0e 14 e3 bne	t3, a6, 0x80001114
è¯»å–åœ°å€ 0x80001114
0x80001114: 01 08 17 13 slli	a4, a6, 16
è¯»å–åœ°å€ 0x80001118
0x80001118: 01 07 57 13 srli	a4, a4, 16
è¯»å–åœ°å€ 0x8000111c
0x8000111c: 00 57 47 b3 xor	a5, a4, t0
è¯»å–åœ°å€ 0x80001120
0x80001120: 00 37 97 93 slli	a5, a5, 3
è¯»å–åœ°å€ 0x80001124
0x80001124: 00 77 77 13 andi	a4, a4, 7
è¯»å–åœ°å€ 0x80001128
0x80001128: 07 87 f7 93 andi	a5, a5, 120
è¯»å–åœ°å€ 0x8000112c
0x8000112c: 00 e7 e7 b3 or	a5, a5, a4
è¯»å–åœ°å€ 0x80001130
0x80001130: 00 87 97 13 slli	a4, a5, 8
è¯»å–åœ°å€ 0x80001134
0x80001134: 00 86 85 93 addi	a1, a3, 8
è¯»å–åœ°å€ 0x80001138
0x80001138: 00 18 08 13 addi	a6, a6, 1
è¯»å–åœ°å€ 0x8000113c
0x8000113c: 00 48 8e 93 addi	t4, a7, 4
è¯»å–åœ°å€ 0x80001140
0x80001140: 00 f7 67 33 or	a4, a4, a5
è¯»å–åœ°å€ 0x80001144
0x80001144: 03 e5 f4 63 bgeu	a1, t5, 0x8000116c
è¯»å–åœ°å€ 0x80001148
0x80001148: 03 fe f2 63 bgeu	t4, t6, 0x8000116c
è¯»å–åœ°å€ 0x8000114c
å†™å…¥åœ°å€ 0x80003208
0x8000114c: 00 66 a0 23 sw	t1, 0(a3)
è¯»å–åœ°å€ 0x80001150
å†™å…¥åœ°å€ 0x80003180
0x80001150: 00 d5 20 23 sw	a3, 0(a0)
è¯»å–åœ°å€ 0x80001154
å†™å…¥åœ°å€ 0x8000320c
0x80001154: 01 16 a2 23 sw	a7, 4(a3)
è¯»å–åœ°å€ 0x80001158
å†™å…¥åœ°å€ 0x800032bc
0x80001158: 00 e8 90 23 sh	a4, 0(a7)
è¯»å–åœ°å€ 0x8000115c
å†™å…¥åœ°å€ 0x800032be
0x8000115c: 00 78 91 23 sh	t2, 2(a7)
è¯»å–åœ°å€ 0x80001160
0x80001160: 00 06 83 13 addi	t1, a3, 0
è¯»å–åœ°å€ 0x80001164
0x80001164: 00 0e 88 93 addi	a7, t4, 0
è¯»å–åœ°å€ 0x80001168
0x80001168: 00 05 86 93 addi	a3, a1, 0
è¯»å–åœ°å€ 0x8000116c
0x8000116c: fb 0e 14 e3 bne	t3, a6, 0x80001114
è¯»å–åœ°å€ 0x80001114
0x80001114: 01 08 17 13 slli	a4, a6, 16
è¯»å–åœ°å€ 0x80001118
0x80001118: 01 07 57 13 srli	a4, a4, 16
è¯»å–åœ°å€ 0x8000111c
0x8000111c: 00 57 47 b3 xor	a5, a4, t0
è¯»å–åœ°å€ 0x80001120
0x80001120: 00 37 97 93 slli	a5, a5, 3
è¯»å–åœ°å€ 0x80001124
0x80001124: 00 77 77 13 andi	a4, a4, 7
è¯»å–åœ°å€ 0x80001128
0x80001128: 07 87 f7 93 andi	a5, a5, 120
è¯»å–åœ°å€ 0x8000112c
0x8000112c: 00 e7 e7 b3 or	a5, a5, a4
è¯»å–åœ°å€ 0x80001130
0x80001130: 00 87 97 13 slli	a4, a5, 8
è¯»å–åœ°å€ 0x80001134
0x80001134: 00 86 85 93 addi	a1, a3, 8
è¯»å–åœ°å€ 0x80001138
0x80001138: 00 18 08 13 addi	a6, a6, 1
è¯»å–åœ°å€ 0x8000113c
0x8000113c: 00 48 8e 93 addi	t4, a7, 4
è¯»å–åœ°å€ 0x80001140
0x80001140: 00 f7 67 33 or	a4, a4, a5
è¯»å–åœ°å€ 0x80001144
0x80001144: 03 e5 f4 63 bgeu	a1, t5, 0x8000116c
è¯»å–åœ°å€ 0x80001148
0x80001148: 03 fe f2 63 bgeu	t4, t6, 0x8000116c
è¯»å–åœ°å€ 0x8000114c
å†™å…¥åœ°å€ 0x80003210
0x8000114c: 00 66 a0 23 sw	t1, 0(a3)
è¯»å–åœ°å€ 0x80001150
å†™å…¥åœ°å€ 0x80003180
0x80001150: 00 d5 20 23 sw	a3, 0(a0)
è¯»å–åœ°å€ 0x80001154
å†™å…¥åœ°å€ 0x80003214
0x80001154: 01 16 a2 23 sw	a7, 4(a3)
è¯»å–åœ°å€ 0x80001158
å†™å…¥åœ°å€ 0x800032c0
0x80001158: 00 e8 90 23 sh	a4, 0(a7)
è¯»å–åœ°å€ 0x8000115c
å†™å…¥åœ°å€ 0x800032c2
0x8000115c: 00 78 91 23 sh	t2, 2(a7)
è¯»å–åœ°å€ 0x80001160
0x80001160: 00 06 83 13 addi	t1, a3, 0
è¯»å–åœ°å€ 0x80001164
0x80001164: 00 0e 88 93 addi	a7, t4, 0
è¯»å–åœ°å€ 0x80001168
0x80001168: 00 05 86 93 addi	a3, a1, 0
è¯»å–åœ°å€ 0x8000116c
0x8000116c: fb 0e 14 e3 bne	t3, a6, 0x80001114
è¯»å–åœ°å€ 0x80001114
0x80001114: 01 08 17 13 slli	a4, a6, 16
è¯»å–åœ°å€ 0x80001118
0x80001118: 01 07 57 13 srli	a4, a4, 16
è¯»å–åœ°å€ 0x8000111c
0x8000111c: 00 57 47 b3 xor	a5, a4, t0
è¯»å–åœ°å€ 0x80001120
0x80001120: 00 37 97 93 slli	a5, a5, 3
è¯»å–åœ°å€ 0x80001124
0x80001124: 00 77 77 13 andi	a4, a4, 7
è¯»å–åœ°å€ 0x80001128
0x80001128: 07 87 f7 93 andi	a5, a5, 120
è¯»å–åœ°å€ 0x8000112c
0x8000112c: 00 e7 e7 b3 or	a5, a5, a4
è¯»å–åœ°å€ 0x80001130
0x80001130: 00 87 97 13 slli	a4, a5, 8
è¯»å–åœ°å€ 0x80001134
0x80001134: 00 86 85 93 addi	a1, a3, 8
è¯»å–åœ°å€ 0x80001138
0x80001138: 00 18 08 13 addi	a6, a6, 1
è¯»å–åœ°å€ 0x8000113c
0x8000113c: 00 48 8e 93 addi	t4, a7, 4
è¯»å–åœ°å€ 0x80001140
0x80001140: 00 f7 67 33 or	a4, a4, a5
è¯»å–åœ°å€ 0x80001144
0x80001144: 03 e5 f4 63 bgeu	a1, t5, 0x8000116c
è¯»å–åœ°å€ 0x80001148
0x80001148: 03 fe f2 63 bgeu	t4, t6, 0x8000116c
è¯»å–åœ°å€ 0x8000114c
å†™å…¥åœ°å€ 0x80003218
0x8000114c: 00 66 a0 23 sw	t1, 0(a3)
è¯»å–åœ°å€ 0x80001150
å†™å…¥åœ°å€ 0x80003180
0x80001150: 00 d5 20 23 sw	a3, 0(a0)
è¯»å–åœ°å€ 0x80001154
å†™å…¥åœ°å€ 0x8000321c
0x80001154: 01 16 a2 23 sw	a7, 4(a3)
è¯»å–åœ°å€ 0x80001158
å†™å…¥åœ°å€ 0x800032c4
0x80001158: 00 e8 90 23 sh	a4, 0(a7)
è¯»å–åœ°å€ 0x8000115c
å†™å…¥åœ°å€ 0x800032c6
0x8000115c: 00 78 91 23 sh	t2, 2(a7)
è¯»å–åœ°å€ 0x80001160
0x80001160: 00 06 83 13 addi	t1, a3, 0
è¯»å–åœ°å€ 0x80001164
0x80001164: 00 0e 88 93 addi	a7, t4, 0
è¯»å–åœ°å€ 0x80001168
0x80001168: 00 05 86 93 addi	a3, a1, 0
è¯»å–åœ°å€ 0x8000116c
0x8000116c: fb 0e 14 e3 bne	t3, a6, 0x80001114
è¯»å–åœ°å€ 0x80001114
0x80001114: 01 08 17 13 slli	a4, a6, 16
è¯»å–åœ°å€ 0x80001118
0x80001118: 01 07 57 13 srli	a4, a4, 16
è¯»å–åœ°å€ 0x8000111c
0x8000111c: 00 57 47 b3 xor	a5, a4, t0
è¯»å–åœ°å€ 0x80001120
0x80001120: 00 37 97 93 slli	a5, a5, 3
è¯»å–åœ°å€ 0x80001124
0x80001124: 00 77 77 13 andi	a4, a4, 7
è¯»å–åœ°å€ 0x80001128
0x80001128: 07 87 f7 93 andi	a5, a5, 120
è¯»å–åœ°å€ 0x8000112c
0x8000112c: 00 e7 e7 b3 or	a5, a5, a4
è¯»å–åœ°å€ 0x80001130
0x80001130: 00 87 97 13 slli	a4, a5, 8
è¯»å–åœ°å€ 0x80001134
0x80001134: 00 86 85 93 addi	a1, a3, 8
è¯»å–åœ°å€ 0x80001138
0x80001138: 00 18 08 13 addi	a6, a6, 1
è¯»å–åœ°å€ 0x8000113c
0x8000113c: 00 48 8e 93 addi	t4, a7, 4
è¯»å–åœ°å€ 0x80001140
0x80001140: 00 f7 67 33 or	a4, a4, a5
è¯»å–åœ°å€ 0x80001144
0x80001144: 03 e5 f4 63 bgeu	a1, t5, 0x8000116c
è¯»å–åœ°å€ 0x80001148
0x80001148: 03 fe f2 63 bgeu	t4, t6, 0x8000116c
è¯»å–åœ°å€ 0x8000114c
å†™å…¥åœ°å€ 0x80003220
0x8000114c: 00 66 a0 23 sw	t1, 0(a3)
è¯»å–åœ°å€ 0x80001150
å†™å…¥åœ°å€ 0x80003180
0x80001150: 00 d5 20 23 sw	a3, 0(a0)
è¯»å–åœ°å€ 0x80001154
å†™å…¥åœ°å€ 0x80003224
0x80001154: 01 16 a2 23 sw	a7, 4(a3)
è¯»å–åœ°å€ 0x80001158
å†™å…¥åœ°å€ 0x800032c8
0x80001158: 00 e8 90 23 sh	a4, 0(a7)
è¯»å–åœ°å€ 0x8000115c
å†™å…¥åœ°å€ 0x800032ca
0x8000115c: 00 78 91 23 sh	t2, 2(a7)
è¯»å–åœ°å€ 0x80001160
0x80001160: 00 06 83 13 addi	t1, a3, 0
è¯»å–åœ°å€ 0x80001164
0x80001164: 00 0e 88 93 addi	a7, t4, 0
è¯»å–åœ°å€ 0x80001168
0x80001168: 00 05 86 93 addi	a3, a1, 0
è¯»å–åœ°å€ 0x8000116c
0x8000116c: fb 0e 14 e3 bne	t3, a6, 0x80001114
è¯»å–åœ°å€ 0x80001114
0x80001114: 01 08 17 13 slli	a4, a6, 16
è¯»å–åœ°å€ 0x80001118
0x80001118: 01 07 57 13 srli	a4, a4, 16
è¯»å–åœ°å€ 0x8000111c
0x8000111c: 00 57 47 b3 xor	a5, a4, t0
è¯»å–åœ°å€ 0x80001120
0x80001120: 00 37 97 93 slli	a5, a5, 3
è¯»å–åœ°å€ 0x80001124
0x80001124: 00 77 77 13 andi	a4, a4, 7
è¯»å–åœ°å€ 0x80001128
0x80001128: 07 87 f7 93 andi	a5, a5, 120
è¯»å–åœ°å€ 0x8000112c
0x8000112c: 00 e7 e7 b3 or	a5, a5, a4
è¯»å–åœ°å€ 0x80001130
0x80001130: 00 87 97 13 slli	a4, a5, 8
è¯»å–åœ°å€ 0x80001134
0x80001134: 00 86 85 93 addi	a1, a3, 8
è¯»å–åœ°å€ 0x80001138
0x80001138: 00 18 08 13 addi	a6, a6, 1
è¯»å–åœ°å€ 0x8000113c
0x8000113c: 00 48 8e 93 addi	t4, a7, 4
è¯»å–åœ°å€ 0x80001140
0x80001140: 00 f7 67 33 or	a4, a4, a5
è¯»å–åœ°å€ 0x80001144
0x80001144: 03 e5 f4 63 bgeu	a1, t5, 0x8000116c
è¯»å–åœ°å€ 0x80001148
0x80001148: 03 fe f2 63 bgeu	t4, t6, 0x8000116c
è¯»å–åœ°å€ 0x8000114c
å†™å…¥åœ°å€ 0x80003228
0x8000114c: 00 66 a0 23 sw	t1, 0(a3)
è¯»å–åœ°å€ 0x80001150
å†™å…¥åœ°å€ 0x80003180
0x80001150: 00 d5 20 23 sw	a3, 0(a0)
è¯»å–åœ°å€ 0x80001154
å†™å…¥åœ°å€ 0x8000322c
0x80001154: 01 16 a2 23 sw	a7, 4(a3)
è¯»å–åœ°å€ 0x80001158
å†™å…¥åœ°å€ 0x800032cc
0x80001158: 00 e8 90 23 sh	a4, 0(a7)
è¯»å–åœ°å€ 0x8000115c
å†™å…¥åœ°å€ 0x800032ce
0x8000115c: 00 78 91 23 sh	t2, 2(a7)
è¯»å–åœ°å€ 0x80001160
0x80001160: 00 06 83 13 addi	t1, a3, 0
è¯»å–åœ°å€ 0x80001164
0x80001164: 00 0e 88 93 addi	a7, t4, 0
è¯»å–åœ°å€ 0x80001168
0x80001168: 00 05 86 93 addi	a3, a1, 0
è¯»å–åœ°å€ 0x8000116c
0x8000116c: fb 0e 14 e3 bne	t3, a6, 0x80001114
è¯»å–åœ°å€ 0x80001114
0x80001114: 01 08 17 13 slli	a4, a6, 16
è¯»å–åœ°å€ 0x80001118
0x80001118: 01 07 57 13 srli	a4, a4, 16
è¯»å–åœ°å€ 0x8000111c
0x8000111c: 00 57 47 b3 xor	a5, a4, t0
è¯»å–åœ°å€ 0x80001120
0x80001120: 00 37 97 93 slli	a5, a5, 3
è¯»å–åœ°å€ 0x80001124
0x80001124: 00 77 77 13 andi	a4, a4, 7
è¯»å–åœ°å€ 0x80001128
0x80001128: 07 87 f7 93 andi	a5, a5, 120
è¯»å–åœ°å€ 0x8000112c
0x8000112c: 00 e7 e7 b3 or	a5, a5, a4
è¯»å–åœ°å€ 0x80001130
0x80001130: 00 87 97 13 slli	a4, a5, 8
è¯»å–åœ°å€ 0x80001134
0x80001134: 00 86 85 93 addi	a1, a3, 8
è¯»å–åœ°å€ 0x80001138
0x80001138: 00 18 08 13 addi	a6, a6, 1
è¯»å–åœ°å€ 0x8000113c
0x8000113c: 00 48 8e 93 addi	t4, a7, 4
è¯»å–åœ°å€ 0x80001140
0x80001140: 00 f7 67 33 or	a4, a4, a5
è¯»å–åœ°å€ 0x80001144
0x80001144: 03 e5 f4 63 bgeu	a1, t5, 0x8000116c
è¯»å–åœ°å€ 0x80001148
0x80001148: 03 fe f2 63 bgeu	t4, t6, 0x8000116c
è¯»å–åœ°å€ 0x8000114c
å†™å…¥åœ°å€ 0x80003230
0x8000114c: 00 66 a0 23 sw	t1, 0(a3)
è¯»å–åœ°å€ 0x80001150
å†™å…¥åœ°å€ 0x80003180
0x80001150: 00 d5 20 23 sw	a3, 0(a0)
è¯»å–åœ°å€ 0x80001154
å†™å…¥åœ°å€ 0x80003234
0x80001154: 01 16 a2 23 sw	a7, 4(a3)
è¯»å–åœ°å€ 0x80001158
å†™å…¥åœ°å€ 0x800032d0
0x80001158: 00 e8 90 23 sh	a4, 0(a7)
è¯»å–åœ°å€ 0x8000115c
å†™å…¥åœ°å€ 0x800032d2
0x8000115c: 00 78 91 23 sh	t2, 2(a7)
è¯»å–åœ°å€ 0x80001160
0x80001160: 00 06 83 13 addi	t1, a3, 0
è¯»å–åœ°å€ 0x80001164
0x80001164: 00 0e 88 93 addi	a7, t4, 0
è¯»å–åœ°å€ 0x80001168
0x80001168: 00 05 86 93 addi	a3, a1, 0
è¯»å–åœ°å€ 0x8000116c
0x8000116c: fb 0e 14 e3 bne	t3, a6, 0x80001114
è¯»å–åœ°å€ 0x80001114
0x80001114: 01 08 17 13 slli	a4, a6, 16
è¯»å–åœ°å€ 0x80001118
0x80001118: 01 07 57 13 srli	a4, a4, 16
è¯»å–åœ°å€ 0x8000111c
0x8000111c: 00 57 47 b3 xor	a5, a4, t0
è¯»å–åœ°å€ 0x80001120
0x80001120: 00 37 97 93 slli	a5, a5, 3
è¯»å–åœ°å€ 0x80001124
0x80001124: 00 77 77 13 andi	a4, a4, 7
è¯»å–åœ°å€ 0x80001128
0x80001128: 07 87 f7 93 andi	a5, a5, 120
è¯»å–åœ°å€ 0x8000112c
0x8000112c: 00 e7 e7 b3 or	a5, a5, a4
è¯»å–åœ°å€ 0x80001130
0x80001130: 00 87 97 13 slli	a4, a5, 8
è¯»å–åœ°å€ 0x80001134
0x80001134: 00 86 85 93 addi	a1, a3, 8
è¯»å–åœ°å€ 0x80001138
0x80001138: 00 18 08 13 addi	a6, a6, 1
è¯»å–åœ°å€ 0x8000113c
0x8000113c: 00 48 8e 93 addi	t4, a7, 4
è¯»å–åœ°å€ 0x80001140
0x80001140: 00 f7 67 33 or	a4, a4, a5
è¯»å–åœ°å€ 0x80001144
0x80001144: 03 e5 f4 63 bgeu	a1, t5, 0x8000116c
è¯»å–åœ°å€ 0x80001148
0x80001148: 03 fe f2 63 bgeu	t4, t6, 0x8000116c
è¯»å–åœ°å€ 0x8000114c
å†™å…¥åœ°å€ 0x80003238
0x8000114c: 00 66 a0 23 sw	t1, 0(a3)
è¯»å–åœ°å€ 0x80001150
å†™å…¥åœ°å€ 0x80003180
0x80001150: 00 d5 20 23 sw	a3, 0(a0)
è¯»å–åœ°å€ 0x80001154
å†™å…¥åœ°å€ 0x8000323c
0x80001154: 01 16 a2 23 sw	a7, 4(a3)
è¯»å–åœ°å€ 0x80001158
å†™å…¥åœ°å€ 0x800032d4
0x80001158: 00 e8 90 23 sh	a4, 0(a7)
è¯»å–åœ°å€ 0x8000115c
å†™å…¥åœ°å€ 0x800032d6
0x8000115c: 00 78 91 23 sh	t2, 2(a7)
è¯»å–åœ°å€ 0x80001160
0x80001160: 00 06 83 13 addi	t1, a3, 0
è¯»å–åœ°å€ 0x80001164
0x80001164: 00 0e 88 93 addi	a7, t4, 0
è¯»å–åœ°å€ 0x80001168
0x80001168: 00 05 86 93 addi	a3, a1, 0
è¯»å–åœ°å€ 0x8000116c
0x8000116c: fb 0e 14 e3 bne	t3, a6, 0x80001114
è¯»å–åœ°å€ 0x80001114
0x80001114: 01 08 17 13 slli	a4, a6, 16
è¯»å–åœ°å€ 0x80001118
0x80001118: 01 07 57 13 srli	a4, a4, 16
è¯»å–åœ°å€ 0x8000111c
0x8000111c: 00 57 47 b3 xor	a5, a4, t0
è¯»å–åœ°å€ 0x80001120
0x80001120: 00 37 97 93 slli	a5, a5, 3
è¯»å–åœ°å€ 0x80001124
0x80001124: 00 77 77 13 andi	a4, a4, 7
è¯»å–åœ°å€ 0x80001128
0x80001128: 07 87 f7 93 andi	a5, a5, 120
è¯»å–åœ°å€ 0x8000112c
0x8000112c: 00 e7 e7 b3 or	a5, a5, a4
è¯»å–åœ°å€ 0x80001130
0x80001130: 00 87 97 13 slli	a4, a5, 8
è¯»å–åœ°å€ 0x80001134
0x80001134: 00 86 85 93 addi	a1, a3, 8
è¯»å–åœ°å€ 0x80001138
0x80001138: 00 18 08 13 addi	a6, a6, 1
è¯»å–åœ°å€ 0x8000113c
0x8000113c: 00 48 8e 93 addi	t4, a7, 4
è¯»å–åœ°å€ 0x80001140
0x80001140: 00 f7 67 33 or	a4, a4, a5
è¯»å–åœ°å€ 0x80001144
0x80001144: 03 e5 f4 63 bgeu	a1, t5, 0x8000116c
è¯»å–åœ°å€ 0x80001148
0x80001148: 03 fe f2 63 bgeu	t4, t6, 0x8000116c
è¯»å–åœ°å€ 0x8000114c
å†™å…¥åœ°å€ 0x80003240
0x8000114c: 00 66 a0 23 sw	t1, 0(a3)
è¯»å–åœ°å€ 0x80001150
å†™å…¥åœ°å€ 0x80003180
0x80001150: 00 d5 20 23 sw	a3, 0(a0)
è¯»å–åœ°å€ 0x80001154
å†™å…¥åœ°å€ 0x80003244
0x80001154: 01 16 a2 23 sw	a7, 4(a3)
è¯»å–åœ°å€ 0x80001158
å†™å…¥åœ°å€ 0x800032d8
0x80001158: 00 e8 90 23 sh	a4, 0(a7)
è¯»å–åœ°å€ 0x8000115c
å†™å…¥åœ°å€ 0x800032da
0x8000115c: 00 78 91 23 sh	t2, 2(a7)
è¯»å–åœ°å€ 0x80001160
0x80001160: 00 06 83 13 addi	t1, a3, 0
è¯»å–åœ°å€ 0x80001164
0x80001164: 00 0e 88 93 addi	a7, t4, 0
è¯»å–åœ°å€ 0x80001168
0x80001168: 00 05 86 93 addi	a3, a1, 0
è¯»å–åœ°å€ 0x8000116c
0x8000116c: fb 0e 14 e3 bne	t3, a6, 0x80001114
è¯»å–åœ°å€ 0x80001114
0x80001114: 01 08 17 13 slli	a4, a6, 16
è¯»å–åœ°å€ 0x80001118
0x80001118: 01 07 57 13 srli	a4, a4, 16
è¯»å–åœ°å€ 0x8000111c
0x8000111c: 00 57 47 b3 xor	a5, a4, t0
è¯»å–åœ°å€ 0x80001120
0x80001120: 00 37 97 93 slli	a5, a5, 3
è¯»å–åœ°å€ 0x80001124
0x80001124: 00 77 77 13 andi	a4, a4, 7
è¯»å–åœ°å€ 0x80001128
0x80001128: 07 87 f7 93 andi	a5, a5, 120
è¯»å–åœ°å€ 0x8000112c
0x8000112c: 00 e7 e7 b3 or	a5, a5, a4
è¯»å–åœ°å€ 0x80001130
0x80001130: 00 87 97 13 slli	a4, a5, 8
è¯»å–åœ°å€ 0x80001134
0x80001134: 00 86 85 93 addi	a1, a3, 8
è¯»å–åœ°å€ 0x80001138
0x80001138: 00 18 08 13 addi	a6, a6, 1
è¯»å–åœ°å€ 0x8000113c
0x8000113c: 00 48 8e 93 addi	t4, a7, 4
è¯»å–åœ°å€ 0x80001140
0x80001140: 00 f7 67 33 or	a4, a4, a5
è¯»å–åœ°å€ 0x80001144
0x80001144: 03 e5 f4 63 bgeu	a1, t5, 0x8000116c
è¯»å–åœ°å€ 0x80001148
0x80001148: 03 fe f2 63 bgeu	t4, t6, 0x8000116c
è¯»å–åœ°å€ 0x8000114c
å†™å…¥åœ°å€ 0x80003248
0x8000114c: 00 66 a0 23 sw	t1, 0(a3)
è¯»å–åœ°å€ 0x80001150
å†™å…¥åœ°å€ 0x80003180
0x80001150: 00 d5 20 23 sw	a3, 0(a0)
è¯»å–åœ°å€ 0x80001154
å†™å…¥åœ°å€ 0x8000324c
0x80001154: 01 16 a2 23 sw	a7, 4(a3)
è¯»å–åœ°å€ 0x80001158
å†™å…¥åœ°å€ 0x800032dc
0x80001158: 00 e8 90 23 sh	a4, 0(a7)
è¯»å–åœ°å€ 0x8000115c
å†™å…¥åœ°å€ 0x800032de
0x8000115c: 00 78 91 23 sh	t2, 2(a7)
è¯»å–åœ°å€ 0x80001160
0x80001160: 00 06 83 13 addi	t1, a3, 0
è¯»å–åœ°å€ 0x80001164
0x80001164: 00 0e 88 93 addi	a7, t4, 0
è¯»å–åœ°å€ 0x80001168
0x80001168: 00 05 86 93 addi	a3, a1, 0
è¯»å–åœ°å€ 0x8000116c
0x8000116c: fb 0e 14 e3 bne	t3, a6, 0x80001114
è¯»å–åœ°å€ 0x80001114
0x80001114: 01 08 17 13 slli	a4, a6, 16
è¯»å–åœ°å€ 0x80001118
0x80001118: 01 07 57 13 srli	a4, a4, 16
è¯»å–åœ°å€ 0x8000111c
0x8000111c: 00 57 47 b3 xor	a5, a4, t0
è¯»å–åœ°å€ 0x80001120
0x80001120: 00 37 97 93 slli	a5, a5, 3
è¯»å–åœ°å€ 0x80001124
0x80001124: 00 77 77 13 andi	a4, a4, 7
è¯»å–åœ°å€ 0x80001128
0x80001128: 07 87 f7 93 andi	a5, a5, 120
è¯»å–åœ°å€ 0x8000112c
0x8000112c: 00 e7 e7 b3 or	a5, a5, a4
è¯»å–åœ°å€ 0x80001130
0x80001130: 00 87 97 13 slli	a4, a5, 8
è¯»å–åœ°å€ 0x80001134
0x80001134: 00 86 85 93 addi	a1, a3, 8
è¯»å–åœ°å€ 0x80001138
0x80001138: 00 18 08 13 addi	a6, a6, 1
è¯»å–åœ°å€ 0x8000113c
0x8000113c: 00 48 8e 93 addi	t4, a7, 4
è¯»å–åœ°å€ 0x80001140
0x80001140: 00 f7 67 33 or	a4, a4, a5
è¯»å–åœ°å€ 0x80001144
0x80001144: 03 e5 f4 63 bgeu	a1, t5, 0x8000116c
è¯»å–åœ°å€ 0x80001148
0x80001148: 03 fe f2 63 bgeu	t4, t6, 0x8000116c
è¯»å–åœ°å€ 0x8000114c
å†™å…¥åœ°å€ 0x80003250
0x8000114c: 00 66 a0 23 sw	t1, 0(a3)
è¯»å–åœ°å€ 0x80001150
å†™å…¥åœ°å€ 0x80003180
0x80001150: 00 d5 20 23 sw	a3, 0(a0)
è¯»å–åœ°å€ 0x80001154
å†™å…¥åœ°å€ 0x80003254
0x80001154: 01 16 a2 23 sw	a7, 4(a3)
è¯»å–åœ°å€ 0x80001158
å†™å…¥åœ°å€ 0x800032e0
0x80001158: 00 e8 90 23 sh	a4, 0(a7)
è¯»å–åœ°å€ 0x8000115c
å†™å…¥åœ°å€ 0x800032e2
0x8000115c: 00 78 91 23 sh	t2, 2(a7)
è¯»å–åœ°å€ 0x80001160
0x80001160: 00 06 83 13 addi	t1, a3, 0
è¯»å–åœ°å€ 0x80001164
0x80001164: 00 0e 88 93 addi	a7, t4, 0
è¯»å–åœ°å€ 0x80001168
0x80001168: 00 05 86 93 addi	a3, a1, 0
è¯»å–åœ°å€ 0x8000116c
0x8000116c: fb 0e 14 e3 bne	t3, a6, 0x80001114
è¯»å–åœ°å€ 0x80001114
0x80001114: 01 08 17 13 slli	a4, a6, 16
è¯»å–åœ°å€ 0x80001118
0x80001118: 01 07 57 13 srli	a4, a4, 16
è¯»å–åœ°å€ 0x8000111c
0x8000111c: 00 57 47 b3 xor	a5, a4, t0
è¯»å–åœ°å€ 0x80001120
0x80001120: 00 37 97 93 slli	a5, a5, 3
è¯»å–åœ°å€ 0x80001124
0x80001124: 00 77 77 13 andi	a4, a4, 7
è¯»å–åœ°å€ 0x80001128
0x80001128: 07 87 f7 93 andi	a5, a5, 120
è¯»å–åœ°å€ 0x8000112c
0x8000112c: 00 e7 e7 b3 or	a5, a5, a4
è¯»å–åœ°å€ 0x80001130
0x80001130: 00 87 97 13 slli	a4, a5, 8
è¯»å–åœ°å€ 0x80001134
0x80001134: 00 86 85 93 addi	a1, a3, 8
è¯»å–åœ°å€ 0x80001138
0x80001138: 00 18 08 13 addi	a6, a6, 1
è¯»å–åœ°å€ 0x8000113c
0x8000113c: 00 48 8e 93 addi	t4, a7, 4
è¯»å–åœ°å€ 0x80001140
0x80001140: 00 f7 67 33 or	a4, a4, a5
è¯»å–åœ°å€ 0x80001144
0x80001144: 03 e5 f4 63 bgeu	a1, t5, 0x8000116c
è¯»å–åœ°å€ 0x80001148
0x80001148: 03 fe f2 63 bgeu	t4, t6, 0x8000116c
è¯»å–åœ°å€ 0x8000114c
å†™å…¥åœ°å€ 0x80003258
0x8000114c: 00 66 a0 23 sw	t1, 0(a3)
è¯»å–åœ°å€ 0x80001150
å†™å…¥åœ°å€ 0x80003180
0x80001150: 00 d5 20 23 sw	a3, 0(a0)
è¯»å–åœ°å€ 0x80001154
å†™å…¥åœ°å€ 0x8000325c
0x80001154: 01 16 a2 23 sw	a7, 4(a3)
è¯»å–åœ°å€ 0x80001158
å†™å…¥åœ°å€ 0x800032e4
0x80001158: 00 e8 90 23 sh	a4, 0(a7)
è¯»å–åœ°å€ 0x8000115c
å†™å…¥åœ°å€ 0x800032e6
0x8000115c: 00 78 91 23 sh	t2, 2(a7)
è¯»å–åœ°å€ 0x80001160
0x80001160: 00 06 83 13 addi	t1, a3, 0
è¯»å–åœ°å€ 0x80001164
0x80001164: 00 0e 88 93 addi	a7, t4, 0
è¯»å–åœ°å€ 0x80001168
0x80001168: 00 05 86 93 addi	a3, a1, 0
è¯»å–åœ°å€ 0x8000116c
0x8000116c: fb 0e 14 e3 bne	t3, a6, 0x80001114
è¯»å–åœ°å€ 0x80001114
0x80001114: 01 08 17 13 slli	a4, a6, 16
è¯»å–åœ°å€ 0x80001118
0x80001118: 01 07 57 13 srli	a4, a4, 16
è¯»å–åœ°å€ 0x8000111c
0x8000111c: 00 57 47 b3 xor	a5, a4, t0
è¯»å–åœ°å€ 0x80001120
0x80001120: 00 37 97 93 slli	a5, a5, 3
è¯»å–åœ°å€ 0x80001124
0x80001124: 00 77 77 13 andi	a4, a4, 7
è¯»å–åœ°å€ 0x80001128
0x80001128: 07 87 f7 93 andi	a5, a5, 120
è¯»å–åœ°å€ 0x8000112c
0x8000112c: 00 e7 e7 b3 or	a5, a5, a4
è¯»å–åœ°å€ 0x80001130
0x80001130: 00 87 97 13 slli	a4, a5, 8
è¯»å–åœ°å€ 0x80001134
0x80001134: 00 86 85 93 addi	a1, a3, 8
è¯»å–åœ°å€ 0x80001138
0x80001138: 00 18 08 13 addi	a6, a6, 1
è¯»å–åœ°å€ 0x8000113c
0x8000113c: 00 48 8e 93 addi	t4, a7, 4
è¯»å–åœ°å€ 0x80001140
0x80001140: 00 f7 67 33 or	a4, a4, a5
è¯»å–åœ°å€ 0x80001144
0x80001144: 03 e5 f4 63 bgeu	a1, t5, 0x8000116c
è¯»å–åœ°å€ 0x80001148
0x80001148: 03 fe f2 63 bgeu	t4, t6, 0x8000116c
è¯»å–åœ°å€ 0x8000114c
å†™å…¥åœ°å€ 0x80003260
0x8000114c: 00 66 a0 23 sw	t1, 0(a3)
è¯»å–åœ°å€ 0x80001150
å†™å…¥åœ°å€ 0x80003180
0x80001150: 00 d5 20 23 sw	a3, 0(a0)
è¯»å–åœ°å€ 0x80001154
å†™å…¥åœ°å€ 0x80003264
0x80001154: 01 16 a2 23 sw	a7, 4(a3)
è¯»å–åœ°å€ 0x80001158
å†™å…¥åœ°å€ 0x800032e8
0x80001158: 00 e8 90 23 sh	a4, 0(a7)
è¯»å–åœ°å€ 0x8000115c
å†™å…¥åœ°å€ 0x800032ea
0x8000115c: 00 78 91 23 sh	t2, 2(a7)
è¯»å–åœ°å€ 0x80001160
0x80001160: 00 06 83 13 addi	t1, a3, 0
è¯»å–åœ°å€ 0x80001164
0x80001164: 00 0e 88 93 addi	a7, t4, 0
è¯»å–åœ°å€ 0x80001168
0x80001168: 00 05 86 93 addi	a3, a1, 0
è¯»å–åœ°å€ 0x8000116c
0x8000116c: fb 0e 14 e3 bne	t3, a6, 0x80001114
è¯»å–åœ°å€ 0x80001114
0x80001114: 01 08 17 13 slli	a4, a6, 16
è¯»å–åœ°å€ 0x80001118
0x80001118: 01 07 57 13 srli	a4, a4, 16
è¯»å–åœ°å€ 0x8000111c
0x8000111c: 00 57 47 b3 xor	a5, a4, t0
è¯»å–åœ°å€ 0x80001120
0x80001120: 00 37 97 93 slli	a5, a5, 3
è¯»å–åœ°å€ 0x80001124
0x80001124: 00 77 77 13 andi	a4, a4, 7
è¯»å–åœ°å€ 0x80001128
0x80001128: 07 87 f7 93 andi	a5, a5, 120
è¯»å–åœ°å€ 0x8000112c
0x8000112c: 00 e7 e7 b3 or	a5, a5, a4
è¯»å–åœ°å€ 0x80001130
0x80001130: 00 87 97 13 slli	a4, a5, 8
è¯»å–åœ°å€ 0x80001134
0x80001134: 00 86 85 93 addi	a1, a3, 8
è¯»å–åœ°å€ 0x80001138
0x80001138: 00 18 08 13 addi	a6, a6, 1
è¯»å–åœ°å€ 0x8000113c
0x8000113c: 00 48 8e 93 addi	t4, a7, 4
è¯»å–åœ°å€ 0x80001140
0x80001140: 00 f7 67 33 or	a4, a4, a5
è¯»å–åœ°å€ 0x80001144
0x80001144: 03 e5 f4 63 bgeu	a1, t5, 0x8000116c
è¯»å–åœ°å€ 0x80001148
0x80001148: 03 fe f2 63 bgeu	t4, t6, 0x8000116c
è¯»å–åœ°å€ 0x8000114c
å†™å…¥åœ°å€ 0x80003268
0x8000114c: 00 66 a0 23 sw	t1, 0(a3)
è¯»å–åœ°å€ 0x80001150
å†™å…¥åœ°å€ 0x80003180
0x80001150: 00 d5 20 23 sw	a3, 0(a0)
è¯»å–åœ°å€ 0x80001154
å†™å…¥åœ°å€ 0x8000326c
0x80001154: 01 16 a2 23 sw	a7, 4(a3)
è¯»å–åœ°å€ 0x80001158
å†™å…¥åœ°å€ 0x800032ec
0x80001158: 00 e8 90 23 sh	a4, 0(a7)
è¯»å–åœ°å€ 0x8000115c
å†™å…¥åœ°å€ 0x800032ee
0x8000115c: 00 78 91 23 sh	t2, 2(a7)
è¯»å–åœ°å€ 0x80001160
0x80001160: 00 06 83 13 addi	t1, a3, 0
è¯»å–åœ°å€ 0x80001164
0x80001164: 00 0e 88 93 addi	a7, t4, 0
è¯»å–åœ°å€ 0x80001168
0x80001168: 00 05 86 93 addi	a3, a1, 0
è¯»å–åœ°å€ 0x8000116c
0x8000116c: fb 0e 14 e3 bne	t3, a6, 0x80001114
è¯»å–åœ°å€ 0x80001114
0x80001114: 01 08 17 13 slli	a4, a6, 16
è¯»å–åœ°å€ 0x80001118
0x80001118: 01 07 57 13 srli	a4, a4, 16
è¯»å–åœ°å€ 0x8000111c
0x8000111c: 00 57 47 b3 xor	a5, a4, t0
è¯»å–åœ°å€ 0x80001120
0x80001120: 00 37 97 93 slli	a5, a5, 3
è¯»å–åœ°å€ 0x80001124
0x80001124: 00 77 77 13 andi	a4, a4, 7
è¯»å–åœ°å€ 0x80001128
0x80001128: 07 87 f7 93 andi	a5, a5, 120
è¯»å–åœ°å€ 0x8000112c
0x8000112c: 00 e7 e7 b3 or	a5, a5, a4
è¯»å–åœ°å€ 0x80001130
0x80001130: 00 87 97 13 slli	a4, a5, 8
è¯»å–åœ°å€ 0x80001134
0x80001134: 00 86 85 93 addi	a1, a3, 8
è¯»å–åœ°å€ 0x80001138
0x80001138: 00 18 08 13 addi	a6, a6, 1
è¯»å–åœ°å€ 0x8000113c
0x8000113c: 00 48 8e 93 addi	t4, a7, 4
è¯»å–åœ°å€ 0x80001140
0x80001140: 00 f7 67 33 or	a4, a4, a5
è¯»å–åœ°å€ 0x80001144
0x80001144: 03 e5 f4 63 bgeu	a1, t5, 0x8000116c
è¯»å–åœ°å€ 0x8000116c
0x8000116c: fb 0e 14 e3 bne	t3, a6, 0x80001114
è¯»å–åœ°å€ 0x80001114
0x80001114: 01 08 17 13 slli	a4, a6, 16
è¯»å–åœ°å€ 0x80001118
0x80001118: 01 07 57 13 srli	a4, a4, 16
è¯»å–åœ°å€ 0x8000111c
0x8000111c: 00 57 47 b3 xor	a5, a4, t0
è¯»å–åœ°å€ 0x80001120
0x80001120: 00 37 97 93 slli	a5, a5, 3
è¯»å–åœ°å€ 0x80001124
0x80001124: 00 77 77 13 andi	a4, a4, 7
è¯»å–åœ°å€ 0x80001128
0x80001128: 07 87 f7 93 andi	a5, a5, 120
è¯»å–åœ°å€ 0x8000112c
0x8000112c: 00 e7 e7 b3 or	a5, a5, a4
è¯»å–åœ°å€ 0x80001130
0x80001130: 00 87 97 13 slli	a4, a5, 8
è¯»å–åœ°å€ 0x80001134
0x80001134: 00 86 85 93 addi	a1, a3, 8
è¯»å–åœ°å€ 0x80001138
0x80001138: 00 18 08 13 addi	a6, a6, 1
è¯»å–åœ°å€ 0x8000113c
0x8000113c: 00 48 8e 93 addi	t4, a7, 4
è¯»å–åœ°å€ 0x80001140
0x80001140: 00 f7 67 33 or	a4, a4, a5
è¯»å–åœ°å€ 0x80001144
0x80001144: 03 e5 f4 63 bgeu	a1, t5, 0x8000116c
è¯»å–åœ°å€ 0x8000116c
0x8000116c: fb 0e 14 e3 bne	t3, a6, 0x80001114
è¯»å–åœ°å€ 0x80001114
0x80001114: 01 08 17 13 slli	a4, a6, 16
è¯»å–åœ°å€ 0x80001118
0x80001118: 01 07 57 13 srli	a4, a4, 16
è¯»å–åœ°å€ 0x8000111c
0x8000111c: 00 57 47 b3 xor	a5, a4, t0
è¯»å–åœ°å€ 0x80001120
0x80001120: 00 37 97 93 slli	a5, a5, 3
è¯»å–åœ°å€ 0x80001124
0x80001124: 00 77 77 13 andi	a4, a4, 7
è¯»å–åœ°å€ 0x80001128
0x80001128: 07 87 f7 93 andi	a5, a5, 120
è¯»å–åœ°å€ 0x8000112c
0x8000112c: 00 e7 e7 b3 or	a5, a5, a4
è¯»å–åœ°å€ 0x80001130
0x80001130: 00 87 97 13 slli	a4, a5, 8
è¯»å–åœ°å€ 0x80001134
0x80001134: 00 86 85 93 addi	a1, a3, 8
è¯»å–åœ°å€ 0x80001138
0x80001138: 00 18 08 13 addi	a6, a6, 1
è¯»å–åœ°å€ 0x8000113c
0x8000113c: 00 48 8e 93 addi	t4, a7, 4
è¯»å–åœ°å€ 0x80001140
0x80001140: 00 f7 67 33 or	a4, a4, a5
è¯»å–åœ°å€ 0x80001144
0x80001144: 03 e5 f4 63 bgeu	a1, t5, 0x8000116c
è¯»å–åœ°å€ 0x8000116c
0x8000116c: fb 0e 14 e3 bne	t3, a6, 0x80001114
è¯»å–åœ°å€ 0x80001170
è¯»å–åœ°å€ 0x80003268
0x80001170: 00 03 28 03 lw	a6, 0(t1)
è¯»å–åœ°å€ 0x80001174
0x80001174: 08 08 06 63 beq	a6, zero, 0x80001200
è¯»å–åœ°å€ 0x80001178
0x80001178: 00 50 07 93 addi	a5, zero, 5
è¯»å–åœ°å€ 0x8000117c
0x8000117c: 00 00 4e b7 lui	t4, 4
è¯»å–åœ°å€ 0x80001180
0x80001180: 02 fe 5e 33 divu	t3, t3, a5
è¯»å–åœ°å€ 0x80001184
0x80001184: 20 00 07 13 addi	a4, zero, 512
è¯»å–åœ°å€ 0x80001188
0x80001188: 00 10 06 93 addi	a3, zero, 1
è¯»å–åœ°å€ 0x8000118c
0x8000118c: ff fe 8e 93 addi	t4, t4, -1
è¯»å–åœ°å€ 0x80001190
0x80001190: 03 00 00 6f jal	zero, 0x800011c0
è¯»å–åœ°å€ 0x800011c0
0x800011c0: 00 d6 45 b3 xor	a1, a2, a3
è¯»å–åœ°å€ 0x800011c4
0x800011c4: 70 07 77 93 andi	a5, a4, 1792
è¯»å–åœ°å€ 0x800011c8
0x800011c8: 00 b7 e7 b3 or	a5, a5, a1
è¯»å–åœ°å€ 0x800011cc
0x800011cc: 01 d7 f7 b3 and	a5, a5, t4
è¯»å–åœ°å€ 0x800011d0
è¯»å–åœ°å€ 0x8000326c
0x800011d0: 00 43 25 83 lw	a1, 4(t1)
è¯»å–åœ°å€ 0x800011d4
0x800011d4: fd c6 e0 e3 bltu	a3, t3, 0x80001194
è¯»å–åœ°å€ 0x80001194
0x80001194: 01 06 97 93 slli	a5, a3, 16
è¯»å–åœ°å€ 0x80001198
è¯»å–åœ°å€ 0x80003260
0x80001198: 00 08 28 83 lw	a7, 0(a6)
è¯»å–åœ°å€ 0x8000119c
0x8000119c: 41 07 d7 93 srai	a5, a5, 16
è¯»å–åœ°å€ 0x800011a0
0x800011a0: 10 07 07 13 addi	a4, a4, 256
è¯»å–åœ°å€ 0x800011a4
0x800011a4: 01 07 17 13 slli	a4, a4, 16
è¯»å–åœ°å€ 0x800011a8
å†™å…¥åœ°å€ 0x800032ee
0x800011a8: 00 f5 91 23 sh	a5, 2(a1)
è¯»å–åœ°å€ 0x800011ac
0x800011ac: 00 08 03 13 addi	t1, a6, 0
è¯»å–åœ°å€ 0x800011b0
0x800011b0: 00 16 86 93 addi	a3, a3, 1
è¯»å–åœ°å€ 0x800011b4
0x800011b4: 01 07 57 13 srli	a4, a4, 16
è¯»å–åœ°å€ 0x800011b8
0x800011b8: 04 08 84 63 beq	a7, zero, 0x80001200
è¯»å–åœ°å€ 0x800011bc
0x800011bc: 00 08 88 13 addi	a6, a7, 0
è¯»å–åœ°å€ 0x800011c0
0x800011c0: 00 d6 45 b3 xor	a1, a2, a3
è¯»å–åœ°å€ 0x800011c4
0x800011c4: 70 07 77 93 andi	a5, a4, 1792
è¯»å–åœ°å€ 0x800011c8
0x800011c8: 00 b7 e7 b3 or	a5, a5, a1
è¯»å–åœ°å€ 0x800011cc
0x800011cc: 01 d7 f7 b3 and	a5, a5, t4
è¯»å–åœ°å€ 0x800011d0
è¯»å–åœ°å€ 0x80003264
0x800011d0: 00 43 25 83 lw	a1, 4(t1)
è¯»å–åœ°å€ 0x800011d4
0x800011d4: fd c6 e0 e3 bltu	a3, t3, 0x80001194
è¯»å–åœ°å€ 0x80001194
0x80001194: 01 06 97 93 slli	a5, a3, 16
è¯»å–åœ°å€ 0x80001198
è¯»å–åœ°å€ 0x80003258
0x80001198: 00 08 28 83 lw	a7, 0(a6)
è¯»å–åœ°å€ 0x8000119c
0x8000119c: 41 07 d7 93 srai	a5, a5, 16
è¯»å–åœ°å€ 0x800011a0
0x800011a0: 10 07 07 13 addi	a4, a4, 256
è¯»å–åœ°å€ 0x800011a4
0x800011a4: 01 07 17 13 slli	a4, a4, 16
è¯»å–åœ°å€ 0x800011a8
å†™å…¥åœ°å€ 0x800032ea
0x800011a8: 00 f5 91 23 sh	a5, 2(a1)
è¯»å–åœ°å€ 0x800011ac
0x800011ac: 00 08 03 13 addi	t1, a6, 0
è¯»å–åœ°å€ 0x800011b0
0x800011b0: 00 16 86 93 addi	a3, a3, 1
è¯»å–åœ°å€ 0x800011b4
0x800011b4: 01 07 57 13 srli	a4, a4, 16
è¯»å–åœ°å€ 0x800011b8
0x800011b8: 04 08 84 63 beq	a7, zero, 0x80001200
è¯»å–åœ°å€ 0x800011bc
0x800011bc: 00 08 88 13 addi	a6, a7, 0
è¯»å–åœ°å€ 0x800011c0
0x800011c0: 00 d6 45 b3 xor	a1, a2, a3
è¯»å–åœ°å€ 0x800011c4
0x800011c4: 70 07 77 93 andi	a5, a4, 1792
è¯»å–åœ°å€ 0x800011c8
0x800011c8: 00 b7 e7 b3 or	a5, a5, a1
è¯»å–åœ°å€ 0x800011cc
0x800011cc: 01 d7 f7 b3 and	a5, a5, t4
è¯»å–åœ°å€ 0x800011d0
è¯»å–åœ°å€ 0x8000325c
0x800011d0: 00 43 25 83 lw	a1, 4(t1)
è¯»å–åœ°å€ 0x800011d4
0x800011d4: fd c6 e0 e3 bltu	a3, t3, 0x80001194
è¯»å–åœ°å€ 0x80001194
0x80001194: 01 06 97 93 slli	a5, a3, 16
è¯»å–åœ°å€ 0x80001198
è¯»å–åœ°å€ 0x80003250
0x80001198: 00 08 28 83 lw	a7, 0(a6)
è¯»å–åœ°å€ 0x8000119c
0x8000119c: 41 07 d7 93 srai	a5, a5, 16
è¯»å–åœ°å€ 0x800011a0
0x800011a0: 10 07 07 13 addi	a4, a4, 256
è¯»å–åœ°å€ 0x800011a4
0x800011a4: 01 07 17 13 slli	a4, a4, 16
è¯»å–åœ°å€ 0x800011a8
å†™å…¥åœ°å€ 0x800032e6
0x800011a8: 00 f5 91 23 sh	a5, 2(a1)
è¯»å–åœ°å€ 0x800011ac
0x800011ac: 00 08 03 13 addi	t1, a6, 0
è¯»å–åœ°å€ 0x800011b0
0x800011b0: 00 16 86 93 addi	a3, a3, 1
è¯»å–åœ°å€ 0x800011b4
0x800011b4: 01 07 57 13 srli	a4, a4, 16
è¯»å–åœ°å€ 0x800011b8
0x800011b8: 04 08 84 63 beq	a7, zero, 0x80001200
è¯»å–åœ°å€ 0x800011bc
0x800011bc: 00 08 88 13 addi	a6, a7, 0
è¯»å–åœ°å€ 0x800011c0
0x800011c0: 00 d6 45 b3 xor	a1, a2, a3
è¯»å–åœ°å€ 0x800011c4
0x800011c4: 70 07 77 93 andi	a5, a4, 1792
è¯»å–åœ°å€ 0x800011c8
0x800011c8: 00 b7 e7 b3 or	a5, a5, a1
è¯»å–åœ°å€ 0x800011cc
0x800011cc: 01 d7 f7 b3 and	a5, a5, t4
è¯»å–åœ°å€ 0x800011d0
è¯»å–åœ°å€ 0x80003254
0x800011d0: 00 43 25 83 lw	a1, 4(t1)
è¯»å–åœ°å€ 0x800011d4
0x800011d4: fd c6 e0 e3 bltu	a3, t3, 0x80001194
è¯»å–åœ°å€ 0x80001194
0x80001194: 01 06 97 93 slli	a5, a3, 16
è¯»å–åœ°å€ 0x80001198
è¯»å–åœ°å€ 0x80003248
0x80001198: 00 08 28 83 lw	a7, 0(a6)
è¯»å–åœ°å€ 0x8000119c
0x8000119c: 41 07 d7 93 srai	a5, a5, 16
è¯»å–åœ°å€ 0x800011a0
0x800011a0: 10 07 07 13 addi	a4, a4, 256
è¯»å–åœ°å€ 0x800011a4
0x800011a4: 01 07 17 13 slli	a4, a4, 16
è¯»å–åœ°å€ 0x800011a8
å†™å…¥åœ°å€ 0x800032e2
0x800011a8: 00 f5 91 23 sh	a5, 2(a1)
è¯»å–åœ°å€ 0x800011ac
0x800011ac: 00 08 03 13 addi	t1, a6, 0
è¯»å–åœ°å€ 0x800011b0
0x800011b0: 00 16 86 93 addi	a3, a3, 1
è¯»å–åœ°å€ 0x800011b4
0x800011b4: 01 07 57 13 srli	a4, a4, 16
è¯»å–åœ°å€ 0x800011b8
0x800011b8: 04 08 84 63 beq	a7, zero, 0x80001200
è¯»å–åœ°å€ 0x800011bc
0x800011bc: 00 08 88 13 addi	a6, a7, 0
è¯»å–åœ°å€ 0x800011c0
0x800011c0: 00 d6 45 b3 xor	a1, a2, a3
è¯»å–åœ°å€ 0x800011c4
0x800011c4: 70 07 77 93 andi	a5, a4, 1792
è¯»å–åœ°å€ 0x800011c8
0x800011c8: 00 b7 e7 b3 or	a5, a5, a1
è¯»å–åœ°å€ 0x800011cc
0x800011cc: 01 d7 f7 b3 and	a5, a5, t4
è¯»å–åœ°å€ 0x800011d0
è¯»å–åœ°å€ 0x8000324c
0x800011d0: 00 43 25 83 lw	a1, 4(t1)
è¯»å–åœ°å€ 0x800011d4
0x800011d4: fd c6 e0 e3 bltu	a3, t3, 0x80001194
è¯»å–åœ°å€ 0x80001194
0x80001194: 01 06 97 93 slli	a5, a3, 16
è¯»å–åœ°å€ 0x80001198
è¯»å–åœ°å€ 0x80003240
0x80001198: 00 08 28 83 lw	a7, 0(a6)
è¯»å–åœ°å€ 0x8000119c
0x8000119c: 41 07 d7 93 srai	a5, a5, 16
è¯»å–åœ°å€ 0x800011a0
0x800011a0: 10 07 07 13 addi	a4, a4, 256
è¯»å–åœ°å€ 0x800011a4
0x800011a4: 01 07 17 13 slli	a4, a4, 16
è¯»å–åœ°å€ 0x800011a8
å†™å…¥åœ°å€ 0x800032de
0x800011a8: 00 f5 91 23 sh	a5, 2(a1)
è¯»å–åœ°å€ 0x800011ac
0x800011ac: 00 08 03 13 addi	t1, a6, 0
è¯»å–åœ°å€ 0x800011b0
0x800011b0: 00 16 86 93 addi	a3, a3, 1
è¯»å–åœ°å€ 0x800011b4
0x800011b4: 01 07 57 13 srli	a4, a4, 16
è¯»å–åœ°å€ 0x800011b8
0x800011b8: 04 08 84 63 beq	a7, zero, 0x80001200
è¯»å–åœ°å€ 0x800011bc
0x800011bc: 00 08 88 13 addi	a6, a7, 0
è¯»å–åœ°å€ 0x800011c0
0x800011c0: 00 d6 45 b3 xor	a1, a2, a3
è¯»å–åœ°å€ 0x800011c4
0x800011c4: 70 07 77 93 andi	a5, a4, 1792
è¯»å–åœ°å€ 0x800011c8
0x800011c8: 00 b7 e7 b3 or	a5, a5, a1
è¯»å–åœ°å€ 0x800011cc
0x800011cc: 01 d7 f7 b3 and	a5, a5, t4
è¯»å–åœ°å€ 0x800011d0
è¯»å–åœ°å€ 0x80003244
0x800011d0: 00 43 25 83 lw	a1, 4(t1)
è¯»å–åœ°å€ 0x800011d4
0x800011d4: fd c6 e0 e3 bltu	a3, t3, 0x80001194
è¯»å–åœ°å€ 0x800011d8
è¯»å–åœ°å€ 0x80003238
0x800011d8: 00 08 28 83 lw	a7, 0(a6)
è¯»å–åœ°å€ 0x800011dc
0x800011dc: 01 07 97 93 slli	a5, a5, 16
è¯»å–åœ°å€ 0x800011e0
0x800011e0: 41 07 d7 93 srai	a5, a5, 16
è¯»å–åœ°å€ 0x800011e4
0x800011e4: 10 07 07 13 addi	a4, a4, 256
è¯»å–åœ°å€ 0x800011e8
0x800011e8: 01 07 17 13 slli	a4, a4, 16
è¯»å–åœ°å€ 0x800011ec
å†™å…¥åœ°å€ 0x800032da
0x800011ec: 00 f5 91 23 sh	a5, 2(a1)
è¯»å–åœ°å€ 0x800011f0
0x800011f0: 00 08 03 13 addi	t1, a6, 0
è¯»å–åœ°å€ 0x800011f4
0x800011f4: 00 16 86 93 addi	a3, a3, 1
è¯»å–åœ°å€ 0x800011f8
0x800011f8: 01 07 57 13 srli	a4, a4, 16
è¯»å–åœ°å€ 0x800011fc
0x800011fc: fc 08 90 e3 bne	a7, zero, 0x800011bc
è¯»å–åœ°å€ 0x800011bc
0x800011bc: 00 08 88 13 addi	a6, a7, 0
è¯»å–åœ°å€ 0x800011c0
0x800011c0: 00 d6 45 b3 xor	a1, a2, a3
è¯»å–åœ°å€ 0x800011c4
0x800011c4: 70 07 77 93 andi	a5, a4, 1792
è¯»å–åœ°å€ 0x800011c8
0x800011c8: 00 b7 e7 b3 or	a5, a5, a1
è¯»å–åœ°å€ 0x800011cc
0x800011cc: 01 d7 f7 b3 and	a5, a5, t4
è¯»å–åœ°å€ 0x800011d0
è¯»å–åœ°å€ 0x8000323c
0x800011d0: 00 43 25 83 lw	a1, 4(t1)
è¯»å–åœ°å€ 0x800011d4
0x800011d4: fd c6 e0 e3 bltu	a3, t3, 0x80001194
è¯»å–åœ°å€ 0x800011d8
è¯»å–åœ°å€ 0x80003230
0x800011d8: 00 08 28 83 lw	a7, 0(a6)
è¯»å–åœ°å€ 0x800011dc
0x800011dc: 01 07 97 93 slli	a5, a5, 16
è¯»å–åœ°å€ 0x800011e0
0x800011e0: 41 07 d7 93 srai	a5, a5, 16
è¯»å–åœ°å€ 0x800011e4
0x800011e4: 10 07 07 13 addi	a4, a4, 256
è¯»å–åœ°å€ 0x800011e8
0x800011e8: 01 07 17 13 slli	a4, a4, 16
è¯»å–åœ°å€ 0x800011ec
å†™å…¥åœ°å€ 0x800032d6
0x800011ec: 00 f5 91 23 sh	a5, 2(a1)
è¯»å–åœ°å€ 0x800011f0
0x800011f0: 00 08 03 13 addi	t1, a6, 0
è¯»å–åœ°å€ 0x800011f4
0x800011f4: 00 16 86 93 addi	a3, a3, 1
è¯»å–åœ°å€ 0x800011f8
0x800011f8: 01 07 57 13 srli	a4, a4, 16
è¯»å–åœ°å€ 0x800011fc
0x800011fc: fc 08 90 e3 bne	a7, zero, 0x800011bc
è¯»å–åœ°å€ 0x800011bc
0x800011bc: 00 08 88 13 addi	a6, a7, 0
è¯»å–åœ°å€ 0x800011c0
0x800011c0: 00 d6 45 b3 xor	a1, a2, a3
è¯»å–åœ°å€ 0x800011c4
0x800011c4: 70 07 77 93 andi	a5, a4, 1792
è¯»å–åœ°å€ 0x800011c8
0x800011c8: 00 b7 e7 b3 or	a5, a5, a1
è¯»å–åœ°å€ 0x800011cc
0x800011cc: 01 d7 f7 b3 and	a5, a5, t4
è¯»å–åœ°å€ 0x800011d0
è¯»å–åœ°å€ 0x80003234
0x800011d0: 00 43 25 83 lw	a1, 4(t1)
è¯»å–åœ°å€ 0x800011d4
0x800011d4: fd c6 e0 e3 bltu	a3, t3, 0x80001194
è¯»å–åœ°å€ 0x800011d8
è¯»å–åœ°å€ 0x80003228
0x800011d8: 00 08 28 83 lw	a7, 0(a6)
è¯»å–åœ°å€ 0x800011dc
0x800011dc: 01 07 97 93 slli	a5, a5, 16
è¯»å–åœ°å€ 0x800011e0
0x800011e0: 41 07 d7 93 srai	a5, a5, 16
è¯»å–åœ°å€ 0x800011e4
0x800011e4: 10 07 07 13 addi	a4, a4, 256
è¯»å–åœ°å€ 0x800011e8
0x800011e8: 01 07 17 13 slli	a4, a4, 16
è¯»å–åœ°å€ 0x800011ec
å†™å…¥åœ°å€ 0x800032d2
0x800011ec: 00 f5 91 23 sh	a5, 2(a1)
è¯»å–åœ°å€ 0x800011f0
0x800011f0: 00 08 03 13 addi	t1, a6, 0
è¯»å–åœ°å€ 0x800011f4
0x800011f4: 00 16 86 93 addi	a3, a3, 1
è¯»å–åœ°å€ 0x800011f8
0x800011f8: 01 07 57 13 srli	a4, a4, 16
è¯»å–åœ°å€ 0x800011fc
0x800011fc: fc 08 90 e3 bne	a7, zero, 0x800011bc
è¯»å–åœ°å€ 0x800011bc
0x800011bc: 00 08 88 13 addi	a6, a7, 0
è¯»å–åœ°å€ 0x800011c0
0x800011c0: 00 d6 45 b3 xor	a1, a2, a3
è¯»å–åœ°å€ 0x800011c4
0x800011c4: 70 07 77 93 andi	a5, a4, 1792
è¯»å–åœ°å€ 0x800011c8
0x800011c8: 00 b7 e7 b3 or	a5, a5, a1
è¯»å–åœ°å€ 0x800011cc
0x800011cc: 01 d7 f7 b3 and	a5, a5, t4
è¯»å–åœ°å€ 0x800011d0
è¯»å–åœ°å€ 0x8000322c
0x800011d0: 00 43 25 83 lw	a1, 4(t1)
è¯»å–åœ°å€ 0x800011d4
0x800011d4: fd c6 e0 e3 bltu	a3, t3, 0x80001194
è¯»å–åœ°å€ 0x800011d8
è¯»å–åœ°å€ 0x80003220
0x800011d8: 00 08 28 83 lw	a7, 0(a6)
è¯»å–åœ°å€ 0x800011dc
0x800011dc: 01 07 97 93 slli	a5, a5, 16
è¯»å–åœ°å€ 0x800011e0
0x800011e0: 41 07 d7 93 srai	a5, a5, 16
è¯»å–åœ°å€ 0x800011e4
0x800011e4: 10 07 07 13 addi	a4, a4, 256
è¯»å–åœ°å€ 0x800011e8
0x800011e8: 01 07 17 13 slli	a4, a4, 16
è¯»å–åœ°å€ 0x800011ec
å†™å…¥åœ°å€ 0x800032ce
0x800011ec: 00 f5 91 23 sh	a5, 2(a1)
è¯»å–åœ°å€ 0x800011f0
0x800011f0: 00 08 03 13 addi	t1, a6, 0
è¯»å–åœ°å€ 0x800011f4
0x800011f4: 00 16 86 93 addi	a3, a3, 1
è¯»å–åœ°å€ 0x800011f8
0x800011f8: 01 07 57 13 srli	a4, a4, 16
è¯»å–åœ°å€ 0x800011fc
0x800011fc: fc 08 90 e3 bne	a7, zero, 0x800011bc
è¯»å–åœ°å€ 0x800011bc
0x800011bc: 00 08 88 13 addi	a6, a7, 0
è¯»å–åœ°å€ 0x800011c0
0x800011c0: 00 d6 45 b3 xor	a1, a2, a3
è¯»å–åœ°å€ 0x800011c4
0x800011c4: 70 07 77 93 andi	a5, a4, 1792
è¯»å–åœ°å€ 0x800011c8
0x800011c8: 00 b7 e7 b3 or	a5, a5, a1
è¯»å–åœ°å€ 0x800011cc
0x800011cc: 01 d7 f7 b3 and	a5, a5, t4
è¯»å–åœ°å€ 0x800011d0
è¯»å–åœ°å€ 0x80003224
0x800011d0: 00 43 25 83 lw	a1, 4(t1)
è¯»å–åœ°å€ 0x800011d4
0x800011d4: fd c6 e0 e3 bltu	a3, t3, 0x80001194
è¯»å–åœ°å€ 0x800011d8
è¯»å–åœ°å€ 0x80003218
0x800011d8: 00 08 28 83 lw	a7, 0(a6)
è¯»å–åœ°å€ 0x800011dc
0x800011dc: 01 07 97 93 slli	a5, a5, 16
è¯»å–åœ°å€ 0x800011e0
0x800011e0: 41 07 d7 93 srai	a5, a5, 16
è¯»å–åœ°å€ 0x800011e4
0x800011e4: 10 07 07 13 addi	a4, a4, 256
è¯»å–åœ°å€ 0x800011e8
0x800011e8: 01 07 17 13 slli	a4, a4, 16
è¯»å–åœ°å€ 0x800011ec
å†™å…¥åœ°å€ 0x800032ca
0x800011ec: 00 f5 91 23 sh	a5, 2(a1)
è¯»å–åœ°å€ 0x800011f0
0x800011f0: 00 08 03 13 addi	t1, a6, 0
è¯»å–åœ°å€ 0x800011f4
0x800011f4: 00 16 86 93 addi	a3, a3, 1
è¯»å–åœ°å€ 0x800011f8
0x800011f8: 01 07 57 13 srli	a4, a4, 16
è¯»å–åœ°å€ 0x800011fc
0x800011fc: fc 08 90 e3 bne	a7, zero, 0x800011bc
è¯»å–åœ°å€ 0x800011bc
0x800011bc: 00 08 88 13 addi	a6, a7, 0
è¯»å–åœ°å€ 0x800011c0
0x800011c0: 00 d6 45 b3 xor	a1, a2, a3
è¯»å–åœ°å€ 0x800011c4
0x800011c4: 70 07 77 93 andi	a5, a4, 1792
è¯»å–åœ°å€ 0x800011c8
0x800011c8: 00 b7 e7 b3 or	a5, a5, a1
è¯»å–åœ°å€ 0x800011cc
0x800011cc: 01 d7 f7 b3 and	a5, a5, t4
è¯»å–åœ°å€ 0x800011d0
è¯»å–åœ°å€ 0x8000321c
0x800011d0: 00 43 25 83 lw	a1, 4(t1)
è¯»å–åœ°å€ 0x800011d4
0x800011d4: fd c6 e0 e3 bltu	a3, t3, 0x80001194
è¯»å–åœ°å€ 0x800011d8
è¯»å–åœ°å€ 0x80003210
0x800011d8: 00 08 28 83 lw	a7, 0(a6)
è¯»å–åœ°å€ 0x800011dc
0x800011dc: 01 07 97 93 slli	a5, a5, 16
è¯»å–åœ°å€ 0x800011e0
0x800011e0: 41 07 d7 93 srai	a5, a5, 16
è¯»å–åœ°å€ 0x800011e4
0x800011e4: 10 07 07 13 addi	a4, a4, 256
è¯»å–åœ°å€ 0x800011e8
0x800011e8: 01 07 17 13 slli	a4, a4, 16
è¯»å–åœ°å€ 0x800011ec
å†™å…¥åœ°å€ 0x800032c6
0x800011ec: 00 f5 91 23 sh	a5, 2(a1)
è¯»å–åœ°å€ 0x800011f0
0x800011f0: 00 08 03 13 addi	t1, a6, 0
è¯»å–åœ°å€ 0x800011f4
0x800011f4: 00 16 86 93 addi	a3, a3, 1
è¯»å–åœ°å€ 0x800011f8
0x800011f8: 01 07 57 13 srli	a4, a4, 16
è¯»å–åœ°å€ 0x800011fc
0x800011fc: fc 08 90 e3 bne	a7, zero, 0x800011bc
è¯»å–åœ°å€ 0x800011bc
0x800011bc: 00 08 88 13 addi	a6, a7, 0
è¯»å–åœ°å€ 0x800011c0
0x800011c0: 00 d6 45 b3 xor	a1, a2, a3
è¯»å–åœ°å€ 0x800011c4
0x800011c4: 70 07 77 93 andi	a5, a4, 1792
è¯»å–åœ°å€ 0x800011c8
0x800011c8: 00 b7 e7 b3 or	a5, a5, a1
è¯»å–åœ°å€ 0x800011cc
0x800011cc: 01 d7 f7 b3 and	a5, a5, t4
è¯»å–åœ°å€ 0x800011d0
è¯»å–åœ°å€ 0x80003214
0x800011d0: 00 43 25 83 lw	a1, 4(t1)
è¯»å–åœ°å€ 0x800011d4
0x800011d4: fd c6 e0 e3 bltu	a3, t3, 0x80001194
è¯»å–åœ°å€ 0x800011d8
è¯»å–åœ°å€ 0x80003208
0x800011d8: 00 08 28 83 lw	a7, 0(a6)
è¯»å–åœ°å€ 0x800011dc
0x800011dc: 01 07 97 93 slli	a5, a5, 16
è¯»å–åœ°å€ 0x800011e0
0x800011e0: 41 07 d7 93 srai	a5, a5, 16
è¯»å–åœ°å€ 0x800011e4
0x800011e4: 10 07 07 13 addi	a4, a4, 256
è¯»å–åœ°å€ 0x800011e8
0x800011e8: 01 07 17 13 slli	a4, a4, 16
è¯»å–åœ°å€ 0x800011ec
å†™å…¥åœ°å€ 0x800032c2
0x800011ec: 00 f5 91 23 sh	a5, 2(a1)
è¯»å–åœ°å€ 0x800011f0
0x800011f0: 00 08 03 13 addi	t1, a6, 0
è¯»å–åœ°å€ 0x800011f4
0x800011f4: 00 16 86 93 addi	a3, a3, 1
è¯»å–åœ°å€ 0x800011f8
0x800011f8: 01 07 57 13 srli	a4, a4, 16
è¯»å–åœ°å€ 0x800011fc
0x800011fc: fc 08 90 e3 bne	a7, zero, 0x800011bc
è¯»å–åœ°å€ 0x800011bc
0x800011bc: 00 08 88 13 addi	a6, a7, 0
è¯»å–åœ°å€ 0x800011c0
0x800011c0: 00 d6 45 b3 xor	a1, a2, a3
è¯»å–åœ°å€ 0x800011c4
0x800011c4: 70 07 77 93 andi	a5, a4, 1792
è¯»å–åœ°å€ 0x800011c8
0x800011c8: 00 b7 e7 b3 or	a5, a5, a1
è¯»å–åœ°å€ 0x800011cc
0x800011cc: 01 d7 f7 b3 and	a5, a5, t4
è¯»å–åœ°å€ 0x800011d0
è¯»å–åœ°å€ 0x8000320c
0x800011d0: 00 43 25 83 lw	a1, 4(t1)
è¯»å–åœ°å€ 0x800011d4
0x800011d4: fd c6 e0 e3 bltu	a3, t3, 0x80001194
è¯»å–åœ°å€ 0x800011d8
è¯»å–åœ°å€ 0x80003200
0x800011d8: 00 08 28 83 lw	a7, 0(a6)
è¯»å–åœ°å€ 0x800011dc
0x800011dc: 01 07 97 93 slli	a5, a5, 16
è¯»å–åœ°å€ 0x800011e0
0x800011e0: 41 07 d7 93 srai	a5, a5, 16
è¯»å–åœ°å€ 0x800011e4
0x800011e4: 10 07 07 13 addi	a4, a4, 256
è¯»å–åœ°å€ 0x800011e8
0x800011e8: 01 07 17 13 slli	a4, a4, 16
è¯»å–åœ°å€ 0x800011ec
å†™å…¥åœ°å€ 0x800032be
0x800011ec: 00 f5 91 23 sh	a5, 2(a1)
è¯»å–åœ°å€ 0x800011f0
0x800011f0: 00 08 03 13 addi	t1, a6, 0
è¯»å–åœ°å€ 0x800011f4
0x800011f4: 00 16 86 93 addi	a3, a3, 1
è¯»å–åœ°å€ 0x800011f8
0x800011f8: 01 07 57 13 srli	a4, a4, 16
è¯»å–åœ°å€ 0x800011fc
0x800011fc: fc 08 90 e3 bne	a7, zero, 0x800011bc
è¯»å–åœ°å€ 0x800011bc
0x800011bc: 00 08 88 13 addi	a6, a7, 0
è¯»å–åœ°å€ 0x800011c0
0x800011c0: 00 d6 45 b3 xor	a1, a2, a3
è¯»å–åœ°å€ 0x800011c4
0x800011c4: 70 07 77 93 andi	a5, a4, 1792
è¯»å–åœ°å€ 0x800011c8
0x800011c8: 00 b7 e7 b3 or	a5, a5, a1
è¯»å–åœ°å€ 0x800011cc
0x800011cc: 01 d7 f7 b3 and	a5, a5, t4
è¯»å–åœ°å€ 0x800011d0
è¯»å–åœ°å€ 0x80003204
0x800011d0: 00 43 25 83 lw	a1, 4(t1)
è¯»å–åœ°å€ 0x800011d4
0x800011d4: fd c6 e0 e3 bltu	a3, t3, 0x80001194
è¯»å–åœ°å€ 0x800011d8
è¯»å–åœ°å€ 0x800031f8
0x800011d8: 00 08 28 83 lw	a7, 0(a6)
è¯»å–åœ°å€ 0x800011dc
0x800011dc: 01 07 97 93 slli	a5, a5, 16
è¯»å–åœ°å€ 0x800011e0
0x800011e0: 41 07 d7 93 srai	a5, a5, 16
è¯»å–åœ°å€ 0x800011e4
0x800011e4: 10 07 07 13 addi	a4, a4, 256
è¯»å–åœ°å€ 0x800011e8
0x800011e8: 01 07 17 13 slli	a4, a4, 16
è¯»å–åœ°å€ 0x800011ec
å†™å…¥åœ°å€ 0x800032ba
0x800011ec: 00 f5 91 23 sh	a5, 2(a1)
è¯»å–åœ°å€ 0x800011f0
0x800011f0: 00 08 03 13 addi	t1, a6, 0
è¯»å–åœ°å€ 0x800011f4
0x800011f4: 00 16 86 93 addi	a3, a3, 1
è¯»å–åœ°å€ 0x800011f8
0x800011f8: 01 07 57 13 srli	a4, a4, 16
è¯»å–åœ°å€ 0x800011fc
0x800011fc: fc 08 90 e3 bne	a7, zero, 0x800011bc
è¯»å–åœ°å€ 0x800011bc
0x800011bc: 00 08 88 13 addi	a6, a7, 0
è¯»å–åœ°å€ 0x800011c0
0x800011c0: 00 d6 45 b3 xor	a1, a2, a3
è¯»å–åœ°å€ 0x800011c4
0x800011c4: 70 07 77 93 andi	a5, a4, 1792
è¯»å–åœ°å€ 0x800011c8
0x800011c8: 00 b7 e7 b3 or	a5, a5, a1
è¯»å–åœ°å€ 0x800011cc
0x800011cc: 01 d7 f7 b3 and	a5, a5, t4
è¯»å–åœ°å€ 0x800011d0
è¯»å–åœ°å€ 0x800031fc
0x800011d0: 00 43 25 83 lw	a1, 4(t1)
è¯»å–åœ°å€ 0x800011d4
0x800011d4: fd c6 e0 e3 bltu	a3, t3, 0x80001194
è¯»å–åœ°å€ 0x800011d8
è¯»å–åœ°å€ 0x800031f0
0x800011d8: 00 08 28 83 lw	a7, 0(a6)
è¯»å–åœ°å€ 0x800011dc
0x800011dc: 01 07 97 93 slli	a5, a5, 16
è¯»å–åœ°å€ 0x800011e0
0x800011e0: 41 07 d7 93 srai	a5, a5, 16
è¯»å–åœ°å€ 0x800011e4
0x800011e4: 10 07 07 13 addi	a4, a4, 256
è¯»å–åœ°å€ 0x800011e8
0x800011e8: 01 07 17 13 slli	a4, a4, 16
è¯»å–åœ°å€ 0x800011ec
å†™å…¥åœ°å€ 0x800032b6
0x800011ec: 00 f5 91 23 sh	a5, 2(a1)
è¯»å–åœ°å€ 0x800011f0
0x800011f0: 00 08 03 13 addi	t1, a6, 0
è¯»å–åœ°å€ 0x800011f4
0x800011f4: 00 16 86 93 addi	a3, a3, 1
è¯»å–åœ°å€ 0x800011f8
0x800011f8: 01 07 57 13 srli	a4, a4, 16
è¯»å–åœ°å€ 0x800011fc
0x800011fc: fc 08 90 e3 bne	a7, zero, 0x800011bc
è¯»å–åœ°å€ 0x800011bc
0x800011bc: 00 08 88 13 addi	a6, a7, 0
è¯»å–åœ°å€ 0x800011c0
0x800011c0: 00 d6 45 b3 xor	a1, a2, a3
è¯»å–åœ°å€ 0x800011c4
0x800011c4: 70 07 77 93 andi	a5, a4, 1792
è¯»å–åœ°å€ 0x800011c8
0x800011c8: 00 b7 e7 b3 or	a5, a5, a1
è¯»å–åœ°å€ 0x800011cc
0x800011cc: 01 d7 f7 b3 and	a5, a5, t4
è¯»å–åœ°å€ 0x800011d0
è¯»å–åœ°å€ 0x800031f4
0x800011d0: 00 43 25 83 lw	a1, 4(t1)
è¯»å–åœ°å€ 0x800011d4
0x800011d4: fd c6 e0 e3 bltu	a3, t3, 0x80001194
è¯»å–åœ°å€ 0x800011d8
è¯»å–åœ°å€ 0x800031e8
0x800011d8: 00 08 28 83 lw	a7, 0(a6)
è¯»å–åœ°å€ 0x800011dc
0x800011dc: 01 07 97 93 slli	a5, a5, 16
è¯»å–åœ°å€ 0x800011e0
0x800011e0: 41 07 d7 93 srai	a5, a5, 16
è¯»å–åœ°å€ 0x800011e4
0x800011e4: 10 07 07 13 addi	a4, a4, 256
è¯»å–åœ°å€ 0x800011e8
0x800011e8: 01 07 17 13 slli	a4, a4, 16
è¯»å–åœ°å€ 0x800011ec
å†™å…¥åœ°å€ 0x800032b2
0x800011ec: 00 f5 91 23 sh	a5, 2(a1)
è¯»å–åœ°å€ 0x800011f0
0x800011f0: 00 08 03 13 addi	t1, a6, 0
è¯»å–åœ°å€ 0x800011f4
0x800011f4: 00 16 86 93 addi	a3, a3, 1
è¯»å–åœ°å€ 0x800011f8
0x800011f8: 01 07 57 13 srli	a4, a4, 16
è¯»å–åœ°å€ 0x800011fc
0x800011fc: fc 08 90 e3 bne	a7, zero, 0x800011bc
è¯»å–åœ°å€ 0x800011bc
0x800011bc: 00 08 88 13 addi	a6, a7, 0
è¯»å–åœ°å€ 0x800011c0
0x800011c0: 00 d6 45 b3 xor	a1, a2, a3
è¯»å–åœ°å€ 0x800011c4
0x800011c4: 70 07 77 93 andi	a5, a4, 1792
è¯»å–åœ°å€ 0x800011c8
0x800011c8: 00 b7 e7 b3 or	a5, a5, a1
è¯»å–åœ°å€ 0x800011cc
0x800011cc: 01 d7 f7 b3 and	a5, a5, t4
è¯»å–åœ°å€ 0x800011d0
è¯»å–åœ°å€ 0x800031ec
0x800011d0: 00 43 25 83 lw	a1, 4(t1)
è¯»å–åœ°å€ 0x800011d4
0x800011d4: fd c6 e0 e3 bltu	a3, t3, 0x80001194
è¯»å–åœ°å€ 0x800011d8
è¯»å–åœ°å€ 0x800031e0
0x800011d8: 00 08 28 83 lw	a7, 0(a6)
è¯»å–åœ°å€ 0x800011dc
0x800011dc: 01 07 97 93 slli	a5, a5, 16
è¯»å–åœ°å€ 0x800011e0
0x800011e0: 41 07 d7 93 srai	a5, a5, 16
è¯»å–åœ°å€ 0x800011e4
0x800011e4: 10 07 07 13 addi	a4, a4, 256
è¯»å–åœ°å€ 0x800011e8
0x800011e8: 01 07 17 13 slli	a4, a4, 16
è¯»å–åœ°å€ 0x800011ec
å†™å…¥åœ°å€ 0x800032ae
0x800011ec: 00 f5 91 23 sh	a5, 2(a1)
è¯»å–åœ°å€ 0x800011f0
0x800011f0: 00 08 03 13 addi	t1, a6, 0
è¯»å–åœ°å€ 0x800011f4
0x800011f4: 00 16 86 93 addi	a3, a3, 1
è¯»å–åœ°å€ 0x800011f8
0x800011f8: 01 07 57 13 srli	a4, a4, 16
è¯»å–åœ°å€ 0x800011fc
0x800011fc: fc 08 90 e3 bne	a7, zero, 0x800011bc
è¯»å–åœ°å€ 0x800011bc
0x800011bc: 00 08 88 13 addi	a6, a7, 0
è¯»å–åœ°å€ 0x800011c0
0x800011c0: 00 d6 45 b3 xor	a1, a2, a3
è¯»å–åœ°å€ 0x800011c4
0x800011c4: 70 07 77 93 andi	a5, a4, 1792
è¯»å–åœ°å€ 0x800011c8
0x800011c8: 00 b7 e7 b3 or	a5, a5, a1
è¯»å–åœ°å€ 0x800011cc
0x800011cc: 01 d7 f7 b3 and	a5, a5, t4
è¯»å–åœ°å€ 0x800011d0
è¯»å–åœ°å€ 0x800031e4
0x800011d0: 00 43 25 83 lw	a1, 4(t1)
è¯»å–åœ°å€ 0x800011d4
0x800011d4: fd c6 e0 e3 bltu	a3, t3, 0x80001194
è¯»å–åœ°å€ 0x800011d8
è¯»å–åœ°å€ 0x800031d8
0x800011d8: 00 08 28 83 lw	a7, 0(a6)
è¯»å–åœ°å€ 0x800011dc
0x800011dc: 01 07 97 93 slli	a5, a5, 16
è¯»å–åœ°å€ 0x800011e0
0x800011e0: 41 07 d7 93 srai	a5, a5, 16
è¯»å–åœ°å€ 0x800011e4
0x800011e4: 10 07 07 13 addi	a4, a4, 256
è¯»å–åœ°å€ 0x800011e8
0x800011e8: 01 07 17 13 slli	a4, a4, 16
è¯»å–åœ°å€ 0x800011ec
å†™å…¥åœ°å€ 0x800032aa
0x800011ec: 00 f5 91 23 sh	a5, 2(a1)
è¯»å–åœ°å€ 0x800011f0
0x800011f0: 00 08 03 13 addi	t1, a6, 0
è¯»å–åœ°å€ 0x800011f4
0x800011f4: 00 16 86 93 addi	a3, a3, 1
è¯»å–åœ°å€ 0x800011f8
0x800011f8: 01 07 57 13 srli	a4, a4, 16
è¯»å–åœ°å€ 0x800011fc
0x800011fc: fc 08 90 e3 bne	a7, zero, 0x800011bc
è¯»å–åœ°å€ 0x800011bc
0x800011bc: 00 08 88 13 addi	a6, a7, 0
è¯»å–åœ°å€ 0x800011c0
0x800011c0: 00 d6 45 b3 xor	a1, a2, a3
è¯»å–åœ°å€ 0x800011c4
0x800011c4: 70 07 77 93 andi	a5, a4, 1792
è¯»å–åœ°å€ 0x800011c8
0x800011c8: 00 b7 e7 b3 or	a5, a5, a1
è¯»å–åœ°å€ 0x800011cc
0x800011cc: 01 d7 f7 b3 and	a5, a5, t4
è¯»å–åœ°å€ 0x800011d0
è¯»å–åœ°å€ 0x800031dc
0x800011d0: 00 43 25 83 lw	a1, 4(t1)
è¯»å–åœ°å€ 0x800011d4
0x800011d4: fd c6 e0 e3 bltu	a3, t3, 0x80001194
è¯»å–åœ°å€ 0x800011d8
è¯»å–åœ°å€ 0x800031d0
0x800011d8: 00 08 28 83 lw	a7, 0(a6)
è¯»å–åœ°å€ 0x800011dc
0x800011dc: 01 07 97 93 slli	a5, a5, 16
è¯»å–åœ°å€ 0x800011e0
0x800011e0: 41 07 d7 93 srai	a5, a5, 16
è¯»å–åœ°å€ 0x800011e4
0x800011e4: 10 07 07 13 addi	a4, a4, 256
è¯»å–åœ°å€ 0x800011e8
0x800011e8: 01 07 17 13 slli	a4, a4, 16
è¯»å–åœ°å€ 0x800011ec
å†™å…¥åœ°å€ 0x800032a6
0x800011ec: 00 f5 91 23 sh	a5, 2(a1)
è¯»å–åœ°å€ 0x800011f0
0x800011f0: 00 08 03 13 addi	t1, a6, 0
è¯»å–åœ°å€ 0x800011f4
0x800011f4: 00 16 86 93 addi	a3, a3, 1
è¯»å–åœ°å€ 0x800011f8
0x800011f8: 01 07 57 13 srli	a4, a4, 16
è¯»å–åœ°å€ 0x800011fc
0x800011fc: fc 08 90 e3 bne	a7, zero, 0x800011bc
è¯»å–åœ°å€ 0x800011bc
0x800011bc: 00 08 88 13 addi	a6, a7, 0
è¯»å–åœ°å€ 0x800011c0
0x800011c0: 00 d6 45 b3 xor	a1, a2, a3
è¯»å–åœ°å€ 0x800011c4
0x800011c4: 70 07 77 93 andi	a5, a4, 1792
è¯»å–åœ°å€ 0x800011c8
0x800011c8: 00 b7 e7 b3 or	a5, a5, a1
è¯»å–åœ°å€ 0x800011cc
0x800011cc: 01 d7 f7 b3 and	a5, a5, t4
è¯»å–åœ°å€ 0x800011d0
è¯»å–åœ°å€ 0x800031d4
0x800011d0: 00 43 25 83 lw	a1, 4(t1)
è¯»å–åœ°å€ 0x800011d4
0x800011d4: fd c6 e0 e3 bltu	a3, t3, 0x80001194
è¯»å–åœ°å€ 0x800011d8
è¯»å–åœ°å€ 0x800031c8
0x800011d8: 00 08 28 83 lw	a7, 0(a6)
è¯»å–åœ°å€ 0x800011dc
0x800011dc: 01 07 97 93 slli	a5, a5, 16
è¯»å–åœ°å€ 0x800011e0
0x800011e0: 41 07 d7 93 srai	a5, a5, 16
è¯»å–åœ°å€ 0x800011e4
0x800011e4: 10 07 07 13 addi	a4, a4, 256
è¯»å–åœ°å€ 0x800011e8
0x800011e8: 01 07 17 13 slli	a4, a4, 16
è¯»å–åœ°å€ 0x800011ec
å†™å…¥åœ°å€ 0x800032a2
0x800011ec: 00 f5 91 23 sh	a5, 2(a1)
è¯»å–åœ°å€ 0x800011f0
0x800011f0: 00 08 03 13 addi	t1, a6, 0
è¯»å–åœ°å€ 0x800011f4
0x800011f4: 00 16 86 93 addi	a3, a3, 1
è¯»å–åœ°å€ 0x800011f8
0x800011f8: 01 07 57 13 srli	a4, a4, 16
è¯»å–åœ°å€ 0x800011fc
0x800011fc: fc 08 90 e3 bne	a7, zero, 0x800011bc
è¯»å–åœ°å€ 0x800011bc
0x800011bc: 00 08 88 13 addi	a6, a7, 0
è¯»å–åœ°å€ 0x800011c0
0x800011c0: 00 d6 45 b3 xor	a1, a2, a3
è¯»å–åœ°å€ 0x800011c4
0x800011c4: 70 07 77 93 andi	a5, a4, 1792
è¯»å–åœ°å€ 0x800011c8
0x800011c8: 00 b7 e7 b3 or	a5, a5, a1
è¯»å–åœ°å€ 0x800011cc
0x800011cc: 01 d7 f7 b3 and	a5, a5, t4
è¯»å–åœ°å€ 0x800011d0
è¯»å–åœ°å€ 0x800031cc
0x800011d0: 00 43 25 83 lw	a1, 4(t1)
è¯»å–åœ°å€ 0x800011d4
0x800011d4: fd c6 e0 e3 bltu	a3, t3, 0x80001194
è¯»å–åœ°å€ 0x800011d8
è¯»å–åœ°å€ 0x800031c0
0x800011d8: 00 08 28 83 lw	a7, 0(a6)
è¯»å–åœ°å€ 0x800011dc
0x800011dc: 01 07 97 93 slli	a5, a5, 16
è¯»å–åœ°å€ 0x800011e0
0x800011e0: 41 07 d7 93 srai	a5, a5, 16
è¯»å–åœ°å€ 0x800011e4
0x800011e4: 10 07 07 13 addi	a4, a4, 256
è¯»å–åœ°å€ 0x800011e8
0x800011e8: 01 07 17 13 slli	a4, a4, 16
è¯»å–åœ°å€ 0x800011ec
å†™å…¥åœ°å€ 0x8000329e
0x800011ec: 00 f5 91 23 sh	a5, 2(a1)
è¯»å–åœ°å€ 0x800011f0
0x800011f0: 00 08 03 13 addi	t1, a6, 0
è¯»å–åœ°å€ 0x800011f4
0x800011f4: 00 16 86 93 addi	a3, a3, 1
è¯»å–åœ°å€ 0x800011f8
0x800011f8: 01 07 57 13 srli	a4, a4, 16
è¯»å–åœ°å€ 0x800011fc
0x800011fc: fc 08 90 e3 bne	a7, zero, 0x800011bc
è¯»å–åœ°å€ 0x800011bc
0x800011bc: 00 08 88 13 addi	a6, a7, 0
è¯»å–åœ°å€ 0x800011c0
0x800011c0: 00 d6 45 b3 xor	a1, a2, a3
è¯»å–åœ°å€ 0x800011c4
0x800011c4: 70 07 77 93 andi	a5, a4, 1792
è¯»å–åœ°å€ 0x800011c8
0x800011c8: 00 b7 e7 b3 or	a5, a5, a1
è¯»å–åœ°å€ 0x800011cc
0x800011cc: 01 d7 f7 b3 and	a5, a5, t4
è¯»å–åœ°å€ 0x800011d0
è¯»å–åœ°å€ 0x800031c4
0x800011d0: 00 43 25 83 lw	a1, 4(t1)
è¯»å–åœ°å€ 0x800011d4
0x800011d4: fd c6 e0 e3 bltu	a3, t3, 0x80001194
è¯»å–åœ°å€ 0x800011d8
è¯»å–åœ°å€ 0x800031b8
0x800011d8: 00 08 28 83 lw	a7, 0(a6)
è¯»å–åœ°å€ 0x800011dc
0x800011dc: 01 07 97 93 slli	a5, a5, 16
è¯»å–åœ°å€ 0x800011e0
0x800011e0: 41 07 d7 93 srai	a5, a5, 16
è¯»å–åœ°å€ 0x800011e4
0x800011e4: 10 07 07 13 addi	a4, a4, 256
è¯»å–åœ°å€ 0x800011e8
0x800011e8: 01 07 17 13 slli	a4, a4, 16
è¯»å–åœ°å€ 0x800011ec
å†™å…¥åœ°å€ 0x8000329a
0x800011ec: 00 f5 91 23 sh	a5, 2(a1)
è¯»å–åœ°å€ 0x800011f0
0x800011f0: 00 08 03 13 addi	t1, a6, 0
è¯»å–åœ°å€ 0x800011f4
0x800011f4: 00 16 86 93 addi	a3, a3, 1
è¯»å–åœ°å€ 0x800011f8
0x800011f8: 01 07 57 13 srli	a4, a4, 16
è¯»å–åœ°å€ 0x800011fc
0x800011fc: fc 08 90 e3 bne	a7, zero, 0x800011bc
è¯»å–åœ°å€ 0x800011bc
0x800011bc: 00 08 88 13 addi	a6, a7, 0
è¯»å–åœ°å€ 0x800011c0
0x800011c0: 00 d6 45 b3 xor	a1, a2, a3
è¯»å–åœ°å€ 0x800011c4
0x800011c4: 70 07 77 93 andi	a5, a4, 1792
è¯»å–åœ°å€ 0x800011c8
0x800011c8: 00 b7 e7 b3 or	a5, a5, a1
è¯»å–åœ°å€ 0x800011cc
0x800011cc: 01 d7 f7 b3 and	a5, a5, t4
è¯»å–åœ°å€ 0x800011d0
è¯»å–åœ°å€ 0x800031bc
0x800011d0: 00 43 25 83 lw	a1, 4(t1)
è¯»å–åœ°å€ 0x800011d4
0x800011d4: fd c6 e0 e3 bltu	a3, t3, 0x80001194
è¯»å–åœ°å€ 0x800011d8
è¯»å–åœ°å€ 0x800031b0
0x800011d8: 00 08 28 83 lw	a7, 0(a6)
è¯»å–åœ°å€ 0x800011dc
0x800011dc: 01 07 97 93 slli	a5, a5, 16
è¯»å–åœ°å€ 0x800011e0
0x800011e0: 41 07 d7 93 srai	a5, a5, 16
è¯»å–åœ°å€ 0x800011e4
0x800011e4: 10 07 07 13 addi	a4, a4, 256
è¯»å–åœ°å€ 0x800011e8
0x800011e8: 01 07 17 13 slli	a4, a4, 16
è¯»å–åœ°å€ 0x800011ec
å†™å…¥åœ°å€ 0x80003296
0x800011ec: 00 f5 91 23 sh	a5, 2(a1)
è¯»å–åœ°å€ 0x800011f0
0x800011f0: 00 08 03 13 addi	t1, a6, 0
è¯»å–åœ°å€ 0x800011f4
0x800011f4: 00 16 86 93 addi	a3, a3, 1
è¯»å–åœ°å€ 0x800011f8
0x800011f8: 01 07 57 13 srli	a4, a4, 16
è¯»å–åœ°å€ 0x800011fc
0x800011fc: fc 08 90 e3 bne	a7, zero, 0x800011bc
è¯»å–åœ°å€ 0x800011bc
0x800011bc: 00 08 88 13 addi	a6, a7, 0
è¯»å–åœ°å€ 0x800011c0
0x800011c0: 00 d6 45 b3 xor	a1, a2, a3
è¯»å–åœ°å€ 0x800011c4
0x800011c4: 70 07 77 93 andi	a5, a4, 1792
è¯»å–åœ°å€ 0x800011c8
0x800011c8: 00 b7 e7 b3 or	a5, a5, a1
è¯»å–åœ°å€ 0x800011cc
0x800011cc: 01 d7 f7 b3 and	a5, a5, t4
è¯»å–åœ°å€ 0x800011d0
è¯»å–åœ°å€ 0x800031b4
0x800011d0: 00 43 25 83 lw	a1, 4(t1)
è¯»å–åœ°å€ 0x800011d4
0x800011d4: fd c6 e0 e3 bltu	a3, t3, 0x80001194
è¯»å–åœ°å€ 0x800011d8
è¯»å–åœ°å€ 0x800031a8
0x800011d8: 00 08 28 83 lw	a7, 0(a6)
è¯»å–åœ°å€ 0x800011dc
0x800011dc: 01 07 97 93 slli	a5, a5, 16
è¯»å–åœ°å€ 0x800011e0
0x800011e0: 41 07 d7 93 srai	a5, a5, 16
è¯»å–åœ°å€ 0x800011e4
0x800011e4: 10 07 07 13 addi	a4, a4, 256
è¯»å–åœ°å€ 0x800011e8
0x800011e8: 01 07 17 13 slli	a4, a4, 16
è¯»å–åœ°å€ 0x800011ec
å†™å…¥åœ°å€ 0x80003292
0x800011ec: 00 f5 91 23 sh	a5, 2(a1)
è¯»å–åœ°å€ 0x800011f0
0x800011f0: 00 08 03 13 addi	t1, a6, 0
è¯»å–åœ°å€ 0x800011f4
0x800011f4: 00 16 86 93 addi	a3, a3, 1
è¯»å–åœ°å€ 0x800011f8
0x800011f8: 01 07 57 13 srli	a4, a4, 16
è¯»å–åœ°å€ 0x800011fc
0x800011fc: fc 08 90 e3 bne	a7, zero, 0x800011bc
è¯»å–åœ°å€ 0x800011bc
0x800011bc: 00 08 88 13 addi	a6, a7, 0
è¯»å–åœ°å€ 0x800011c0
0x800011c0: 00 d6 45 b3 xor	a1, a2, a3
è¯»å–åœ°å€ 0x800011c4
0x800011c4: 70 07 77 93 andi	a5, a4, 1792
è¯»å–åœ°å€ 0x800011c8
0x800011c8: 00 b7 e7 b3 or	a5, a5, a1
è¯»å–åœ°å€ 0x800011cc
0x800011cc: 01 d7 f7 b3 and	a5, a5, t4
è¯»å–åœ°å€ 0x800011d0
è¯»å–åœ°å€ 0x800031ac
0x800011d0: 00 43 25 83 lw	a1, 4(t1)
è¯»å–åœ°å€ 0x800011d4
0x800011d4: fd c6 e0 e3 bltu	a3, t3, 0x80001194
è¯»å–åœ°å€ 0x800011d8
è¯»å–åœ°å€ 0x800031a0
0x800011d8: 00 08 28 83 lw	a7, 0(a6)
è¯»å–åœ°å€ 0x800011dc
0x800011dc: 01 07 97 93 slli	a5, a5, 16
è¯»å–åœ°å€ 0x800011e0
0x800011e0: 41 07 d7 93 srai	a5, a5, 16
è¯»å–åœ°å€ 0x800011e4
0x800011e4: 10 07 07 13 addi	a4, a4, 256
è¯»å–åœ°å€ 0x800011e8
0x800011e8: 01 07 17 13 slli	a4, a4, 16
è¯»å–åœ°å€ 0x800011ec
å†™å…¥åœ°å€ 0x8000328e
0x800011ec: 00 f5 91 23 sh	a5, 2(a1)
è¯»å–åœ°å€ 0x800011f0
0x800011f0: 00 08 03 13 addi	t1, a6, 0
è¯»å–åœ°å€ 0x800011f4
0x800011f4: 00 16 86 93 addi	a3, a3, 1
è¯»å–åœ°å€ 0x800011f8
0x800011f8: 01 07 57 13 srli	a4, a4, 16
è¯»å–åœ°å€ 0x800011fc
0x800011fc: fc 08 90 e3 bne	a7, zero, 0x800011bc
è¯»å–åœ°å€ 0x800011bc
0x800011bc: 00 08 88 13 addi	a6, a7, 0
è¯»å–åœ°å€ 0x800011c0
0x800011c0: 00 d6 45 b3 xor	a1, a2, a3
è¯»å–åœ°å€ 0x800011c4
0x800011c4: 70 07 77 93 andi	a5, a4, 1792
è¯»å–åœ°å€ 0x800011c8
0x800011c8: 00 b7 e7 b3 or	a5, a5, a1
è¯»å–åœ°å€ 0x800011cc
0x800011cc: 01 d7 f7 b3 and	a5, a5, t4
è¯»å–åœ°å€ 0x800011d0
è¯»å–åœ°å€ 0x800031a4
0x800011d0: 00 43 25 83 lw	a1, 4(t1)
è¯»å–åœ°å€ 0x800011d4
0x800011d4: fd c6 e0 e3 bltu	a3, t3, 0x80001194
è¯»å–åœ°å€ 0x800011d8
è¯»å–åœ°å€ 0x80003198
0x800011d8: 00 08 28 83 lw	a7, 0(a6)
è¯»å–åœ°å€ 0x800011dc
0x800011dc: 01 07 97 93 slli	a5, a5, 16
è¯»å–åœ°å€ 0x800011e0
0x800011e0: 41 07 d7 93 srai	a5, a5, 16
è¯»å–åœ°å€ 0x800011e4
0x800011e4: 10 07 07 13 addi	a4, a4, 256
è¯»å–åœ°å€ 0x800011e8
0x800011e8: 01 07 17 13 slli	a4, a4, 16
è¯»å–åœ°å€ 0x800011ec
å†™å…¥åœ°å€ 0x8000328a
0x800011ec: 00 f5 91 23 sh	a5, 2(a1)
è¯»å–åœ°å€ 0x800011f0
0x800011f0: 00 08 03 13 addi	t1, a6, 0
è¯»å–åœ°å€ 0x800011f4
0x800011f4: 00 16 86 93 addi	a3, a3, 1
è¯»å–åœ°å€ 0x800011f8
0x800011f8: 01 07 57 13 srli	a4, a4, 16
è¯»å–åœ°å€ 0x800011fc
0x800011fc: fc 08 90 e3 bne	a7, zero, 0x800011bc
è¯»å–åœ°å€ 0x800011bc
0x800011bc: 00 08 88 13 addi	a6, a7, 0
è¯»å–åœ°å€ 0x800011c0
0x800011c0: 00 d6 45 b3 xor	a1, a2, a3
è¯»å–åœ°å€ 0x800011c4
0x800011c4: 70 07 77 93 andi	a5, a4, 1792
è¯»å–åœ°å€ 0x800011c8
0x800011c8: 00 b7 e7 b3 or	a5, a5, a1
è¯»å–åœ°å€ 0x800011cc
0x800011cc: 01 d7 f7 b3 and	a5, a5, t4
è¯»å–åœ°å€ 0x800011d0
è¯»å–åœ°å€ 0x8000319c
0x800011d0: 00 43 25 83 lw	a1, 4(t1)
è¯»å–åœ°å€ 0x800011d4
0x800011d4: fd c6 e0 e3 bltu	a3, t3, 0x80001194
è¯»å–åœ°å€ 0x800011d8
è¯»å–åœ°å€ 0x80003190
0x800011d8: 00 08 28 83 lw	a7, 0(a6)
è¯»å–åœ°å€ 0x800011dc
0x800011dc: 01 07 97 93 slli	a5, a5, 16
è¯»å–åœ°å€ 0x800011e0
0x800011e0: 41 07 d7 93 srai	a5, a5, 16
è¯»å–åœ°å€ 0x800011e4
0x800011e4: 10 07 07 13 addi	a4, a4, 256
è¯»å–åœ°å€ 0x800011e8
0x800011e8: 01 07 17 13 slli	a4, a4, 16
è¯»å–åœ°å€ 0x800011ec
å†™å…¥åœ°å€ 0x80003286
0x800011ec: 00 f5 91 23 sh	a5, 2(a1)
è¯»å–åœ°å€ 0x800011f0
0x800011f0: 00 08 03 13 addi	t1, a6, 0
è¯»å–åœ°å€ 0x800011f4
0x800011f4: 00 16 86 93 addi	a3, a3, 1
è¯»å–åœ°å€ 0x800011f8
0x800011f8: 01 07 57 13 srli	a4, a4, 16
è¯»å–åœ°å€ 0x800011fc
0x800011fc: fc 08 90 e3 bne	a7, zero, 0x800011bc
è¯»å–åœ°å€ 0x800011bc
0x800011bc: 00 08 88 13 addi	a6, a7, 0
è¯»å–åœ°å€ 0x800011c0
0x800011c0: 00 d6 45 b3 xor	a1, a2, a3
è¯»å–åœ°å€ 0x800011c4
0x800011c4: 70 07 77 93 andi	a5, a4, 1792
è¯»å–åœ°å€ 0x800011c8
0x800011c8: 00 b7 e7 b3 or	a5, a5, a1
è¯»å–åœ°å€ 0x800011cc
0x800011cc: 01 d7 f7 b3 and	a5, a5, t4
è¯»å–åœ°å€ 0x800011d0
è¯»å–åœ°å€ 0x80003194
0x800011d0: 00 43 25 83 lw	a1, 4(t1)
è¯»å–åœ°å€ 0x800011d4
0x800011d4: fd c6 e0 e3 bltu	a3, t3, 0x80001194
è¯»å–åœ°å€ 0x800011d8
è¯»å–åœ°å€ 0x80003188
0x800011d8: 00 08 28 83 lw	a7, 0(a6)
è¯»å–åœ°å€ 0x800011dc
0x800011dc: 01 07 97 93 slli	a5, a5, 16
è¯»å–åœ°å€ 0x800011e0
0x800011e0: 41 07 d7 93 srai	a5, a5, 16
è¯»å–åœ°å€ 0x800011e4
0x800011e4: 10 07 07 13 addi	a4, a4, 256
è¯»å–åœ°å€ 0x800011e8
0x800011e8: 01 07 17 13 slli	a4, a4, 16
è¯»å–åœ°å€ 0x800011ec
å†™å…¥åœ°å€ 0x80003282
0x800011ec: 00 f5 91 23 sh	a5, 2(a1)
è¯»å–åœ°å€ 0x800011f0
0x800011f0: 00 08 03 13 addi	t1, a6, 0
è¯»å–åœ°å€ 0x800011f4
0x800011f4: 00 16 86 93 addi	a3, a3, 1
è¯»å–åœ°å€ 0x800011f8
0x800011f8: 01 07 57 13 srli	a4, a4, 16
è¯»å–åœ°å€ 0x800011fc
0x800011fc: fc 08 90 e3 bne	a7, zero, 0x800011bc
è¯»å–åœ°å€ 0x80001200
0x80001200: 80 00 15 b7 lui	a1, 524289
è¯»å–åœ°å€ 0x80001204
0x80001204: 00 00 06 13 addi	a2, zero, 0
è¯»å–åœ°å€ 0x80001208
0x80001208: ad c5 85 93 addi	a1, a1, -1316
è¯»å–åœ°å€ 0x8000120c
0x8000120c: aa df f0 6f jal	zero, 0x80000cb8
è¯»å–åœ°å€ 0x80000cb8
0x80000cb8: fd 01 01 13 addi	sp, sp, -48
è¯»å–åœ°å€ 0x80000cbc
å†™å…¥åœ°å€ 0x8000bf44
0x80000cbc: 02 91 22 23 sw	s1, 36(sp)
è¯»å–åœ°å€ 0x80000cc0
å†™å…¥åœ°å€ 0x8000bf34
0x80000cc0: 01 51 2a 23 sw	s5, 20(sp)
è¯»å–åœ°å€ 0x80000cc4
å†™å…¥åœ°å€ 0x8000bf2c
0x80000cc4: 01 71 26 23 sw	s7, 12(sp)
è¯»å–åœ°å€ 0x80000cc8
å†™å…¥åœ°å€ 0x8000bf24
0x80000cc8: 01 91 22 23 sw	s9, 4(sp)
è¯»å–åœ°å€ 0x80000ccc
å†™å…¥åœ°å€ 0x8000bf20
0x80000ccc: 01 a1 20 23 sw	s10, 0(sp)
è¯»å–åœ°å€ 0x80000cd0
å†™å…¥åœ°å€ 0x8000bf4c
0x80000cd0: 02 11 26 23 sw	ra, 44(sp)
è¯»å–åœ°å€ 0x80000cd4
å†™å…¥åœ°å€ 0x8000bf48
0x80000cd4: 02 81 24 23 sw	s0, 40(sp)
è¯»å–åœ°å€ 0x80000cd8
å†™å…¥åœ°å€ 0x8000bf40
0x80000cd8: 03 21 20 23 sw	s2, 32(sp)
è¯»å–åœ°å€ 0x80000cdc
å†™å…¥åœ°å€ 0x8000bf3c
0x80000cdc: 01 31 2e 23 sw	s3, 28(sp)
è¯»å–åœ°å€ 0x80000ce0
å†™å…¥åœ°å€ 0x8000bf38
0x80000ce0: 01 41 2c 23 sw	s4, 24(sp)
è¯»å–åœ°å€ 0x80000ce4
å†™å…¥åœ°å€ 0x8000bf30
0x80000ce4: 01 61 28 23 sw	s6, 16(sp)
è¯»å–åœ°å€ 0x80000ce8
å†™å…¥åœ°å€ 0x8000bf28
0x80000ce8: 01 81 24 23 sw	s8, 8(sp)
è¯»å–åœ°å€ 0x80000cec
0x80000cec: 00 05 04 93 addi	s1, a0, 0
è¯»å–åœ°å€ 0x80000cf0
0x80000cf0: 00 05 8b 93 addi	s7, a1, 0
è¯»å–åœ°å€ 0x80000cf4
0x80000cf4: 00 06 0d 13 addi	s10, a2, 0
è¯»å–åœ°å€ 0x80000cf8
0x80000cf8: 00 10 0a 93 addi	s5, zero, 1
è¯»å–åœ°å€ 0x80000cfc
0x80000cfc: 00 10 0c 93 addi	s9, zero, 1
è¯»å–åœ°å€ 0x80000d00
0x80000d00: 0c 04 80 63 beq	s1, zero, 0x80000dc0
è¯»å–åœ°å€ 0x80000d04
0x80000d04: 00 00 0c 13 addi	s8, zero, 0
è¯»å–åœ°å€ 0x80000d08
0x80000d08: 00 00 09 13 addi	s2, zero, 0
è¯»å–åœ°å€ 0x80000d0c
0x80000d0c: 00 00 0b 13 addi	s6, zero, 0
è¯»å–åœ°å€ 0x80000d10
0x80000d10: 00 1c 0c 13 addi	s8, s8, 1
è¯»å–åœ°å€ 0x80000d14
0x80000d14: 00 04 87 93 addi	a5, s1, 0
è¯»å–åœ°å€ 0x80000d18
0x80000d18: 00 00 04 13 addi	s0, zero, 0
è¯»å–åœ°å€ 0x80000d1c
è¯»å–åœ°å€ 0x80003180
0x80000d1c: 00 07 a7 83 lw	a5, 0(a5)
è¯»å–åœ°å€ 0x80000d20
0x80000d20: 00 14 04 13 addi	s0, s0, 1
è¯»å–åœ°å€ 0x80000d24
0x80000d24: 00 07 84 63 beq	a5, zero, 0x80000d2c
è¯»å–åœ°å€ 0x80000d28
0x80000d28: fe 8a 9a e3 bne	s5, s0, 0x80000d1c
è¯»å–åœ°å€ 0x80000d2c
0x80000d2c: 00 04 8a 13 addi	s4, s1, 0
è¯»å–åœ°å€ 0x80000d30
0x80000d30: 00 0a 89 93 addi	s3, s5, 0
è¯»å–åœ°å€ 0x80000d34
0x80000d34: 00 07 84 93 addi	s1, a5, 0
è¯»å–åœ°å€ 0x80000d38
0x80000d38: 02 04 0e 63 beq	s0, zero, 0x80000d74
è¯»å–åœ°å€ 0x80000d3c
0x80000d3c: 04 09 8e 63 beq	s3, zero, 0x80000d98
è¯»å–åœ°å€ 0x80000d40
0x80000d40: 04 04 8c 63 beq	s1, zero, 0x80000d98
è¯»å–åœ°å€ 0x80000d44
è¯»å–åœ°å€ 0x8000326c
0x80000d44: 00 44 a5 83 lw	a1, 4(s1)
è¯»å–åœ°å€ 0x80000d48
è¯»å–åœ°å€ 0x80003184
0x80000d48: 00 4a 25 03 lw	a0, 4(s4)
è¯»å–åœ°å€ 0x80000d4c
0x80000d4c: 00 0d 06 13 addi	a2, s10, 0
è¯»å–åœ°å€ 0x80000d50
0x80000d50: 00 0b 80 e7 jalr	ra, 0(s7)
è¯»å–åœ°å€ 0x80000adc
0x80000adc: 00 06 0a 63 beq	a2, zero, 0x80000af0
è¯»å–åœ°å€ 0x80000af0
è¯»å–åœ°å€ 0x80003278
0x80000af0: 00 05 17 83 lh	a5, 0(a0)
è¯»å–åœ°å€ 0x80000af4
0x80000af4: 01 07 97 13 slli	a4, a5, 16
è¯»å–åœ°å€ 0x80000af8
0x80000af8: 01 07 57 13 srli	a4, a4, 16
è¯»å–åœ°å€ 0x80000afc
0x80000afc: 00 87 57 13 srli	a4, a4, 8
è¯»å–åœ°å€ 0x80000b00
0x80000b00: f0 07 f7 93 andi	a5, a5, -256
è¯»å–åœ°å€ 0x80000b04
0x80000b04: 00 e7 e7 b3 or	a5, a5, a4
è¯»å–åœ°å€ 0x80000b08
å†™å…¥åœ°å€ 0x80003278
0x80000b08: 00 f5 10 23 sh	a5, 0(a0)
è¯»å–åœ°å€ 0x80000b0c
è¯»å–åœ°å€ 0x800032ec
0x80000b0c: 00 05 97 83 lh	a5, 0(a1)
è¯»å–åœ°å€ 0x80000b10
è¯»å–åœ°å€ 0x8000327a
0x80000b10: 00 25 15 03 lh	a0, 2(a0)
è¯»å–åœ°å€ 0x80000b14
0x80000b14: 01 07 97 13 slli	a4, a5, 16
è¯»å–åœ°å€ 0x80000b18
0x80000b18: 01 07 57 13 srli	a4, a4, 16
è¯»å–åœ°å€ 0x80000b1c
0x80000b1c: 00 87 57 13 srli	a4, a4, 8
è¯»å–åœ°å€ 0x80000b20
0x80000b20: f0 07 f7 93 andi	a5, a5, -256
è¯»å–åœ°å€ 0x80000b24
0x80000b24: 00 e7 e7 b3 or	a5, a5, a4
è¯»å–åœ°å€ 0x80000b28
å†™å…¥åœ°å€ 0x800032ec
0x80000b28: 00 f5 90 23 sh	a5, 0(a1)
è¯»å–åœ°å€ 0x80000b2c
è¯»å–åœ°å€ 0x800032ee
0x80000b2c: 00 25 97 83 lh	a5, 2(a1)
è¯»å–åœ°å€ 0x80000b30
0x80000b30: 40 f5 05 33 sub	a0, a0, a5
è¯»å–åœ°å€ 0x80000b34
0x80000b34: 00 00 80 67 jalr	zero, 0(ra)
è¯»å–åœ°å€ 0x80000d54
0x80000d54: 04 a0 52 63 bge	zero, a0, 0x80000d98
è¯»å–åœ°å€ 0x80000d98
0x80000d98: 00 0a 07 93 addi	a5, s4, 0
è¯»å–åœ°å€ 0x80000d9c
0x80000d9c: ff f4 04 13 addi	s0, s0, -1
è¯»å–åœ°å€ 0x80000da0
è¯»å–åœ°å€ 0x80003180
0x80000da0: 00 0a 2a 03 lw	s4, 0(s4)
è¯»å–åœ°å€ 0x80000da4
0x80000da4: fc 1f f0 6f jal	zero, 0x80000d64
è¯»å–åœ°å€ 0x80000d64
0x80000d64: 02 09 04 63 beq	s2, zero, 0x80000d8c
è¯»å–åœ°å€ 0x80000d8c
0x80000d8c: 00 07 8b 13 addi	s6, a5, 0
è¯»å–åœ°å€ 0x80000d90
0x80000d90: 00 07 89 13 addi	s2, a5, 0
è¯»å–åœ°å€ 0x80000d94
0x80000d94: fd df f0 6f jal	zero, 0x80000d70
è¯»å–åœ°å€ 0x80000d70
0x80000d70: fc 04 16 e3 bne	s0, zero, 0x80000d3c
è¯»å–åœ°å€ 0x80000d74
0x80000d74: 02 09 8a 63 beq	s3, zero, 0x80000da8
è¯»å–åœ°å€ 0x80000d78
0x80000d78: 02 04 8a 63 beq	s1, zero, 0x80000dac
è¯»å–åœ°å€ 0x80000d7c
0x80000d7c: 00 04 87 93 addi	a5, s1, 0
è¯»å–åœ°å€ 0x80000d80
0x80000d80: ff f9 89 93 addi	s3, s3, -1
è¯»å–åœ°å€ 0x80000d84
è¯»å–åœ°å€ 0x80003268
0x80000d84: 00 04 a4 83 lw	s1, 0(s1)
è¯»å–åœ°å€ 0x80000d88
0x80000d88: fe 09 10 e3 bne	s2, zero, 0x80000d68
è¯»å–åœ°å€ 0x80000d68
å†™å…¥åœ°å€ 0x80003180
0x80000d68: 00 f9 20 23 sw	a5, 0(s2)
è¯»å–åœ°å€ 0x80000d6c
0x80000d6c: 00 07 89 13 addi	s2, a5, 0
è¯»å–åœ°å€ 0x80000d70
0x80000d70: fc 04 16 e3 bne	s0, zero, 0x80000d3c
è¯»å–åœ°å€ 0x80000d74
0x80000d74: 02 09 8a 63 beq	s3, zero, 0x80000da8
è¯»å–åœ°å€ 0x80000da8
0x80000da8: f6 04 94 e3 bne	s1, zero, 0x80000d10
è¯»å–åœ°å€ 0x80000d10
0x80000d10: 00 1c 0c 13 addi	s8, s8, 1
è¯»å–åœ°å€ 0x80000d14
0x80000d14: 00 04 87 93 addi	a5, s1, 0
è¯»å–åœ°å€ 0x80000d18
0x80000d18: 00 00 04 13 addi	s0, zero, 0
è¯»å–åœ°å€ 0x80000d1c
è¯»å–åœ°å€ 0x80003260
0x80000d1c: 00 07 a7 83 lw	a5, 0(a5)
è¯»å–åœ°å€ 0x80000d20
0x80000d20: 00 14 04 13 addi	s0, s0, 1
è¯»å–åœ°å€ 0x80000d24
0x80000d24: 00 07 84 63 beq	a5, zero, 0x80000d2c
è¯»å–åœ°å€ 0x80000d28
0x80000d28: fe 8a 9a e3 bne	s5, s0, 0x80000d1c
è¯»å–åœ°å€ 0x80000d2c
0x80000d2c: 00 04 8a 13 addi	s4, s1, 0
è¯»å–åœ°å€ 0x80000d30
0x80000d30: 00 0a 89 93 addi	s3, s5, 0
è¯»å–åœ°å€ 0x80000d34
0x80000d34: 00 07 84 93 addi	s1, a5, 0
è¯»å–åœ°å€ 0x80000d38
0x80000d38: 02 04 0e 63 beq	s0, zero, 0x80000d74
è¯»å–åœ°å€ 0x80000d3c
0x80000d3c: 04 09 8e 63 beq	s3, zero, 0x80000d98
è¯»å–åœ°å€ 0x80000d40
0x80000d40: 04 04 8c 63 beq	s1, zero, 0x80000d98
è¯»å–åœ°å€ 0x80000d44
è¯»å–åœ°å€ 0x8000325c
0x80000d44: 00 44 a5 83 lw	a1, 4(s1)
è¯»å–åœ°å€ 0x80000d48
è¯»å–åœ°å€ 0x80003264
0x80000d48: 00 4a 25 03 lw	a0, 4(s4)
è¯»å–åœ°å€ 0x80000d4c
0x80000d4c: 00 0d 06 13 addi	a2, s10, 0
è¯»å–åœ°å€ 0x80000d50
0x80000d50: 00 0b 80 e7 jalr	ra, 0(s7)
è¯»å–åœ°å€ 0x80000adc
0x80000adc: 00 06 0a 63 beq	a2, zero, 0x80000af0
è¯»å–åœ°å€ 0x80000af0
è¯»å–åœ°å€ 0x800032e8
0x80000af0: 00 05 17 83 lh	a5, 0(a0)
è¯»å–åœ°å€ 0x80000af4
0x80000af4: 01 07 97 13 slli	a4, a5, 16
è¯»å–åœ°å€ 0x80000af8
0x80000af8: 01 07 57 13 srli	a4, a4, 16
è¯»å–åœ°å€ 0x80000afc
0x80000afc: 00 87 57 13 srli	a4, a4, 8
è¯»å–åœ°å€ 0x80000b00
0x80000b00: f0 07 f7 93 andi	a5, a5, -256
è¯»å–åœ°å€ 0x80000b04
0x80000b04: 00 e7 e7 b3 or	a5, a5, a4
è¯»å–åœ°å€ 0x80000b08
å†™å…¥åœ°å€ 0x800032e8
0x80000b08: 00 f5 10 23 sh	a5, 0(a0)
è¯»å–åœ°å€ 0x80000b0c
è¯»å–åœ°å€ 0x800032e4
0x80000b0c: 00 05 97 83 lh	a5, 0(a1)
è¯»å–åœ°å€ 0x80000b10
è¯»å–åœ°å€ 0x800032ea
0x80000b10: 00 25 15 03 lh	a0, 2(a0)
è¯»å–åœ°å€ 0x80000b14
0x80000b14: 01 07 97 13 slli	a4, a5, 16
è¯»å–åœ°å€ 0x80000b18
0x80000b18: 01 07 57 13 srli	a4, a4, 16
è¯»å–åœ°å€ 0x80000b1c
0x80000b1c: 00 87 57 13 srli	a4, a4, 8
è¯»å–åœ°å€ 0x80000b20
0x80000b20: f0 07 f7 93 andi	a5, a5, -256
è¯»å–åœ°å€ 0x80000b24
0x80000b24: 00 e7 e7 b3 or	a5, a5, a4
è¯»å–åœ°å€ 0x80000b28
å†™å…¥åœ°å€ 0x800032e4
0x80000b28: 00 f5 90 23 sh	a5, 0(a1)
è¯»å–åœ°å€ 0x80000b2c
è¯»å–åœ°å€ 0x800032e6
0x80000b2c: 00 25 97 83 lh	a5, 2(a1)
è¯»å–åœ°å€ 0x80000b30
0x80000b30: 40 f5 05 33 sub	a0, a0, a5
è¯»å–åœ°å€ 0x80000b34
0x80000b34: 00 00 80 67 jalr	zero, 0(ra)
è¯»å–åœ°å€ 0x80000d54
0x80000d54: 04 a0 52 63 bge	zero, a0, 0x80000d98
è¯»å–åœ°å€ 0x80000d98
0x80000d98: 00 0a 07 93 addi	a5, s4, 0
è¯»å–åœ°å€ 0x80000d9c
0x80000d9c: ff f4 04 13 addi	s0, s0, -1
è¯»å–åœ°å€ 0x80000da0
è¯»å–åœ°å€ 0x80003260
0x80000da0: 00 0a 2a 03 lw	s4, 0(s4)
è¯»å–åœ°å€ 0x80000da4
0x80000da4: fc 1f f0 6f jal	zero, 0x80000d64
è¯»å–åœ°å€ 0x80000d64
0x80000d64: 02 09 04 63 beq	s2, zero, 0x80000d8c
è¯»å–åœ°å€ 0x80000d68
å†™å…¥åœ°å€ 0x80003268
0x80000d68: 00 f9 20 23 sw	a5, 0(s2)
è¯»å–åœ°å€ 0x80000d6c
0x80000d6c: 00 07 89 13 addi	s2, a5, 0
è¯»å–åœ°å€ 0x80000d70
0x80000d70: fc 04 16 e3 bne	s0, zero, 0x80000d3c
è¯»å–åœ°å€ 0x80000d74
0x80000d74: 02 09 8a 63 beq	s3, zero, 0x80000da8
è¯»å–åœ°å€ 0x80000d78
0x80000d78: 02 04 8a 63 beq	s1, zero, 0x80000dac
è¯»å–åœ°å€ 0x80000d7c
0x80000d7c: 00 04 87 93 addi	a5, s1, 0
è¯»å–åœ°å€ 0x80000d80
0x80000d80: ff f9 89 93 addi	s3, s3, -1
è¯»å–åœ°å€ 0x80000d84
è¯»å–åœ°å€ 0x80003258
0x80000d84: 00 04 a4 83 lw	s1, 0(s1)
è¯»å–åœ°å€ 0x80000d88
0x80000d88: fe 09 10 e3 bne	s2, zero, 0x80000d68
è¯»å–åœ°å€ 0x80000d68
å†™å…¥åœ°å€ 0x80003260
0x80000d68: 00 f9 20 23 sw	a5, 0(s2)
è¯»å–åœ°å€ 0x80000d6c
0x80000d6c: 00 07 89 13 addi	s2, a5, 0
è¯»å–åœ°å€ 0x80000d70
0x80000d70: fc 04 16 e3 bne	s0, zero, 0x80000d3c
è¯»å–åœ°å€ 0x80000d74
0x80000d74: 02 09 8a 63 beq	s3, zero, 0x80000da8
è¯»å–åœ°å€ 0x80000da8
0x80000da8: f6 04 94 e3 bne	s1, zero, 0x80000d10
è¯»å–åœ°å€ 0x80000d10
0x80000d10: 00 1c 0c 13 addi	s8, s8, 1
è¯»å–åœ°å€ 0x80000d14
0x80000d14: 00 04 87 93 addi	a5, s1, 0
è¯»å–åœ°å€ 0x80000d18
0x80000d18: 00 00 04 13 addi	s0, zero, 0
è¯»å–åœ°å€ 0x80000d1c
è¯»å–åœ°å€ 0x80003250
0x80000d1c: 00 07 a7 83 lw	a5, 0(a5)
è¯»å–åœ°å€ 0x80000d20
0x80000d20: 00 14 04 13 addi	s0, s0, 1
è¯»å–åœ°å€ 0x80000d24
0x80000d24: 00 07 84 63 beq	a5, zero, 0x80000d2c
è¯»å–åœ°å€ 0x80000d28
0x80000d28: fe 8a 9a e3 bne	s5, s0, 0x80000d1c
è¯»å–åœ°å€ 0x80000d2c
0x80000d2c: 00 04 8a 13 addi	s4, s1, 0
è¯»å–åœ°å€ 0x80000d30
0x80000d30: 00 0a 89 93 addi	s3, s5, 0
è¯»å–åœ°å€ 0x80000d34
0x80000d34: 00 07 84 93 addi	s1, a5, 0
è¯»å–åœ°å€ 0x80000d38
0x80000d38: 02 04 0e 63 beq	s0, zero, 0x80000d74
è¯»å–åœ°å€ 0x80000d3c
0x80000d3c: 04 09 8e 63 beq	s3, zero, 0x80000d98
è¯»å–åœ°å€ 0x80000d40
0x80000d40: 04 04 8c 63 beq	s1, zero, 0x80000d98
è¯»å–åœ°å€ 0x80000d44
è¯»å–åœ°å€ 0x8000324c
0x80000d44: 00 44 a5 83 lw	a1, 4(s1)
è¯»å–åœ°å€ 0x80000d48
è¯»å–åœ°å€ 0x80003254
0x80000d48: 00 4a 25 03 lw	a0, 4(s4)
è¯»å–åœ°å€ 0x80000d4c
0x80000d4c: 00 0d 06 13 addi	a2, s10, 0
è¯»å–åœ°å€ 0x80000d50
0x80000d50: 00 0b 80 e7 jalr	ra, 0(s7)
è¯»å–åœ°å€ 0x80000adc
0x80000adc: 00 06 0a 63 beq	a2, zero, 0x80000af0
è¯»å–åœ°å€ 0x80000af0
è¯»å–åœ°å€ 0x800032e0
0x80000af0: 00 05 17 83 lh	a5, 0(a0)
è¯»å–åœ°å€ 0x80000af4
0x80000af4: 01 07 97 13 slli	a4, a5, 16
è¯»å–åœ°å€ 0x80000af8
0x80000af8: 01 07 57 13 srli	a4, a4, 16
è¯»å–åœ°å€ 0x80000afc
0x80000afc: 00 87 57 13 srli	a4, a4, 8
è¯»å–åœ°å€ 0x80000b00
0x80000b00: f0 07 f7 93 andi	a5, a5, -256
è¯»å–åœ°å€ 0x80000b04
0x80000b04: 00 e7 e7 b3 or	a5, a5, a4
è¯»å–åœ°å€ 0x80000b08
å†™å…¥åœ°å€ 0x800032e0
0x80000b08: 00 f5 10 23 sh	a5, 0(a0)
è¯»å–åœ°å€ 0x80000b0c
è¯»å–åœ°å€ 0x800032dc
0x80000b0c: 00 05 97 83 lh	a5, 0(a1)
è¯»å–åœ°å€ 0x80000b10
è¯»å–åœ°å€ 0x800032e2
0x80000b10: 00 25 15 03 lh	a0, 2(a0)
è¯»å–åœ°å€ 0x80000b14
0x80000b14: 01 07 97 13 slli	a4, a5, 16
è¯»å–åœ°å€ 0x80000b18
0x80000b18: 01 07 57 13 srli	a4, a4, 16
è¯»å–åœ°å€ 0x80000b1c
0x80000b1c: 00 87 57 13 srli	a4, a4, 8
è¯»å–åœ°å€ 0x80000b20
0x80000b20: f0 07 f7 93 andi	a5, a5, -256
è¯»å–åœ°å€ 0x80000b24
0x80000b24: 00 e7 e7 b3 or	a5, a5, a4
è¯»å–åœ°å€ 0x80000b28
å†™å…¥åœ°å€ 0x800032dc
0x80000b28: 00 f5 90 23 sh	a5, 0(a1)
è¯»å–åœ°å€ 0x80000b2c
è¯»å–åœ°å€ 0x800032de
0x80000b2c: 00 25 97 83 lh	a5, 2(a1)
è¯»å–åœ°å€ 0x80000b30
0x80000b30: 40 f5 05 33 sub	a0, a0, a5
è¯»å–åœ°å€ 0x80000b34
0x80000b34: 00 00 80 67 jalr	zero, 0(ra)
è¯»å–åœ°å€ 0x80000d54
0x80000d54: 04 a0 52 63 bge	zero, a0, 0x80000d98
è¯»å–åœ°å€ 0x80000d98
0x80000d98: 00 0a 07 93 addi	a5, s4, 0
è¯»å–åœ°å€ 0x80000d9c
0x80000d9c: ff f4 04 13 addi	s0, s0, -1
è¯»å–åœ°å€ 0x80000da0
è¯»å–åœ°å€ 0x80003250
0x80000da0: 00 0a 2a 03 lw	s4, 0(s4)
è¯»å–åœ°å€ 0x80000da4
0x80000da4: fc 1f f0 6f jal	zero, 0x80000d64
è¯»å–åœ°å€ 0x80000d64
0x80000d64: 02 09 04 63 beq	s2, zero, 0x80000d8c
è¯»å–åœ°å€ 0x80000d68
å†™å…¥åœ°å€ 0x80003258
0x80000d68: 00 f9 20 23 sw	a5, 0(s2)
è¯»å–åœ°å€ 0x80000d6c
0x80000d6c: 00 07 89 13 addi	s2, a5, 0
è¯»å–åœ°å€ 0x80000d70
0x80000d70: fc 04 16 e3 bne	s0, zero, 0x80000d3c
è¯»å–åœ°å€ 0x80000d74
0x80000d74: 02 09 8a 63 beq	s3, zero, 0x80000da8
è¯»å–åœ°å€ 0x80000d78
0x80000d78: 02 04 8a 63 beq	s1, zero, 0x80000dac
è¯»å–åœ°å€ 0x80000d7c
0x80000d7c: 00 04 87 93 addi	a5, s1, 0
è¯»å–åœ°å€ 0x80000d80
0x80000d80: ff f9 89 93 addi	s3, s3, -1
è¯»å–åœ°å€ 0x80000d84
è¯»å–åœ°å€ 0x80003248
0x80000d84: 00 04 a4 83 lw	s1, 0(s1)
è¯»å–åœ°å€ 0x80000d88
0x80000d88: fe 09 10 e3 bne	s2, zero, 0x80000d68
è¯»å–åœ°å€ 0x80000d68
å†™å…¥åœ°å€ 0x80003250
0x80000d68: 00 f9 20 23 sw	a5, 0(s2)
è¯»å–åœ°å€ 0x80000d6c
0x80000d6c: 00 07 89 13 addi	s2, a5, 0
è¯»å–åœ°å€ 0x80000d70
0x80000d70: fc 04 16 e3 bne	s0, zero, 0x80000d3c
è¯»å–åœ°å€ 0x80000d74
0x80000d74: 02 09 8a 63 beq	s3, zero, 0x80000da8
è¯»å–åœ°å€ 0x80000da8
0x80000da8: f6 04 94 e3 bne	s1, zero, 0x80000d10
è¯»å–åœ°å€ 0x80000d10
0x80000d10: 00 1c 0c 13 addi	s8, s8, 1
è¯»å–åœ°å€ 0x80000d14
0x80000d14: 00 04 87 93 addi	a5, s1, 0
è¯»å–åœ°å€ 0x80000d18
0x80000d18: 00 00 04 13 addi	s0, zero, 0
è¯»å–åœ°å€ 0x80000d1c
è¯»å–åœ°å€ 0x80003240
0x80000d1c: 00 07 a7 83 lw	a5, 0(a5)
è¯»å–åœ°å€ 0x80000d20
0x80000d20: 00 14 04 13 addi	s0, s0, 1
è¯»å–åœ°å€ 0x80000d24
0x80000d24: 00 07 84 63 beq	a5, zero, 0x80000d2c
è¯»å–åœ°å€ 0x80000d28
0x80000d28: fe 8a 9a e3 bne	s5, s0, 0x80000d1c
è¯»å–åœ°å€ 0x80000d2c
0x80000d2c: 00 04 8a 13 addi	s4, s1, 0
è¯»å–åœ°å€ 0x80000d30
0x80000d30: 00 0a 89 93 addi	s3, s5, 0
è¯»å–åœ°å€ 0x80000d34
0x80000d34: 00 07 84 93 addi	s1, a5, 0
è¯»å–åœ°å€ 0x80000d38
0x80000d38: 02 04 0e 63 beq	s0, zero, 0x80000d74
è¯»å–åœ°å€ 0x80000d3c
0x80000d3c: 04 09 8e 63 beq	s3, zero, 0x80000d98
è¯»å–åœ°å€ 0x80000d40
0x80000d40: 04 04 8c 63 beq	s1, zero, 0x80000d98
è¯»å–åœ°å€ 0x80000d44
è¯»å–åœ°å€ 0x8000323c
0x80000d44: 00 44 a5 83 lw	a1, 4(s1)
è¯»å–åœ°å€ 0x80000d48
è¯»å–åœ°å€ 0x80003244
0x80000d48: 00 4a 25 03 lw	a0, 4(s4)
è¯»å–åœ°å€ 0x80000d4c
0x80000d4c: 00 0d 06 13 addi	a2, s10, 0
è¯»å–åœ°å€ 0x80000d50
0x80000d50: 00 0b 80 e7 jalr	ra, 0(s7)
è¯»å–åœ°å€ 0x80000adc
0x80000adc: 00 06 0a 63 beq	a2, zero, 0x80000af0
è¯»å–åœ°å€ 0x80000af0
è¯»å–åœ°å€ 0x800032d8
0x80000af0: 00 05 17 83 lh	a5, 0(a0)
è¯»å–åœ°å€ 0x80000af4
0x80000af4: 01 07 97 13 slli	a4, a5, 16
è¯»å–åœ°å€ 0x80000af8
0x80000af8: 01 07 57 13 srli	a4, a4, 16
è¯»å–åœ°å€ 0x80000afc
0x80000afc: 00 87 57 13 srli	a4, a4, 8
è¯»å–åœ°å€ 0x80000b00
0x80000b00: f0 07 f7 93 andi	a5, a5, -256
è¯»å–åœ°å€ 0x80000b04
0x80000b04: 00 e7 e7 b3 or	a5, a5, a4
è¯»å–åœ°å€ 0x80000b08
å†™å…¥åœ°å€ 0x800032d8
0x80000b08: 00 f5 10 23 sh	a5, 0(a0)
è¯»å–åœ°å€ 0x80000b0c
è¯»å–åœ°å€ 0x800032d4
0x80000b0c: 00 05 97 83 lh	a5, 0(a1)
è¯»å–åœ°å€ 0x80000b10
è¯»å–åœ°å€ 0x800032da
0x80000b10: 00 25 15 03 lh	a0, 2(a0)
è¯»å–åœ°å€ 0x80000b14
0x80000b14: 01 07 97 13 slli	a4, a5, 16
è¯»å–åœ°å€ 0x80000b18
0x80000b18: 01 07 57 13 srli	a4, a4, 16
è¯»å–åœ°å€ 0x80000b1c
0x80000b1c: 00 87 57 13 srli	a4, a4, 8
è¯»å–åœ°å€ 0x80000b20
0x80000b20: f0 07 f7 93 andi	a5, a5, -256
è¯»å–åœ°å€ 0x80000b24
0x80000b24: 00 e7 e7 b3 or	a5, a5, a4
è¯»å–åœ°å€ 0x80000b28
å†™å…¥åœ°å€ 0x800032d4
0x80000b28: 00 f5 90 23 sh	a5, 0(a1)
è¯»å–åœ°å€ 0x80000b2c
è¯»å–åœ°å€ 0x800032d6
0x80000b2c: 00 25 97 83 lh	a5, 2(a1)
è¯»å–åœ°å€ 0x80000b30
0x80000b30: 40 f5 05 33 sub	a0, a0, a5
è¯»å–åœ°å€ 0x80000b34
0x80000b34: 00 00 80 67 jalr	zero, 0(ra)
è¯»å–åœ°å€ 0x80000d54
0x80000d54: 04 a0 52 63 bge	zero, a0, 0x80000d98
è¯»å–åœ°å€ 0x80000d58
0x80000d58: 00 04 87 93 addi	a5, s1, 0
è¯»å–åœ°å€ 0x80000d5c
è¯»å–åœ°å€ 0x80003238
0x80000d5c: 00 04 a4 83 lw	s1, 0(s1)
è¯»å–åœ°å€ 0x80000d60
0x80000d60: ff f9 89 93 addi	s3, s3, -1
è¯»å–åœ°å€ 0x80000d64
0x80000d64: 02 09 04 63 beq	s2, zero, 0x80000d8c
è¯»å–åœ°å€ 0x80000d68
å†™å…¥åœ°å€ 0x80003248
0x80000d68: 00 f9 20 23 sw	a5, 0(s2)
è¯»å–åœ°å€ 0x80000d6c
0x80000d6c: 00 07 89 13 addi	s2, a5, 0
è¯»å–åœ°å€ 0x80000d70
0x80000d70: fc 04 16 e3 bne	s0, zero, 0x80000d3c
è¯»å–åœ°å€ 0x80000d3c
0x80000d3c: 04 09 8e 63 beq	s3, zero, 0x80000d98
è¯»å–åœ°å€ 0x80000d98
0x80000d98: 00 0a 07 93 addi	a5, s4, 0
è¯»å–åœ°å€ 0x80000d9c
0x80000d9c: ff f4 04 13 addi	s0, s0, -1
è¯»å–åœ°å€ 0x80000da0
è¯»å–åœ°å€ 0x80003240
0x80000da0: 00 0a 2a 03 lw	s4, 0(s4)
è¯»å–åœ°å€ 0x80000da4
0x80000da4: fc 1f f0 6f jal	zero, 0x80000d64
è¯»å–åœ°å€ 0x80000d64
0x80000d64: 02 09 04 63 beq	s2, zero, 0x80000d8c
è¯»å–åœ°å€ 0x80000d68
å†™å…¥åœ°å€ 0x80003238
0x80000d68: 00 f9 20 23 sw	a5, 0(s2)
è¯»å–åœ°å€ 0x80000d6c
0x80000d6c: 00 07 89 13 addi	s2, a5, 0
è¯»å–åœ°å€ 0x80000d70
0x80000d70: fc 04 16 e3 bne	s0, zero, 0x80000d3c
è¯»å–åœ°å€ 0x80000d74
0x80000d74: 02 09 8a 63 beq	s3, zero, 0x80000da8
è¯»å–åœ°å€ 0x80000da8
0x80000da8: f6 04 94 e3 bne	s1, zero, 0x80000d10
è¯»å–åœ°å€ 0x80000d10
0x80000d10: 00 1c 0c 13 addi	s8, s8, 1
è¯»å–åœ°å€ 0x80000d14
0x80000d14: 00 04 87 93 addi	a5, s1, 0
è¯»å–åœ°å€ 0x80000d18
0x80000d18: 00 00 04 13 addi	s0, zero, 0
è¯»å–åœ°å€ 0x80000d1c
è¯»å–åœ°å€ 0x80003230
0x80000d1c: 00 07 a7 83 lw	a5, 0(a5)
è¯»å–åœ°å€ 0x80000d20
0x80000d20: 00 14 04 13 addi	s0, s0, 1
è¯»å–åœ°å€ 0x80000d24
0x80000d24: 00 07 84 63 beq	a5, zero, 0x80000d2c
è¯»å–åœ°å€ 0x80000d28
0x80000d28: fe 8a 9a e3 bne	s5, s0, 0x80000d1c
è¯»å–åœ°å€ 0x80000d2c
0x80000d2c: 00 04 8a 13 addi	s4, s1, 0
è¯»å–åœ°å€ 0x80000d30
0x80000d30: 00 0a 89 93 addi	s3, s5, 0
è¯»å–åœ°å€ 0x80000d34
0x80000d34: 00 07 84 93 addi	s1, a5, 0
è¯»å–åœ°å€ 0x80000d38
0x80000d38: 02 04 0e 63 beq	s0, zero, 0x80000d74
è¯»å–åœ°å€ 0x80000d3c
0x80000d3c: 04 09 8e 63 beq	s3, zero, 0x80000d98
è¯»å–åœ°å€ 0x80000d40
0x80000d40: 04 04 8c 63 beq	s1, zero, 0x80000d98
è¯»å–åœ°å€ 0x80000d44
è¯»å–åœ°å€ 0x8000322c
0x80000d44: 00 44 a5 83 lw	a1, 4(s1)
è¯»å–åœ°å€ 0x80000d48
è¯»å–åœ°å€ 0x80003234
0x80000d48: 00 4a 25 03 lw	a0, 4(s4)
è¯»å–åœ°å€ 0x80000d4c
0x80000d4c: 00 0d 06 13 addi	a2, s10, 0
è¯»å–åœ°å€ 0x80000d50
0x80000d50: 00 0b 80 e7 jalr	ra, 0(s7)
è¯»å–åœ°å€ 0x80000adc
0x80000adc: 00 06 0a 63 beq	a2, zero, 0x80000af0
è¯»å–åœ°å€ 0x80000af0
è¯»å–åœ°å€ 0x800032d0
0x80000af0: 00 05 17 83 lh	a5, 0(a0)
è¯»å–åœ°å€ 0x80000af4
0x80000af4: 01 07 97 13 slli	a4, a5, 16
è¯»å–åœ°å€ 0x80000af8
0x80000af8: 01 07 57 13 srli	a4, a4, 16
è¯»å–åœ°å€ 0x80000afc
0x80000afc: 00 87 57 13 srli	a4, a4, 8
è¯»å–åœ°å€ 0x80000b00
0x80000b00: f0 07 f7 93 andi	a5, a5, -256
è¯»å–åœ°å€ 0x80000b04
0x80000b04: 00 e7 e7 b3 or	a5, a5, a4
è¯»å–åœ°å€ 0x80000b08
å†™å…¥åœ°å€ 0x800032d0
0x80000b08: 00 f5 10 23 sh	a5, 0(a0)
è¯»å–åœ°å€ 0x80000b0c
è¯»å–åœ°å€ 0x800032cc
0x80000b0c: 00 05 97 83 lh	a5, 0(a1)
è¯»å–åœ°å€ 0x80000b10
è¯»å–åœ°å€ 0x800032d2
0x80000b10: 00 25 15 03 lh	a0, 2(a0)
è¯»å–åœ°å€ 0x80000b14
0x80000b14: 01 07 97 13 slli	a4, a5, 16
è¯»å–åœ°å€ 0x80000b18
0x80000b18: 01 07 57 13 srli	a4, a4, 16
è¯»å–åœ°å€ 0x80000b1c
0x80000b1c: 00 87 57 13 srli	a4, a4, 8
è¯»å–åœ°å€ 0x80000b20
0x80000b20: f0 07 f7 93 andi	a5, a5, -256
è¯»å–åœ°å€ 0x80000b24
0x80000b24: 00 e7 e7 b3 or	a5, a5, a4
è¯»å–åœ°å€ 0x80000b28
å†™å…¥åœ°å€ 0x800032cc
0x80000b28: 00 f5 90 23 sh	a5, 0(a1)
è¯»å–åœ°å€ 0x80000b2c
è¯»å–åœ°å€ 0x800032ce
0x80000b2c: 00 25 97 83 lh	a5, 2(a1)
è¯»å–åœ°å€ 0x80000b30
0x80000b30: 40 f5 05 33 sub	a0, a0, a5
è¯»å–åœ°å€ 0x80000b34
0x80000b34: 00 00 80 67 jalr	zero, 0(ra)
è¯»å–åœ°å€ 0x80000d54
0x80000d54: 04 a0 52 63 bge	zero, a0, 0x80000d98
è¯»å–åœ°å€ 0x80000d98
0x80000d98: 00 0a 07 93 addi	a5, s4, 0
è¯»å–åœ°å€ 0x80000d9c
0x80000d9c: ff f4 04 13 addi	s0, s0, -1
è¯»å–åœ°å€ 0x80000da0
è¯»å–åœ°å€ 0x80003230
0x80000da0: 00 0a 2a 03 lw	s4, 0(s4)
è¯»å–åœ°å€ 0x80000da4
0x80000da4: fc 1f f0 6f jal	zero, 0x80000d64
è¯»å–åœ°å€ 0x80000d64
0x80000d64: 02 09 04 63 beq	s2, zero, 0x80000d8c
è¯»å–åœ°å€ 0x80000d68
å†™å…¥åœ°å€ 0x80003240
0x80000d68: 00 f9 20 23 sw	a5, 0(s2)
è¯»å–åœ°å€ 0x80000d6c
0x80000d6c: 00 07 89 13 addi	s2, a5, 0
è¯»å–åœ°å€ 0x80000d70
0x80000d70: fc 04 16 e3 bne	s0, zero, 0x80000d3c
è¯»å–åœ°å€ 0x80000d74
0x80000d74: 02 09 8a 63 beq	s3, zero, 0x80000da8
è¯»å–åœ°å€ 0x80000d78
0x80000d78: 02 04 8a 63 beq	s1, zero, 0x80000dac
è¯»å–åœ°å€ 0x80000d7c
0x80000d7c: 00 04 87 93 addi	a5, s1, 0
è¯»å–åœ°å€ 0x80000d80
0x80000d80: ff f9 89 93 addi	s3, s3, -1
è¯»å–åœ°å€ 0x80000d84
è¯»å–åœ°å€ 0x80003228
0x80000d84: 00 04 a4 83 lw	s1, 0(s1)
è¯»å–åœ°å€ 0x80000d88
0x80000d88: fe 09 10 e3 bne	s2, zero, 0x80000d68
è¯»å–åœ°å€ 0x80000d68
å†™å…¥åœ°å€ 0x80003230
0x80000d68: 00 f9 20 23 sw	a5, 0(s2)
è¯»å–åœ°å€ 0x80000d6c
0x80000d6c: 00 07 89 13 addi	s2, a5, 0
è¯»å–åœ°å€ 0x80000d70
0x80000d70: fc 04 16 e3 bne	s0, zero, 0x80000d3c
è¯»å–åœ°å€ 0x80000d74
0x80000d74: 02 09 8a 63 beq	s3, zero, 0x80000da8
è¯»å–åœ°å€ 0x80000da8
0x80000da8: f6 04 94 e3 bne	s1, zero, 0x80000d10
è¯»å–åœ°å€ 0x80000d10
0x80000d10: 00 1c 0c 13 addi	s8, s8, 1
è¯»å–åœ°å€ 0x80000d14
0x80000d14: 00 04 87 93 addi	a5, s1, 0
è¯»å–åœ°å€ 0x80000d18
0x80000d18: 00 00 04 13 addi	s0, zero, 0
è¯»å–åœ°å€ 0x80000d1c
è¯»å–åœ°å€ 0x80003220
0x80000d1c: 00 07 a7 83 lw	a5, 0(a5)
è¯»å–åœ°å€ 0x80000d20
0x80000d20: 00 14 04 13 addi	s0, s0, 1
è¯»å–åœ°å€ 0x80000d24
0x80000d24: 00 07 84 63 beq	a5, zero, 0x80000d2c
è¯»å–åœ°å€ 0x80000d28
0x80000d28: fe 8a 9a e3 bne	s5, s0, 0x80000d1c
è¯»å–åœ°å€ 0x80000d2c
0x80000d2c: 00 04 8a 13 addi	s4, s1, 0
è¯»å–åœ°å€ 0x80000d30
0x80000d30: 00 0a 89 93 addi	s3, s5, 0
è¯»å–åœ°å€ 0x80000d34
0x80000d34: 00 07 84 93 addi	s1, a5, 0
è¯»å–åœ°å€ 0x80000d38
0x80000d38: 02 04 0e 63 beq	s0, zero, 0x80000d74
è¯»å–åœ°å€ 0x80000d3c
0x80000d3c: 04 09 8e 63 beq	s3, zero, 0x80000d98
è¯»å–åœ°å€ 0x80000d40
0x80000d40: 04 04 8c 63 beq	s1, zero, 0x80000d98
è¯»å–åœ°å€ 0x80000d44
è¯»å–åœ°å€ 0x8000321c
0x80000d44: 00 44 a5 83 lw	a1, 4(s1)
è¯»å–åœ°å€ 0x80000d48
è¯»å–åœ°å€ 0x80003224
0x80000d48: 00 4a 25 03 lw	a0, 4(s4)
è¯»å–åœ°å€ 0x80000d4c
0x80000d4c: 00 0d 06 13 addi	a2, s10, 0
è¯»å–åœ°å€ 0x80000d50
0x80000d50: 00 0b 80 e7 jalr	ra, 0(s7)
è¯»å–åœ°å€ 0x80000adc
0x80000adc: 00 06 0a 63 beq	a2, zero, 0x80000af0
è¯»å–åœ°å€ 0x80000af0
è¯»å–åœ°å€ 0x800032c8
0x80000af0: 00 05 17 83 lh	a5, 0(a0)
è¯»å–åœ°å€ 0x80000af4
0x80000af4: 01 07 97 13 slli	a4, a5, 16
è¯»å–åœ°å€ 0x80000af8
0x80000af8: 01 07 57 13 srli	a4, a4, 16
è¯»å–åœ°å€ 0x80000afc
0x80000afc: 00 87 57 13 srli	a4, a4, 8
è¯»å–åœ°å€ 0x80000b00
0x80000b00: f0 07 f7 93 andi	a5, a5, -256
è¯»å–åœ°å€ 0x80000b04
0x80000b04: 00 e7 e7 b3 or	a5, a5, a4
è¯»å–åœ°å€ 0x80000b08
å†™å…¥åœ°å€ 0x800032c8
0x80000b08: 00 f5 10 23 sh	a5, 0(a0)
è¯»å–åœ°å€ 0x80000b0c
è¯»å–åœ°å€ 0x800032c4
0x80000b0c: 00 05 97 83 lh	a5, 0(a1)
è¯»å–åœ°å€ 0x80000b10
è¯»å–åœ°å€ 0x800032ca
0x80000b10: 00 25 15 03 lh	a0, 2(a0)
è¯»å–åœ°å€ 0x80000b14
0x80000b14: 01 07 97 13 slli	a4, a5, 16
è¯»å–åœ°å€ 0x80000b18
0x80000b18: 01 07 57 13 srli	a4, a4, 16
è¯»å–åœ°å€ 0x80000b1c
0x80000b1c: 00 87 57 13 srli	a4, a4, 8
è¯»å–åœ°å€ 0x80000b20
0x80000b20: f0 07 f7 93 andi	a5, a5, -256
è¯»å–åœ°å€ 0x80000b24
0x80000b24: 00 e7 e7 b3 or	a5, a5, a4
è¯»å–åœ°å€ 0x80000b28
å†™å…¥åœ°å€ 0x800032c4
0x80000b28: 00 f5 90 23 sh	a5, 0(a1)
è¯»å–åœ°å€ 0x80000b2c
è¯»å–åœ°å€ 0x800032c6
0x80000b2c: 00 25 97 83 lh	a5, 2(a1)
è¯»å–åœ°å€ 0x80000b30
0x80000b30: 40 f5 05 33 sub	a0, a0, a5
è¯»å–åœ°å€ 0x80000b34
0x80000b34: 00 00 80 67 jalr	zero, 0(ra)
è¯»å–åœ°å€ 0x80000d54
0x80000d54: 04 a0 52 63 bge	zero, a0, 0x80000d98
è¯»å–åœ°å€ 0x80000d98
0x80000d98: 00 0a 07 93 addi	a5, s4, 0
è¯»å–åœ°å€ 0x80000d9c
0x80000d9c: ff f4 04 13 addi	s0, s0, -1
è¯»å–åœ°å€ 0x80000da0
è¯»å–åœ°å€ 0x80003220
0x80000da0: 00 0a 2a 03 lw	s4, 0(s4)
è¯»å–åœ°å€ 0x80000da4
0x80000da4: fc 1f f0 6f jal	zero, 0x80000d64
è¯»å–åœ°å€ 0x80000d64
0x80000d64: 02 09 04 63 beq	s2, zero, 0x80000d8c
è¯»å–åœ°å€ 0x80000d68
å†™å…¥åœ°å€ 0x80003228
0x80000d68: 00 f9 20 23 sw	a5, 0(s2)
è¯»å–åœ°å€ 0x80000d6c
0x80000d6c: 00 07 89 13 addi	s2, a5, 0
è¯»å–åœ°å€ 0x80000d70
0x80000d70: fc 04 16 e3 bne	s0, zero, 0x80000d3c
è¯»å–åœ°å€ 0x80000d74
0x80000d74: 02 09 8a 63 beq	s3, zero, 0x80000da8
è¯»å–åœ°å€ 0x80000d78
0x80000d78: 02 04 8a 63 beq	s1, zero, 0x80000dac
è¯»å–åœ°å€ 0x80000d7c
0x80000d7c: 00 04 87 93 addi	a5, s1, 0
è¯»å–åœ°å€ 0x80000d80
0x80000d80: ff f9 89 93 addi	s3, s3, -1
è¯»å–åœ°å€ 0x80000d84
è¯»å–åœ°å€ 0x80003218
0x80000d84: 00 04 a4 83 lw	s1, 0(s1)
è¯»å–åœ°å€ 0x80000d88
0x80000d88: fe 09 10 e3 bne	s2, zero, 0x80000d68
è¯»å–åœ°å€ 0x80000d68
å†™å…¥åœ°å€ 0x80003220
0x80000d68: 00 f9 20 23 sw	a5, 0(s2)
è¯»å–åœ°å€ 0x80000d6c
0x80000d6c: 00 07 89 13 addi	s2, a5, 0
è¯»å–åœ°å€ 0x80000d70
0x80000d70: fc 04 16 e3 bne	s0, zero, 0x80000d3c
è¯»å–åœ°å€ 0x80000d74
0x80000d74: 02 09 8a 63 beq	s3, zero, 0x80000da8
è¯»å–åœ°å€ 0x80000da8
0x80000da8: f6 04 94 e3 bne	s1, zero, 0x80000d10
è¯»å–åœ°å€ 0x80000d10
0x80000d10: 00 1c 0c 13 addi	s8, s8, 1
è¯»å–åœ°å€ 0x80000d14
0x80000d14: 00 04 87 93 addi	a5, s1, 0
è¯»å–åœ°å€ 0x80000d18
0x80000d18: 00 00 04 13 addi	s0, zero, 0
è¯»å–åœ°å€ 0x80000d1c
è¯»å–åœ°å€ 0x80003210
0x80000d1c: 00 07 a7 83 lw	a5, 0(a5)
è¯»å–åœ°å€ 0x80000d20
0x80000d20: 00 14 04 13 addi	s0, s0, 1
è¯»å–åœ°å€ 0x80000d24
0x80000d24: 00 07 84 63 beq	a5, zero, 0x80000d2c
è¯»å–åœ°å€ 0x80000d28
0x80000d28: fe 8a 9a e3 bne	s5, s0, 0x80000d1c
è¯»å–åœ°å€ 0x80000d2c
0x80000d2c: 00 04 8a 13 addi	s4, s1, 0
è¯»å–åœ°å€ 0x80000d30
0x80000d30: 00 0a 89 93 addi	s3, s5, 0
è¯»å–åœ°å€ 0x80000d34
0x80000d34: 00 07 84 93 addi	s1, a5, 0
è¯»å–åœ°å€ 0x80000d38
0x80000d38: 02 04 0e 63 beq	s0, zero, 0x80000d74
è¯»å–åœ°å€ 0x80000d3c
0x80000d3c: 04 09 8e 63 beq	s3, zero, 0x80000d98
è¯»å–åœ°å€ 0x80000d40
0x80000d40: 04 04 8c 63 beq	s1, zero, 0x80000d98
è¯»å–åœ°å€ 0x80000d44
è¯»å–åœ°å€ 0x8000320c
0x80000d44: 00 44 a5 83 lw	a1, 4(s1)
è¯»å–åœ°å€ 0x80000d48
è¯»å–åœ°å€ 0x80003214
0x80000d48: 00 4a 25 03 lw	a0, 4(s4)
è¯»å–åœ°å€ 0x80000d4c
0x80000d4c: 00 0d 06 13 addi	a2, s10, 0
è¯»å–åœ°å€ 0x80000d50
0x80000d50: 00 0b 80 e7 jalr	ra, 0(s7)
è¯»å–åœ°å€ 0x80000adc
0x80000adc: 00 06 0a 63 beq	a2, zero, 0x80000af0
è¯»å–åœ°å€ 0x80000af0
è¯»å–åœ°å€ 0x800032c0
0x80000af0: 00 05 17 83 lh	a5, 0(a0)
è¯»å–åœ°å€ 0x80000af4
0x80000af4: 01 07 97 13 slli	a4, a5, 16
è¯»å–åœ°å€ 0x80000af8
0x80000af8: 01 07 57 13 srli	a4, a4, 16
è¯»å–åœ°å€ 0x80000afc
0x80000afc: 00 87 57 13 srli	a4, a4, 8
è¯»å–åœ°å€ 0x80000b00
0x80000b00: f0 07 f7 93 andi	a5, a5, -256
è¯»å–åœ°å€ 0x80000b04
0x80000b04: 00 e7 e7 b3 or	a5, a5, a4
è¯»å–åœ°å€ 0x80000b08
å†™å…¥åœ°å€ 0x800032c0
0x80000b08: 00 f5 10 23 sh	a5, 0(a0)
è¯»å–åœ°å€ 0x80000b0c
è¯»å–åœ°å€ 0x800032bc
0x80000b0c: 00 05 97 83 lh	a5, 0(a1)
è¯»å–åœ°å€ 0x80000b10
è¯»å–åœ°å€ 0x800032c2
0x80000b10: 00 25 15 03 lh	a0, 2(a0)
è¯»å–åœ°å€ 0x80000b14
0x80000b14: 01 07 97 13 slli	a4, a5, 16
è¯»å–åœ°å€ 0x80000b18
0x80000b18: 01 07 57 13 srli	a4, a4, 16
è¯»å–åœ°å€ 0x80000b1c
0x80000b1c: 00 87 57 13 srli	a4, a4, 8
è¯»å–åœ°å€ 0x80000b20
0x80000b20: f0 07 f7 93 andi	a5, a5, -256
è¯»å–åœ°å€ 0x80000b24
0x80000b24: 00 e7 e7 b3 or	a5, a5, a4
è¯»å–åœ°å€ 0x80000b28
å†™å…¥åœ°å€ 0x800032bc
0x80000b28: 00 f5 90 23 sh	a5, 0(a1)
è¯»å–åœ°å€ 0x80000b2c
è¯»å–åœ°å€ 0x800032be
0x80000b2c: 00 25 97 83 lh	a5, 2(a1)
è¯»å–åœ°å€ 0x80000b30
0x80000b30: 40 f5 05 33 sub	a0, a0, a5
è¯»å–åœ°å€ 0x80000b34
0x80000b34: 00 00 80 67 jalr	zero, 0(ra)
è¯»å–åœ°å€ 0x80000d54
0x80000d54: 04 a0 52 63 bge	zero, a0, 0x80000d98
è¯»å–åœ°å€ 0x80000d98
0x80000d98: 00 0a 07 93 addi	a5, s4, 0
è¯»å–åœ°å€ 0x80000d9c
0x80000d9c: ff f4 04 13 addi	s0, s0, -1
è¯»å–åœ°å€ 0x80000da0
è¯»å–åœ°å€ 0x80003210
0x80000da0: 00 0a 2a 03 lw	s4, 0(s4)
è¯»å–åœ°å€ 0x80000da4
0x80000da4: fc 1f f0 6f jal	zero, 0x80000d64
è¯»å–åœ°å€ 0x80000d64
0x80000d64: 02 09 04 63 beq	s2, zero, 0x80000d8c
è¯»å–åœ°å€ 0x80000d68
å†™å…¥åœ°å€ 0x80003218
0x80000d68: 00 f9 20 23 sw	a5, 0(s2)
è¯»å–åœ°å€ 0x80000d6c
0x80000d6c: 00 07 89 13 addi	s2, a5, 0
è¯»å–åœ°å€ 0x80000d70
0x80000d70: fc 04 16 e3 bne	s0, zero, 0x80000d3c
è¯»å–åœ°å€ 0x80000d74
0x80000d74: 02 09 8a 63 beq	s3, zero, 0x80000da8
è¯»å–åœ°å€ 0x80000d78
0x80000d78: 02 04 8a 63 beq	s1, zero, 0x80000dac
è¯»å–åœ°å€ 0x80000d7c
0x80000d7c: 00 04 87 93 addi	a5, s1, 0
è¯»å–åœ°å€ 0x80000d80
0x80000d80: ff f9 89 93 addi	s3, s3, -1
è¯»å–åœ°å€ 0x80000d84
è¯»å–åœ°å€ 0x80003208
0x80000d84: 00 04 a4 83 lw	s1, 0(s1)
è¯»å–åœ°å€ 0x80000d88
0x80000d88: fe 09 10 e3 bne	s2, zero, 0x80000d68
è¯»å–åœ°å€ 0x80000d68
å†™å…¥åœ°å€ 0x80003210
0x80000d68: 00 f9 20 23 sw	a5, 0(s2)
è¯»å–åœ°å€ 0x80000d6c
0x80000d6c: 00 07 89 13 addi	s2, a5, 0
è¯»å–åœ°å€ 0x80000d70
0x80000d70: fc 04 16 e3 bne	s0, zero, 0x80000d3c
è¯»å–åœ°å€ 0x80000d74
0x80000d74: 02 09 8a 63 beq	s3, zero, 0x80000da8
è¯»å–åœ°å€ 0x80000da8
0x80000da8: f6 04 94 e3 bne	s1, zero, 0x80000d10
è¯»å–åœ°å€ 0x80000d10
0x80000d10: 00 1c 0c 13 addi	s8, s8, 1
è¯»å–åœ°å€ 0x80000d14
0x80000d14: 00 04 87 93 addi	a5, s1, 0
è¯»å–åœ°å€ 0x80000d18
0x80000d18: 00 00 04 13 addi	s0, zero, 0
è¯»å–åœ°å€ 0x80000d1c
è¯»å–åœ°å€ 0x80003200
0x80000d1c: 00 07 a7 83 lw	a5, 0(a5)
è¯»å–åœ°å€ 0x80000d20
0x80000d20: 00 14 04 13 addi	s0, s0, 1
è¯»å–åœ°å€ 0x80000d24
0x80000d24: 00 07 84 63 beq	a5, zero, 0x80000d2c
è¯»å–åœ°å€ 0x80000d28
0x80000d28: fe 8a 9a e3 bne	s5, s0, 0x80000d1c
è¯»å–åœ°å€ 0x80000d2c
0x80000d2c: 00 04 8a 13 addi	s4, s1, 0
è¯»å–åœ°å€ 0x80000d30
0x80000d30: 00 0a 89 93 addi	s3, s5, 0
è¯»å–åœ°å€ 0x80000d34
0x80000d34: 00 07 84 93 addi	s1, a5, 0
è¯»å–åœ°å€ 0x80000d38
0x80000d38: 02 04 0e 63 beq	s0, zero, 0x80000d74
è¯»å–åœ°å€ 0x80000d3c
0x80000d3c: 04 09 8e 63 beq	s3, zero, 0x80000d98
è¯»å–åœ°å€ 0x80000d40
0x80000d40: 04 04 8c 63 beq	s1, zero, 0x80000d98
è¯»å–åœ°å€ 0x80000d44
è¯»å–åœ°å€ 0x800031fc
0x80000d44: 00 44 a5 83 lw	a1, 4(s1)
è¯»å–åœ°å€ 0x80000d48
è¯»å–åœ°å€ 0x80003204
0x80000d48: 00 4a 25 03 lw	a0, 4(s4)
è¯»å–åœ°å€ 0x80000d4c
0x80000d4c: 00 0d 06 13 addi	a2, s10, 0
è¯»å–åœ°å€ 0x80000d50
0x80000d50: 00 0b 80 e7 jalr	ra, 0(s7)
è¯»å–åœ°å€ 0x80000adc
0x80000adc: 00 06 0a 63 beq	a2, zero, 0x80000af0
è¯»å–åœ°å€ 0x80000af0
è¯»å–åœ°å€ 0x800032b8
0x80000af0: 00 05 17 83 lh	a5, 0(a0)
è¯»å–åœ°å€ 0x80000af4
0x80000af4: 01 07 97 13 slli	a4, a5, 16
è¯»å–åœ°å€ 0x80000af8
0x80000af8: 01 07 57 13 srli	a4, a4, 16
è¯»å–åœ°å€ 0x80000afc
0x80000afc: 00 87 57 13 srli	a4, a4, 8
è¯»å–åœ°å€ 0x80000b00
0x80000b00: f0 07 f7 93 andi	a5, a5, -256
è¯»å–åœ°å€ 0x80000b04
0x80000b04: 00 e7 e7 b3 or	a5, a5, a4
è¯»å–åœ°å€ 0x80000b08
å†™å…¥åœ°å€ 0x800032b8
0x80000b08: 00 f5 10 23 sh	a5, 0(a0)
è¯»å–åœ°å€ 0x80000b0c
è¯»å–åœ°å€ 0x800032b4
0x80000b0c: 00 05 97 83 lh	a5, 0(a1)
è¯»å–åœ°å€ 0x80000b10
è¯»å–åœ°å€ 0x800032ba
0x80000b10: 00 25 15 03 lh	a0, 2(a0)
è¯»å–åœ°å€ 0x80000b14
0x80000b14: 01 07 97 13 slli	a4, a5, 16
è¯»å–åœ°å€ 0x80000b18
0x80000b18: 01 07 57 13 srli	a4, a4, 16
è¯»å–åœ°å€ 0x80000b1c
0x80000b1c: 00 87 57 13 srli	a4, a4, 8
è¯»å–åœ°å€ 0x80000b20
0x80000b20: f0 07 f7 93 andi	a5, a5, -256
è¯»å–åœ°å€ 0x80000b24
0x80000b24: 00 e7 e7 b3 or	a5, a5, a4
è¯»å–åœ°å€ 0x80000b28
å†™å…¥åœ°å€ 0x800032b4
0x80000b28: 00 f5 90 23 sh	a5, 0(a1)
è¯»å–åœ°å€ 0x80000b2c
è¯»å–åœ°å€ 0x800032b6
0x80000b2c: 00 25 97 83 lh	a5, 2(a1)
è¯»å–åœ°å€ 0x80000b30
0x80000b30: 40 f5 05 33 sub	a0, a0, a5
è¯»å–åœ°å€ 0x80000b34
0x80000b34: 00 00 80 67 jalr	zero, 0(ra)
è¯»å–åœ°å€ 0x80000d54
0x80000d54: 04 a0 52 63 bge	zero, a0, 0x80000d98
è¯»å–åœ°å€ 0x80000d58
0x80000d58: 00 04 87 93 addi	a5, s1, 0
è¯»å–åœ°å€ 0x80000d5c
è¯»å–åœ°å€ 0x800031f8
0x80000d5c: 00 04 a4 83 lw	s1, 0(s1)
è¯»å–åœ°å€ 0x80000d60
0x80000d60: ff f9 89 93 addi	s3, s3, -1
è¯»å–åœ°å€ 0x80000d64
0x80000d64: 02 09 04 63 beq	s2, zero, 0x80000d8c
è¯»å–åœ°å€ 0x80000d68
å†™å…¥åœ°å€ 0x80003208
0x80000d68: 00 f9 20 23 sw	a5, 0(s2)
è¯»å–åœ°å€ 0x80000d6c
0x80000d6c: 00 07 89 13 addi	s2, a5, 0
è¯»å–åœ°å€ 0x80000d70
0x80000d70: fc 04 16 e3 bne	s0, zero, 0x80000d3c
è¯»å–åœ°å€ 0x80000d3c
0x80000d3c: 04 09 8e 63 beq	s3, zero, 0x80000d98
è¯»å–åœ°å€ 0x80000d98
0x80000d98: 00 0a 07 93 addi	a5, s4, 0
è¯»å–åœ°å€ 0x80000d9c
0x80000d9c: ff f4 04 13 addi	s0, s0, -1
è¯»å–åœ°å€ 0x80000da0
è¯»å–åœ°å€ 0x80003200
0x80000da0: 00 0a 2a 03 lw	s4, 0(s4)
è¯»å–åœ°å€ 0x80000da4
0x80000da4: fc 1f f0 6f jal	zero, 0x80000d64
è¯»å–åœ°å€ 0x80000d64
0x80000d64: 02 09 04 63 beq	s2, zero, 0x80000d8c
è¯»å–åœ°å€ 0x80000d68
å†™å…¥åœ°å€ 0x800031f8
0x80000d68: 00 f9 20 23 sw	a5, 0(s2)
è¯»å–åœ°å€ 0x80000d6c
0x80000d6c: 00 07 89 13 addi	s2, a5, 0
è¯»å–åœ°å€ 0x80000d70
0x80000d70: fc 04 16 e3 bne	s0, zero, 0x80000d3c
è¯»å–åœ°å€ 0x80000d74
0x80000d74: 02 09 8a 63 beq	s3, zero, 0x80000da8
è¯»å–åœ°å€ 0x80000da8
0x80000da8: f6 04 94 e3 bne	s1, zero, 0x80000d10
è¯»å–åœ°å€ 0x80000d10
0x80000d10: 00 1c 0c 13 addi	s8, s8, 1
è¯»å–åœ°å€ 0x80000d14
0x80000d14: 00 04 87 93 addi	a5, s1, 0
è¯»å–åœ°å€ 0x80000d18
0x80000d18: 00 00 04 13 addi	s0, zero, 0
è¯»å–åœ°å€ 0x80000d1c
è¯»å–åœ°å€ 0x800031f0
0x80000d1c: 00 07 a7 83 lw	a5, 0(a5)
è¯»å–åœ°å€ 0x80000d20
0x80000d20: 00 14 04 13 addi	s0, s0, 1
è¯»å–åœ°å€ 0x80000d24
0x80000d24: 00 07 84 63 beq	a5, zero, 0x80000d2c
è¯»å–åœ°å€ 0x80000d28
0x80000d28: fe 8a 9a e3 bne	s5, s0, 0x80000d1c
è¯»å–åœ°å€ 0x80000d2c
0x80000d2c: 00 04 8a 13 addi	s4, s1, 0
è¯»å–åœ°å€ 0x80000d30
0x80000d30: 00 0a 89 93 addi	s3, s5, 0
è¯»å–åœ°å€ 0x80000d34
0x80000d34: 00 07 84 93 addi	s1, a5, 0
è¯»å–åœ°å€ 0x80000d38
0x80000d38: 02 04 0e 63 beq	s0, zero, 0x80000d74
è¯»å–åœ°å€ 0x80000d3c
0x80000d3c: 04 09 8e 63 beq	s3, zero, 0x80000d98
è¯»å–åœ°å€ 0x80000d40
0x80000d40: 04 04 8c 63 beq	s1, zero, 0x80000d98
è¯»å–åœ°å€ 0x80000d44
è¯»å–åœ°å€ 0x800031ec
0x80000d44: 00 44 a5 83 lw	a1, 4(s1)
è¯»å–åœ°å€ 0x80000d48
è¯»å–åœ°å€ 0x800031f4
0x80000d48: 00 4a 25 03 lw	a0, 4(s4)
è¯»å–åœ°å€ 0x80000d4c
0x80000d4c: 00 0d 06 13 addi	a2, s10, 0
è¯»å–åœ°å€ 0x80000d50
0x80000d50: 00 0b 80 e7 jalr	ra, 0(s7)
è¯»å–åœ°å€ 0x80000adc
0x80000adc: 00 06 0a 63 beq	a2, zero, 0x80000af0
è¯»å–åœ°å€ 0x80000af0
è¯»å–åœ°å€ 0x800032b0
0x80000af0: 00 05 17 83 lh	a5, 0(a0)
è¯»å–åœ°å€ 0x80000af4
0x80000af4: 01 07 97 13 slli	a4, a5, 16
è¯»å–åœ°å€ 0x80000af8
0x80000af8: 01 07 57 13 srli	a4, a4, 16
è¯»å–åœ°å€ 0x80000afc
0x80000afc: 00 87 57 13 srli	a4, a4, 8
è¯»å–åœ°å€ 0x80000b00
0x80000b00: f0 07 f7 93 andi	a5, a5, -256
è¯»å–åœ°å€ 0x80000b04
0x80000b04: 00 e7 e7 b3 or	a5, a5, a4
è¯»å–åœ°å€ 0x80000b08
å†™å…¥åœ°å€ 0x800032b0
0x80000b08: 00 f5 10 23 sh	a5, 0(a0)
è¯»å–åœ°å€ 0x80000b0c
è¯»å–åœ°å€ 0x800032ac
0x80000b0c: 00 05 97 83 lh	a5, 0(a1)
è¯»å–åœ°å€ 0x80000b10
è¯»å–åœ°å€ 0x800032b2
0x80000b10: 00 25 15 03 lh	a0, 2(a0)
è¯»å–åœ°å€ 0x80000b14
0x80000b14: 01 07 97 13 slli	a4, a5, 16
è¯»å–åœ°å€ 0x80000b18
0x80000b18: 01 07 57 13 srli	a4, a4, 16
è¯»å–åœ°å€ 0x80000b1c
0x80000b1c: 00 87 57 13 srli	a4, a4, 8
è¯»å–åœ°å€ 0x80000b20
0x80000b20: f0 07 f7 93 andi	a5, a5, -256
è¯»å–åœ°å€ 0x80000b24
0x80000b24: 00 e7 e7 b3 or	a5, a5, a4
è¯»å–åœ°å€ 0x80000b28
å†™å…¥åœ°å€ 0x800032ac
0x80000b28: 00 f5 90 23 sh	a5, 0(a1)
è¯»å–åœ°å€ 0x80000b2c
è¯»å–åœ°å€ 0x800032ae
0x80000b2c: 00 25 97 83 lh	a5, 2(a1)
è¯»å–åœ°å€ 0x80000b30
0x80000b30: 40 f5 05 33 sub	a0, a0, a5
è¯»å–åœ°å€ 0x80000b34
0x80000b34: 00 00 80 67 jalr	zero, 0(ra)
è¯»å–åœ°å€ 0x80000d54
0x80000d54: 04 a0 52 63 bge	zero, a0, 0x80000d98
è¯»å–åœ°å€ 0x80000d98
0x80000d98: 00 0a 07 93 addi	a5, s4, 0
è¯»å–åœ°å€ 0x80000d9c
0x80000d9c: ff f4 04 13 addi	s0, s0, -1
è¯»å–åœ°å€ 0x80000da0
è¯»å–åœ°å€ 0x800031f0
0x80000da0: 00 0a 2a 03 lw	s4, 0(s4)
è¯»å–åœ°å€ 0x80000da4
0x80000da4: fc 1f f0 6f jal	zero, 0x80000d64
è¯»å–åœ°å€ 0x80000d64
0x80000d64: 02 09 04 63 beq	s2, zero, 0x80000d8c
è¯»å–åœ°å€ 0x80000d68
å†™å…¥åœ°å€ 0x80003200
0x80000d68: 00 f9 20 23 sw	a5, 0(s2)
è¯»å–åœ°å€ 0x80000d6c
0x80000d6c: 00 07 89 13 addi	s2, a5, 0
è¯»å–åœ°å€ 0x80000d70
0x80000d70: fc 04 16 e3 bne	s0, zero, 0x80000d3c
è¯»å–åœ°å€ 0x80000d74
0x80000d74: 02 09 8a 63 beq	s3, zero, 0x80000da8
è¯»å–åœ°å€ 0x80000d78
0x80000d78: 02 04 8a 63 beq	s1, zero, 0x80000dac
è¯»å–åœ°å€ 0x80000d7c
0x80000d7c: 00 04 87 93 addi	a5, s1, 0
è¯»å–åœ°å€ 0x80000d80
0x80000d80: ff f9 89 93 addi	s3, s3, -1
è¯»å–åœ°å€ 0x80000d84
è¯»å–åœ°å€ 0x800031e8
0x80000d84: 00 04 a4 83 lw	s1, 0(s1)
è¯»å–åœ°å€ 0x80000d88
0x80000d88: fe 09 10 e3 bne	s2, zero, 0x80000d68
è¯»å–åœ°å€ 0x80000d68
å†™å…¥åœ°å€ 0x800031f0
0x80000d68: 00 f9 20 23 sw	a5, 0(s2)
è¯»å–åœ°å€ 0x80000d6c
0x80000d6c: 00 07 89 13 addi	s2, a5, 0
è¯»å–åœ°å€ 0x80000d70
0x80000d70: fc 04 16 e3 bne	s0, zero, 0x80000d3c
è¯»å–åœ°å€ 0x80000d74
0x80000d74: 02 09 8a 63 beq	s3, zero, 0x80000da8
è¯»å–åœ°å€ 0x80000da8
0x80000da8: f6 04 94 e3 bne	s1, zero, 0x80000d10
è¯»å–åœ°å€ 0x80000d10
0x80000d10: 00 1c 0c 13 addi	s8, s8, 1
è¯»å–åœ°å€ 0x80000d14
0x80000d14: 00 04 87 93 addi	a5, s1, 0
è¯»å–åœ°å€ 0x80000d18
0x80000d18: 00 00 04 13 addi	s0, zero, 0
è¯»å–åœ°å€ 0x80000d1c
è¯»å–åœ°å€ 0x800031e0
0x80000d1c: 00 07 a7 83 lw	a5, 0(a5)
è¯»å–åœ°å€ 0x80000d20
0x80000d20: 00 14 04 13 addi	s0, s0, 1
è¯»å–åœ°å€ 0x80000d24
0x80000d24: 00 07 84 63 beq	a5, zero, 0x80000d2c
è¯»å–åœ°å€ 0x80000d28
0x80000d28: fe 8a 9a e3 bne	s5, s0, 0x80000d1c
è¯»å–åœ°å€ 0x80000d2c
0x80000d2c: 00 04 8a 13 addi	s4, s1, 0
è¯»å–åœ°å€ 0x80000d30
0x80000d30: 00 0a 89 93 addi	s3, s5, 0
è¯»å–åœ°å€ 0x80000d34
0x80000d34: 00 07 84 93 addi	s1, a5, 0
è¯»å–åœ°å€ 0x80000d38
0x80000d38: 02 04 0e 63 beq	s0, zero, 0x80000d74
è¯»å–åœ°å€ 0x80000d3c
0x80000d3c: 04 09 8e 63 beq	s3, zero, 0x80000d98
è¯»å–åœ°å€ 0x80000d40
0x80000d40: 04 04 8c 63 beq	s1, zero, 0x80000d98
è¯»å–åœ°å€ 0x80000d44
è¯»å–åœ°å€ 0x800031dc
0x80000d44: 00 44 a5 83 lw	a1, 4(s1)
è¯»å–åœ°å€ 0x80000d48
è¯»å–åœ°å€ 0x800031e4
0x80000d48: 00 4a 25 03 lw	a0, 4(s4)
è¯»å–åœ°å€ 0x80000d4c
0x80000d4c: 00 0d 06 13 addi	a2, s10, 0
è¯»å–åœ°å€ 0x80000d50
0x80000d50: 00 0b 80 e7 jalr	ra, 0(s7)
è¯»å–åœ°å€ 0x80000adc
0x80000adc: 00 06 0a 63 beq	a2, zero, 0x80000af0
è¯»å–åœ°å€ 0x80000af0
è¯»å–åœ°å€ 0x800032a8
0x80000af0: 00 05 17 83 lh	a5, 0(a0)
è¯»å–åœ°å€ 0x80000af4
0x80000af4: 01 07 97 13 slli	a4, a5, 16
è¯»å–åœ°å€ 0x80000af8
0x80000af8: 01 07 57 13 srli	a4, a4, 16
è¯»å–åœ°å€ 0x80000afc
0x80000afc: 00 87 57 13 srli	a4, a4, 8
è¯»å–åœ°å€ 0x80000b00
0x80000b00: f0 07 f7 93 andi	a5, a5, -256
è¯»å–åœ°å€ 0x80000b04
0x80000b04: 00 e7 e7 b3 or	a5, a5, a4
è¯»å–åœ°å€ 0x80000b08
å†™å…¥åœ°å€ 0x800032a8
0x80000b08: 00 f5 10 23 sh	a5, 0(a0)
è¯»å–åœ°å€ 0x80000b0c
è¯»å–åœ°å€ 0x800032a4
0x80000b0c: 00 05 97 83 lh	a5, 0(a1)
è¯»å–åœ°å€ 0x80000b10
è¯»å–åœ°å€ 0x800032aa
0x80000b10: 00 25 15 03 lh	a0, 2(a0)
è¯»å–åœ°å€ 0x80000b14
0x80000b14: 01 07 97 13 slli	a4, a5, 16
è¯»å–åœ°å€ 0x80000b18
0x80000b18: 01 07 57 13 srli	a4, a4, 16
è¯»å–åœ°å€ 0x80000b1c
0x80000b1c: 00 87 57 13 srli	a4, a4, 8
è¯»å–åœ°å€ 0x80000b20
0x80000b20: f0 07 f7 93 andi	a5, a5, -256
è¯»å–åœ°å€ 0x80000b24
0x80000b24: 00 e7 e7 b3 or	a5, a5, a4
è¯»å–åœ°å€ 0x80000b28
å†™å…¥åœ°å€ 0x800032a4
0x80000b28: 00 f5 90 23 sh	a5, 0(a1)
è¯»å–åœ°å€ 0x80000b2c
è¯»å–åœ°å€ 0x800032a6
0x80000b2c: 00 25 97 83 lh	a5, 2(a1)
è¯»å–åœ°å€ 0x80000b30
0x80000b30: 40 f5 05 33 sub	a0, a0, a5
è¯»å–åœ°å€ 0x80000b34
0x80000b34: 00 00 80 67 jalr	zero, 0(ra)
è¯»å–åœ°å€ 0x80000d54
0x80000d54: 04 a0 52 63 bge	zero, a0, 0x80000d98
è¯»å–åœ°å€ 0x80000d98
0x80000d98: 00 0a 07 93 addi	a5, s4, 0
è¯»å–åœ°å€ 0x80000d9c
0x80000d9c: ff f4 04 13 addi	s0, s0, -1
è¯»å–åœ°å€ 0x80000da0
è¯»å–åœ°å€ 0x800031e0
0x80000da0: 00 0a 2a 03 lw	s4, 0(s4)
è¯»å–åœ°å€ 0x80000da4
0x80000da4: fc 1f f0 6f jal	zero, 0x80000d64
è¯»å–åœ°å€ 0x80000d64
0x80000d64: 02 09 04 63 beq	s2, zero, 0x80000d8c
è¯»å–åœ°å€ 0x80000d68
å†™å…¥åœ°å€ 0x800031e8
0x80000d68: 00 f9 20 23 sw	a5, 0(s2)
è¯»å–åœ°å€ 0x80000d6c
0x80000d6c: 00 07 89 13 addi	s2, a5, 0
è¯»å–åœ°å€ 0x80000d70
0x80000d70: fc 04 16 e3 bne	s0, zero, 0x80000d3c
è¯»å–åœ°å€ 0x80000d74
0x80000d74: 02 09 8a 63 beq	s3, zero, 0x80000da8
è¯»å–åœ°å€ 0x80000d78
0x80000d78: 02 04 8a 63 beq	s1, zero, 0x80000dac
è¯»å–åœ°å€ 0x80000d7c
0x80000d7c: 00 04 87 93 addi	a5, s1, 0
è¯»å–åœ°å€ 0x80000d80
0x80000d80: ff f9 89 93 addi	s3, s3, -1
è¯»å–åœ°å€ 0x80000d84
è¯»å–åœ°å€ 0x800031d8
0x80000d84: 00 04 a4 83 lw	s1, 0(s1)
è¯»å–åœ°å€ 0x80000d88
0x80000d88: fe 09 10 e3 bne	s2, zero, 0x80000d68
è¯»å–åœ°å€ 0x80000d68
å†™å…¥åœ°å€ 0x800031e0
0x80000d68: 00 f9 20 23 sw	a5, 0(s2)
è¯»å–åœ°å€ 0x80000d6c
0x80000d6c: 00 07 89 13 addi	s2, a5, 0
è¯»å–åœ°å€ 0x80000d70
0x80000d70: fc 04 16 e3 bne	s0, zero, 0x80000d3c
è¯»å–åœ°å€ 0x80000d74
0x80000d74: 02 09 8a 63 beq	s3, zero, 0x80000da8
è¯»å–åœ°å€ 0x80000da8
0x80000da8: f6 04 94 e3 bne	s1, zero, 0x80000d10
è¯»å–åœ°å€ 0x80000d10
0x80000d10: 00 1c 0c 13 addi	s8, s8, 1
è¯»å–åœ°å€ 0x80000d14
0x80000d14: 00 04 87 93 addi	a5, s1, 0
è¯»å–åœ°å€ 0x80000d18
0x80000d18: 00 00 04 13 addi	s0, zero, 0
è¯»å–åœ°å€ 0x80000d1c
è¯»å–åœ°å€ 0x800031d0
0x80000d1c: 00 07 a7 83 lw	a5, 0(a5)
è¯»å–åœ°å€ 0x80000d20
0x80000d20: 00 14 04 13 addi	s0, s0, 1
è¯»å–åœ°å€ 0x80000d24
0x80000d24: 00 07 84 63 beq	a5, zero, 0x80000d2c
è¯»å–åœ°å€ 0x80000d28
0x80000d28: fe 8a 9a e3 bne	s5, s0, 0x80000d1c
è¯»å–åœ°å€ 0x80000d2c
0x80000d2c: 00 04 8a 13 addi	s4, s1, 0
è¯»å–åœ°å€ 0x80000d30
0x80000d30: 00 0a 89 93 addi	s3, s5, 0
è¯»å–åœ°å€ 0x80000d34
0x80000d34: 00 07 84 93 addi	s1, a5, 0
è¯»å–åœ°å€ 0x80000d38
0x80000d38: 02 04 0e 63 beq	s0, zero, 0x80000d74
è¯»å–åœ°å€ 0x80000d3c
0x80000d3c: 04 09 8e 63 beq	s3, zero, 0x80000d98
è¯»å–åœ°å€ 0x80000d40
0x80000d40: 04 04 8c 63 beq	s1, zero, 0x80000d98
è¯»å–åœ°å€ 0x80000d44
è¯»å–åœ°å€ 0x800031cc
0x80000d44: 00 44 a5 83 lw	a1, 4(s1)
è¯»å–åœ°å€ 0x80000d48
è¯»å–åœ°å€ 0x800031d4
0x80000d48: 00 4a 25 03 lw	a0, 4(s4)
è¯»å–åœ°å€ 0x80000d4c
0x80000d4c: 00 0d 06 13 addi	a2, s10, 0
è¯»å–åœ°å€ 0x80000d50
0x80000d50: 00 0b 80 e7 jalr	ra, 0(s7)
è¯»å–åœ°å€ 0x80000adc
0x80000adc: 00 06 0a 63 beq	a2, zero, 0x80000af0
è¯»å–åœ°å€ 0x80000af0
è¯»å–åœ°å€ 0x800032a0
0x80000af0: 00 05 17 83 lh	a5, 0(a0)
è¯»å–åœ°å€ 0x80000af4
0x80000af4: 01 07 97 13 slli	a4, a5, 16
è¯»å–åœ°å€ 0x80000af8
0x80000af8: 01 07 57 13 srli	a4, a4, 16
è¯»å–åœ°å€ 0x80000afc
0x80000afc: 00 87 57 13 srli	a4, a4, 8
è¯»å–åœ°å€ 0x80000b00
0x80000b00: f0 07 f7 93 andi	a5, a5, -256
è¯»å–åœ°å€ 0x80000b04
0x80000b04: 00 e7 e7 b3 or	a5, a5, a4
è¯»å–åœ°å€ 0x80000b08
å†™å…¥åœ°å€ 0x800032a0
0x80000b08: 00 f5 10 23 sh	a5, 0(a0)
è¯»å–åœ°å€ 0x80000b0c
è¯»å–åœ°å€ 0x8000329c
0x80000b0c: 00 05 97 83 lh	a5, 0(a1)
è¯»å–åœ°å€ 0x80000b10
è¯»å–åœ°å€ 0x800032a2
0x80000b10: 00 25 15 03 lh	a0, 2(a0)
è¯»å–åœ°å€ 0x80000b14
0x80000b14: 01 07 97 13 slli	a4, a5, 16
è¯»å–åœ°å€ 0x80000b18
0x80000b18: 01 07 57 13 srli	a4, a4, 16
è¯»å–åœ°å€ 0x80000b1c
0x80000b1c: 00 87 57 13 srli	a4, a4, 8
è¯»å–åœ°å€ 0x80000b20
0x80000b20: f0 07 f7 93 andi	a5, a5, -256
è¯»å–åœ°å€ 0x80000b24
0x80000b24: 00 e7 e7 b3 or	a5, a5, a4
è¯»å–åœ°å€ 0x80000b28
å†™å…¥åœ°å€ 0x8000329c
0x80000b28: 00 f5 90 23 sh	a5, 0(a1)
è¯»å–åœ°å€ 0x80000b2c
è¯»å–åœ°å€ 0x8000329e
0x80000b2c: 00 25 97 83 lh	a5, 2(a1)
è¯»å–åœ°å€ 0x80000b30
0x80000b30: 40 f5 05 33 sub	a0, a0, a5
è¯»å–åœ°å€ 0x80000b34
0x80000b34: 00 00 80 67 jalr	zero, 0(ra)
è¯»å–åœ°å€ 0x80000d54
0x80000d54: 04 a0 52 63 bge	zero, a0, 0x80000d98
è¯»å–åœ°å€ 0x80000d98
0x80000d98: 00 0a 07 93 addi	a5, s4, 0
è¯»å–åœ°å€ 0x80000d9c
0x80000d9c: ff f4 04 13 addi	s0, s0, -1
è¯»å–åœ°å€ 0x80000da0
è¯»å–åœ°å€ 0x800031d0
0x80000da0: 00 0a 2a 03 lw	s4, 0(s4)
è¯»å–åœ°å€ 0x80000da4
0x80000da4: fc 1f f0 6f jal	zero, 0x80000d64
è¯»å–åœ°å€ 0x80000d64
0x80000d64: 02 09 04 63 beq	s2, zero, 0x80000d8c
è¯»å–åœ°å€ 0x80000d68
å†™å…¥åœ°å€ 0x800031d8
0x80000d68: 00 f9 20 23 sw	a5, 0(s2)
è¯»å–åœ°å€ 0x80000d6c
0x80000d6c: 00 07 89 13 addi	s2, a5, 0
è¯»å–åœ°å€ 0x80000d70
0x80000d70: fc 04 16 e3 bne	s0, zero, 0x80000d3c
è¯»å–åœ°å€ 0x80000d74
0x80000d74: 02 09 8a 63 beq	s3, zero, 0x80000da8
è¯»å–åœ°å€ 0x80000d78
0x80000d78: 02 04 8a 63 beq	s1, zero, 0x80000dac
è¯»å–åœ°å€ 0x80000d7c
0x80000d7c: 00 04 87 93 addi	a5, s1, 0
è¯»å–åœ°å€ 0x80000d80
0x80000d80: ff f9 89 93 addi	s3, s3, -1
è¯»å–åœ°å€ 0x80000d84
è¯»å–åœ°å€ 0x800031c8
0x80000d84: 00 04 a4 83 lw	s1, 0(s1)
è¯»å–åœ°å€ 0x80000d88
0x80000d88: fe 09 10 e3 bne	s2, zero, 0x80000d68
è¯»å–åœ°å€ 0x80000d68
å†™å…¥åœ°å€ 0x800031d0
0x80000d68: 00 f9 20 23 sw	a5, 0(s2)
è¯»å–åœ°å€ 0x80000d6c
0x80000d6c: 00 07 89 13 addi	s2, a5, 0
è¯»å–åœ°å€ 0x80000d70
0x80000d70: fc 04 16 e3 bne	s0, zero, 0x80000d3c
è¯»å–åœ°å€ 0x80000d74
0x80000d74: 02 09 8a 63 beq	s3, zero, 0x80000da8
è¯»å–åœ°å€ 0x80000da8
0x80000da8: f6 04 94 e3 bne	s1, zero, 0x80000d10
è¯»å–åœ°å€ 0x80000d10
0x80000d10: 00 1c 0c 13 addi	s8, s8, 1
è¯»å–åœ°å€ 0x80000d14
0x80000d14: 00 04 87 93 addi	a5, s1, 0
è¯»å–åœ°å€ 0x80000d18
0x80000d18: 00 00 04 13 addi	s0, zero, 0
è¯»å–åœ°å€ 0x80000d1c
è¯»å–åœ°å€ 0x800031c0
0x80000d1c: 00 07 a7 83 lw	a5, 0(a5)
è¯»å–åœ°å€ 0x80000d20
0x80000d20: 00 14 04 13 addi	s0, s0, 1
è¯»å–åœ°å€ 0x80000d24
0x80000d24: 00 07 84 63 beq	a5, zero, 0x80000d2c
è¯»å–åœ°å€ 0x80000d28
0x80000d28: fe 8a 9a e3 bne	s5, s0, 0x80000d1c
è¯»å–åœ°å€ 0x80000d2c
0x80000d2c: 00 04 8a 13 addi	s4, s1, 0
è¯»å–åœ°å€ 0x80000d30
0x80000d30: 00 0a 89 93 addi	s3, s5, 0
è¯»å–åœ°å€ 0x80000d34
0x80000d34: 00 07 84 93 addi	s1, a5, 0
è¯»å–åœ°å€ 0x80000d38
0x80000d38: 02 04 0e 63 beq	s0, zero, 0x80000d74
è¯»å–åœ°å€ 0x80000d3c
0x80000d3c: 04 09 8e 63 beq	s3, zero, 0x80000d98
è¯»å–åœ°å€ 0x80000d40
0x80000d40: 04 04 8c 63 beq	s1, zero, 0x80000d98
è¯»å–åœ°å€ 0x80000d44
è¯»å–åœ°å€ 0x800031bc
0x80000d44: 00 44 a5 83 lw	a1, 4(s1)
è¯»å–åœ°å€ 0x80000d48
è¯»å–åœ°å€ 0x800031c4
0x80000d48: 00 4a 25 03 lw	a0, 4(s4)
è¯»å–åœ°å€ 0x80000d4c
0x80000d4c: 00 0d 06 13 addi	a2, s10, 0
è¯»å–åœ°å€ 0x80000d50
0x80000d50: 00 0b 80 e7 jalr	ra, 0(s7)
è¯»å–åœ°å€ 0x80000adc
0x80000adc: 00 06 0a 63 beq	a2, zero, 0x80000af0
è¯»å–åœ°å€ 0x80000af0
è¯»å–åœ°å€ 0x80003298
0x80000af0: 00 05 17 83 lh	a5, 0(a0)
è¯»å–åœ°å€ 0x80000af4
0x80000af4: 01 07 97 13 slli	a4, a5, 16
è¯»å–åœ°å€ 0x80000af8
0x80000af8: 01 07 57 13 srli	a4, a4, 16
è¯»å–åœ°å€ 0x80000afc
0x80000afc: 00 87 57 13 srli	a4, a4, 8
è¯»å–åœ°å€ 0x80000b00
0x80000b00: f0 07 f7 93 andi	a5, a5, -256
è¯»å–åœ°å€ 0x80000b04
0x80000b04: 00 e7 e7 b3 or	a5, a5, a4
è¯»å–åœ°å€ 0x80000b08
å†™å…¥åœ°å€ 0x80003298
0x80000b08: 00 f5 10 23 sh	a5, 0(a0)
è¯»å–åœ°å€ 0x80000b0c
è¯»å–åœ°å€ 0x80003294
0x80000b0c: 00 05 97 83 lh	a5, 0(a1)
è¯»å–åœ°å€ 0x80000b10
è¯»å–åœ°å€ 0x8000329a
0x80000b10: 00 25 15 03 lh	a0, 2(a0)
è¯»å–åœ°å€ 0x80000b14
0x80000b14: 01 07 97 13 slli	a4, a5, 16
è¯»å–åœ°å€ 0x80000b18
0x80000b18: 01 07 57 13 srli	a4, a4, 16
è¯»å–åœ°å€ 0x80000b1c
0x80000b1c: 00 87 57 13 srli	a4, a4, 8
è¯»å–åœ°å€ 0x80000b20
0x80000b20: f0 07 f7 93 andi	a5, a5, -256
è¯»å–åœ°å€ 0x80000b24
0x80000b24: 00 e7 e7 b3 or	a5, a5, a4
è¯»å–åœ°å€ 0x80000b28
å†™å…¥åœ°å€ 0x80003294
0x80000b28: 00 f5 90 23 sh	a5, 0(a1)
è¯»å–åœ°å€ 0x80000b2c
è¯»å–åœ°å€ 0x80003296
0x80000b2c: 00 25 97 83 lh	a5, 2(a1)
è¯»å–åœ°å€ 0x80000b30
0x80000b30: 40 f5 05 33 sub	a0, a0, a5
è¯»å–åœ°å€ 0x80000b34
0x80000b34: 00 00 80 67 jalr	zero, 0(ra)
è¯»å–åœ°å€ 0x80000d54
0x80000d54: 04 a0 52 63 bge	zero, a0, 0x80000d98
è¯»å–åœ°å€ 0x80000d58
0x80000d58: 00 04 87 93 addi	a5, s1, 0
è¯»å–åœ°å€ 0x80000d5c
è¯»å–åœ°å€ 0x800031b8
0x80000d5c: 00 04 a4 83 lw	s1, 0(s1)
è¯»å–åœ°å€ 0x80000d60
0x80000d60: ff f9 89 93 addi	s3, s3, -1
è¯»å–åœ°å€ 0x80000d64
0x80000d64: 02 09 04 63 beq	s2, zero, 0x80000d8c
è¯»å–åœ°å€ 0x80000d68
å†™å…¥åœ°å€ 0x800031c8
0x80000d68: 00 f9 20 23 sw	a5, 0(s2)
è¯»å–åœ°å€ 0x80000d6c
0x80000d6c: 00 07 89 13 addi	s2, a5, 0
è¯»å–åœ°å€ 0x80000d70
0x80000d70: fc 04 16 e3 bne	s0, zero, 0x80000d3c
è¯»å–åœ°å€ 0x80000d3c
0x80000d3c: 04 09 8e 63 beq	s3, zero, 0x80000d98
è¯»å–åœ°å€ 0x80000d98
0x80000d98: 00 0a 07 93 addi	a5, s4, 0
è¯»å–åœ°å€ 0x80000d9c
0x80000d9c: ff f4 04 13 addi	s0, s0, -1
è¯»å–åœ°å€ 0x80000da0
è¯»å–åœ°å€ 0x800031c0
0x80000da0: 00 0a 2a 03 lw	s4, 0(s4)
è¯»å–åœ°å€ 0x80000da4
0x80000da4: fc 1f f0 6f jal	zero, 0x80000d64
è¯»å–åœ°å€ 0x80000d64
0x80000d64: 02 09 04 63 beq	s2, zero, 0x80000d8c
è¯»å–åœ°å€ 0x80000d68
å†™å…¥åœ°å€ 0x800031b8
0x80000d68: 00 f9 20 23 sw	a5, 0(s2)
è¯»å–åœ°å€ 0x80000d6c
0x80000d6c: 00 07 89 13 addi	s2, a5, 0
è¯»å–åœ°å€ 0x80000d70
0x80000d70: fc 04 16 e3 bne	s0, zero, 0x80000d3c
è¯»å–åœ°å€ 0x80000d74
0x80000d74: 02 09 8a 63 beq	s3, zero, 0x80000da8
è¯»å–åœ°å€ 0x80000da8
0x80000da8: f6 04 94 e3 bne	s1, zero, 0x80000d10
è¯»å–åœ°å€ 0x80000d10
0x80000d10: 00 1c 0c 13 addi	s8, s8, 1
è¯»å–åœ°å€ 0x80000d14
0x80000d14: 00 04 87 93 addi	a5, s1, 0
è¯»å–åœ°å€ 0x80000d18
0x80000d18: 00 00 04 13 addi	s0, zero, 0
è¯»å–åœ°å€ 0x80000d1c
è¯»å–åœ°å€ 0x800031b0
0x80000d1c: 00 07 a7 83 lw	a5, 0(a5)
è¯»å–åœ°å€ 0x80000d20
0x80000d20: 00 14 04 13 addi	s0, s0, 1
è¯»å–åœ°å€ 0x80000d24
0x80000d24: 00 07 84 63 beq	a5, zero, 0x80000d2c
è¯»å–åœ°å€ 0x80000d28
0x80000d28: fe 8a 9a e3 bne	s5, s0, 0x80000d1c
è¯»å–åœ°å€ 0x80000d2c
0x80000d2c: 00 04 8a 13 addi	s4, s1, 0
è¯»å–åœ°å€ 0x80000d30
0x80000d30: 00 0a 89 93 addi	s3, s5, 0
è¯»å–åœ°å€ 0x80000d34
0x80000d34: 00 07 84 93 addi	s1, a5, 0
è¯»å–åœ°å€ 0x80000d38
0x80000d38: 02 04 0e 63 beq	s0, zero, 0x80000d74
è¯»å–åœ°å€ 0x80000d3c
0x80000d3c: 04 09 8e 63 beq	s3, zero, 0x80000d98
è¯»å–åœ°å€ 0x80000d40
0x80000d40: 04 04 8c 63 beq	s1, zero, 0x80000d98
è¯»å–åœ°å€ 0x80000d44
è¯»å–åœ°å€ 0x800031ac
0x80000d44: 00 44 a5 83 lw	a1, 4(s1)
è¯»å–åœ°å€ 0x80000d48
è¯»å–åœ°å€ 0x800031b4
0x80000d48: 00 4a 25 03 lw	a0, 4(s4)
è¯»å–åœ°å€ 0x80000d4c
0x80000d4c: 00 0d 06 13 addi	a2, s10, 0
è¯»å–åœ°å€ 0x80000d50
0x80000d50: 00 0b 80 e7 jalr	ra, 0(s7)
è¯»å–åœ°å€ 0x80000adc
0x80000adc: 00 06 0a 63 beq	a2, zero, 0x80000af0
è¯»å–åœ°å€ 0x80000af0
è¯»å–åœ°å€ 0x80003290
0x80000af0: 00 05 17 83 lh	a5, 0(a0)
è¯»å–åœ°å€ 0x80000af4
0x80000af4: 01 07 97 13 slli	a4, a5, 16
è¯»å–åœ°å€ 0x80000af8
0x80000af8: 01 07 57 13 srli	a4, a4, 16
è¯»å–åœ°å€ 0x80000afc
0x80000afc: 00 87 57 13 srli	a4, a4, 8
è¯»å–åœ°å€ 0x80000b00
0x80000b00: f0 07 f7 93 andi	a5, a5, -256
è¯»å–åœ°å€ 0x80000b04
0x80000b04: 00 e7 e7 b3 or	a5, a5, a4
è¯»å–åœ°å€ 0x80000b08
å†™å…¥åœ°å€ 0x80003290
0x80000b08: 00 f5 10 23 sh	a5, 0(a0)
è¯»å–åœ°å€ 0x80000b0c
è¯»å–åœ°å€ 0x8000328c
0x80000b0c: 00 05 97 83 lh	a5, 0(a1)
è¯»å–åœ°å€ 0x80000b10
è¯»å–åœ°å€ 0x80003292
0x80000b10: 00 25 15 03 lh	a0, 2(a0)
è¯»å–åœ°å€ 0x80000b14
0x80000b14: 01 07 97 13 slli	a4, a5, 16
è¯»å–åœ°å€ 0x80000b18
0x80000b18: 01 07 57 13 srli	a4, a4, 16
è¯»å–åœ°å€ 0x80000b1c
0x80000b1c: 00 87 57 13 srli	a4, a4, 8
è¯»å–åœ°å€ 0x80000b20
0x80000b20: f0 07 f7 93 andi	a5, a5, -256
è¯»å–åœ°å€ 0x80000b24
0x80000b24: 00 e7 e7 b3 or	a5, a5, a4
è¯»å–åœ°å€ 0x80000b28
å†™å…¥åœ°å€ 0x8000328c
0x80000b28: 00 f5 90 23 sh	a5, 0(a1)
è¯»å–åœ°å€ 0x80000b2c
è¯»å–åœ°å€ 0x8000328e
0x80000b2c: 00 25 97 83 lh	a5, 2(a1)
è¯»å–åœ°å€ 0x80000b30
0x80000b30: 40 f5 05 33 sub	a0, a0, a5
è¯»å–åœ°å€ 0x80000b34
0x80000b34: 00 00 80 67 jalr	zero, 0(ra)
è¯»å–åœ°å€ 0x80000d54
0x80000d54: 04 a0 52 63 bge	zero, a0, 0x80000d98
è¯»å–åœ°å€ 0x80000d98
0x80000d98: 00 0a 07 93 addi	a5, s4, 0
è¯»å–åœ°å€ 0x80000d9c
0x80000d9c: ff f4 04 13 addi	s0, s0, -1
è¯»å–åœ°å€ 0x80000da0
è¯»å–åœ°å€ 0x800031b0
0x80000da0: 00 0a 2a 03 lw	s4, 0(s4)
è¯»å–åœ°å€ 0x80000da4
0x80000da4: fc 1f f0 6f jal	zero, 0x80000d64
è¯»å–åœ°å€ 0x80000d64
0x80000d64: 02 09 04 63 beq	s2, zero, 0x80000d8c
è¯»å–åœ°å€ 0x80000d68
å†™å…¥åœ°å€ 0x800031c0
0x80000d68: 00 f9 20 23 sw	a5, 0(s2)
è¯»å–åœ°å€ 0x80000d6c
0x80000d6c: 00 07 89 13 addi	s2, a5, 0
è¯»å–åœ°å€ 0x80000d70
0x80000d70: fc 04 16 e3 bne	s0, zero, 0x80000d3c
è¯»å–åœ°å€ 0x80000d74
0x80000d74: 02 09 8a 63 beq	s3, zero, 0x80000da8
è¯»å–åœ°å€ 0x80000d78
0x80000d78: 02 04 8a 63 beq	s1, zero, 0x80000dac
è¯»å–åœ°å€ 0x80000d7c
0x80000d7c: 00 04 87 93 addi	a5, s1, 0
è¯»å–åœ°å€ 0x80000d80
0x80000d80: ff f9 89 93 addi	s3, s3, -1
è¯»å–åœ°å€ 0x80000d84
è¯»å–åœ°å€ 0x800031a8
0x80000d84: 00 04 a4 83 lw	s1, 0(s1)
è¯»å–åœ°å€ 0x80000d88
0x80000d88: fe 09 10 e3 bne	s2, zero, 0x80000d68
è¯»å–åœ°å€ 0x80000d68
å†™å…¥åœ°å€ 0x800031b0
0x80000d68: 00 f9 20 23 sw	a5, 0(s2)
è¯»å–åœ°å€ 0x80000d6c
0x80000d6c: 00 07 89 13 addi	s2, a5, 0
è¯»å–åœ°å€ 0x80000d70
0x80000d70: fc 04 16 e3 bne	s0, zero, 0x80000d3c
è¯»å–åœ°å€ 0x80000d74
0x80000d74: 02 09 8a 63 beq	s3, zero, 0x80000da8
è¯»å–åœ°å€ 0x80000da8
0x80000da8: f6 04 94 e3 bne	s1, zero, 0x80000d10
è¯»å–åœ°å€ 0x80000d10
0x80000d10: 00 1c 0c 13 addi	s8, s8, 1
è¯»å–åœ°å€ 0x80000d14
0x80000d14: 00 04 87 93 addi	a5, s1, 0
è¯»å–åœ°å€ 0x80000d18
0x80000d18: 00 00 04 13 addi	s0, zero, 0
è¯»å–åœ°å€ 0x80000d1c
è¯»å–åœ°å€ 0x800031a0
0x80000d1c: 00 07 a7 83 lw	a5, 0(a5)
è¯»å–åœ°å€ 0x80000d20
0x80000d20: 00 14 04 13 addi	s0, s0, 1
è¯»å–åœ°å€ 0x80000d24
0x80000d24: 00 07 84 63 beq	a5, zero, 0x80000d2c
è¯»å–åœ°å€ 0x80000d28
0x80000d28: fe 8a 9a e3 bne	s5, s0, 0x80000d1c
è¯»å–åœ°å€ 0x80000d2c
0x80000d2c: 00 04 8a 13 addi	s4, s1, 0
è¯»å–åœ°å€ 0x80000d30
0x80000d30: 00 0a 89 93 addi	s3, s5, 0
è¯»å–åœ°å€ 0x80000d34
0x80000d34: 00 07 84 93 addi	s1, a5, 0
è¯»å–åœ°å€ 0x80000d38
0x80000d38: 02 04 0e 63 beq	s0, zero, 0x80000d74
è¯»å–åœ°å€ 0x80000d3c
0x80000d3c: 04 09 8e 63 beq	s3, zero, 0x80000d98
è¯»å–åœ°å€ 0x80000d40
0x80000d40: 04 04 8c 63 beq	s1, zero, 0x80000d98
è¯»å–åœ°å€ 0x80000d44
è¯»å–åœ°å€ 0x8000319c
0x80000d44: 00 44 a5 83 lw	a1, 4(s1)
è¯»å–åœ°å€ 0x80000d48
è¯»å–åœ°å€ 0x800031a4
0x80000d48: 00 4a 25 03 lw	a0, 4(s4)
è¯»å–åœ°å€ 0x80000d4c
0x80000d4c: 00 0d 06 13 addi	a2, s10, 0
è¯»å–åœ°å€ 0x80000d50
0x80000d50: 00 0b 80 e7 jalr	ra, 0(s7)
è¯»å–åœ°å€ 0x80000adc
0x80000adc: 00 06 0a 63 beq	a2, zero, 0x80000af0
è¯»å–åœ°å€ 0x80000af0
è¯»å–åœ°å€ 0x80003288
0x80000af0: 00 05 17 83 lh	a5, 0(a0)
è¯»å–åœ°å€ 0x80000af4
0x80000af4: 01 07 97 13 slli	a4, a5, 16
è¯»å–åœ°å€ 0x80000af8
0x80000af8: 01 07 57 13 srli	a4, a4, 16
è¯»å–åœ°å€ 0x80000afc
0x80000afc: 00 87 57 13 srli	a4, a4, 8
è¯»å–åœ°å€ 0x80000b00
0x80000b00: f0 07 f7 93 andi	a5, a5, -256
è¯»å–åœ°å€ 0x80000b04
0x80000b04: 00 e7 e7 b3 or	a5, a5, a4
è¯»å–åœ°å€ 0x80000b08
å†™å…¥åœ°å€ 0x80003288
0x80000b08: 00 f5 10 23 sh	a5, 0(a0)
è¯»å–åœ°å€ 0x80000b0c
è¯»å–åœ°å€ 0x80003284
0x80000b0c: 00 05 97 83 lh	a5, 0(a1)
è¯»å–åœ°å€ 0x80000b10
è¯»å–åœ°å€ 0x8000328a
0x80000b10: 00 25 15 03 lh	a0, 2(a0)
è¯»å–åœ°å€ 0x80000b14
0x80000b14: 01 07 97 13 slli	a4, a5, 16
è¯»å–åœ°å€ 0x80000b18
0x80000b18: 01 07 57 13 srli	a4, a4, 16
è¯»å–åœ°å€ 0x80000b1c
0x80000b1c: 00 87 57 13 srli	a4, a4, 8
è¯»å–åœ°å€ 0x80000b20
0x80000b20: f0 07 f7 93 andi	a5, a5, -256
è¯»å–åœ°å€ 0x80000b24
0x80000b24: 00 e7 e7 b3 or	a5, a5, a4
è¯»å–åœ°å€ 0x80000b28
å†™å…¥åœ°å€ 0x80003284
0x80000b28: 00 f5 90 23 sh	a5, 0(a1)
è¯»å–åœ°å€ 0x80000b2c
è¯»å–åœ°å€ 0x80003286
0x80000b2c: 00 25 97 83 lh	a5, 2(a1)
è¯»å–åœ°å€ 0x80000b30
0x80000b30: 40 f5 05 33 sub	a0, a0, a5
è¯»å–åœ°å€ 0x80000b34
0x80000b34: 00 00 80 67 jalr	zero, 0(ra)
è¯»å–åœ°å€ 0x80000d54
0x80000d54: 04 a0 52 63 bge	zero, a0, 0x80000d98
è¯»å–åœ°å€ 0x80000d98
0x80000d98: 00 0a 07 93 addi	a5, s4, 0
è¯»å–åœ°å€ 0x80000d9c
0x80000d9c: ff f4 04 13 addi	s0, s0, -1
è¯»å–åœ°å€ 0x80000da0
è¯»å–åœ°å€ 0x800031a0
0x80000da0: 00 0a 2a 03 lw	s4, 0(s4)
è¯»å–åœ°å€ 0x80000da4
0x80000da4: fc 1f f0 6f jal	zero, 0x80000d64
è¯»å–åœ°å€ 0x80000d64
0x80000d64: 02 09 04 63 beq	s2, zero, 0x80000d8c
è¯»å–åœ°å€ 0x80000d68
å†™å…¥åœ°å€ 0x800031a8
0x80000d68: 00 f9 20 23 sw	a5, 0(s2)
è¯»å–åœ°å€ 0x80000d6c
0x80000d6c: 00 07 89 13 addi	s2, a5, 0
è¯»å–åœ°å€ 0x80000d70
0x80000d70: fc 04 16 e3 bne	s0, zero, 0x80000d3c
è¯»å–åœ°å€ 0x80000d74
0x80000d74: 02 09 8a 63 beq	s3, zero, 0x80000da8
è¯»å–åœ°å€ 0x80000d78
0x80000d78: 02 04 8a 63 beq	s1, zero, 0x80000dac
è¯»å–åœ°å€ 0x80000d7c
0x80000d7c: 00 04 87 93 addi	a5, s1, 0
è¯»å–åœ°å€ 0x80000d80
0x80000d80: ff f9 89 93 addi	s3, s3, -1
è¯»å–åœ°å€ 0x80000d84
è¯»å–åœ°å€ 0x80003198
0x80000d84: 00 04 a4 83 lw	s1, 0(s1)
è¯»å–åœ°å€ 0x80000d88
0x80000d88: fe 09 10 e3 bne	s2, zero, 0x80000d68
è¯»å–åœ°å€ 0x80000d68
å†™å…¥åœ°å€ 0x800031a0
0x80000d68: 00 f9 20 23 sw	a5, 0(s2)
è¯»å–åœ°å€ 0x80000d6c
0x80000d6c: 00 07 89 13 addi	s2, a5, 0
è¯»å–åœ°å€ 0x80000d70
0x80000d70: fc 04 16 e3 bne	s0, zero, 0x80000d3c
è¯»å–åœ°å€ 0x80000d74
0x80000d74: 02 09 8a 63 beq	s3, zero, 0x80000da8
è¯»å–åœ°å€ 0x80000da8
0x80000da8: f6 04 94 e3 bne	s1, zero, 0x80000d10
è¯»å–åœ°å€ 0x80000d10
0x80000d10: 00 1c 0c 13 addi	s8, s8, 1
è¯»å–åœ°å€ 0x80000d14
0x80000d14: 00 04 87 93 addi	a5, s1, 0
è¯»å–åœ°å€ 0x80000d18
0x80000d18: 00 00 04 13 addi	s0, zero, 0
è¯»å–åœ°å€ 0x80000d1c
è¯»å–åœ°å€ 0x80003190
0x80000d1c: 00 07 a7 83 lw	a5, 0(a5)
è¯»å–åœ°å€ 0x80000d20
0x80000d20: 00 14 04 13 addi	s0, s0, 1
è¯»å–åœ°å€ 0x80000d24
0x80000d24: 00 07 84 63 beq	a5, zero, 0x80000d2c
è¯»å–åœ°å€ 0x80000d28
0x80000d28: fe 8a 9a e3 bne	s5, s0, 0x80000d1c
è¯»å–åœ°å€ 0x80000d2c
0x80000d2c: 00 04 8a 13 addi	s4, s1, 0
è¯»å–åœ°å€ 0x80000d30
0x80000d30: 00 0a 89 93 addi	s3, s5, 0
è¯»å–åœ°å€ 0x80000d34
0x80000d34: 00 07 84 93 addi	s1, a5, 0
è¯»å–åœ°å€ 0x80000d38
0x80000d38: 02 04 0e 63 beq	s0, zero, 0x80000d74
è¯»å–åœ°å€ 0x80000d3c
0x80000d3c: 04 09 8e 63 beq	s3, zero, 0x80000d98
è¯»å–åœ°å€ 0x80000d40
0x80000d40: 04 04 8c 63 beq	s1, zero, 0x80000d98
è¯»å–åœ°å€ 0x80000d44
è¯»å–åœ°å€ 0x8000318c
0x80000d44: 00 44 a5 83 lw	a1, 4(s1)
è¯»å–åœ°å€ 0x80000d48
è¯»å–åœ°å€ 0x80003194
0x80000d48: 00 4a 25 03 lw	a0, 4(s4)
è¯»å–åœ°å€ 0x80000d4c
0x80000d4c: 00 0d 06 13 addi	a2, s10, 0
è¯»å–åœ°å€ 0x80000d50
0x80000d50: 00 0b 80 e7 jalr	ra, 0(s7)
è¯»å–åœ°å€ 0x80000adc
0x80000adc: 00 06 0a 63 beq	a2, zero, 0x80000af0
è¯»å–åœ°å€ 0x80000af0
è¯»å–åœ°å€ 0x80003280
0x80000af0: 00 05 17 83 lh	a5, 0(a0)
è¯»å–åœ°å€ 0x80000af4
0x80000af4: 01 07 97 13 slli	a4, a5, 16
è¯»å–åœ°å€ 0x80000af8
0x80000af8: 01 07 57 13 srli	a4, a4, 16
è¯»å–åœ°å€ 0x80000afc
0x80000afc: 00 87 57 13 srli	a4, a4, 8
è¯»å–åœ°å€ 0x80000b00
0x80000b00: f0 07 f7 93 andi	a5, a5, -256
è¯»å–åœ°å€ 0x80000b04
0x80000b04: 00 e7 e7 b3 or	a5, a5, a4
è¯»å–åœ°å€ 0x80000b08
å†™å…¥åœ°å€ 0x80003280
0x80000b08: 00 f5 10 23 sh	a5, 0(a0)
è¯»å–åœ°å€ 0x80000b0c
è¯»å–åœ°å€ 0x8000327c
0x80000b0c: 00 05 97 83 lh	a5, 0(a1)
è¯»å–åœ°å€ 0x80000b10
è¯»å–åœ°å€ 0x80003282
0x80000b10: 00 25 15 03 lh	a0, 2(a0)
è¯»å–åœ°å€ 0x80000b14
0x80000b14: 01 07 97 13 slli	a4, a5, 16
è¯»å–åœ°å€ 0x80000b18
0x80000b18: 01 07 57 13 srli	a4, a4, 16
è¯»å–åœ°å€ 0x80000b1c
0x80000b1c: 00 87 57 13 srli	a4, a4, 8
è¯»å–åœ°å€ 0x80000b20
0x80000b20: f0 07 f7 93 andi	a5, a5, -256
è¯»å–åœ°å€ 0x80000b24
0x80000b24: 00 e7 e7 b3 or	a5, a5, a4
è¯»å–åœ°å€ 0x80000b28
å†™å…¥åœ°å€ 0x8000327c
0x80000b28: 00 f5 90 23 sh	a5, 0(a1)
è¯»å–åœ°å€ 0x80000b2c
è¯»å–åœ°å€ 0x8000327e
0x80000b2c: 00 25 97 83 lh	a5, 2(a1)
è¯»å–åœ°å€ 0x80000b30
0x80000b30: 40 f5 05 33 sub	a0, a0, a5
è¯»å–åœ°å€ 0x80000b34
0x80000b34: 00 00 80 67 jalr	zero, 0(ra)
è¯»å–åœ°å€ 0x80000d54
0x80000d54: 04 a0 52 63 bge	zero, a0, 0x80000d98
è¯»å–åœ°å€ 0x80000d98
0x80000d98: 00 0a 07 93 addi	a5, s4, 0
è¯»å–åœ°å€ 0x80000d9c
0x80000d9c: ff f4 04 13 addi	s0, s0, -1
è¯»å–åœ°å€ 0x80000da0
è¯»å–åœ°å€ 0x80003190
0x80000da0: 00 0a 2a 03 lw	s4, 0(s4)
è¯»å–åœ°å€ 0x80000da4
0x80000da4: fc 1f f0 6f jal	zero, 0x80000d64
è¯»å–åœ°å€ 0x80000d64
0x80000d64: 02 09 04 63 beq	s2, zero, 0x80000d8c
è¯»å–åœ°å€ 0x80000d68
å†™å…¥åœ°å€ 0x80003198
0x80000d68: 00 f9 20 23 sw	a5, 0(s2)
è¯»å–åœ°å€ 0x80000d6c
0x80000d6c: 00 07 89 13 addi	s2, a5, 0
è¯»å–åœ°å€ 0x80000d70
0x80000d70: fc 04 16 e3 bne	s0, zero, 0x80000d3c
è¯»å–åœ°å€ 0x80000d74
0x80000d74: 02 09 8a 63 beq	s3, zero, 0x80000da8
è¯»å–åœ°å€ 0x80000d78
0x80000d78: 02 04 8a 63 beq	s1, zero, 0x80000dac
è¯»å–åœ°å€ 0x80000d7c
0x80000d7c: 00 04 87 93 addi	a5, s1, 0
è¯»å–åœ°å€ 0x80000d80
0x80000d80: ff f9 89 93 addi	s3, s3, -1
è¯»å–åœ°å€ 0x80000d84
è¯»å–åœ°å€ 0x80003188
0x80000d84: 00 04 a4 83 lw	s1, 0(s1)
è¯»å–åœ°å€ 0x80000d88
0x80000d88: fe 09 10 e3 bne	s2, zero, 0x80000d68
è¯»å–åœ°å€ 0x80000d68
å†™å…¥åœ°å€ 0x80003190
0x80000d68: 00 f9 20 23 sw	a5, 0(s2)
è¯»å–åœ°å€ 0x80000d6c
0x80000d6c: 00 07 89 13 addi	s2, a5, 0
è¯»å–åœ°å€ 0x80000d70
0x80000d70: fc 04 16 e3 bne	s0, zero, 0x80000d3c
è¯»å–åœ°å€ 0x80000d74
0x80000d74: 02 09 8a 63 beq	s3, zero, 0x80000da8
è¯»å–åœ°å€ 0x80000da8
0x80000da8: f6 04 94 e3 bne	s1, zero, 0x80000d10
è¯»å–åœ°å€ 0x80000dac
å†™å…¥åœ°å€ 0x80003188
0x80000dac: 00 09 20 23 sw	zero, 0(s2)
è¯»å–åœ°å€ 0x80000db0
0x80000db0: 01 9c 0c 63 beq	s8, s9, 0x80000dc8
è¯»å–åœ°å€ 0x80000db4
0x80000db4: 00 1a 9a 93 slli	s5, s5, 1
è¯»å–åœ°å€ 0x80000db8
0x80000db8: 00 0b 04 93 addi	s1, s6, 0
è¯»å–åœ°å€ 0x80000dbc
0x80000dbc: f4 5f f0 6f jal	zero, 0x80000d00
è¯»å–åœ°å€ 0x80000d00
0x80000d00: 0c 04 80 63 beq	s1, zero, 0x80000dc0
è¯»å–åœ°å€ 0x80000d04
0x80000d04: 00 00 0c 13 addi	s8, zero, 0
è¯»å–åœ°å€ 0x80000d08
0x80000d08: 00 00 09 13 addi	s2, zero, 0
è¯»å–åœ°å€ 0x80000d0c
0x80000d0c: 00 00 0b 13 addi	s6, zero, 0
è¯»å–åœ°å€ 0x80000d10
0x80000d10: 00 1c 0c 13 addi	s8, s8, 1
è¯»å–åœ°å€ 0x80000d14
0x80000d14: 00 04 87 93 addi	a5, s1, 0
è¯»å–åœ°å€ 0x80000d18
0x80000d18: 00 00 04 13 addi	s0, zero, 0
è¯»å–åœ°å€ 0x80000d1c
è¯»å–åœ°å€ 0x80003180
0x80000d1c: 00 07 a7 83 lw	a5, 0(a5)
è¯»å–åœ°å€ 0x80000d20
0x80000d20: 00 14 04 13 addi	s0, s0, 1
è¯»å–åœ°å€ 0x80000d24
0x80000d24: 00 07 84 63 beq	a5, zero, 0x80000d2c
è¯»å–åœ°å€ 0x80000d28
0x80000d28: fe 8a 9a e3 bne	s5, s0, 0x80000d1c
è¯»å–åœ°å€ 0x80000d1c
è¯»å–åœ°å€ 0x80003268
0x80000d1c: 00 07 a7 83 lw	a5, 0(a5)
è¯»å–åœ°å€ 0x80000d20
0x80000d20: 00 14 04 13 addi	s0, s0, 1
è¯»å–åœ°å€ 0x80000d24
0x80000d24: 00 07 84 63 beq	a5, zero, 0x80000d2c
è¯»å–åœ°å€ 0x80000d28
0x80000d28: fe 8a 9a e3 bne	s5, s0, 0x80000d1c
è¯»å–åœ°å€ 0x80000d2c
0x80000d2c: 00 04 8a 13 addi	s4, s1, 0
è¯»å–åœ°å€ 0x80000d30
0x80000d30: 00 0a 89 93 addi	s3, s5, 0
è¯»å–åœ°å€ 0x80000d34
0x80000d34: 00 07 84 93 addi	s1, a5, 0
è¯»å–åœ°å€ 0x80000d38
0x80000d38: 02 04 0e 63 beq	s0, zero, 0x80000d74
è¯»å–åœ°å€ 0x80000d3c
0x80000d3c: 04 09 8e 63 beq	s3, zero, 0x80000d98
è¯»å–åœ°å€ 0x80000d40
0x80000d40: 04 04 8c 63 beq	s1, zero, 0x80000d98
è¯»å–åœ°å€ 0x80000d44
è¯»å–åœ°å€ 0x80003264
0x80000d44: 00 44 a5 83 lw	a1, 4(s1)
è¯»å–åœ°å€ 0x80000d48
è¯»å–åœ°å€ 0x80003184
0x80000d48: 00 4a 25 03 lw	a0, 4(s4)
è¯»å–åœ°å€ 0x80000d4c
0x80000d4c: 00 0d 06 13 addi	a2, s10, 0
è¯»å–åœ°å€ 0x80000d50
0x80000d50: 00 0b 80 e7 jalr	ra, 0(s7)
è¯»å–åœ°å€ 0x80000adc
0x80000adc: 00 06 0a 63 beq	a2, zero, 0x80000af0
è¯»å–åœ°å€ 0x80000af0
è¯»å–åœ°å€ 0x80003278
0x80000af0: 00 05 17 83 lh	a5, 0(a0)
è¯»å–åœ°å€ 0x80000af4
0x80000af4: 01 07 97 13 slli	a4, a5, 16
è¯»å–åœ°å€ 0x80000af8
0x80000af8: 01 07 57 13 srli	a4, a4, 16
è¯»å–åœ°å€ 0x80000afc
0x80000afc: 00 87 57 13 srli	a4, a4, 8
è¯»å–åœ°å€ 0x80000b00
0x80000b00: f0 07 f7 93 andi	a5, a5, -256
è¯»å–åœ°å€ 0x80000b04
0x80000b04: 00 e7 e7 b3 or	a5, a5, a4
è¯»å–åœ°å€ 0x80000b08
å†™å…¥åœ°å€ 0x80003278
0x80000b08: 00 f5 10 23 sh	a5, 0(a0)
è¯»å–åœ°å€ 0x80000b0c
è¯»å–åœ°å€ 0x800032e8
0x80000b0c: 00 05 97 83 lh	a5, 0(a1)
è¯»å–åœ°å€ 0x80000b10
è¯»å–åœ°å€ 0x8000327a
0x80000b10: 00 25 15 03 lh	a0, 2(a0)
è¯»å–åœ°å€ 0x80000b14
0x80000b14: 01 07 97 13 slli	a4, a5, 16
è¯»å–åœ°å€ 0x80000b18
0x80000b18: 01 07 57 13 srli	a4, a4, 16
è¯»å–åœ°å€ 0x80000b1c
0x80000b1c: 00 87 57 13 srli	a4, a4, 8
è¯»å–åœ°å€ 0x80000b20
0x80000b20: f0 07 f7 93 andi	a5, a5, -256
è¯»å–åœ°å€ 0x80000b24
0x80000b24: 00 e7 e7 b3 or	a5, a5, a4
è¯»å–åœ°å€ 0x80000b28
å†™å…¥åœ°å€ 0x800032e8
0x80000b28: 00 f5 90 23 sh	a5, 0(a1)
è¯»å–åœ°å€ 0x80000b2c
è¯»å–åœ°å€ 0x800032ea
0x80000b2c: 00 25 97 83 lh	a5, 2(a1)
è¯»å–åœ°å€ 0x80000b30
0x80000b30: 40 f5 05 33 sub	a0, a0, a5
è¯»å–åœ°å€ 0x80000b34
0x80000b34: 00 00 80 67 jalr	zero, 0(ra)
è¯»å–åœ°å€ 0x80000d54
0x80000d54: 04 a0 52 63 bge	zero, a0, 0x80000d98
è¯»å–åœ°å€ 0x80000d98
0x80000d98: 00 0a 07 93 addi	a5, s4, 0
è¯»å–åœ°å€ 0x80000d9c
0x80000d9c: ff f4 04 13 addi	s0, s0, -1
è¯»å–åœ°å€ 0x80000da0
è¯»å–åœ°å€ 0x80003180
0x80000da0: 00 0a 2a 03 lw	s4, 0(s4)
è¯»å–åœ°å€ 0x80000da4
0x80000da4: fc 1f f0 6f jal	zero, 0x80000d64
è¯»å–åœ°å€ 0x80000d64
0x80000d64: 02 09 04 63 beq	s2, zero, 0x80000d8c
è¯»å–åœ°å€ 0x80000d8c
0x80000d8c: 00 07 8b 13 addi	s6, a5, 0
è¯»å–åœ°å€ 0x80000d90
0x80000d90: 00 07 89 13 addi	s2, a5, 0
è¯»å–åœ°å€ 0x80000d94
0x80000d94: fd df f0 6f jal	zero, 0x80000d70
è¯»å–åœ°å€ 0x80000d70
0x80000d70: fc 04 16 e3 bne	s0, zero, 0x80000d3c
è¯»å–åœ°å€ 0x80000d3c
0x80000d3c: 04 09 8e 63 beq	s3, zero, 0x80000d98
è¯»å–åœ°å€ 0x80000d40
0x80000d40: 04 04 8c 63 beq	s1, zero, 0x80000d98
è¯»å–åœ°å€ 0x80000d44
è¯»å–åœ°å€ 0x80003264
0x80000d44: 00 44 a5 83 lw	a1, 4(s1)
è¯»å–åœ°å€ 0x80000d48
è¯»å–åœ°å€ 0x8000326c
0x80000d48: 00 4a 25 03 lw	a0, 4(s4)
è¯»å–åœ°å€ 0x80000d4c
0x80000d4c: 00 0d 06 13 addi	a2, s10, 0
è¯»å–åœ°å€ 0x80000d50
0x80000d50: 00 0b 80 e7 jalr	ra, 0(s7)
è¯»å–åœ°å€ 0x80000adc
0x80000adc: 00 06 0a 63 beq	a2, zero, 0x80000af0
è¯»å–åœ°å€ 0x80000af0
è¯»å–åœ°å€ 0x800032ec
0x80000af0: 00 05 17 83 lh	a5, 0(a0)
è¯»å–åœ°å€ 0x80000af4
0x80000af4: 01 07 97 13 slli	a4, a5, 16
è¯»å–åœ°å€ 0x80000af8
0x80000af8: 01 07 57 13 srli	a4, a4, 16
è¯»å–åœ°å€ 0x80000afc
0x80000afc: 00 87 57 13 srli	a4, a4, 8
è¯»å–åœ°å€ 0x80000b00
0x80000b00: f0 07 f7 93 andi	a5, a5, -256
è¯»å–åœ°å€ 0x80000b04
0x80000b04: 00 e7 e7 b3 or	a5, a5, a4
è¯»å–åœ°å€ 0x80000b08
å†™å…¥åœ°å€ 0x800032ec
0x80000b08: 00 f5 10 23 sh	a5, 0(a0)
è¯»å–åœ°å€ 0x80000b0c
è¯»å–åœ°å€ 0x800032e8
0x80000b0c: 00 05 97 83 lh	a5, 0(a1)
è¯»å–åœ°å€ 0x80000b10
è¯»å–åœ°å€ 0x800032ee
0x80000b10: 00 25 15 03 lh	a0, 2(a0)
è¯»å–åœ°å€ 0x80000b14
0x80000b14: 01 07 97 13 slli	a4, a5, 16
è¯»å–åœ°å€ 0x80000b18
0x80000b18: 01 07 57 13 srli	a4, a4, 16
è¯»å–åœ°å€ 0x80000b1c
0x80000b1c: 00 87 57 13 srli	a4, a4, 8
è¯»å–åœ°å€ 0x80000b20
0x80000b20: f0 07 f7 93 andi	a5, a5, -256
è¯»å–åœ°å€ 0x80000b24
0x80000b24: 00 e7 e7 b3 or	a5, a5, a4
è¯»å–åœ°å€ 0x80000b28
å†™å…¥åœ°å€ 0x800032e8
0x80000b28: 00 f5 90 23 sh	a5, 0(a1)
è¯»å–åœ°å€ 0x80000b2c
è¯»å–åœ°å€ 0x800032ea
0x80000b2c: 00 25 97 83 lh	a5, 2(a1)
è¯»å–åœ°å€ 0x80000b30
0x80000b30: 40 f5 05 33 sub	a0, a0, a5
è¯»å–åœ°å€ 0x80000b34
0x80000b34: 00 00 80 67 jalr	zero, 0(ra)
è¯»å–åœ°å€ 0x80000d54
0x80000d54: 04 a0 52 63 bge	zero, a0, 0x80000d98
è¯»å–åœ°å€ 0x80000d98
0x80000d98: 00 0a 07 93 addi	a5, s4, 0
è¯»å–åœ°å€ 0x80000d9c
0x80000d9c: ff f4 04 13 addi	s0, s0, -1
è¯»å–åœ°å€ 0x80000da0
è¯»å–åœ°å€ 0x80003268
0x80000da0: 00 0a 2a 03 lw	s4, 0(s4)
è¯»å–åœ°å€ 0x80000da4
0x80000da4: fc 1f f0 6f jal	zero, 0x80000d64
è¯»å–åœ°å€ 0x80000d64
0x80000d64: 02 09 04 63 beq	s2, zero, 0x80000d8c
è¯»å–åœ°å€ 0x80000d68
å†™å…¥åœ°å€ 0x80003180
0x80000d68: 00 f9 20 23 sw	a5, 0(s2)
è¯»å–åœ°å€ 0x80000d6c
0x80000d6c: 00 07 89 13 addi	s2, a5, 0
è¯»å–åœ°å€ 0x80000d70
0x80000d70: fc 04 16 e3 bne	s0, zero, 0x80000d3c
è¯»å–åœ°å€ 0x80000d74
0x80000d74: 02 09 8a 63 beq	s3, zero, 0x80000da8
è¯»å–åœ°å€ 0x80000d78
0x80000d78: 02 04 8a 63 beq	s1, zero, 0x80000dac
è¯»å–åœ°å€ 0x80000d7c
0x80000d7c: 00 04 87 93 addi	a5, s1, 0
è¯»å–åœ°å€ 0x80000d80
0x80000d80: ff f9 89 93 addi	s3, s3, -1
è¯»å–åœ°å€ 0x80000d84
è¯»å–åœ°å€ 0x80003260
0x80000d84: 00 04 a4 83 lw	s1, 0(s1)
è¯»å–åœ°å€ 0x80000d88
0x80000d88: fe 09 10 e3 bne	s2, zero, 0x80000d68
è¯»å–åœ°å€ 0x80000d68
å†™å…¥åœ°å€ 0x80003268
0x80000d68: 00 f9 20 23 sw	a5, 0(s2)
è¯»å–åœ°å€ 0x80000d6c
0x80000d6c: 00 07 89 13 addi	s2, a5, 0
è¯»å–åœ°å€ 0x80000d70
0x80000d70: fc 04 16 e3 bne	s0, zero, 0x80000d3c
è¯»å–åœ°å€ 0x80000d74
0x80000d74: 02 09 8a 63 beq	s3, zero, 0x80000da8
è¯»å–åœ°å€ 0x80000d78
0x80000d78: 02 04 8a 63 beq	s1, zero, 0x80000dac
è¯»å–åœ°å€ 0x80000d7c
0x80000d7c: 00 04 87 93 addi	a5, s1, 0
è¯»å–åœ°å€ 0x80000d80
0x80000d80: ff f9 89 93 addi	s3, s3, -1
è¯»å–åœ°å€ 0x80000d84
è¯»å–åœ°å€ 0x80003258
0x80000d84: 00 04 a4 83 lw	s1, 0(s1)
è¯»å–åœ°å€ 0x80000d88
0x80000d88: fe 09 10 e3 bne	s2, zero, 0x80000d68
è¯»å–åœ°å€ 0x80000d68
å†™å…¥åœ°å€ 0x80003260
0x80000d68: 00 f9 20 23 sw	a5, 0(s2)
è¯»å–åœ°å€ 0x80000d6c
0x80000d6c: 00 07 89 13 addi	s2, a5, 0
è¯»å–åœ°å€ 0x80000d70
0x80000d70: fc 04 16 e3 bne	s0, zero, 0x80000d3c
è¯»å–åœ°å€ 0x80000d74
0x80000d74: 02 09 8a 63 beq	s3, zero, 0x80000da8
è¯»å–åœ°å€ 0x80000da8
0x80000da8: f6 04 94 e3 bne	s1, zero, 0x80000d10
è¯»å–åœ°å€ 0x80000d10
0x80000d10: 00 1c 0c 13 addi	s8, s8, 1
è¯»å–åœ°å€ 0x80000d14
0x80000d14: 00 04 87 93 addi	a5, s1, 0
è¯»å–åœ°å€ 0x80000d18
0x80000d18: 00 00 04 13 addi	s0, zero, 0
è¯»å–åœ°å€ 0x80000d1c
è¯»å–åœ°å€ 0x80003250
0x80000d1c: 00 07 a7 83 lw	a5, 0(a5)
è¯»å–åœ°å€ 0x80000d20
0x80000d20: 00 14 04 13 addi	s0, s0, 1
è¯»å–åœ°å€ 0x80000d24
0x80000d24: 00 07 84 63 beq	a5, zero, 0x80000d2c
è¯»å–åœ°å€ 0x80000d28
0x80000d28: fe 8a 9a e3 bne	s5, s0, 0x80000d1c
è¯»å–åœ°å€ 0x80000d1c
è¯»å–åœ°å€ 0x80003248
0x80000d1c: 00 07 a7 83 lw	a5, 0(a5)
è¯»å–åœ°å€ 0x80000d20
0x80000d20: 00 14 04 13 addi	s0, s0, 1
è¯»å–åœ°å€ 0x80000d24
0x80000d24: 00 07 84 63 beq	a5, zero, 0x80000d2c
è¯»å–åœ°å€ 0x80000d28
0x80000d28: fe 8a 9a e3 bne	s5, s0, 0x80000d1c
è¯»å–åœ°å€ 0x80000d2c
0x80000d2c: 00 04 8a 13 addi	s4, s1, 0
è¯»å–åœ°å€ 0x80000d30
0x80000d30: 00 0a 89 93 addi	s3, s5, 0
è¯»å–åœ°å€ 0x80000d34
0x80000d34: 00 07 84 93 addi	s1, a5, 0
è¯»å–åœ°å€ 0x80000d38
0x80000d38: 02 04 0e 63 beq	s0, zero, 0x80000d74
è¯»å–åœ°å€ 0x80000d3c
0x80000d3c: 04 09 8e 63 beq	s3, zero, 0x80000d98
è¯»å–åœ°å€ 0x80000d40
0x80000d40: 04 04 8c 63 beq	s1, zero, 0x80000d98
è¯»å–åœ°å€ 0x80000d44
è¯»å–åœ°å€ 0x8000323c
0x80000d44: 00 44 a5 83 lw	a1, 4(s1)
è¯»å–åœ°å€ 0x80000d48
è¯»å–åœ°å€ 0x80003254
0x80000d48: 00 4a 25 03 lw	a0, 4(s4)
è¯»å–åœ°å€ 0x80000d4c
0x80000d4c: 00 0d 06 13 addi	a2, s10, 0
è¯»å–åœ°å€ 0x80000d50
0x80000d50: 00 0b 80 e7 jalr	ra, 0(s7)
è¯»å–åœ°å€ 0x80000adc
0x80000adc: 00 06 0a 63 beq	a2, zero, 0x80000af0
è¯»å–åœ°å€ 0x80000af0
è¯»å–åœ°å€ 0x800032e0
0x80000af0: 00 05 17 83 lh	a5, 0(a0)
è¯»å–åœ°å€ 0x80000af4
0x80000af4: 01 07 97 13 slli	a4, a5, 16
è¯»å–åœ°å€ 0x80000af8
0x80000af8: 01 07 57 13 srli	a4, a4, 16
è¯»å–åœ°å€ 0x80000afc
0x80000afc: 00 87 57 13 srli	a4, a4, 8
è¯»å–åœ°å€ 0x80000b00
0x80000b00: f0 07 f7 93 andi	a5, a5, -256
è¯»å–åœ°å€ 0x80000b04
0x80000b04: 00 e7 e7 b3 or	a5, a5, a4
è¯»å–åœ°å€ 0x80000b08
å†™å…¥åœ°å€ 0x800032e0
0x80000b08: 00 f5 10 23 sh	a5, 0(a0)
è¯»å–åœ°å€ 0x80000b0c
è¯»å–åœ°å€ 0x800032d4
0x80000b0c: 00 05 97 83 lh	a5, 0(a1)
è¯»å–åœ°å€ 0x80000b10
è¯»å–åœ°å€ 0x800032e2
0x80000b10: 00 25 15 03 lh	a0, 2(a0)
è¯»å–åœ°å€ 0x80000b14
0x80000b14: 01 07 97 13 slli	a4, a5, 16
è¯»å–åœ°å€ 0x80000b18
0x80000b18: 01 07 57 13 srli	a4, a4, 16
è¯»å–åœ°å€ 0x80000b1c
0x80000b1c: 00 87 57 13 srli	a4, a4, 8
è¯»å–åœ°å€ 0x80000b20
0x80000b20: f0 07 f7 93 andi	a5, a5, -256
è¯»å–åœ°å€ 0x80000b24
0x80000b24: 00 e7 e7 b3 or	a5, a5, a4
è¯»å–åœ°å€ 0x80000b28
å†™å…¥åœ°å€ 0x800032d4
0x80000b28: 00 f5 90 23 sh	a5, 0(a1)
è¯»å–åœ°å€ 0x80000b2c
è¯»å–åœ°å€ 0x800032d6
0x80000b2c: 00 25 97 83 lh	a5, 2(a1)
è¯»å–åœ°å€ 0x80000b30
0x80000b30: 40 f5 05 33 sub	a0, a0, a5
è¯»å–åœ°å€ 0x80000b34
0x80000b34: 00 00 80 67 jalr	zero, 0(ra)
è¯»å–åœ°å€ 0x80000d54
0x80000d54: 04 a0 52 63 bge	zero, a0, 0x80000d98
è¯»å–åœ°å€ 0x80000d98
0x80000d98: 00 0a 07 93 addi	a5, s4, 0
è¯»å–åœ°å€ 0x80000d9c
0x80000d9c: ff f4 04 13 addi	s0, s0, -1
è¯»å–åœ°å€ 0x80000da0
è¯»å–åœ°å€ 0x80003250
0x80000da0: 00 0a 2a 03 lw	s4, 0(s4)
è¯»å–åœ°å€ 0x80000da4
0x80000da4: fc 1f f0 6f jal	zero, 0x80000d64
è¯»å–åœ°å€ 0x80000d64
0x80000d64: 02 09 04 63 beq	s2, zero, 0x80000d8c
è¯»å–åœ°å€ 0x80000d68
å†™å…¥åœ°å€ 0x80003258
0x80000d68: 00 f9 20 23 sw	a5, 0(s2)
è¯»å–åœ°å€ 0x80000d6c
0x80000d6c: 00 07 89 13 addi	s2, a5, 0
è¯»å–åœ°å€ 0x80000d70
0x80000d70: fc 04 16 e3 bne	s0, zero, 0x80000d3c
è¯»å–åœ°å€ 0x80000d3c
0x80000d3c: 04 09 8e 63 beq	s3, zero, 0x80000d98
è¯»å–åœ°å€ 0x80000d40
0x80000d40: 04 04 8c 63 beq	s1, zero, 0x80000d98
è¯»å–åœ°å€ 0x80000d44
è¯»å–åœ°å€ 0x8000323c
0x80000d44: 00 44 a5 83 lw	a1, 4(s1)
è¯»å–åœ°å€ 0x80000d48
è¯»å–åœ°å€ 0x8000324c
0x80000d48: 00 4a 25 03 lw	a0, 4(s4)
è¯»å–åœ°å€ 0x80000d4c
0x80000d4c: 00 0d 06 13 addi	a2, s10, 0
è¯»å–åœ°å€ 0x80000d50
0x80000d50: 00 0b 80 e7 jalr	ra, 0(s7)
è¯»å–åœ°å€ 0x80000adc
0x80000adc: 00 06 0a 63 beq	a2, zero, 0x80000af0
è¯»å–åœ°å€ 0x80000af0
è¯»å–åœ°å€ 0x800032dc
0x80000af0: 00 05 17 83 lh	a5, 0(a0)
è¯»å–åœ°å€ 0x80000af4
0x80000af4: 01 07 97 13 slli	a4, a5, 16
è¯»å–åœ°å€ 0x80000af8
0x80000af8: 01 07 57 13 srli	a4, a4, 16
è¯»å–åœ°å€ 0x80000afc
0x80000afc: 00 87 57 13 srli	a4, a4, 8
è¯»å–åœ°å€ 0x80000b00
0x80000b00: f0 07 f7 93 andi	a5, a5, -256
è¯»å–åœ°å€ 0x80000b04
0x80000b04: 00 e7 e7 b3 or	a5, a5, a4
è¯»å–åœ°å€ 0x80000b08
å†™å…¥åœ°å€ 0x800032dc
0x80000b08: 00 f5 10 23 sh	a5, 0(a0)
è¯»å–åœ°å€ 0x80000b0c
è¯»å–åœ°å€ 0x800032d4
0x80000b0c: 00 05 97 83 lh	a5, 0(a1)
è¯»å–åœ°å€ 0x80000b10
è¯»å–åœ°å€ 0x800032de
0x80000b10: 00 25 15 03 lh	a0, 2(a0)
è¯»å–åœ°å€ 0x80000b14
0x80000b14: 01 07 97 13 slli	a4, a5, 16
è¯»å–åœ°å€ 0x80000b18
0x80000b18: 01 07 57 13 srli	a4, a4, 16
è¯»å–åœ°å€ 0x80000b1c
0x80000b1c: 00 87 57 13 srli	a4, a4, 8
è¯»å–åœ°å€ 0x80000b20
0x80000b20: f0 07 f7 93 andi	a5, a5, -256
è¯»å–åœ°å€ 0x80000b24
0x80000b24: 00 e7 e7 b3 or	a5, a5, a4
è¯»å–åœ°å€ 0x80000b28
å†™å…¥åœ°å€ 0x800032d4
0x80000b28: 00 f5 90 23 sh	a5, 0(a1)
è¯»å–åœ°å€ 0x80000b2c
è¯»å–åœ°å€ 0x800032d6
0x80000b2c: 00 25 97 83 lh	a5, 2(a1)
è¯»å–åœ°å€ 0x80000b30
0x80000b30: 40 f5 05 33 sub	a0, a0, a5
è¯»å–åœ°å€ 0x80000b34
0x80000b34: 00 00 80 67 jalr	zero, 0(ra)
è¯»å–åœ°å€ 0x80000d54
0x80000d54: 04 a0 52 63 bge	zero, a0, 0x80000d98
è¯»å–åœ°å€ 0x80000d98
0x80000d98: 00 0a 07 93 addi	a5, s4, 0
è¯»å–åœ°å€ 0x80000d9c
0x80000d9c: ff f4 04 13 addi	s0, s0, -1
è¯»å–åœ°å€ 0x80000da0
è¯»å–åœ°å€ 0x80003248
0x80000da0: 00 0a 2a 03 lw	s4, 0(s4)
è¯»å–åœ°å€ 0x80000da4
0x80000da4: fc 1f f0 6f jal	zero, 0x80000d64
è¯»å–åœ°å€ 0x80000d64
0x80000d64: 02 09 04 63 beq	s2, zero, 0x80000d8c
è¯»å–åœ°å€ 0x80000d68
å†™å…¥åœ°å€ 0x80003250
0x80000d68: 00 f9 20 23 sw	a5, 0(s2)
è¯»å–åœ°å€ 0x80000d6c
0x80000d6c: 00 07 89 13 addi	s2, a5, 0
è¯»å–åœ°å€ 0x80000d70
0x80000d70: fc 04 16 e3 bne	s0, zero, 0x80000d3c
è¯»å–åœ°å€ 0x80000d74
0x80000d74: 02 09 8a 63 beq	s3, zero, 0x80000da8
è¯»å–åœ°å€ 0x80000d78
0x80000d78: 02 04 8a 63 beq	s1, zero, 0x80000dac
è¯»å–åœ°å€ 0x80000d7c
0x80000d7c: 00 04 87 93 addi	a5, s1, 0
è¯»å–åœ°å€ 0x80000d80
0x80000d80: ff f9 89 93 addi	s3, s3, -1
è¯»å–åœ°å€ 0x80000d84
è¯»å–åœ°å€ 0x80003238
0x80000d84: 00 04 a4 83 lw	s1, 0(s1)
è¯»å–åœ°å€ 0x80000d88
0x80000d88: fe 09 10 e3 bne	s2, zero, 0x80000d68
è¯»å–åœ°å€ 0x80000d68
å†™å…¥åœ°å€ 0x80003248
0x80000d68: 00 f9 20 23 sw	a5, 0(s2)
è¯»å–åœ°å€ 0x80000d6c
0x80000d6c: 00 07 89 13 addi	s2, a5, 0
è¯»å–åœ°å€ 0x80000d70
0x80000d70: fc 04 16 e3 bne	s0, zero, 0x80000d3c
è¯»å–åœ°å€ 0x80000d74
0x80000d74: 02 09 8a 63 beq	s3, zero, 0x80000da8
è¯»å–åœ°å€ 0x80000d78
0x80000d78: 02 04 8a 63 beq	s1, zero, 0x80000dac
è¯»å–åœ°å€ 0x80000d7c
0x80000d7c: 00 04 87 93 addi	a5, s1, 0
è¯»å–åœ°å€ 0x80000d80
0x80000d80: ff f9 89 93 addi	s3, s3, -1
è¯»å–åœ°å€ 0x80000d84
è¯»å–åœ°å€ 0x80003240
0x80000d84: 00 04 a4 83 lw	s1, 0(s1)
è¯»å–åœ°å€ 0x80000d88
0x80000d88: fe 09 10 e3 bne	s2, zero, 0x80000d68
è¯»å–åœ°å€ 0x80000d68
å†™å…¥åœ°å€ 0x80003238
0x80000d68: 00 f9 20 23 sw	a5, 0(s2)
è¯»å–åœ°å€ 0x80000d6c
0x80000d6c: 00 07 89 13 addi	s2, a5, 0
è¯»å–åœ°å€ 0x80000d70
0x80000d70: fc 04 16 e3 bne	s0, zero, 0x80000d3c
è¯»å–åœ°å€ 0x80000d74
0x80000d74: 02 09 8a 63 beq	s3, zero, 0x80000da8
è¯»å–åœ°å€ 0x80000da8
0x80000da8: f6 04 94 e3 bne	s1, zero, 0x80000d10
è¯»å–åœ°å€ 0x80000d10
0x80000d10: 00 1c 0c 13 addi	s8, s8, 1
è¯»å–åœ°å€ 0x80000d14
0x80000d14: 00 04 87 93 addi	a5, s1, 0
è¯»å–åœ°å€ 0x80000d18
0x80000d18: 00 00 04 13 addi	s0, zero, 0
è¯»å–åœ°å€ 0x80000d1c
è¯»å–åœ°å€ 0x80003230
0x80000d1c: 00 07 a7 83 lw	a5, 0(a5)
è¯»å–åœ°å€ 0x80000d20
0x80000d20: 00 14 04 13 addi	s0, s0, 1
è¯»å–åœ°å€ 0x80000d24
0x80000d24: 00 07 84 63 beq	a5, zero, 0x80000d2c
è¯»å–åœ°å€ 0x80000d28
0x80000d28: fe 8a 9a e3 bne	s5, s0, 0x80000d1c
è¯»å–åœ°å€ 0x80000d1c
è¯»å–åœ°å€ 0x80003228
0x80000d1c: 00 07 a7 83 lw	a5, 0(a5)
è¯»å–åœ°å€ 0x80000d20
0x80000d20: 00 14 04 13 addi	s0, s0, 1
è¯»å–åœ°å€ 0x80000d24
0x80000d24: 00 07 84 63 beq	a5, zero, 0x80000d2c
è¯»å–åœ°å€ 0x80000d28
0x80000d28: fe 8a 9a e3 bne	s5, s0, 0x80000d1c
è¯»å–åœ°å€ 0x80000d2c
0x80000d2c: 00 04 8a 13 addi	s4, s1, 0
è¯»å–åœ°å€ 0x80000d30
0x80000d30: 00 0a 89 93 addi	s3, s5, 0
è¯»å–åœ°å€ 0x80000d34
0x80000d34: 00 07 84 93 addi	s1, a5, 0
è¯»å–åœ°å€ 0x80000d38
0x80000d38: 02 04 0e 63 beq	s0, zero, 0x80000d74
è¯»å–åœ°å€ 0x80000d3c
0x80000d3c: 04 09 8e 63 beq	s3, zero, 0x80000d98
è¯»å–åœ°å€ 0x80000d40
0x80000d40: 04 04 8c 63 beq	s1, zero, 0x80000d98
è¯»å–åœ°å€ 0x80000d44
è¯»å–åœ°å€ 0x80003224
0x80000d44: 00 44 a5 83 lw	a1, 4(s1)
è¯»å–åœ°å€ 0x80000d48
è¯»å–åœ°å€ 0x80003234
0x80000d48: 00 4a 25 03 lw	a0, 4(s4)
è¯»å–åœ°å€ 0x80000d4c
0x80000d4c: 00 0d 06 13 addi	a2, s10, 0
è¯»å–åœ°å€ 0x80000d50
0x80000d50: 00 0b 80 e7 jalr	ra, 0(s7)
è¯»å–åœ°å€ 0x80000adc
0x80000adc: 00 06 0a 63 beq	a2, zero, 0x80000af0
è¯»å–åœ°å€ 0x80000af0
è¯»å–åœ°å€ 0x800032d0
0x80000af0: 00 05 17 83 lh	a5, 0(a0)
è¯»å–åœ°å€ 0x80000af4
0x80000af4: 01 07 97 13 slli	a4, a5, 16
è¯»å–åœ°å€ 0x80000af8
0x80000af8: 01 07 57 13 srli	a4, a4, 16
è¯»å–åœ°å€ 0x80000afc
0x80000afc: 00 87 57 13 srli	a4, a4, 8
è¯»å–åœ°å€ 0x80000b00
0x80000b00: f0 07 f7 93 andi	a5, a5, -256
è¯»å–åœ°å€ 0x80000b04
0x80000b04: 00 e7 e7 b3 or	a5, a5, a4
è¯»å–åœ°å€ 0x80000b08
å†™å…¥åœ°å€ 0x800032d0
0x80000b08: 00 f5 10 23 sh	a5, 0(a0)
è¯»å–åœ°å€ 0x80000b0c
è¯»å–åœ°å€ 0x800032c8
0x80000b0c: 00 05 97 83 lh	a5, 0(a1)
è¯»å–åœ°å€ 0x80000b10
è¯»å–åœ°å€ 0x800032d2
0x80000b10: 00 25 15 03 lh	a0, 2(a0)
è¯»å–åœ°å€ 0x80000b14
0x80000b14: 01 07 97 13 slli	a4, a5, 16
è¯»å–åœ°å€ 0x80000b18
0x80000b18: 01 07 57 13 srli	a4, a4, 16
è¯»å–åœ°å€ 0x80000b1c
0x80000b1c: 00 87 57 13 srli	a4, a4, 8
è¯»å–åœ°å€ 0x80000b20
0x80000b20: f0 07 f7 93 andi	a5, a5, -256
è¯»å–åœ°å€ 0x80000b24
0x80000b24: 00 e7 e7 b3 or	a5, a5, a4
è¯»å–åœ°å€ 0x80000b28
å†™å…¥åœ°å€ 0x800032c8
0x80000b28: 00 f5 90 23 sh	a5, 0(a1)
è¯»å–åœ°å€ 0x80000b2c
è¯»å–åœ°å€ 0x800032ca
0x80000b2c: 00 25 97 83 lh	a5, 2(a1)
è¯»å–åœ°å€ 0x80000b30
0x80000b30: 40 f5 05 33 sub	a0, a0, a5
è¯»å–åœ°å€ 0x80000b34
0x80000b34: 00 00 80 67 jalr	zero, 0(ra)
è¯»å–åœ°å€ 0x80000d54
0x80000d54: 04 a0 52 63 bge	zero, a0, 0x80000d98
è¯»å–åœ°å€ 0x80000d98
0x80000d98: 00 0a 07 93 addi	a5, s4, 0
è¯»å–åœ°å€ 0x80000d9c
0x80000d9c: ff f4 04 13 addi	s0, s0, -1
è¯»å–åœ°å€ 0x80000da0
è¯»å–åœ°å€ 0x80003230
0x80000da0: 00 0a 2a 03 lw	s4, 0(s4)
è¯»å–åœ°å€ 0x80000da4
0x80000da4: fc 1f f0 6f jal	zero, 0x80000d64
è¯»å–åœ°å€ 0x80000d64
0x80000d64: 02 09 04 63 beq	s2, zero, 0x80000d8c
è¯»å–åœ°å€ 0x80000d68
å†™å…¥åœ°å€ 0x80003240
0x80000d68: 00 f9 20 23 sw	a5, 0(s2)
è¯»å–åœ°å€ 0x80000d6c
0x80000d6c: 00 07 89 13 addi	s2, a5, 0
è¯»å–åœ°å€ 0x80000d70
0x80000d70: fc 04 16 e3 bne	s0, zero, 0x80000d3c
è¯»å–åœ°å€ 0x80000d3c
0x80000d3c: 04 09 8e 63 beq	s3, zero, 0x80000d98
è¯»å–åœ°å€ 0x80000d40
0x80000d40: 04 04 8c 63 beq	s1, zero, 0x80000d98
è¯»å–åœ°å€ 0x80000d44
è¯»å–åœ°å€ 0x80003224
0x80000d44: 00 44 a5 83 lw	a1, 4(s1)
è¯»å–åœ°å€ 0x80000d48
è¯»å–åœ°å€ 0x8000322c
0x80000d48: 00 4a 25 03 lw	a0, 4(s4)
è¯»å–åœ°å€ 0x80000d4c
0x80000d4c: 00 0d 06 13 addi	a2, s10, 0
è¯»å–åœ°å€ 0x80000d50
0x80000d50: 00 0b 80 e7 jalr	ra, 0(s7)
è¯»å–åœ°å€ 0x80000adc
0x80000adc: 00 06 0a 63 beq	a2, zero, 0x80000af0
è¯»å–åœ°å€ 0x80000af0
è¯»å–åœ°å€ 0x800032cc
0x80000af0: 00 05 17 83 lh	a5, 0(a0)
è¯»å–åœ°å€ 0x80000af4
0x80000af4: 01 07 97 13 slli	a4, a5, 16
è¯»å–åœ°å€ 0x80000af8
0x80000af8: 01 07 57 13 srli	a4, a4, 16
è¯»å–åœ°å€ 0x80000afc
0x80000afc: 00 87 57 13 srli	a4, a4, 8
è¯»å–åœ°å€ 0x80000b00
0x80000b00: f0 07 f7 93 andi	a5, a5, -256
è¯»å–åœ°å€ 0x80000b04
0x80000b04: 00 e7 e7 b3 or	a5, a5, a4
è¯»å–åœ°å€ 0x80000b08
å†™å…¥åœ°å€ 0x800032cc
0x80000b08: 00 f5 10 23 sh	a5, 0(a0)
è¯»å–åœ°å€ 0x80000b0c
è¯»å–åœ°å€ 0x800032c8
0x80000b0c: 00 05 97 83 lh	a5, 0(a1)
è¯»å–åœ°å€ 0x80000b10
è¯»å–åœ°å€ 0x800032ce
0x80000b10: 00 25 15 03 lh	a0, 2(a0)
è¯»å–åœ°å€ 0x80000b14
0x80000b14: 01 07 97 13 slli	a4, a5, 16
è¯»å–åœ°å€ 0x80000b18
0x80000b18: 01 07 57 13 srli	a4, a4, 16
è¯»å–åœ°å€ 0x80000b1c
0x80000b1c: 00 87 57 13 srli	a4, a4, 8
è¯»å–åœ°å€ 0x80000b20
0x80000b20: f0 07 f7 93 andi	a5, a5, -256
è¯»å–åœ°å€ 0x80000b24
0x80000b24: 00 e7 e7 b3 or	a5, a5, a4
è¯»å–åœ°å€ 0x80000b28
å†™å…¥åœ°å€ 0x800032c8
0x80000b28: 00 f5 90 23 sh	a5, 0(a1)
è¯»å–åœ°å€ 0x80000b2c
è¯»å–åœ°å€ 0x800032ca
0x80000b2c: 00 25 97 83 lh	a5, 2(a1)
è¯»å–åœ°å€ 0x80000b30
0x80000b30: 40 f5 05 33 sub	a0, a0, a5
è¯»å–åœ°å€ 0x80000b34
0x80000b34: 00 00 80 67 jalr	zero, 0(ra)
è¯»å–åœ°å€ 0x80000d54
0x80000d54: 04 a0 52 63 bge	zero, a0, 0x80000d98
è¯»å–åœ°å€ 0x80000d98
0x80000d98: 00 0a 07 93 addi	a5, s4, 0
è¯»å–åœ°å€ 0x80000d9c
0x80000d9c: ff f4 04 13 addi	s0, s0, -1
è¯»å–åœ°å€ 0x80000da0
è¯»å–åœ°å€ 0x80003228
0x80000da0: 00 0a 2a 03 lw	s4, 0(s4)
è¯»å–åœ°å€ 0x80000da4
0x80000da4: fc 1f f0 6f jal	zero, 0x80000d64
è¯»å–åœ°å€ 0x80000d64
0x80000d64: 02 09 04 63 beq	s2, zero, 0x80000d8c
è¯»å–åœ°å€ 0x80000d68
å†™å…¥åœ°å€ 0x80003230
0x80000d68: 00 f9 20 23 sw	a5, 0(s2)
è¯»å–åœ°å€ 0x80000d6c
0x80000d6c: 00 07 89 13 addi	s2, a5, 0
è¯»å–åœ°å€ 0x80000d70
0x80000d70: fc 04 16 e3 bne	s0, zero, 0x80000d3c
è¯»å–åœ°å€ 0x80000d74
0x80000d74: 02 09 8a 63 beq	s3, zero, 0x80000da8
è¯»å–åœ°å€ 0x80000d78
0x80000d78: 02 04 8a 63 beq	s1, zero, 0x80000dac
è¯»å–åœ°å€ 0x80000d7c
0x80000d7c: 00 04 87 93 addi	a5, s1, 0
è¯»å–åœ°å€ 0x80000d80
0x80000d80: ff f9 89 93 addi	s3, s3, -1
è¯»å–åœ°å€ 0x80000d84
è¯»å–åœ°å€ 0x80003220
0x80000d84: 00 04 a4 83 lw	s1, 0(s1)
è¯»å–åœ°å€ 0x80000d88
0x80000d88: fe 09 10 e3 bne	s2, zero, 0x80000d68
è¯»å–åœ°å€ 0x80000d68
å†™å…¥åœ°å€ 0x80003228
0x80000d68: 00 f9 20 23 sw	a5, 0(s2)
è¯»å–åœ°å€ 0x80000d6c
0x80000d6c: 00 07 89 13 addi	s2, a5, 0
è¯»å–åœ°å€ 0x80000d70
0x80000d70: fc 04 16 e3 bne	s0, zero, 0x80000d3c
è¯»å–åœ°å€ 0x80000d74
0x80000d74: 02 09 8a 63 beq	s3, zero, 0x80000da8
è¯»å–åœ°å€ 0x80000d78
0x80000d78: 02 04 8a 63 beq	s1, zero, 0x80000dac
è¯»å–åœ°å€ 0x80000d7c
0x80000d7c: 00 04 87 93 addi	a5, s1, 0
è¯»å–åœ°å€ 0x80000d80
0x80000d80: ff f9 89 93 addi	s3, s3, -1
è¯»å–åœ°å€ 0x80000d84
è¯»å–åœ°å€ 0x80003218
0x80000d84: 00 04 a4 83 lw	s1, 0(s1)
è¯»å–åœ°å€ 0x80000d88
0x80000d88: fe 09 10 e3 bne	s2, zero, 0x80000d68
è¯»å–åœ°å€ 0x80000d68
å†™å…¥åœ°å€ 0x80003220
0x80000d68: 00 f9 20 23 sw	a5, 0(s2)
è¯»å–åœ°å€ 0x80000d6c
0x80000d6c: 00 07 89 13 addi	s2, a5, 0
è¯»å–åœ°å€ 0x80000d70
0x80000d70: fc 04 16 e3 bne	s0, zero, 0x80000d3c
è¯»å–åœ°å€ 0x80000d74
0x80000d74: 02 09 8a 63 beq	s3, zero, 0x80000da8
è¯»å–åœ°å€ 0x80000da8
0x80000da8: f6 04 94 e3 bne	s1, zero, 0x80000d10
è¯»å–åœ°å€ 0x80000d10
0x80000d10: 00 1c 0c 13 addi	s8, s8, 1
è¯»å–åœ°å€ 0x80000d14
0x80000d14: 00 04 87 93 addi	a5, s1, 0
è¯»å–åœ°å€ 0x80000d18
0x80000d18: 00 00 04 13 addi	s0, zero, 0
è¯»å–åœ°å€ 0x80000d1c
è¯»å–åœ°å€ 0x80003210
0x80000d1c: 00 07 a7 83 lw	a5, 0(a5)
è¯»å–åœ°å€ 0x80000d20
0x80000d20: 00 14 04 13 addi	s0, s0, 1
è¯»å–åœ°å€ 0x80000d24
0x80000d24: 00 07 84 63 beq	a5, zero, 0x80000d2c
è¯»å–åœ°å€ 0x80000d28
0x80000d28: fe 8a 9a e3 bne	s5, s0, 0x80000d1c
è¯»å–åœ°å€ 0x80000d1c
è¯»å–åœ°å€ 0x80003208
0x80000d1c: 00 07 a7 83 lw	a5, 0(a5)
è¯»å–åœ°å€ 0x80000d20
0x80000d20: 00 14 04 13 addi	s0, s0, 1
è¯»å–åœ°å€ 0x80000d24
0x80000d24: 00 07 84 63 beq	a5, zero, 0x80000d2c
è¯»å–åœ°å€ 0x80000d28
0x80000d28: fe 8a 9a e3 bne	s5, s0, 0x80000d1c
è¯»å–åœ°å€ 0x80000d2c
0x80000d2c: 00 04 8a 13 addi	s4, s1, 0
è¯»å–åœ°å€ 0x80000d30
0x80000d30: 00 0a 89 93 addi	s3, s5, 0
è¯»å–åœ°å€ 0x80000d34
0x80000d34: 00 07 84 93 addi	s1, a5, 0
è¯»å–åœ°å€ 0x80000d38
0x80000d38: 02 04 0e 63 beq	s0, zero, 0x80000d74
è¯»å–åœ°å€ 0x80000d3c
0x80000d3c: 04 09 8e 63 beq	s3, zero, 0x80000d98
è¯»å–åœ°å€ 0x80000d40
0x80000d40: 04 04 8c 63 beq	s1, zero, 0x80000d98
è¯»å–åœ°å€ 0x80000d44
è¯»å–åœ°å€ 0x800031fc
0x80000d44: 00 44 a5 83 lw	a1, 4(s1)
è¯»å–åœ°å€ 0x80000d48
è¯»å–åœ°å€ 0x80003214
0x80000d48: 00 4a 25 03 lw	a0, 4(s4)
è¯»å–åœ°å€ 0x80000d4c
0x80000d4c: 00 0d 06 13 addi	a2, s10, 0
è¯»å–åœ°å€ 0x80000d50
0x80000d50: 00 0b 80 e7 jalr	ra, 0(s7)
è¯»å–åœ°å€ 0x80000adc
0x80000adc: 00 06 0a 63 beq	a2, zero, 0x80000af0
è¯»å–åœ°å€ 0x80000af0
è¯»å–åœ°å€ 0x800032c0
0x80000af0: 00 05 17 83 lh	a5, 0(a0)
è¯»å–åœ°å€ 0x80000af4
0x80000af4: 01 07 97 13 slli	a4, a5, 16
è¯»å–åœ°å€ 0x80000af8
0x80000af8: 01 07 57 13 srli	a4, a4, 16
è¯»å–åœ°å€ 0x80000afc
0x80000afc: 00 87 57 13 srli	a4, a4, 8
è¯»å–åœ°å€ 0x80000b00
0x80000b00: f0 07 f7 93 andi	a5, a5, -256
è¯»å–åœ°å€ 0x80000b04
0x80000b04: 00 e7 e7 b3 or	a5, a5, a4
è¯»å–åœ°å€ 0x80000b08
å†™å…¥åœ°å€ 0x800032c0
0x80000b08: 00 f5 10 23 sh	a5, 0(a0)
è¯»å–åœ°å€ 0x80000b0c
è¯»å–åœ°å€ 0x800032b4
0x80000b0c: 00 05 97 83 lh	a5, 0(a1)
è¯»å–åœ°å€ 0x80000b10
è¯»å–åœ°å€ 0x800032c2
0x80000b10: 00 25 15 03 lh	a0, 2(a0)
è¯»å–åœ°å€ 0x80000b14
0x80000b14: 01 07 97 13 slli	a4, a5, 16
è¯»å–åœ°å€ 0x80000b18
0x80000b18: 01 07 57 13 srli	a4, a4, 16
è¯»å–åœ°å€ 0x80000b1c
0x80000b1c: 00 87 57 13 srli	a4, a4, 8
è¯»å–åœ°å€ 0x80000b20
0x80000b20: f0 07 f7 93 andi	a5, a5, -256
è¯»å–åœ°å€ 0x80000b24
0x80000b24: 00 e7 e7 b3 or	a5, a5, a4
è¯»å–åœ°å€ 0x80000b28
å†™å…¥åœ°å€ 0x800032b4
0x80000b28: 00 f5 90 23 sh	a5, 0(a1)
è¯»å–åœ°å€ 0x80000b2c
è¯»å–åœ°å€ 0x800032b6
0x80000b2c: 00 25 97 83 lh	a5, 2(a1)
è¯»å–åœ°å€ 0x80000b30
0x80000b30: 40 f5 05 33 sub	a0, a0, a5
è¯»å–åœ°å€ 0x80000b34
0x80000b34: 00 00 80 67 jalr	zero, 0(ra)
è¯»å–åœ°å€ 0x80000d54
0x80000d54: 04 a0 52 63 bge	zero, a0, 0x80000d98
è¯»å–åœ°å€ 0x80000d58
0x80000d58: 00 04 87 93 addi	a5, s1, 0
è¯»å–åœ°å€ 0x80000d5c
è¯»å–åœ°å€ 0x800031f8
0x80000d5c: 00 04 a4 83 lw	s1, 0(s1)
è¯»å–åœ°å€ 0x80000d60
0x80000d60: ff f9 89 93 addi	s3, s3, -1
è¯»å–åœ°å€ 0x80000d64
0x80000d64: 02 09 04 63 beq	s2, zero, 0x80000d8c
è¯»å–åœ°å€ 0x80000d68
å†™å…¥åœ°å€ 0x80003218
0x80000d68: 00 f9 20 23 sw	a5, 0(s2)
è¯»å–åœ°å€ 0x80000d6c
0x80000d6c: 00 07 89 13 addi	s2, a5, 0
è¯»å–åœ°å€ 0x80000d70
0x80000d70: fc 04 16 e3 bne	s0, zero, 0x80000d3c
è¯»å–åœ°å€ 0x80000d3c
0x80000d3c: 04 09 8e 63 beq	s3, zero, 0x80000d98
è¯»å–åœ°å€ 0x80000d40
0x80000d40: 04 04 8c 63 beq	s1, zero, 0x80000d98
è¯»å–åœ°å€ 0x80000d44
è¯»å–åœ°å€ 0x80003204
0x80000d44: 00 44 a5 83 lw	a1, 4(s1)
è¯»å–åœ°å€ 0x80000d48
è¯»å–åœ°å€ 0x80003214
0x80000d48: 00 4a 25 03 lw	a0, 4(s4)
è¯»å–åœ°å€ 0x80000d4c
0x80000d4c: 00 0d 06 13 addi	a2, s10, 0
è¯»å–åœ°å€ 0x80000d50
0x80000d50: 00 0b 80 e7 jalr	ra, 0(s7)
è¯»å–åœ°å€ 0x80000adc
0x80000adc: 00 06 0a 63 beq	a2, zero, 0x80000af0
è¯»å–åœ°å€ 0x80000af0
è¯»å–åœ°å€ 0x800032c0
0x80000af0: 00 05 17 83 lh	a5, 0(a0)
è¯»å–åœ°å€ 0x80000af4
0x80000af4: 01 07 97 13 slli	a4, a5, 16
è¯»å–åœ°å€ 0x80000af8
0x80000af8: 01 07 57 13 srli	a4, a4, 16
è¯»å–åœ°å€ 0x80000afc
0x80000afc: 00 87 57 13 srli	a4, a4, 8
è¯»å–åœ°å€ 0x80000b00
0x80000b00: f0 07 f7 93 andi	a5, a5, -256
è¯»å–åœ°å€ 0x80000b04
0x80000b04: 00 e7 e7 b3 or	a5, a5, a4
è¯»å–åœ°å€ 0x80000b08
å†™å…¥åœ°å€ 0x800032c0
0x80000b08: 00 f5 10 23 sh	a5, 0(a0)
è¯»å–åœ°å€ 0x80000b0c
è¯»å–åœ°å€ 0x800032b8
0x80000b0c: 00 05 97 83 lh	a5, 0(a1)
è¯»å–åœ°å€ 0x80000b10
è¯»å–åœ°å€ 0x800032c2
0x80000b10: 00 25 15 03 lh	a0, 2(a0)
è¯»å–åœ°å€ 0x80000b14
0x80000b14: 01 07 97 13 slli	a4, a5, 16
è¯»å–åœ°å€ 0x80000b18
0x80000b18: 01 07 57 13 srli	a4, a4, 16
è¯»å–åœ°å€ 0x80000b1c
0x80000b1c: 00 87 57 13 srli	a4, a4, 8
è¯»å–åœ°å€ 0x80000b20
0x80000b20: f0 07 f7 93 andi	a5, a5, -256
è¯»å–åœ°å€ 0x80000b24
0x80000b24: 00 e7 e7 b3 or	a5, a5, a4
è¯»å–åœ°å€ 0x80000b28
å†™å…¥åœ°å€ 0x800032b8
0x80000b28: 00 f5 90 23 sh	a5, 0(a1)
è¯»å–åœ°å€ 0x80000b2c
è¯»å–åœ°å€ 0x800032ba
0x80000b2c: 00 25 97 83 lh	a5, 2(a1)
è¯»å–åœ°å€ 0x80000b30
0x80000b30: 40 f5 05 33 sub	a0, a0, a5
è¯»å–åœ°å€ 0x80000b34
0x80000b34: 00 00 80 67 jalr	zero, 0(ra)
è¯»å–åœ°å€ 0x80000d54
0x80000d54: 04 a0 52 63 bge	zero, a0, 0x80000d98
è¯»å–åœ°å€ 0x80000d98
0x80000d98: 00 0a 07 93 addi	a5, s4, 0
è¯»å–åœ°å€ 0x80000d9c
0x80000d9c: ff f4 04 13 addi	s0, s0, -1
è¯»å–åœ°å€ 0x80000da0
è¯»å–åœ°å€ 0x80003210
0x80000da0: 00 0a 2a 03 lw	s4, 0(s4)
è¯»å–åœ°å€ 0x80000da4
0x80000da4: fc 1f f0 6f jal	zero, 0x80000d64
è¯»å–åœ°å€ 0x80000d64
0x80000d64: 02 09 04 63 beq	s2, zero, 0x80000d8c
è¯»å–åœ°å€ 0x80000d68
å†™å…¥åœ°å€ 0x800031f8
0x80000d68: 00 f9 20 23 sw	a5, 0(s2)
è¯»å–åœ°å€ 0x80000d6c
0x80000d6c: 00 07 89 13 addi	s2, a5, 0
è¯»å–åœ°å€ 0x80000d70
0x80000d70: fc 04 16 e3 bne	s0, zero, 0x80000d3c
è¯»å–åœ°å€ 0x80000d3c
0x80000d3c: 04 09 8e 63 beq	s3, zero, 0x80000d98
è¯»å–åœ°å€ 0x80000d40
0x80000d40: 04 04 8c 63 beq	s1, zero, 0x80000d98
è¯»å–åœ°å€ 0x80000d44
è¯»å–åœ°å€ 0x80003204
0x80000d44: 00 44 a5 83 lw	a1, 4(s1)
è¯»å–åœ°å€ 0x80000d48
è¯»å–åœ°å€ 0x8000320c
0x80000d48: 00 4a 25 03 lw	a0, 4(s4)
è¯»å–åœ°å€ 0x80000d4c
0x80000d4c: 00 0d 06 13 addi	a2, s10, 0
è¯»å–åœ°å€ 0x80000d50
0x80000d50: 00 0b 80 e7 jalr	ra, 0(s7)
è¯»å–åœ°å€ 0x80000adc
0x80000adc: 00 06 0a 63 beq	a2, zero, 0x80000af0
è¯»å–åœ°å€ 0x80000af0
è¯»å–åœ°å€ 0x800032bc
0x80000af0: 00 05 17 83 lh	a5, 0(a0)
è¯»å–åœ°å€ 0x80000af4
0x80000af4: 01 07 97 13 slli	a4, a5, 16
è¯»å–åœ°å€ 0x80000af8
0x80000af8: 01 07 57 13 srli	a4, a4, 16
è¯»å–åœ°å€ 0x80000afc
0x80000afc: 00 87 57 13 srli	a4, a4, 8
è¯»å–åœ°å€ 0x80000b00
0x80000b00: f0 07 f7 93 andi	a5, a5, -256
è¯»å–åœ°å€ 0x80000b04
0x80000b04: 00 e7 e7 b3 or	a5, a5, a4
è¯»å–åœ°å€ 0x80000b08
å†™å…¥åœ°å€ 0x800032bc
0x80000b08: 00 f5 10 23 sh	a5, 0(a0)
è¯»å–åœ°å€ 0x80000b0c
è¯»å–åœ°å€ 0x800032b8
0x80000b0c: 00 05 97 83 lh	a5, 0(a1)
è¯»å–åœ°å€ 0x80000b10
è¯»å–åœ°å€ 0x800032be
0x80000b10: 00 25 15 03 lh	a0, 2(a0)
è¯»å–åœ°å€ 0x80000b14
0x80000b14: 01 07 97 13 slli	a4, a5, 16
è¯»å–åœ°å€ 0x80000b18
0x80000b18: 01 07 57 13 srli	a4, a4, 16
è¯»å–åœ°å€ 0x80000b1c
0x80000b1c: 00 87 57 13 srli	a4, a4, 8
è¯»å–åœ°å€ 0x80000b20
0x80000b20: f0 07 f7 93 andi	a5, a5, -256
è¯»å–åœ°å€ 0x80000b24
0x80000b24: 00 e7 e7 b3 or	a5, a5, a4
è¯»å–åœ°å€ 0x80000b28
å†™å…¥åœ°å€ 0x800032b8
0x80000b28: 00 f5 90 23 sh	a5, 0(a1)
è¯»å–åœ°å€ 0x80000b2c
è¯»å–åœ°å€ 0x800032ba
0x80000b2c: 00 25 97 83 lh	a5, 2(a1)
è¯»å–åœ°å€ 0x80000b30
0x80000b30: 40 f5 05 33 sub	a0, a0, a5
è¯»å–åœ°å€ 0x80000b34
0x80000b34: 00 00 80 67 jalr	zero, 0(ra)
è¯»å–åœ°å€ 0x80000d54
0x80000d54: 04 a0 52 63 bge	zero, a0, 0x80000d98
è¯»å–åœ°å€ 0x80000d98
0x80000d98: 00 0a 07 93 addi	a5, s4, 0
è¯»å–åœ°å€ 0x80000d9c
0x80000d9c: ff f4 04 13 addi	s0, s0, -1
è¯»å–åœ°å€ 0x80000da0
è¯»å–åœ°å€ 0x80003208
0x80000da0: 00 0a 2a 03 lw	s4, 0(s4)
è¯»å–åœ°å€ 0x80000da4
0x80000da4: fc 1f f0 6f jal	zero, 0x80000d64
è¯»å–åœ°å€ 0x80000d64
0x80000d64: 02 09 04 63 beq	s2, zero, 0x80000d8c
è¯»å–åœ°å€ 0x80000d68
å†™å…¥åœ°å€ 0x80003210
0x80000d68: 00 f9 20 23 sw	a5, 0(s2)
è¯»å–åœ°å€ 0x80000d6c
0x80000d6c: 00 07 89 13 addi	s2, a5, 0
è¯»å–åœ°å€ 0x80000d70
0x80000d70: fc 04 16 e3 bne	s0, zero, 0x80000d3c
è¯»å–åœ°å€ 0x80000d74
0x80000d74: 02 09 8a 63 beq	s3, zero, 0x80000da8
è¯»å–åœ°å€ 0x80000d78
0x80000d78: 02 04 8a 63 beq	s1, zero, 0x80000dac
è¯»å–åœ°å€ 0x80000d7c
0x80000d7c: 00 04 87 93 addi	a5, s1, 0
è¯»å–åœ°å€ 0x80000d80
0x80000d80: ff f9 89 93 addi	s3, s3, -1
è¯»å–åœ°å€ 0x80000d84
è¯»å–åœ°å€ 0x80003200
0x80000d84: 00 04 a4 83 lw	s1, 0(s1)
è¯»å–åœ°å€ 0x80000d88
0x80000d88: fe 09 10 e3 bne	s2, zero, 0x80000d68
è¯»å–åœ°å€ 0x80000d68
å†™å…¥åœ°å€ 0x80003208
0x80000d68: 00 f9 20 23 sw	a5, 0(s2)
è¯»å–åœ°å€ 0x80000d6c
0x80000d6c: 00 07 89 13 addi	s2, a5, 0
è¯»å–åœ°å€ 0x80000d70
0x80000d70: fc 04 16 e3 bne	s0, zero, 0x80000d3c
è¯»å–åœ°å€ 0x80000d74
0x80000d74: 02 09 8a 63 beq	s3, zero, 0x80000da8
è¯»å–åœ°å€ 0x80000da8
0x80000da8: f6 04 94 e3 bne	s1, zero, 0x80000d10
è¯»å–åœ°å€ 0x80000d10
0x80000d10: 00 1c 0c 13 addi	s8, s8, 1
è¯»å–åœ°å€ 0x80000d14
0x80000d14: 00 04 87 93 addi	a5, s1, 0
è¯»å–åœ°å€ 0x80000d18
0x80000d18: 00 00 04 13 addi	s0, zero, 0
è¯»å–åœ°å€ 0x80000d1c
è¯»å–åœ°å€ 0x800031f0
0x80000d1c: 00 07 a7 83 lw	a5, 0(a5)
è¯»å–åœ°å€ 0x80000d20
0x80000d20: 00 14 04 13 addi	s0, s0, 1
è¯»å–åœ°å€ 0x80000d24
0x80000d24: 00 07 84 63 beq	a5, zero, 0x80000d2c
è¯»å–åœ°å€ 0x80000d28
0x80000d28: fe 8a 9a e3 bne	s5, s0, 0x80000d1c
è¯»å–åœ°å€ 0x80000d1c
è¯»å–åœ°å€ 0x800031e8
0x80000d1c: 00 07 a7 83 lw	a5, 0(a5)
è¯»å–åœ°å€ 0x80000d20
0x80000d20: 00 14 04 13 addi	s0, s0, 1
è¯»å–åœ°å€ 0x80000d24
0x80000d24: 00 07 84 63 beq	a5, zero, 0x80000d2c
è¯»å–åœ°å€ 0x80000d28
0x80000d28: fe 8a 9a e3 bne	s5, s0, 0x80000d1c
è¯»å–åœ°å€ 0x80000d2c
0x80000d2c: 00 04 8a 13 addi	s4, s1, 0
è¯»å–åœ°å€ 0x80000d30
0x80000d30: 00 0a 89 93 addi	s3, s5, 0
è¯»å–åœ°å€ 0x80000d34
0x80000d34: 00 07 84 93 addi	s1, a5, 0
è¯»å–åœ°å€ 0x80000d38
0x80000d38: 02 04 0e 63 beq	s0, zero, 0x80000d74
è¯»å–åœ°å€ 0x80000d3c
0x80000d3c: 04 09 8e 63 beq	s3, zero, 0x80000d98
è¯»å–åœ°å€ 0x80000d40
0x80000d40: 04 04 8c 63 beq	s1, zero, 0x80000d98
è¯»å–åœ°å€ 0x80000d44
è¯»å–åœ°å€ 0x800031e4
0x80000d44: 00 44 a5 83 lw	a1, 4(s1)
è¯»å–åœ°å€ 0x80000d48
è¯»å–åœ°å€ 0x800031f4
0x80000d48: 00 4a 25 03 lw	a0, 4(s4)
è¯»å–åœ°å€ 0x80000d4c
0x80000d4c: 00 0d 06 13 addi	a2, s10, 0
è¯»å–åœ°å€ 0x80000d50
0x80000d50: 00 0b 80 e7 jalr	ra, 0(s7)
è¯»å–åœ°å€ 0x80000adc
0x80000adc: 00 06 0a 63 beq	a2, zero, 0x80000af0
è¯»å–åœ°å€ 0x80000af0
è¯»å–åœ°å€ 0x800032b0
0x80000af0: 00 05 17 83 lh	a5, 0(a0)
è¯»å–åœ°å€ 0x80000af4
0x80000af4: 01 07 97 13 slli	a4, a5, 16
è¯»å–åœ°å€ 0x80000af8
0x80000af8: 01 07 57 13 srli	a4, a4, 16
è¯»å–åœ°å€ 0x80000afc
0x80000afc: 00 87 57 13 srli	a4, a4, 8
è¯»å–åœ°å€ 0x80000b00
0x80000b00: f0 07 f7 93 andi	a5, a5, -256
è¯»å–åœ°å€ 0x80000b04
0x80000b04: 00 e7 e7 b3 or	a5, a5, a4
è¯»å–åœ°å€ 0x80000b08
å†™å…¥åœ°å€ 0x800032b0
0x80000b08: 00 f5 10 23 sh	a5, 0(a0)
è¯»å–åœ°å€ 0x80000b0c
è¯»å–åœ°å€ 0x800032a8
0x80000b0c: 00 05 97 83 lh	a5, 0(a1)
è¯»å–åœ°å€ 0x80000b10
è¯»å–åœ°å€ 0x800032b2
0x80000b10: 00 25 15 03 lh	a0, 2(a0)
è¯»å–åœ°å€ 0x80000b14
0x80000b14: 01 07 97 13 slli	a4, a5, 16
è¯»å–åœ°å€ 0x80000b18
0x80000b18: 01 07 57 13 srli	a4, a4, 16
è¯»å–åœ°å€ 0x80000b1c
0x80000b1c: 00 87 57 13 srli	a4, a4, 8
è¯»å–åœ°å€ 0x80000b20
0x80000b20: f0 07 f7 93 andi	a5, a5, -256
è¯»å–åœ°å€ 0x80000b24
0x80000b24: 00 e7 e7 b3 or	a5, a5, a4
è¯»å–åœ°å€ 0x80000b28
å†™å…¥åœ°å€ 0x800032a8
0x80000b28: 00 f5 90 23 sh	a5, 0(a1)
è¯»å–åœ°å€ 0x80000b2c
è¯»å–åœ°å€ 0x800032aa
0x80000b2c: 00 25 97 83 lh	a5, 2(a1)
è¯»å–åœ°å€ 0x80000b30
0x80000b30: 40 f5 05 33 sub	a0, a0, a5
è¯»å–åœ°å€ 0x80000b34
0x80000b34: 00 00 80 67 jalr	zero, 0(ra)
è¯»å–åœ°å€ 0x80000d54
0x80000d54: 04 a0 52 63 bge	zero, a0, 0x80000d98
è¯»å–åœ°å€ 0x80000d98
0x80000d98: 00 0a 07 93 addi	a5, s4, 0
è¯»å–åœ°å€ 0x80000d9c
0x80000d9c: ff f4 04 13 addi	s0, s0, -1
è¯»å–åœ°å€ 0x80000da0
è¯»å–åœ°å€ 0x800031f0
0x80000da0: 00 0a 2a 03 lw	s4, 0(s4)
è¯»å–åœ°å€ 0x80000da4
0x80000da4: fc 1f f0 6f jal	zero, 0x80000d64
è¯»å–åœ°å€ 0x80000d64
0x80000d64: 02 09 04 63 beq	s2, zero, 0x80000d8c
è¯»å–åœ°å€ 0x80000d68
å†™å…¥åœ°å€ 0x80003200
0x80000d68: 00 f9 20 23 sw	a5, 0(s2)
è¯»å–åœ°å€ 0x80000d6c
0x80000d6c: 00 07 89 13 addi	s2, a5, 0
è¯»å–åœ°å€ 0x80000d70
0x80000d70: fc 04 16 e3 bne	s0, zero, 0x80000d3c
è¯»å–åœ°å€ 0x80000d3c
0x80000d3c: 04 09 8e 63 beq	s3, zero, 0x80000d98
è¯»å–åœ°å€ 0x80000d40
0x80000d40: 04 04 8c 63 beq	s1, zero, 0x80000d98
è¯»å–åœ°å€ 0x80000d44
è¯»å–åœ°å€ 0x800031e4
0x80000d44: 00 44 a5 83 lw	a1, 4(s1)
è¯»å–åœ°å€ 0x80000d48
è¯»å–åœ°å€ 0x800031ec
0x80000d48: 00 4a 25 03 lw	a0, 4(s4)
è¯»å–åœ°å€ 0x80000d4c
0x80000d4c: 00 0d 06 13 addi	a2, s10, 0
è¯»å–åœ°å€ 0x80000d50
0x80000d50: 00 0b 80 e7 jalr	ra, 0(s7)
è¯»å–åœ°å€ 0x80000adc
0x80000adc: 00 06 0a 63 beq	a2, zero, 0x80000af0
è¯»å–åœ°å€ 0x80000af0
è¯»å–åœ°å€ 0x800032ac
0x80000af0: 00 05 17 83 lh	a5, 0(a0)
è¯»å–åœ°å€ 0x80000af4
0x80000af4: 01 07 97 13 slli	a4, a5, 16
è¯»å–åœ°å€ 0x80000af8
0x80000af8: 01 07 57 13 srli	a4, a4, 16
è¯»å–åœ°å€ 0x80000afc
0x80000afc: 00 87 57 13 srli	a4, a4, 8
è¯»å–åœ°å€ 0x80000b00
0x80000b00: f0 07 f7 93 andi	a5, a5, -256
è¯»å–åœ°å€ 0x80000b04
0x80000b04: 00 e7 e7 b3 or	a5, a5, a4
è¯»å–åœ°å€ 0x80000b08
å†™å…¥åœ°å€ 0x800032ac
0x80000b08: 00 f5 10 23 sh	a5, 0(a0)
è¯»å–åœ°å€ 0x80000b0c
è¯»å–åœ°å€ 0x800032a8
0x80000b0c: 00 05 97 83 lh	a5, 0(a1)
è¯»å–åœ°å€ 0x80000b10
è¯»å–åœ°å€ 0x800032ae
0x80000b10: 00 25 15 03 lh	a0, 2(a0)
è¯»å–åœ°å€ 0x80000b14
0x80000b14: 01 07 97 13 slli	a4, a5, 16
è¯»å–åœ°å€ 0x80000b18
0x80000b18: 01 07 57 13 srli	a4, a4, 16
è¯»å–åœ°å€ 0x80000b1c
0x80000b1c: 00 87 57 13 srli	a4, a4, 8
è¯»å–åœ°å€ 0x80000b20
0x80000b20: f0 07 f7 93 andi	a5, a5, -256
è¯»å–åœ°å€ 0x80000b24
0x80000b24: 00 e7 e7 b3 or	a5, a5, a4
è¯»å–åœ°å€ 0x80000b28
å†™å…¥åœ°å€ 0x800032a8
0x80000b28: 00 f5 90 23 sh	a5, 0(a1)
è¯»å–åœ°å€ 0x80000b2c
è¯»å–åœ°å€ 0x800032aa
0x80000b2c: 00 25 97 83 lh	a5, 2(a1)
è¯»å–åœ°å€ 0x80000b30
0x80000b30: 40 f5 05 33 sub	a0, a0, a5
è¯»å–åœ°å€ 0x80000b34
0x80000b34: 00 00 80 67 jalr	zero, 0(ra)
è¯»å–åœ°å€ 0x80000d54
0x80000d54: 04 a0 52 63 bge	zero, a0, 0x80000d98
è¯»å–åœ°å€ 0x80000d98
0x80000d98: 00 0a 07 93 addi	a5, s4, 0
è¯»å–åœ°å€ 0x80000d9c
0x80000d9c: ff f4 04 13 addi	s0, s0, -1
è¯»å–åœ°å€ 0x80000da0
è¯»å–åœ°å€ 0x800031e8
0x80000da0: 00 0a 2a 03 lw	s4, 0(s4)
è¯»å–åœ°å€ 0x80000da4
0x80000da4: fc 1f f0 6f jal	zero, 0x80000d64
è¯»å–åœ°å€ 0x80000d64
0x80000d64: 02 09 04 63 beq	s2, zero, 0x80000d8c
è¯»å–åœ°å€ 0x80000d68
å†™å…¥åœ°å€ 0x800031f0
0x80000d68: 00 f9 20 23 sw	a5, 0(s2)
è¯»å–åœ°å€ 0x80000d6c
0x80000d6c: 00 07 89 13 addi	s2, a5, 0
è¯»å–åœ°å€ 0x80000d70
0x80000d70: fc 04 16 e3 bne	s0, zero, 0x80000d3c
è¯»å–åœ°å€ 0x80000d74
0x80000d74: 02 09 8a 63 beq	s3, zero, 0x80000da8
è¯»å–åœ°å€ 0x80000d78
0x80000d78: 02 04 8a 63 beq	s1, zero, 0x80000dac
è¯»å–åœ°å€ 0x80000d7c
0x80000d7c: 00 04 87 93 addi	a5, s1, 0
è¯»å–åœ°å€ 0x80000d80
0x80000d80: ff f9 89 93 addi	s3, s3, -1
è¯»å–åœ°å€ 0x80000d84
è¯»å–åœ°å€ 0x800031e0
0x80000d84: 00 04 a4 83 lw	s1, 0(s1)
è¯»å–åœ°å€ 0x80000d88
0x80000d88: fe 09 10 e3 bne	s2, zero, 0x80000d68
è¯»å–åœ°å€ 0x80000d68
å†™å…¥åœ°å€ 0x800031e8
0x80000d68: 00 f9 20 23 sw	a5, 0(s2)
è¯»å–åœ°å€ 0x80000d6c
0x80000d6c: 00 07 89 13 addi	s2, a5, 0
è¯»å–åœ°å€ 0x80000d70
0x80000d70: fc 04 16 e3 bne	s0, zero, 0x80000d3c
è¯»å–åœ°å€ 0x80000d74
0x80000d74: 02 09 8a 63 beq	s3, zero, 0x80000da8
è¯»å–åœ°å€ 0x80000d78
0x80000d78: 02 04 8a 63 beq	s1, zero, 0x80000dac
è¯»å–åœ°å€ 0x80000d7c
0x80000d7c: 00 04 87 93 addi	a5, s1, 0
è¯»å–åœ°å€ 0x80000d80
0x80000d80: ff f9 89 93 addi	s3, s3, -1
è¯»å–åœ°å€ 0x80000d84
è¯»å–åœ°å€ 0x800031d8
0x80000d84: 00 04 a4 83 lw	s1, 0(s1)
è¯»å–åœ°å€ 0x80000d88
0x80000d88: fe 09 10 e3 bne	s2, zero, 0x80000d68
è¯»å–åœ°å€ 0x80000d68
å†™å…¥åœ°å€ 0x800031e0
0x80000d68: 00 f9 20 23 sw	a5, 0(s2)
è¯»å–åœ°å€ 0x80000d6c
0x80000d6c: 00 07 89 13 addi	s2, a5, 0
è¯»å–åœ°å€ 0x80000d70
0x80000d70: fc 04 16 e3 bne	s0, zero, 0x80000d3c
è¯»å–åœ°å€ 0x80000d74
0x80000d74: 02 09 8a 63 beq	s3, zero, 0x80000da8
è¯»å–åœ°å€ 0x80000da8
0x80000da8: f6 04 94 e3 bne	s1, zero, 0x80000d10
è¯»å–åœ°å€ 0x80000d10
0x80000d10: 00 1c 0c 13 addi	s8, s8, 1
è¯»å–åœ°å€ 0x80000d14
0x80000d14: 00 04 87 93 addi	a5, s1, 0
è¯»å–åœ°å€ 0x80000d18
0x80000d18: 00 00 04 13 addi	s0, zero, 0
è¯»å–åœ°å€ 0x80000d1c
è¯»å–åœ°å€ 0x800031d0
0x80000d1c: 00 07 a7 83 lw	a5, 0(a5)
è¯»å–åœ°å€ 0x80000d20
0x80000d20: 00 14 04 13 addi	s0, s0, 1
è¯»å–åœ°å€ 0x80000d24
0x80000d24: 00 07 84 63 beq	a5, zero, 0x80000d2c
è¯»å–åœ°å€ 0x80000d28
0x80000d28: fe 8a 9a e3 bne	s5, s0, 0x80000d1c
è¯»å–åœ°å€ 0x80000d1c
è¯»å–åœ°å€ 0x800031c8
0x80000d1c: 00 07 a7 83 lw	a5, 0(a5)
è¯»å–åœ°å€ 0x80000d20
0x80000d20: 00 14 04 13 addi	s0, s0, 1
è¯»å–åœ°å€ 0x80000d24
0x80000d24: 00 07 84 63 beq	a5, zero, 0x80000d2c
è¯»å–åœ°å€ 0x80000d28
0x80000d28: fe 8a 9a e3 bne	s5, s0, 0x80000d1c
è¯»å–åœ°å€ 0x80000d2c
0x80000d2c: 00 04 8a 13 addi	s4, s1, 0
è¯»å–åœ°å€ 0x80000d30
0x80000d30: 00 0a 89 93 addi	s3, s5, 0
è¯»å–åœ°å€ 0x80000d34
0x80000d34: 00 07 84 93 addi	s1, a5, 0
è¯»å–åœ°å€ 0x80000d38
0x80000d38: 02 04 0e 63 beq	s0, zero, 0x80000d74
è¯»å–åœ°å€ 0x80000d3c
0x80000d3c: 04 09 8e 63 beq	s3, zero, 0x80000d98
è¯»å–åœ°å€ 0x80000d40
0x80000d40: 04 04 8c 63 beq	s1, zero, 0x80000d98
è¯»å–åœ°å€ 0x80000d44
è¯»å–åœ°å€ 0x800031bc
0x80000d44: 00 44 a5 83 lw	a1, 4(s1)
è¯»å–åœ°å€ 0x80000d48
è¯»å–åœ°å€ 0x800031d4
0x80000d48: 00 4a 25 03 lw	a0, 4(s4)
è¯»å–åœ°å€ 0x80000d4c
0x80000d4c: 00 0d 06 13 addi	a2, s10, 0
è¯»å–åœ°å€ 0x80000d50
0x80000d50: 00 0b 80 e7 jalr	ra, 0(s7)
è¯»å–åœ°å€ 0x80000adc
0x80000adc: 00 06 0a 63 beq	a2, zero, 0x80000af0
è¯»å–åœ°å€ 0x80000af0
è¯»å–åœ°å€ 0x800032a0
0x80000af0: 00 05 17 83 lh	a5, 0(a0)
è¯»å–åœ°å€ 0x80000af4
0x80000af4: 01 07 97 13 slli	a4, a5, 16
è¯»å–åœ°å€ 0x80000af8
0x80000af8: 01 07 57 13 srli	a4, a4, 16
è¯»å–åœ°å€ 0x80000afc
0x80000afc: 00 87 57 13 srli	a4, a4, 8
è¯»å–åœ°å€ 0x80000b00
0x80000b00: f0 07 f7 93 andi	a5, a5, -256
è¯»å–åœ°å€ 0x80000b04
0x80000b04: 00 e7 e7 b3 or	a5, a5, a4
è¯»å–åœ°å€ 0x80000b08
å†™å…¥åœ°å€ 0x800032a0
0x80000b08: 00 f5 10 23 sh	a5, 0(a0)
è¯»å–åœ°å€ 0x80000b0c
è¯»å–åœ°å€ 0x80003294
0x80000b0c: 00 05 97 83 lh	a5, 0(a1)
è¯»å–åœ°å€ 0x80000b10
è¯»å–åœ°å€ 0x800032a2
0x80000b10: 00 25 15 03 lh	a0, 2(a0)
è¯»å–åœ°å€ 0x80000b14
0x80000b14: 01 07 97 13 slli	a4, a5, 16
è¯»å–åœ°å€ 0x80000b18
0x80000b18: 01 07 57 13 srli	a4, a4, 16
è¯»å–åœ°å€ 0x80000b1c
0x80000b1c: 00 87 57 13 srli	a4, a4, 8
è¯»å–åœ°å€ 0x80000b20
0x80000b20: f0 07 f7 93 andi	a5, a5, -256
è¯»å–åœ°å€ 0x80000b24
0x80000b24: 00 e7 e7 b3 or	a5, a5, a4
è¯»å–åœ°å€ 0x80000b28
å†™å…¥åœ°å€ 0x80003294
0x80000b28: 00 f5 90 23 sh	a5, 0(a1)
è¯»å–åœ°å€ 0x80000b2c
è¯»å–åœ°å€ 0x80003296
0x80000b2c: 00 25 97 83 lh	a5, 2(a1)
è¯»å–åœ°å€ 0x80000b30
0x80000b30: 40 f5 05 33 sub	a0, a0, a5
è¯»å–åœ°å€ 0x80000b34
0x80000b34: 00 00 80 67 jalr	zero, 0(ra)
è¯»å–åœ°å€ 0x80000d54
0x80000d54: 04 a0 52 63 bge	zero, a0, 0x80000d98
è¯»å–åœ°å€ 0x80000d58
0x80000d58: 00 04 87 93 addi	a5, s1, 0
è¯»å–åœ°å€ 0x80000d5c
è¯»å–åœ°å€ 0x800031b8
0x80000d5c: 00 04 a4 83 lw	s1, 0(s1)
è¯»å–åœ°å€ 0x80000d60
0x80000d60: ff f9 89 93 addi	s3, s3, -1
è¯»å–åœ°å€ 0x80000d64
0x80000d64: 02 09 04 63 beq	s2, zero, 0x80000d8c
è¯»å–åœ°å€ 0x80000d68
å†™å…¥åœ°å€ 0x800031d8
0x80000d68: 00 f9 20 23 sw	a5, 0(s2)
è¯»å–åœ°å€ 0x80000d6c
0x80000d6c: 00 07 89 13 addi	s2, a5, 0
è¯»å–åœ°å€ 0x80000d70
0x80000d70: fc 04 16 e3 bne	s0, zero, 0x80000d3c
è¯»å–åœ°å€ 0x80000d3c
0x80000d3c: 04 09 8e 63 beq	s3, zero, 0x80000d98
è¯»å–åœ°å€ 0x80000d40
0x80000d40: 04 04 8c 63 beq	s1, zero, 0x80000d98
è¯»å–åœ°å€ 0x80000d44
è¯»å–åœ°å€ 0x800031c4
0x80000d44: 00 44 a5 83 lw	a1, 4(s1)
è¯»å–åœ°å€ 0x80000d48
è¯»å–åœ°å€ 0x800031d4
0x80000d48: 00 4a 25 03 lw	a0, 4(s4)
è¯»å–åœ°å€ 0x80000d4c
0x80000d4c: 00 0d 06 13 addi	a2, s10, 0
è¯»å–åœ°å€ 0x80000d50
0x80000d50: 00 0b 80 e7 jalr	ra, 0(s7)
è¯»å–åœ°å€ 0x80000adc
0x80000adc: 00 06 0a 63 beq	a2, zero, 0x80000af0
è¯»å–åœ°å€ 0x80000af0
è¯»å–åœ°å€ 0x800032a0
0x80000af0: 00 05 17 83 lh	a5, 0(a0)
è¯»å–åœ°å€ 0x80000af4
0x80000af4: 01 07 97 13 slli	a4, a5, 16
è¯»å–åœ°å€ 0x80000af8
0x80000af8: 01 07 57 13 srli	a4, a4, 16
è¯»å–åœ°å€ 0x80000afc
0x80000afc: 00 87 57 13 srli	a4, a4, 8
è¯»å–åœ°å€ 0x80000b00
0x80000b00: f0 07 f7 93 andi	a5, a5, -256
è¯»å–åœ°å€ 0x80000b04
0x80000b04: 00 e7 e7 b3 or	a5, a5, a4
è¯»å–åœ°å€ 0x80000b08
å†™å…¥åœ°å€ 0x800032a0
0x80000b08: 00 f5 10 23 sh	a5, 0(a0)
è¯»å–åœ°å€ 0x80000b0c
è¯»å–åœ°å€ 0x80003298
0x80000b0c: 00 05 97 83 lh	a5, 0(a1)
è¯»å–åœ°å€ 0x80000b10
è¯»å–åœ°å€ 0x800032a2
0x80000b10: 00 25 15 03 lh	a0, 2(a0)
è¯»å–åœ°å€ 0x80000b14
0x80000b14: 01 07 97 13 slli	a4, a5, 16
è¯»å–åœ°å€ 0x80000b18
0x80000b18: 01 07 57 13 srli	a4, a4, 16
è¯»å–åœ°å€ 0x80000b1c
0x80000b1c: 00 87 57 13 srli	a4, a4, 8
è¯»å–åœ°å€ 0x80000b20
0x80000b20: f0 07 f7 93 andi	a5, a5, -256
è¯»å–åœ°å€ 0x80000b24
0x80000b24: 00 e7 e7 b3 or	a5, a5, a4
è¯»å–åœ°å€ 0x80000b28
å†™å…¥åœ°å€ 0x80003298
0x80000b28: 00 f5 90 23 sh	a5, 0(a1)
è¯»å–åœ°å€ 0x80000b2c
è¯»å–åœ°å€ 0x8000329a
0x80000b2c: 00 25 97 83 lh	a5, 2(a1)
è¯»å–åœ°å€ 0x80000b30
0x80000b30: 40 f5 05 33 sub	a0, a0, a5
è¯»å–åœ°å€ 0x80000b34
0x80000b34: 00 00 80 67 jalr	zero, 0(ra)
è¯»å–åœ°å€ 0x80000d54
0x80000d54: 04 a0 52 63 bge	zero, a0, 0x80000d98
è¯»å–åœ°å€ 0x80000d98
0x80000d98: 00 0a 07 93 addi	a5, s4, 0
è¯»å–åœ°å€ 0x80000d9c
0x80000d9c: ff f4 04 13 addi	s0, s0, -1
è¯»å–åœ°å€ 0x80000da0
è¯»å–åœ°å€ 0x800031d0
0x80000da0: 00 0a 2a 03 lw	s4, 0(s4)
è¯»å–åœ°å€ 0x80000da4
0x80000da4: fc 1f f0 6f jal	zero, 0x80000d64
è¯»å–åœ°å€ 0x80000d64
0x80000d64: 02 09 04 63 beq	s2, zero, 0x80000d8c
è¯»å–åœ°å€ 0x80000d68
å†™å…¥åœ°å€ 0x800031b8
0x80000d68: 00 f9 20 23 sw	a5, 0(s2)
è¯»å–åœ°å€ 0x80000d6c
0x80000d6c: 00 07 89 13 addi	s2, a5, 0
è¯»å–åœ°å€ 0x80000d70
0x80000d70: fc 04 16 e3 bne	s0, zero, 0x80000d3c
è¯»å–åœ°å€ 0x80000d3c
0x80000d3c: 04 09 8e 63 beq	s3, zero, 0x80000d98
è¯»å–åœ°å€ 0x80000d40
0x80000d40: 04 04 8c 63 beq	s1, zero, 0x80000d98
è¯»å–åœ°å€ 0x80000d44
è¯»å–åœ°å€ 0x800031c4
0x80000d44: 00 44 a5 83 lw	a1, 4(s1)
è¯»å–åœ°å€ 0x80000d48
è¯»å–åœ°å€ 0x800031cc
0x80000d48: 00 4a 25 03 lw	a0, 4(s4)
è¯»å–åœ°å€ 0x80000d4c
0x80000d4c: 00 0d 06 13 addi	a2, s10, 0
è¯»å–åœ°å€ 0x80000d50
0x80000d50: 00 0b 80 e7 jalr	ra, 0(s7)
è¯»å–åœ°å€ 0x80000adc
0x80000adc: 00 06 0a 63 beq	a2, zero, 0x80000af0
è¯»å–åœ°å€ 0x80000af0
è¯»å–åœ°å€ 0x8000329c
0x80000af0: 00 05 17 83 lh	a5, 0(a0)
è¯»å–åœ°å€ 0x80000af4
0x80000af4: 01 07 97 13 slli	a4, a5, 16
è¯»å–åœ°å€ 0x80000af8
0x80000af8: 01 07 57 13 srli	a4, a4, 16
è¯»å–åœ°å€ 0x80000afc
0x80000afc: 00 87 57 13 srli	a4, a4, 8
è¯»å–åœ°å€ 0x80000b00
0x80000b00: f0 07 f7 93 andi	a5, a5, -256
è¯»å–åœ°å€ 0x80000b04
0x80000b04: 00 e7 e7 b3 or	a5, a5, a4
è¯»å–åœ°å€ 0x80000b08
å†™å…¥åœ°å€ 0x8000329c
0x80000b08: 00 f5 10 23 sh	a5, 0(a0)
è¯»å–åœ°å€ 0x80000b0c
è¯»å–åœ°å€ 0x80003298
0x80000b0c: 00 05 97 83 lh	a5, 0(a1)
è¯»å–åœ°å€ 0x80000b10
è¯»å–åœ°å€ 0x8000329e
0x80000b10: 00 25 15 03 lh	a0, 2(a0)
è¯»å–åœ°å€ 0x80000b14
0x80000b14: 01 07 97 13 slli	a4, a5, 16
è¯»å–åœ°å€ 0x80000b18
0x80000b18: 01 07 57 13 srli	a4, a4, 16
è¯»å–åœ°å€ 0x80000b1c
0x80000b1c: 00 87 57 13 srli	a4, a4, 8
è¯»å–åœ°å€ 0x80000b20
0x80000b20: f0 07 f7 93 andi	a5, a5, -256
è¯»å–åœ°å€ 0x80000b24
0x80000b24: 00 e7 e7 b3 or	a5, a5, a4
è¯»å–åœ°å€ 0x80000b28
å†™å…¥åœ°å€ 0x80003298
0x80000b28: 00 f5 90 23 sh	a5, 0(a1)
è¯»å–åœ°å€ 0x80000b2c
è¯»å–åœ°å€ 0x8000329a
0x80000b2c: 00 25 97 83 lh	a5, 2(a1)
è¯»å–åœ°å€ 0x80000b30
0x80000b30: 40 f5 05 33 sub	a0, a0, a5
è¯»å–åœ°å€ 0x80000b34
0x80000b34: 00 00 80 67 jalr	zero, 0(ra)
è¯»å–åœ°å€ 0x80000d54
0x80000d54: 04 a0 52 63 bge	zero, a0, 0x80000d98
è¯»å–åœ°å€ 0x80000d98
0x80000d98: 00 0a 07 93 addi	a5, s4, 0
è¯»å–åœ°å€ 0x80000d9c
0x80000d9c: ff f4 04 13 addi	s0, s0, -1
è¯»å–åœ°å€ 0x80000da0
è¯»å–åœ°å€ 0x800031c8
0x80000da0: 00 0a 2a 03 lw	s4, 0(s4)
è¯»å–åœ°å€ 0x80000da4
0x80000da4: fc 1f f0 6f jal	zero, 0x80000d64
è¯»å–åœ°å€ 0x80000d64
0x80000d64: 02 09 04 63 beq	s2, zero, 0x80000d8c
è¯»å–åœ°å€ 0x80000d68
å†™å…¥åœ°å€ 0x800031d0
0x80000d68: 00 f9 20 23 sw	a5, 0(s2)
è¯»å–åœ°å€ 0x80000d6c
0x80000d6c: 00 07 89 13 addi	s2, a5, 0
è¯»å–åœ°å€ 0x80000d70
0x80000d70: fc 04 16 e3 bne	s0, zero, 0x80000d3c
è¯»å–åœ°å€ 0x80000d74
0x80000d74: 02 09 8a 63 beq	s3, zero, 0x80000da8
è¯»å–åœ°å€ 0x80000d78
0x80000d78: 02 04 8a 63 beq	s1, zero, 0x80000dac
è¯»å–åœ°å€ 0x80000d7c
0x80000d7c: 00 04 87 93 addi	a5, s1, 0
è¯»å–åœ°å€ 0x80000d80
0x80000d80: ff f9 89 93 addi	s3, s3, -1
è¯»å–åœ°å€ 0x80000d84
è¯»å–åœ°å€ 0x800031c0
0x80000d84: 00 04 a4 83 lw	s1, 0(s1)
è¯»å–åœ°å€ 0x80000d88
0x80000d88: fe 09 10 e3 bne	s2, zero, 0x80000d68
è¯»å–åœ°å€ 0x80000d68
å†™å…¥åœ°å€ 0x800031c8
0x80000d68: 00 f9 20 23 sw	a5, 0(s2)
è¯»å–åœ°å€ 0x80000d6c
0x80000d6c: 00 07 89 13 addi	s2, a5, 0
è¯»å–åœ°å€ 0x80000d70
0x80000d70: fc 04 16 e3 bne	s0, zero, 0x80000d3c
è¯»å–åœ°å€ 0x80000d74
0x80000d74: 02 09 8a 63 beq	s3, zero, 0x80000da8
è¯»å–åœ°å€ 0x80000da8
0x80000da8: f6 04 94 e3 bne	s1, zero, 0x80000d10
è¯»å–åœ°å€ 0x80000d10
0x80000d10: 00 1c 0c 13 addi	s8, s8, 1
è¯»å–åœ°å€ 0x80000d14
0x80000d14: 00 04 87 93 addi	a5, s1, 0
è¯»å–åœ°å€ 0x80000d18
0x80000d18: 00 00 04 13 addi	s0, zero, 0
è¯»å–åœ°å€ 0x80000d1c
è¯»å–åœ°å€ 0x800031b0
0x80000d1c: 00 07 a7 83 lw	a5, 0(a5)
è¯»å–åœ°å€ 0x80000d20
0x80000d20: 00 14 04 13 addi	s0, s0, 1
è¯»å–åœ°å€ 0x80000d24
0x80000d24: 00 07 84 63 beq	a5, zero, 0x80000d2c
è¯»å–åœ°å€ 0x80000d28
0x80000d28: fe 8a 9a e3 bne	s5, s0, 0x80000d1c
è¯»å–åœ°å€ 0x80000d1c
è¯»å–åœ°å€ 0x800031a8
0x80000d1c: 00 07 a7 83 lw	a5, 0(a5)
è¯»å–åœ°å€ 0x80000d20
0x80000d20: 00 14 04 13 addi	s0, s0, 1
è¯»å–åœ°å€ 0x80000d24
0x80000d24: 00 07 84 63 beq	a5, zero, 0x80000d2c
è¯»å–åœ°å€ 0x80000d28
0x80000d28: fe 8a 9a e3 bne	s5, s0, 0x80000d1c
è¯»å–åœ°å€ 0x80000d2c
0x80000d2c: 00 04 8a 13 addi	s4, s1, 0
è¯»å–åœ°å€ 0x80000d30
0x80000d30: 00 0a 89 93 addi	s3, s5, 0
è¯»å–åœ°å€ 0x80000d34
0x80000d34: 00 07 84 93 addi	s1, a5, 0
è¯»å–åœ°å€ 0x80000d38
0x80000d38: 02 04 0e 63 beq	s0, zero, 0x80000d74
è¯»å–åœ°å€ 0x80000d3c
0x80000d3c: 04 09 8e 63 beq	s3, zero, 0x80000d98
è¯»å–åœ°å€ 0x80000d40
0x80000d40: 04 04 8c 63 beq	s1, zero, 0x80000d98
è¯»å–åœ°å€ 0x80000d44
è¯»å–åœ°å€ 0x800031a4
0x80000d44: 00 44 a5 83 lw	a1, 4(s1)
è¯»å–åœ°å€ 0x80000d48
è¯»å–åœ°å€ 0x800031b4
0x80000d48: 00 4a 25 03 lw	a0, 4(s4)
è¯»å–åœ°å€ 0x80000d4c
0x80000d4c: 00 0d 06 13 addi	a2, s10, 0
è¯»å–åœ°å€ 0x80000d50
0x80000d50: 00 0b 80 e7 jalr	ra, 0(s7)
è¯»å–åœ°å€ 0x80000adc
0x80000adc: 00 06 0a 63 beq	a2, zero, 0x80000af0
è¯»å–åœ°å€ 0x80000af0
è¯»å–åœ°å€ 0x80003290
0x80000af0: 00 05 17 83 lh	a5, 0(a0)
è¯»å–åœ°å€ 0x80000af4
0x80000af4: 01 07 97 13 slli	a4, a5, 16
è¯»å–åœ°å€ 0x80000af8
0x80000af8: 01 07 57 13 srli	a4, a4, 16
è¯»å–åœ°å€ 0x80000afc
0x80000afc: 00 87 57 13 srli	a4, a4, 8
è¯»å–åœ°å€ 0x80000b00
0x80000b00: f0 07 f7 93 andi	a5, a5, -256
è¯»å–åœ°å€ 0x80000b04
0x80000b04: 00 e7 e7 b3 or	a5, a5, a4
è¯»å–åœ°å€ 0x80000b08
å†™å…¥åœ°å€ 0x80003290
0x80000b08: 00 f5 10 23 sh	a5, 0(a0)
è¯»å–åœ°å€ 0x80000b0c
è¯»å–åœ°å€ 0x80003288
0x80000b0c: 00 05 97 83 lh	a5, 0(a1)
è¯»å–åœ°å€ 0x80000b10
è¯»å–åœ°å€ 0x80003292
0x80000b10: 00 25 15 03 lh	a0, 2(a0)
è¯»å–åœ°å€ 0x80000b14
0x80000b14: 01 07 97 13 slli	a4, a5, 16
è¯»å–åœ°å€ 0x80000b18
0x80000b18: 01 07 57 13 srli	a4, a4, 16
è¯»å–åœ°å€ 0x80000b1c
0x80000b1c: 00 87 57 13 srli	a4, a4, 8
è¯»å–åœ°å€ 0x80000b20
0x80000b20: f0 07 f7 93 andi	a5, a5, -256
è¯»å–åœ°å€ 0x80000b24
0x80000b24: 00 e7 e7 b3 or	a5, a5, a4
è¯»å–åœ°å€ 0x80000b28
å†™å…¥åœ°å€ 0x80003288
0x80000b28: 00 f5 90 23 sh	a5, 0(a1)
è¯»å–åœ°å€ 0x80000b2c
è¯»å–åœ°å€ 0x8000328a
0x80000b2c: 00 25 97 83 lh	a5, 2(a1)
è¯»å–åœ°å€ 0x80000b30
0x80000b30: 40 f5 05 33 sub	a0, a0, a5
è¯»å–åœ°å€ 0x80000b34
0x80000b34: 00 00 80 67 jalr	zero, 0(ra)
è¯»å–åœ°å€ 0x80000d54
0x80000d54: 04 a0 52 63 bge	zero, a0, 0x80000d98
è¯»å–åœ°å€ 0x80000d98
0x80000d98: 00 0a 07 93 addi	a5, s4, 0
è¯»å–åœ°å€ 0x80000d9c
0x80000d9c: ff f4 04 13 addi	s0, s0, -1
è¯»å–åœ°å€ 0x80000da0
è¯»å–åœ°å€ 0x800031b0
0x80000da0: 00 0a 2a 03 lw	s4, 0(s4)
è¯»å–åœ°å€ 0x80000da4
0x80000da4: fc 1f f0 6f jal	zero, 0x80000d64
è¯»å–åœ°å€ 0x80000d64
0x80000d64: 02 09 04 63 beq	s2, zero, 0x80000d8c
è¯»å–åœ°å€ 0x80000d68
å†™å…¥åœ°å€ 0x800031c0
0x80000d68: 00 f9 20 23 sw	a5, 0(s2)
è¯»å–åœ°å€ 0x80000d6c
0x80000d6c: 00 07 89 13 addi	s2, a5, 0
è¯»å–åœ°å€ 0x80000d70
0x80000d70: fc 04 16 e3 bne	s0, zero, 0x80000d3c
è¯»å–åœ°å€ 0x80000d3c
0x80000d3c: 04 09 8e 63 beq	s3, zero, 0x80000d98
è¯»å–åœ°å€ 0x80000d40
0x80000d40: 04 04 8c 63 beq	s1, zero, 0x80000d98
è¯»å–åœ°å€ 0x80000d44
è¯»å–åœ°å€ 0x800031a4
0x80000d44: 00 44 a5 83 lw	a1, 4(s1)
è¯»å–åœ°å€ 0x80000d48
è¯»å–åœ°å€ 0x800031ac
0x80000d48: 00 4a 25 03 lw	a0, 4(s4)
è¯»å–åœ°å€ 0x80000d4c
0x80000d4c: 00 0d 06 13 addi	a2, s10, 0
è¯»å–åœ°å€ 0x80000d50
0x80000d50: 00 0b 80 e7 jalr	ra, 0(s7)
è¯»å–åœ°å€ 0x80000adc
0x80000adc: 00 06 0a 63 beq	a2, zero, 0x80000af0
è¯»å–åœ°å€ 0x80000af0
è¯»å–åœ°å€ 0x8000328c
0x80000af0: 00 05 17 83 lh	a5, 0(a0)
è¯»å–åœ°å€ 0x80000af4
0x80000af4: 01 07 97 13 slli	a4, a5, 16
è¯»å–åœ°å€ 0x80000af8
0x80000af8: 01 07 57 13 srli	a4, a4, 16
è¯»å–åœ°å€ 0x80000afc
0x80000afc: 00 87 57 13 srli	a4, a4, 8
è¯»å–åœ°å€ 0x80000b00
0x80000b00: f0 07 f7 93 andi	a5, a5, -256
è¯»å–åœ°å€ 0x80000b04
0x80000b04: 00 e7 e7 b3 or	a5, a5, a4
è¯»å–åœ°å€ 0x80000b08
å†™å…¥åœ°å€ 0x8000328c
0x80000b08: 00 f5 10 23 sh	a5, 0(a0)
è¯»å–åœ°å€ 0x80000b0c
è¯»å–åœ°å€ 0x80003288
0x80000b0c: 00 05 97 83 lh	a5, 0(a1)
è¯»å–åœ°å€ 0x80000b10
è¯»å–åœ°å€ 0x8000328e
0x80000b10: 00 25 15 03 lh	a0, 2(a0)
è¯»å–åœ°å€ 0x80000b14
0x80000b14: 01 07 97 13 slli	a4, a5, 16
è¯»å–åœ°å€ 0x80000b18
0x80000b18: 01 07 57 13 srli	a4, a4, 16
è¯»å–åœ°å€ 0x80000b1c
0x80000b1c: 00 87 57 13 srli	a4, a4, 8
è¯»å–åœ°å€ 0x80000b20
0x80000b20: f0 07 f7 93 andi	a5, a5, -256
è¯»å–åœ°å€ 0x80000b24
0x80000b24: 00 e7 e7 b3 or	a5, a5, a4
è¯»å–åœ°å€ 0x80000b28
å†™å…¥åœ°å€ 0x80003288
0x80000b28: 00 f5 90 23 sh	a5, 0(a1)
è¯»å–åœ°å€ 0x80000b2c
è¯»å–åœ°å€ 0x8000328a
0x80000b2c: 00 25 97 83 lh	a5, 2(a1)
è¯»å–åœ°å€ 0x80000b30
0x80000b30: 40 f5 05 33 sub	a0, a0, a5
è¯»å–åœ°å€ 0x80000b34
0x80000b34: 00 00 80 67 jalr	zero, 0(ra)
è¯»å–åœ°å€ 0x80000d54
0x80000d54: 04 a0 52 63 bge	zero, a0, 0x80000d98
è¯»å–åœ°å€ 0x80000d98
0x80000d98: 00 0a 07 93 addi	a5, s4, 0
è¯»å–åœ°å€ 0x80000d9c
0x80000d9c: ff f4 04 13 addi	s0, s0, -1
è¯»å–åœ°å€ 0x80000da0
è¯»å–åœ°å€ 0x800031a8
0x80000da0: 00 0a 2a 03 lw	s4, 0(s4)
è¯»å–åœ°å€ 0x80000da4
0x80000da4: fc 1f f0 6f jal	zero, 0x80000d64
è¯»å–åœ°å€ 0x80000d64
0x80000d64: 02 09 04 63 beq	s2, zero, 0x80000d8c
è¯»å–åœ°å€ 0x80000d68
å†™å…¥åœ°å€ 0x800031b0
0x80000d68: 00 f9 20 23 sw	a5, 0(s2)
è¯»å–åœ°å€ 0x80000d6c
0x80000d6c: 00 07 89 13 addi	s2, a5, 0
è¯»å–åœ°å€ 0x80000d70
0x80000d70: fc 04 16 e3 bne	s0, zero, 0x80000d3c
è¯»å–åœ°å€ 0x80000d74
0x80000d74: 02 09 8a 63 beq	s3, zero, 0x80000da8
è¯»å–åœ°å€ 0x80000d78
0x80000d78: 02 04 8a 63 beq	s1, zero, 0x80000dac
è¯»å–åœ°å€ 0x80000d7c
0x80000d7c: 00 04 87 93 addi	a5, s1, 0
è¯»å–åœ°å€ 0x80000d80
0x80000d80: ff f9 89 93 addi	s3, s3, -1
è¯»å–åœ°å€ 0x80000d84
è¯»å–åœ°å€ 0x800031a0
0x80000d84: 00 04 a4 83 lw	s1, 0(s1)
è¯»å–åœ°å€ 0x80000d88
0x80000d88: fe 09 10 e3 bne	s2, zero, 0x80000d68
è¯»å–åœ°å€ 0x80000d68
å†™å…¥åœ°å€ 0x800031a8
0x80000d68: 00 f9 20 23 sw	a5, 0(s2)
è¯»å–åœ°å€ 0x80000d6c
0x80000d6c: 00 07 89 13 addi	s2, a5, 0
è¯»å–åœ°å€ 0x80000d70
0x80000d70: fc 04 16 e3 bne	s0, zero, 0x80000d3c
è¯»å–åœ°å€ 0x80000d74
0x80000d74: 02 09 8a 63 beq	s3, zero, 0x80000da8
è¯»å–åœ°å€ 0x80000d78
0x80000d78: 02 04 8a 63 beq	s1, zero, 0x80000dac
è¯»å–åœ°å€ 0x80000d7c
0x80000d7c: 00 04 87 93 addi	a5, s1, 0
è¯»å–åœ°å€ 0x80000d80
0x80000d80: ff f9 89 93 addi	s3, s3, -1
è¯»å–åœ°å€ 0x80000d84
è¯»å–åœ°å€ 0x80003198
0x80000d84: 00 04 a4 83 lw	s1, 0(s1)
è¯»å–åœ°å€ 0x80000d88
0x80000d88: fe 09 10 e3 bne	s2, zero, 0x80000d68
è¯»å–åœ°å€ 0x80000d68
å†™å…¥åœ°å€ 0x800031a0
0x80000d68: 00 f9 20 23 sw	a5, 0(s2)
è¯»å–åœ°å€ 0x80000d6c
0x80000d6c: 00 07 89 13 addi	s2, a5, 0
è¯»å–åœ°å€ 0x80000d70
0x80000d70: fc 04 16 e3 bne	s0, zero, 0x80000d3c
è¯»å–åœ°å€ 0x80000d74
0x80000d74: 02 09 8a 63 beq	s3, zero, 0x80000da8
è¯»å–åœ°å€ 0x80000da8
0x80000da8: f6 04 94 e3 bne	s1, zero, 0x80000d10
è¯»å–åœ°å€ 0x80000d10
0x80000d10: 00 1c 0c 13 addi	s8, s8, 1
è¯»å–åœ°å€ 0x80000d14
0x80000d14: 00 04 87 93 addi	a5, s1, 0
è¯»å–åœ°å€ 0x80000d18
0x80000d18: 00 00 04 13 addi	s0, zero, 0
è¯»å–åœ°å€ 0x80000d1c
è¯»å–åœ°å€ 0x80003190
0x80000d1c: 00 07 a7 83 lw	a5, 0(a5)
è¯»å–åœ°å€ 0x80000d20
0x80000d20: 00 14 04 13 addi	s0, s0, 1
è¯»å–åœ°å€ 0x80000d24
0x80000d24: 00 07 84 63 beq	a5, zero, 0x80000d2c
è¯»å–åœ°å€ 0x80000d28
0x80000d28: fe 8a 9a e3 bne	s5, s0, 0x80000d1c
è¯»å–åœ°å€ 0x80000d1c
è¯»å–åœ°å€ 0x80003188
0x80000d1c: 00 07 a7 83 lw	a5, 0(a5)
è¯»å–åœ°å€ 0x80000d20
0x80000d20: 00 14 04 13 addi	s0, s0, 1
è¯»å–åœ°å€ 0x80000d24
0x80000d24: 00 07 84 63 beq	a5, zero, 0x80000d2c
è¯»å–åœ°å€ 0x80000d2c
0x80000d2c: 00 04 8a 13 addi	s4, s1, 0
è¯»å–åœ°å€ 0x80000d30
0x80000d30: 00 0a 89 93 addi	s3, s5, 0
è¯»å–åœ°å€ 0x80000d34
0x80000d34: 00 07 84 93 addi	s1, a5, 0
è¯»å–åœ°å€ 0x80000d38
0x80000d38: 02 04 0e 63 beq	s0, zero, 0x80000d74
è¯»å–åœ°å€ 0x80000d3c
0x80000d3c: 04 09 8e 63 beq	s3, zero, 0x80000d98
è¯»å–åœ°å€ 0x80000d40
0x80000d40: 04 04 8c 63 beq	s1, zero, 0x80000d98
è¯»å–åœ°å€ 0x80000d98
0x80000d98: 00 0a 07 93 addi	a5, s4, 0
è¯»å–åœ°å€ 0x80000d9c
0x80000d9c: ff f4 04 13 addi	s0, s0, -1
è¯»å–åœ°å€ 0x80000da0
è¯»å–åœ°å€ 0x80003190
0x80000da0: 00 0a 2a 03 lw	s4, 0(s4)
è¯»å–åœ°å€ 0x80000da4
0x80000da4: fc 1f f0 6f jal	zero, 0x80000d64
è¯»å–åœ°å€ 0x80000d64
0x80000d64: 02 09 04 63 beq	s2, zero, 0x80000d8c
è¯»å–åœ°å€ 0x80000d68
å†™å…¥åœ°å€ 0x80003198
0x80000d68: 00 f9 20 23 sw	a5, 0(s2)
è¯»å–åœ°å€ 0x80000d6c
0x80000d6c: 00 07 89 13 addi	s2, a5, 0
è¯»å–åœ°å€ 0x80000d70
0x80000d70: fc 04 16 e3 bne	s0, zero, 0x80000d3c
è¯»å–åœ°å€ 0x80000d3c
0x80000d3c: 04 09 8e 63 beq	s3, zero, 0x80000d98
è¯»å–åœ°å€ 0x80000d40
0x80000d40: 04 04 8c 63 beq	s1, zero, 0x80000d98
è¯»å–åœ°å€ 0x80000d98
0x80000d98: 00 0a 07 93 addi	a5, s4, 0
è¯»å–åœ°å€ 0x80000d9c
0x80000d9c: ff f4 04 13 addi	s0, s0, -1
è¯»å–åœ°å€ 0x80000da0
è¯»å–åœ°å€ 0x80003188
0x80000da0: 00 0a 2a 03 lw	s4, 0(s4)
è¯»å–åœ°å€ 0x80000da4
0x80000da4: fc 1f f0 6f jal	zero, 0x80000d64
è¯»å–åœ°å€ 0x80000d64
0x80000d64: 02 09 04 63 beq	s2, zero, 0x80000d8c
è¯»å–åœ°å€ 0x80000d68
å†™å…¥åœ°å€ 0x80003190
0x80000d68: 00 f9 20 23 sw	a5, 0(s2)
è¯»å–åœ°å€ 0x80000d6c
0x80000d6c: 00 07 89 13 addi	s2, a5, 0
è¯»å–åœ°å€ 0x80000d70
0x80000d70: fc 04 16 e3 bne	s0, zero, 0x80000d3c
è¯»å–åœ°å€ 0x80000d74
0x80000d74: 02 09 8a 63 beq	s3, zero, 0x80000da8
è¯»å–åœ°å€ 0x80000d78
0x80000d78: 02 04 8a 63 beq	s1, zero, 0x80000dac
è¯»å–åœ°å€ 0x80000dac
å†™å…¥åœ°å€ 0x80003188
0x80000dac: 00 09 20 23 sw	zero, 0(s2)
è¯»å–åœ°å€ 0x80000db0
0x80000db0: 01 9c 0c 63 beq	s8, s9, 0x80000dc8
è¯»å–åœ°å€ 0x80000db4
0x80000db4: 00 1a 9a 93 slli	s5, s5, 1
è¯»å–åœ°å€ 0x80000db8
0x80000db8: 00 0b 04 93 addi	s1, s6, 0
è¯»å–åœ°å€ 0x80000dbc
0x80000dbc: f4 5f f0 6f jal	zero, 0x80000d00
è¯»å–åœ°å€ 0x80000d00
0x80000d00: 0c 04 80 63 beq	s1, zero, 0x80000dc0
è¯»å–åœ°å€ 0x80000d04
0x80000d04: 00 00 0c 13 addi	s8, zero, 0
è¯»å–åœ°å€ 0x80000d08
0x80000d08: 00 00 09 13 addi	s2, zero, 0
è¯»å–åœ°å€ 0x80000d0c
0x80000d0c: 00 00 0b 13 addi	s6, zero, 0
è¯»å–åœ°å€ 0x80000d10
0x80000d10: 00 1c 0c 13 addi	s8, s8, 1
è¯»å–åœ°å€ 0x80000d14
0x80000d14: 00 04 87 93 addi	a5, s1, 0
è¯»å–åœ°å€ 0x80000d18
0x80000d18: 00 00 04 13 addi	s0, zero, 0
è¯»å–åœ°å€ 0x80000d1c
è¯»å–åœ°å€ 0x80003180
0x80000d1c: 00 07 a7 83 lw	a5, 0(a5)
è¯»å–åœ°å€ 0x80000d20
0x80000d20: 00 14 04 13 addi	s0, s0, 1
è¯»å–åœ°å€ 0x80000d24
0x80000d24: 00 07 84 63 beq	a5, zero, 0x80000d2c
è¯»å–åœ°å€ 0x80000d28
0x80000d28: fe 8a 9a e3 bne	s5, s0, 0x80000d1c
è¯»å–åœ°å€ 0x80000d1c
è¯»å–åœ°å€ 0x80003268
0x80000d1c: 00 07 a7 83 lw	a5, 0(a5)
è¯»å–åœ°å€ 0x80000d20
0x80000d20: 00 14 04 13 addi	s0, s0, 1
è¯»å–åœ°å€ 0x80000d24
0x80000d24: 00 07 84 63 beq	a5, zero, 0x80000d2c
è¯»å–åœ°å€ 0x80000d28
0x80000d28: fe 8a 9a e3 bne	s5, s0, 0x80000d1c
è¯»å–åœ°å€ 0x80000d1c
è¯»å–åœ°å€ 0x80003260
0x80000d1c: 00 07 a7 83 lw	a5, 0(a5)
è¯»å–åœ°å€ 0x80000d20
0x80000d20: 00 14 04 13 addi	s0, s0, 1
è¯»å–åœ°å€ 0x80000d24
0x80000d24: 00 07 84 63 beq	a5, zero, 0x80000d2c
è¯»å–åœ°å€ 0x80000d28
0x80000d28: fe 8a 9a e3 bne	s5, s0, 0x80000d1c
è¯»å–åœ°å€ 0x80000d1c
è¯»å–åœ°å€ 0x80003258
0x80000d1c: 00 07 a7 83 lw	a5, 0(a5)
è¯»å–åœ°å€ 0x80000d20
0x80000d20: 00 14 04 13 addi	s0, s0, 1
è¯»å–åœ°å€ 0x80000d24
0x80000d24: 00 07 84 63 beq	a5, zero, 0x80000d2c
è¯»å–åœ°å€ 0x80000d28
0x80000d28: fe 8a 9a e3 bne	s5, s0, 0x80000d1c
è¯»å–åœ°å€ 0x80000d2c
0x80000d2c: 00 04 8a 13 addi	s4, s1, 0
è¯»å–åœ°å€ 0x80000d30
0x80000d30: 00 0a 89 93 addi	s3, s5, 0
è¯»å–åœ°å€ 0x80000d34
0x80000d34: 00 07 84 93 addi	s1, a5, 0
è¯»å–åœ°å€ 0x80000d38
0x80000d38: 02 04 0e 63 beq	s0, zero, 0x80000d74
è¯»å–åœ°å€ 0x80000d3c
0x80000d3c: 04 09 8e 63 beq	s3, zero, 0x80000d98
è¯»å–åœ°å€ 0x80000d40
0x80000d40: 04 04 8c 63 beq	s1, zero, 0x80000d98
è¯»å–åœ°å€ 0x80000d44
è¯»å–åœ°å€ 0x80003254
0x80000d44: 00 44 a5 83 lw	a1, 4(s1)
è¯»å–åœ°å€ 0x80000d48
è¯»å–åœ°å€ 0x80003184
0x80000d48: 00 4a 25 03 lw	a0, 4(s4)
è¯»å–åœ°å€ 0x80000d4c
0x80000d4c: 00 0d 06 13 addi	a2, s10, 0
è¯»å–åœ°å€ 0x80000d50
0x80000d50: 00 0b 80 e7 jalr	ra, 0(s7)
è¯»å–åœ°å€ 0x80000adc
0x80000adc: 00 06 0a 63 beq	a2, zero, 0x80000af0
è¯»å–åœ°å€ 0x80000af0
è¯»å–åœ°å€ 0x80003278
0x80000af0: 00 05 17 83 lh	a5, 0(a0)
è¯»å–åœ°å€ 0x80000af4
0x80000af4: 01 07 97 13 slli	a4, a5, 16
è¯»å–åœ°å€ 0x80000af8
0x80000af8: 01 07 57 13 srli	a4, a4, 16
è¯»å–åœ°å€ 0x80000afc
0x80000afc: 00 87 57 13 srli	a4, a4, 8
è¯»å–åœ°å€ 0x80000b00
0x80000b00: f0 07 f7 93 andi	a5, a5, -256
è¯»å–åœ°å€ 0x80000b04
0x80000b04: 00 e7 e7 b3 or	a5, a5, a4
è¯»å–åœ°å€ 0x80000b08
å†™å…¥åœ°å€ 0x80003278
0x80000b08: 00 f5 10 23 sh	a5, 0(a0)
è¯»å–åœ°å€ 0x80000b0c
è¯»å–åœ°å€ 0x800032e0
0x80000b0c: 00 05 97 83 lh	a5, 0(a1)
è¯»å–åœ°å€ 0x80000b10
è¯»å–åœ°å€ 0x8000327a
0x80000b10: 00 25 15 03 lh	a0, 2(a0)
è¯»å–åœ°å€ 0x80000b14
0x80000b14: 01 07 97 13 slli	a4, a5, 16
è¯»å–åœ°å€ 0x80000b18
0x80000b18: 01 07 57 13 srli	a4, a4, 16
è¯»å–åœ°å€ 0x80000b1c
0x80000b1c: 00 87 57 13 srli	a4, a4, 8
è¯»å–åœ°å€ 0x80000b20
0x80000b20: f0 07 f7 93 andi	a5, a5, -256
è¯»å–åœ°å€ 0x80000b24
0x80000b24: 00 e7 e7 b3 or	a5, a5, a4
è¯»å–åœ°å€ 0x80000b28
å†™å…¥åœ°å€ 0x800032e0
0x80000b28: 00 f5 90 23 sh	a5, 0(a1)
è¯»å–åœ°å€ 0x80000b2c
è¯»å–åœ°å€ 0x800032e2
0x80000b2c: 00 25 97 83 lh	a5, 2(a1)
è¯»å–åœ°å€ 0x80000b30
0x80000b30: 40 f5 05 33 sub	a0, a0, a5
è¯»å–åœ°å€ 0x80000b34
0x80000b34: 00 00 80 67 jalr	zero, 0(ra)
è¯»å–åœ°å€ 0x80000d54
0x80000d54: 04 a0 52 63 bge	zero, a0, 0x80000d98
è¯»å–åœ°å€ 0x80000d98
0x80000d98: 00 0a 07 93 addi	a5, s4, 0
è¯»å–åœ°å€ 0x80000d9c
0x80000d9c: ff f4 04 13 addi	s0, s0, -1
è¯»å–åœ°å€ 0x80000da0
è¯»å–åœ°å€ 0x80003180
0x80000da0: 00 0a 2a 03 lw	s4, 0(s4)
è¯»å–åœ°å€ 0x80000da4
0x80000da4: fc 1f f0 6f jal	zero, 0x80000d64
è¯»å–åœ°å€ 0x80000d64
0x80000d64: 02 09 04 63 beq	s2, zero, 0x80000d8c
è¯»å–åœ°å€ 0x80000d8c
0x80000d8c: 00 07 8b 13 addi	s6, a5, 0
è¯»å–åœ°å€ 0x80000d90
0x80000d90: 00 07 89 13 addi	s2, a5, 0
è¯»å–åœ°å€ 0x80000d94
0x80000d94: fd df f0 6f jal	zero, 0x80000d70
è¯»å–åœ°å€ 0x80000d70
0x80000d70: fc 04 16 e3 bne	s0, zero, 0x80000d3c
è¯»å–åœ°å€ 0x80000d3c
0x80000d3c: 04 09 8e 63 beq	s3, zero, 0x80000d98
è¯»å–åœ°å€ 0x80000d40
0x80000d40: 04 04 8c 63 beq	s1, zero, 0x80000d98
è¯»å–åœ°å€ 0x80000d44
è¯»å–åœ°å€ 0x80003254
0x80000d44: 00 44 a5 83 lw	a1, 4(s1)
è¯»å–åœ°å€ 0x80000d48
è¯»å–åœ°å€ 0x8000326c
0x80000d48: 00 4a 25 03 lw	a0, 4(s4)
è¯»å–åœ°å€ 0x80000d4c
0x80000d4c: 00 0d 06 13 addi	a2, s10, 0
è¯»å–åœ°å€ 0x80000d50
0x80000d50: 00 0b 80 e7 jalr	ra, 0(s7)
è¯»å–åœ°å€ 0x80000adc
0x80000adc: 00 06 0a 63 beq	a2, zero, 0x80000af0
è¯»å–åœ°å€ 0x80000af0
è¯»å–åœ°å€ 0x800032ec
0x80000af0: 00 05 17 83 lh	a5, 0(a0)
è¯»å–åœ°å€ 0x80000af4
0x80000af4: 01 07 97 13 slli	a4, a5, 16
è¯»å–åœ°å€ 0x80000af8
0x80000af8: 01 07 57 13 srli	a4, a4, 16
è¯»å–åœ°å€ 0x80000afc
0x80000afc: 00 87 57 13 srli	a4, a4, 8
è¯»å–åœ°å€ 0x80000b00
0x80000b00: f0 07 f7 93 andi	a5, a5, -256
è¯»å–åœ°å€ 0x80000b04
0x80000b04: 00 e7 e7 b3 or	a5, a5, a4
è¯»å–åœ°å€ 0x80000b08
å†™å…¥åœ°å€ 0x800032ec
0x80000b08: 00 f5 10 23 sh	a5, 0(a0)
è¯»å–åœ°å€ 0x80000b0c
è¯»å–åœ°å€ 0x800032e0
0x80000b0c: 00 05 97 83 lh	a5, 0(a1)
è¯»å–åœ°å€ 0x80000b10
è¯»å–åœ°å€ 0x800032ee
0x80000b10: 00 25 15 03 lh	a0, 2(a0)
è¯»å–åœ°å€ 0x80000b14
0x80000b14: 01 07 97 13 slli	a4, a5, 16
è¯»å–åœ°å€ 0x80000b18
0x80000b18: 01 07 57 13 srli	a4, a4, 16
è¯»å–åœ°å€ 0x80000b1c
0x80000b1c: 00 87 57 13 srli	a4, a4, 8
è¯»å–åœ°å€ 0x80000b20
0x80000b20: f0 07 f7 93 andi	a5, a5, -256
è¯»å–åœ°å€ 0x80000b24
0x80000b24: 00 e7 e7 b3 or	a5, a5, a4
è¯»å–åœ°å€ 0x80000b28
å†™å…¥åœ°å€ 0x800032e0
0x80000b28: 00 f5 90 23 sh	a5, 0(a1)
è¯»å–åœ°å€ 0x80000b2c
è¯»å–åœ°å€ 0x800032e2
0x80000b2c: 00 25 97 83 lh	a5, 2(a1)
è¯»å–åœ°å€ 0x80000b30
0x80000b30: 40 f5 05 33 sub	a0, a0, a5
è¯»å–åœ°å€ 0x80000b34
0x80000b34: 00 00 80 67 jalr	zero, 0(ra)
è¯»å–åœ°å€ 0x80000d54
0x80000d54: 04 a0 52 63 bge	zero, a0, 0x80000d98
è¯»å–åœ°å€ 0x80000d98
0x80000d98: 00 0a 07 93 addi	a5, s4, 0
è¯»å–åœ°å€ 0x80000d9c
0x80000d9c: ff f4 04 13 addi	s0, s0, -1
è¯»å–åœ°å€ 0x80000da0
è¯»å–åœ°å€ 0x80003268
0x80000da0: 00 0a 2a 03 lw	s4, 0(s4)
è¯»å–åœ°å€ 0x80000da4
0x80000da4: fc 1f f0 6f jal	zero, 0x80000d64
è¯»å–åœ°å€ 0x80000d64
0x80000d64: 02 09 04 63 beq	s2, zero, 0x80000d8c
è¯»å–åœ°å€ 0x80000d68
å†™å…¥åœ°å€ 0x80003180
0x80000d68: 00 f9 20 23 sw	a5, 0(s2)
è¯»å–åœ°å€ 0x80000d6c
0x80000d6c: 00 07 89 13 addi	s2, a5, 0
è¯»å–åœ°å€ 0x80000d70
0x80000d70: fc 04 16 e3 bne	s0, zero, 0x80000d3c
è¯»å–åœ°å€ 0x80000d3c
0x80000d3c: 04 09 8e 63 beq	s3, zero, 0x80000d98
è¯»å–åœ°å€ 0x80000d40
0x80000d40: 04 04 8c 63 beq	s1, zero, 0x80000d98
è¯»å–åœ°å€ 0x80000d44
è¯»å–åœ°å€ 0x80003254
0x80000d44: 00 44 a5 83 lw	a1, 4(s1)
è¯»å–åœ°å€ 0x80000d48
è¯»å–åœ°å€ 0x80003264
0x80000d48: 00 4a 25 03 lw	a0, 4(s4)
è¯»å–åœ°å€ 0x80000d4c
0x80000d4c: 00 0d 06 13 addi	a2, s10, 0
è¯»å–åœ°å€ 0x80000d50
0x80000d50: 00 0b 80 e7 jalr	ra, 0(s7)
è¯»å–åœ°å€ 0x80000adc
0x80000adc: 00 06 0a 63 beq	a2, zero, 0x80000af0
è¯»å–åœ°å€ 0x80000af0
è¯»å–åœ°å€ 0x800032e8
0x80000af0: 00 05 17 83 lh	a5, 0(a0)
è¯»å–åœ°å€ 0x80000af4
0x80000af4: 01 07 97 13 slli	a4, a5, 16
è¯»å–åœ°å€ 0x80000af8
0x80000af8: 01 07 57 13 srli	a4, a4, 16
è¯»å–åœ°å€ 0x80000afc
0x80000afc: 00 87 57 13 srli	a4, a4, 8
è¯»å–åœ°å€ 0x80000b00
0x80000b00: f0 07 f7 93 andi	a5, a5, -256
è¯»å–åœ°å€ 0x80000b04
0x80000b04: 00 e7 e7 b3 or	a5, a5, a4
è¯»å–åœ°å€ 0x80000b08
å†™å…¥åœ°å€ 0x800032e8
0x80000b08: 00 f5 10 23 sh	a5, 0(a0)
è¯»å–åœ°å€ 0x80000b0c
è¯»å–åœ°å€ 0x800032e0
0x80000b0c: 00 05 97 83 lh	a5, 0(a1)
è¯»å–åœ°å€ 0x80000b10
è¯»å–åœ°å€ 0x800032ea
0x80000b10: 00 25 15 03 lh	a0, 2(a0)
è¯»å–åœ°å€ 0x80000b14
0x80000b14: 01 07 97 13 slli	a4, a5, 16
è¯»å–åœ°å€ 0x80000b18
0x80000b18: 01 07 57 13 srli	a4, a4, 16
è¯»å–åœ°å€ 0x80000b1c
0x80000b1c: 00 87 57 13 srli	a4, a4, 8
è¯»å–åœ°å€ 0x80000b20
0x80000b20: f0 07 f7 93 andi	a5, a5, -256
è¯»å–åœ°å€ 0x80000b24
0x80000b24: 00 e7 e7 b3 or	a5, a5, a4
è¯»å–åœ°å€ 0x80000b28
å†™å…¥åœ°å€ 0x800032e0
0x80000b28: 00 f5 90 23 sh	a5, 0(a1)
è¯»å–åœ°å€ 0x80000b2c
è¯»å–åœ°å€ 0x800032e2
0x80000b2c: 00 25 97 83 lh	a5, 2(a1)
è¯»å–åœ°å€ 0x80000b30
0x80000b30: 40 f5 05 33 sub	a0, a0, a5
è¯»å–åœ°å€ 0x80000b34
0x80000b34: 00 00 80 67 jalr	zero, 0(ra)
è¯»å–åœ°å€ 0x80000d54
0x80000d54: 04 a0 52 63 bge	zero, a0, 0x80000d98
è¯»å–åœ°å€ 0x80000d98
0x80000d98: 00 0a 07 93 addi	a5, s4, 0
è¯»å–åœ°å€ 0x80000d9c
0x80000d9c: ff f4 04 13 addi	s0, s0, -1
è¯»å–åœ°å€ 0x80000da0
è¯»å–åœ°å€ 0x80003260
0x80000da0: 00 0a 2a 03 lw	s4, 0(s4)
è¯»å–åœ°å€ 0x80000da4
0x80000da4: fc 1f f0 6f jal	zero, 0x80000d64
è¯»å–åœ°å€ 0x80000d64
0x80000d64: 02 09 04 63 beq	s2, zero, 0x80000d8c
è¯»å–åœ°å€ 0x80000d68
å†™å…¥åœ°å€ 0x80003268
0x80000d68: 00 f9 20 23 sw	a5, 0(s2)
è¯»å–åœ°å€ 0x80000d6c
0x80000d6c: 00 07 89 13 addi	s2, a5, 0
è¯»å–åœ°å€ 0x80000d70
0x80000d70: fc 04 16 e3 bne	s0, zero, 0x80000d3c
è¯»å–åœ°å€ 0x80000d3c
0x80000d3c: 04 09 8e 63 beq	s3, zero, 0x80000d98
è¯»å–åœ°å€ 0x80000d40
0x80000d40: 04 04 8c 63 beq	s1, zero, 0x80000d98
è¯»å–åœ°å€ 0x80000d44
è¯»å–åœ°å€ 0x80003254
0x80000d44: 00 44 a5 83 lw	a1, 4(s1)
è¯»å–åœ°å€ 0x80000d48
è¯»å–åœ°å€ 0x8000325c
0x80000d48: 00 4a 25 03 lw	a0, 4(s4)
è¯»å–åœ°å€ 0x80000d4c
0x80000d4c: 00 0d 06 13 addi	a2, s10, 0
è¯»å–åœ°å€ 0x80000d50
0x80000d50: 00 0b 80 e7 jalr	ra, 0(s7)
è¯»å–åœ°å€ 0x80000adc
0x80000adc: 00 06 0a 63 beq	a2, zero, 0x80000af0
è¯»å–åœ°å€ 0x80000af0
è¯»å–åœ°å€ 0x800032e4
0x80000af0: 00 05 17 83 lh	a5, 0(a0)
è¯»å–åœ°å€ 0x80000af4
0x80000af4: 01 07 97 13 slli	a4, a5, 16
è¯»å–åœ°å€ 0x80000af8
0x80000af8: 01 07 57 13 srli	a4, a4, 16
è¯»å–åœ°å€ 0x80000afc
0x80000afc: 00 87 57 13 srli	a4, a4, 8
è¯»å–åœ°å€ 0x80000b00
0x80000b00: f0 07 f7 93 andi	a5, a5, -256
è¯»å–åœ°å€ 0x80000b04
0x80000b04: 00 e7 e7 b3 or	a5, a5, a4
è¯»å–åœ°å€ 0x80000b08
å†™å…¥åœ°å€ 0x800032e4
0x80000b08: 00 f5 10 23 sh	a5, 0(a0)
è¯»å–åœ°å€ 0x80000b0c
è¯»å–åœ°å€ 0x800032e0
0x80000b0c: 00 05 97 83 lh	a5, 0(a1)
è¯»å–åœ°å€ 0x80000b10
è¯»å–åœ°å€ 0x800032e6
0x80000b10: 00 25 15 03 lh	a0, 2(a0)
è¯»å–åœ°å€ 0x80000b14
0x80000b14: 01 07 97 13 slli	a4, a5, 16
è¯»å–åœ°å€ 0x80000b18
0x80000b18: 01 07 57 13 srli	a4, a4, 16
è¯»å–åœ°å€ 0x80000b1c
0x80000b1c: 00 87 57 13 srli	a4, a4, 8
è¯»å–åœ°å€ 0x80000b20
0x80000b20: f0 07 f7 93 andi	a5, a5, -256
è¯»å–åœ°å€ 0x80000b24
0x80000b24: 00 e7 e7 b3 or	a5, a5, a4
è¯»å–åœ°å€ 0x80000b28
å†™å…¥åœ°å€ 0x800032e0
0x80000b28: 00 f5 90 23 sh	a5, 0(a1)
è¯»å–åœ°å€ 0x80000b2c
è¯»å–åœ°å€ 0x800032e2
0x80000b2c: 00 25 97 83 lh	a5, 2(a1)
è¯»å–åœ°å€ 0x80000b30
0x80000b30: 40 f5 05 33 sub	a0, a0, a5
è¯»å–åœ°å€ 0x80000b34
0x80000b34: 00 00 80 67 jalr	zero, 0(ra)
è¯»å–åœ°å€ 0x80000d54
0x80000d54: 04 a0 52 63 bge	zero, a0, 0x80000d98
è¯»å–åœ°å€ 0x80000d98
0x80000d98: 00 0a 07 93 addi	a5, s4, 0
è¯»å–åœ°å€ 0x80000d9c
0x80000d9c: ff f4 04 13 addi	s0, s0, -1
è¯»å–åœ°å€ 0x80000da0
è¯»å–åœ°å€ 0x80003258
0x80000da0: 00 0a 2a 03 lw	s4, 0(s4)
è¯»å–åœ°å€ 0x80000da4
0x80000da4: fc 1f f0 6f jal	zero, 0x80000d64
è¯»å–åœ°å€ 0x80000d64
0x80000d64: 02 09 04 63 beq	s2, zero, 0x80000d8c
è¯»å–åœ°å€ 0x80000d68
å†™å…¥åœ°å€ 0x80003260
0x80000d68: 00 f9 20 23 sw	a5, 0(s2)
è¯»å–åœ°å€ 0x80000d6c
0x80000d6c: 00 07 89 13 addi	s2, a5, 0
è¯»å–åœ°å€ 0x80000d70
0x80000d70: fc 04 16 e3 bne	s0, zero, 0x80000d3c
è¯»å–åœ°å€ 0x80000d74
0x80000d74: 02 09 8a 63 beq	s3, zero, 0x80000da8
è¯»å–åœ°å€ 0x80000d78
0x80000d78: 02 04 8a 63 beq	s1, zero, 0x80000dac
è¯»å–åœ°å€ 0x80000d7c
0x80000d7c: 00 04 87 93 addi	a5, s1, 0
è¯»å–åœ°å€ 0x80000d80
0x80000d80: ff f9 89 93 addi	s3, s3, -1
è¯»å–åœ°å€ 0x80000d84
è¯»å–åœ°å€ 0x80003250
0x80000d84: 00 04 a4 83 lw	s1, 0(s1)
è¯»å–åœ°å€ 0x80000d88
0x80000d88: fe 09 10 e3 bne	s2, zero, 0x80000d68
è¯»å–åœ°å€ 0x80000d68
å†™å…¥åœ°å€ 0x80003258
0x80000d68: 00 f9 20 23 sw	a5, 0(s2)
è¯»å–åœ°å€ 0x80000d6c
0x80000d6c: 00 07 89 13 addi	s2, a5, 0
è¯»å–åœ°å€ 0x80000d70
0x80000d70: fc 04 16 e3 bne	s0, zero, 0x80000d3c
è¯»å–åœ°å€ 0x80000d74
0x80000d74: 02 09 8a 63 beq	s3, zero, 0x80000da8
è¯»å–åœ°å€ 0x80000d78
0x80000d78: 02 04 8a 63 beq	s1, zero, 0x80000dac
è¯»å–åœ°å€ 0x80000d7c
0x80000d7c: 00 04 87 93 addi	a5, s1, 0
è¯»å–åœ°å€ 0x80000d80
0x80000d80: ff f9 89 93 addi	s3, s3, -1
è¯»å–åœ°å€ 0x80000d84
è¯»å–åœ°å€ 0x80003248
0x80000d84: 00 04 a4 83 lw	s1, 0(s1)
è¯»å–åœ°å€ 0x80000d88
0x80000d88: fe 09 10 e3 bne	s2, zero, 0x80000d68
è¯»å–åœ°å€ 0x80000d68
å†™å…¥åœ°å€ 0x80003250
0x80000d68: 00 f9 20 23 sw	a5, 0(s2)
è¯»å–åœ°å€ 0x80000d6c
0x80000d6c: 00 07 89 13 addi	s2, a5, 0
è¯»å–åœ°å€ 0x80000d70
0x80000d70: fc 04 16 e3 bne	s0, zero, 0x80000d3c
è¯»å–åœ°å€ 0x80000d74
0x80000d74: 02 09 8a 63 beq	s3, zero, 0x80000da8
è¯»å–åœ°å€ 0x80000d78
0x80000d78: 02 04 8a 63 beq	s1, zero, 0x80000dac
è¯»å–åœ°å€ 0x80000d7c
0x80000d7c: 00 04 87 93 addi	a5, s1, 0
è¯»å–åœ°å€ 0x80000d80
0x80000d80: ff f9 89 93 addi	s3, s3, -1
è¯»å–åœ°å€ 0x80000d84
è¯»å–åœ°å€ 0x80003238
0x80000d84: 00 04 a4 83 lw	s1, 0(s1)
è¯»å–åœ°å€ 0x80000d88
0x80000d88: fe 09 10 e3 bne	s2, zero, 0x80000d68
è¯»å–åœ°å€ 0x80000d68
å†™å…¥åœ°å€ 0x80003248
0x80000d68: 00 f9 20 23 sw	a5, 0(s2)
è¯»å–åœ°å€ 0x80000d6c
0x80000d6c: 00 07 89 13 addi	s2, a5, 0
è¯»å–åœ°å€ 0x80000d70
0x80000d70: fc 04 16 e3 bne	s0, zero, 0x80000d3c
è¯»å–åœ°å€ 0x80000d74
0x80000d74: 02 09 8a 63 beq	s3, zero, 0x80000da8
è¯»å–åœ°å€ 0x80000d78
0x80000d78: 02 04 8a 63 beq	s1, zero, 0x80000dac
è¯»å–åœ°å€ 0x80000d7c
0x80000d7c: 00 04 87 93 addi	a5, s1, 0
è¯»å–åœ°å€ 0x80000d80
0x80000d80: ff f9 89 93 addi	s3, s3, -1
è¯»å–åœ°å€ 0x80000d84
è¯»å–åœ°å€ 0x80003240
0x80000d84: 00 04 a4 83 lw	s1, 0(s1)
è¯»å–åœ°å€ 0x80000d88
0x80000d88: fe 09 10 e3 bne	s2, zero, 0x80000d68
è¯»å–åœ°å€ 0x80000d68
å†™å…¥åœ°å€ 0x80003238
0x80000d68: 00 f9 20 23 sw	a5, 0(s2)
è¯»å–åœ°å€ 0x80000d6c
0x80000d6c: 00 07 89 13 addi	s2, a5, 0
è¯»å–åœ°å€ 0x80000d70
0x80000d70: fc 04 16 e3 bne	s0, zero, 0x80000d3c
è¯»å–åœ°å€ 0x80000d74
0x80000d74: 02 09 8a 63 beq	s3, zero, 0x80000da8
è¯»å–åœ°å€ 0x80000da8
0x80000da8: f6 04 94 e3 bne	s1, zero, 0x80000d10
è¯»å–åœ°å€ 0x80000d10
0x80000d10: 00 1c 0c 13 addi	s8, s8, 1
è¯»å–åœ°å€ 0x80000d14
0x80000d14: 00 04 87 93 addi	a5, s1, 0
è¯»å–åœ°å€ 0x80000d18
0x80000d18: 00 00 04 13 addi	s0, zero, 0
è¯»å–åœ°å€ 0x80000d1c
è¯»å–åœ°å€ 0x80003230
0x80000d1c: 00 07 a7 83 lw	a5, 0(a5)
è¯»å–åœ°å€ 0x80000d20
0x80000d20: 00 14 04 13 addi	s0, s0, 1
è¯»å–åœ°å€ 0x80000d24
0x80000d24: 00 07 84 63 beq	a5, zero, 0x80000d2c
è¯»å–åœ°å€ 0x80000d28
0x80000d28: fe 8a 9a e3 bne	s5, s0, 0x80000d1c
è¯»å–åœ°å€ 0x80000d1c
è¯»å–åœ°å€ 0x80003228
0x80000d1c: 00 07 a7 83 lw	a5, 0(a5)
è¯»å–åœ°å€ 0x80000d20
0x80000d20: 00 14 04 13 addi	s0, s0, 1
è¯»å–åœ°å€ 0x80000d24
0x80000d24: 00 07 84 63 beq	a5, zero, 0x80000d2c
è¯»å–åœ°å€ 0x80000d28
0x80000d28: fe 8a 9a e3 bne	s5, s0, 0x80000d1c
è¯»å–åœ°å€ 0x80000d1c
è¯»å–åœ°å€ 0x80003220
0x80000d1c: 00 07 a7 83 lw	a5, 0(a5)
è¯»å–åœ°å€ 0x80000d20
0x80000d20: 00 14 04 13 addi	s0, s0, 1
è¯»å–åœ°å€ 0x80000d24
0x80000d24: 00 07 84 63 beq	a5, zero, 0x80000d2c
è¯»å–åœ°å€ 0x80000d28
0x80000d28: fe 8a 9a e3 bne	s5, s0, 0x80000d1c
è¯»å–åœ°å€ 0x80000d1c
è¯»å–åœ°å€ 0x80003218
0x80000d1c: 00 07 a7 83 lw	a5, 0(a5)
è¯»å–åœ°å€ 0x80000d20
0x80000d20: 00 14 04 13 addi	s0, s0, 1
è¯»å–åœ°å€ 0x80000d24
0x80000d24: 00 07 84 63 beq	a5, zero, 0x80000d2c
è¯»å–åœ°å€ 0x80000d28
0x80000d28: fe 8a 9a e3 bne	s5, s0, 0x80000d1c
è¯»å–åœ°å€ 0x80000d2c
0x80000d2c: 00 04 8a 13 addi	s4, s1, 0
è¯»å–åœ°å€ 0x80000d30
0x80000d30: 00 0a 89 93 addi	s3, s5, 0
è¯»å–åœ°å€ 0x80000d34
0x80000d34: 00 07 84 93 addi	s1, a5, 0
è¯»å–åœ°å€ 0x80000d38
0x80000d38: 02 04 0e 63 beq	s0, zero, 0x80000d74
è¯»å–åœ°å€ 0x80000d3c
0x80000d3c: 04 09 8e 63 beq	s3, zero, 0x80000d98
è¯»å–åœ°å€ 0x80000d40
0x80000d40: 04 04 8c 63 beq	s1, zero, 0x80000d98
è¯»å–åœ°å€ 0x80000d44
è¯»å–åœ°å€ 0x800031fc
0x80000d44: 00 44 a5 83 lw	a1, 4(s1)
è¯»å–åœ°å€ 0x80000d48
è¯»å–åœ°å€ 0x80003234
0x80000d48: 00 4a 25 03 lw	a0, 4(s4)
è¯»å–åœ°å€ 0x80000d4c
0x80000d4c: 00 0d 06 13 addi	a2, s10, 0
è¯»å–åœ°å€ 0x80000d50
0x80000d50: 00 0b 80 e7 jalr	ra, 0(s7)
è¯»å–åœ°å€ 0x80000adc
0x80000adc: 00 06 0a 63 beq	a2, zero, 0x80000af0
è¯»å–åœ°å€ 0x80000af0
è¯»å–åœ°å€ 0x800032d0
0x80000af0: 00 05 17 83 lh	a5, 0(a0)
è¯»å–åœ°å€ 0x80000af4
0x80000af4: 01 07 97 13 slli	a4, a5, 16
è¯»å–åœ°å€ 0x80000af8
0x80000af8: 01 07 57 13 srli	a4, a4, 16
è¯»å–åœ°å€ 0x80000afc
0x80000afc: 00 87 57 13 srli	a4, a4, 8
è¯»å–åœ°å€ 0x80000b00
0x80000b00: f0 07 f7 93 andi	a5, a5, -256
è¯»å–åœ°å€ 0x80000b04
0x80000b04: 00 e7 e7 b3 or	a5, a5, a4
è¯»å–åœ°å€ 0x80000b08
å†™å…¥åœ°å€ 0x800032d0
0x80000b08: 00 f5 10 23 sh	a5, 0(a0)
è¯»å–åœ°å€ 0x80000b0c
è¯»å–åœ°å€ 0x800032b4
0x80000b0c: 00 05 97 83 lh	a5, 0(a1)
è¯»å–åœ°å€ 0x80000b10
è¯»å–åœ°å€ 0x800032d2
0x80000b10: 00 25 15 03 lh	a0, 2(a0)
è¯»å–åœ°å€ 0x80000b14
0x80000b14: 01 07 97 13 slli	a4, a5, 16
è¯»å–åœ°å€ 0x80000b18
0x80000b18: 01 07 57 13 srli	a4, a4, 16
è¯»å–åœ°å€ 0x80000b1c
0x80000b1c: 00 87 57 13 srli	a4, a4, 8
è¯»å–åœ°å€ 0x80000b20
0x80000b20: f0 07 f7 93 andi	a5, a5, -256
è¯»å–åœ°å€ 0x80000b24
0x80000b24: 00 e7 e7 b3 or	a5, a5, a4
è¯»å–åœ°å€ 0x80000b28
å†™å…¥åœ°å€ 0x800032b4
0x80000b28: 00 f5 90 23 sh	a5, 0(a1)
è¯»å–åœ°å€ 0x80000b2c
è¯»å–åœ°å€ 0x800032b6
0x80000b2c: 00 25 97 83 lh	a5, 2(a1)
è¯»å–åœ°å€ 0x80000b30
0x80000b30: 40 f5 05 33 sub	a0, a0, a5
è¯»å–åœ°å€ 0x80000b34
0x80000b34: 00 00 80 67 jalr	zero, 0(ra)
è¯»å–åœ°å€ 0x80000d54
0x80000d54: 04 a0 52 63 bge	zero, a0, 0x80000d98
è¯»å–åœ°å€ 0x80000d58
0x80000d58: 00 04 87 93 addi	a5, s1, 0
è¯»å–åœ°å€ 0x80000d5c
è¯»å–åœ°å€ 0x800031f8
0x80000d5c: 00 04 a4 83 lw	s1, 0(s1)
è¯»å–åœ°å€ 0x80000d60
0x80000d60: ff f9 89 93 addi	s3, s3, -1
è¯»å–åœ°å€ 0x80000d64
0x80000d64: 02 09 04 63 beq	s2, zero, 0x80000d8c
è¯»å–åœ°å€ 0x80000d68
å†™å…¥åœ°å€ 0x80003240
0x80000d68: 00 f9 20 23 sw	a5, 0(s2)
è¯»å–åœ°å€ 0x80000d6c
0x80000d6c: 00 07 89 13 addi	s2, a5, 0
è¯»å–åœ°å€ 0x80000d70
0x80000d70: fc 04 16 e3 bne	s0, zero, 0x80000d3c
è¯»å–åœ°å€ 0x80000d3c
0x80000d3c: 04 09 8e 63 beq	s3, zero, 0x80000d98
è¯»å–åœ°å€ 0x80000d40
0x80000d40: 04 04 8c 63 beq	s1, zero, 0x80000d98
è¯»å–åœ°å€ 0x80000d44
è¯»å–åœ°å€ 0x80003214
0x80000d44: 00 44 a5 83 lw	a1, 4(s1)
è¯»å–åœ°å€ 0x80000d48
è¯»å–åœ°å€ 0x80003234
0x80000d48: 00 4a 25 03 lw	a0, 4(s4)
è¯»å–åœ°å€ 0x80000d4c
0x80000d4c: 00 0d 06 13 addi	a2, s10, 0
è¯»å–åœ°å€ 0x80000d50
0x80000d50: 00 0b 80 e7 jalr	ra, 0(s7)
è¯»å–åœ°å€ 0x80000adc
0x80000adc: 00 06 0a 63 beq	a2, zero, 0x80000af0
è¯»å–åœ°å€ 0x80000af0
è¯»å–åœ°å€ 0x800032d0
0x80000af0: 00 05 17 83 lh	a5, 0(a0)
è¯»å–åœ°å€ 0x80000af4
0x80000af4: 01 07 97 13 slli	a4, a5, 16
è¯»å–åœ°å€ 0x80000af8
0x80000af8: 01 07 57 13 srli	a4, a4, 16
è¯»å–åœ°å€ 0x80000afc
0x80000afc: 00 87 57 13 srli	a4, a4, 8
è¯»å–åœ°å€ 0x80000b00
0x80000b00: f0 07 f7 93 andi	a5, a5, -256
è¯»å–åœ°å€ 0x80000b04
0x80000b04: 00 e7 e7 b3 or	a5, a5, a4
è¯»å–åœ°å€ 0x80000b08
å†™å…¥åœ°å€ 0x800032d0
0x80000b08: 00 f5 10 23 sh	a5, 0(a0)
è¯»å–åœ°å€ 0x80000b0c
è¯»å–åœ°å€ 0x800032c0
0x80000b0c: 00 05 97 83 lh	a5, 0(a1)
è¯»å–åœ°å€ 0x80000b10
è¯»å–åœ°å€ 0x800032d2
0x80000b10: 00 25 15 03 lh	a0, 2(a0)
è¯»å–åœ°å€ 0x80000b14
0x80000b14: 01 07 97 13 slli	a4, a5, 16
è¯»å–åœ°å€ 0x80000b18
0x80000b18: 01 07 57 13 srli	a4, a4, 16
è¯»å–åœ°å€ 0x80000b1c
0x80000b1c: 00 87 57 13 srli	a4, a4, 8
è¯»å–åœ°å€ 0x80000b20
0x80000b20: f0 07 f7 93 andi	a5, a5, -256
è¯»å–åœ°å€ 0x80000b24
0x80000b24: 00 e7 e7 b3 or	a5, a5, a4
è¯»å–åœ°å€ 0x80000b28
å†™å…¥åœ°å€ 0x800032c0
0x80000b28: 00 f5 90 23 sh	a5, 0(a1)
è¯»å–åœ°å€ 0x80000b2c
è¯»å–åœ°å€ 0x800032c2
0x80000b2c: 00 25 97 83 lh	a5, 2(a1)
è¯»å–åœ°å€ 0x80000b30
0x80000b30: 40 f5 05 33 sub	a0, a0, a5
è¯»å–åœ°å€ 0x80000b34
0x80000b34: 00 00 80 67 jalr	zero, 0(ra)
è¯»å–åœ°å€ 0x80000d54
0x80000d54: 04 a0 52 63 bge	zero, a0, 0x80000d98
è¯»å–åœ°å€ 0x80000d98
0x80000d98: 00 0a 07 93 addi	a5, s4, 0
è¯»å–åœ°å€ 0x80000d9c
0x80000d9c: ff f4 04 13 addi	s0, s0, -1
è¯»å–åœ°å€ 0x80000da0
è¯»å–åœ°å€ 0x80003230
0x80000da0: 00 0a 2a 03 lw	s4, 0(s4)
è¯»å–åœ°å€ 0x80000da4
0x80000da4: fc 1f f0 6f jal	zero, 0x80000d64
è¯»å–åœ°å€ 0x80000d64
0x80000d64: 02 09 04 63 beq	s2, zero, 0x80000d8c
è¯»å–åœ°å€ 0x80000d68
å†™å…¥åœ°å€ 0x800031f8
0x80000d68: 00 f9 20 23 sw	a5, 0(s2)
è¯»å–åœ°å€ 0x80000d6c
0x80000d6c: 00 07 89 13 addi	s2, a5, 0
è¯»å–åœ°å€ 0x80000d70
0x80000d70: fc 04 16 e3 bne	s0, zero, 0x80000d3c
è¯»å–åœ°å€ 0x80000d3c
0x80000d3c: 04 09 8e 63 beq	s3, zero, 0x80000d98
è¯»å–åœ°å€ 0x80000d40
0x80000d40: 04 04 8c 63 beq	s1, zero, 0x80000d98
è¯»å–åœ°å€ 0x80000d44
è¯»å–åœ°å€ 0x80003214
0x80000d44: 00 44 a5 83 lw	a1, 4(s1)
è¯»å–åœ°å€ 0x80000d48
è¯»å–åœ°å€ 0x8000322c
0x80000d48: 00 4a 25 03 lw	a0, 4(s4)
è¯»å–åœ°å€ 0x80000d4c
0x80000d4c: 00 0d 06 13 addi	a2, s10, 0
è¯»å–åœ°å€ 0x80000d50
0x80000d50: 00 0b 80 e7 jalr	ra, 0(s7)
è¯»å–åœ°å€ 0x80000adc
0x80000adc: 00 06 0a 63 beq	a2, zero, 0x80000af0
è¯»å–åœ°å€ 0x80000af0
è¯»å–åœ°å€ 0x800032cc
0x80000af0: 00 05 17 83 lh	a5, 0(a0)
è¯»å–åœ°å€ 0x80000af4
0x80000af4: 01 07 97 13 slli	a4, a5, 16
è¯»å–åœ°å€ 0x80000af8
0x80000af8: 01 07 57 13 srli	a4, a4, 16
è¯»å–åœ°å€ 0x80000afc
0x80000afc: 00 87 57 13 srli	a4, a4, 8
è¯»å–åœ°å€ 0x80000b00
0x80000b00: f0 07 f7 93 andi	a5, a5, -256
è¯»å–åœ°å€ 0x80000b04
0x80000b04: 00 e7 e7 b3 or	a5, a5, a4
è¯»å–åœ°å€ 0x80000b08
å†™å…¥åœ°å€ 0x800032cc
0x80000b08: 00 f5 10 23 sh	a5, 0(a0)
è¯»å–åœ°å€ 0x80000b0c
è¯»å–åœ°å€ 0x800032c0
0x80000b0c: 00 05 97 83 lh	a5, 0(a1)
è¯»å–åœ°å€ 0x80000b10
è¯»å–åœ°å€ 0x800032ce
0x80000b10: 00 25 15 03 lh	a0, 2(a0)
è¯»å–åœ°å€ 0x80000b14
0x80000b14: 01 07 97 13 slli	a4, a5, 16
è¯»å–åœ°å€ 0x80000b18
0x80000b18: 01 07 57 13 srli	a4, a4, 16
è¯»å–åœ°å€ 0x80000b1c
0x80000b1c: 00 87 57 13 srli	a4, a4, 8
è¯»å–åœ°å€ 0x80000b20
0x80000b20: f0 07 f7 93 andi	a5, a5, -256
è¯»å–åœ°å€ 0x80000b24
0x80000b24: 00 e7 e7 b3 or	a5, a5, a4
è¯»å–åœ°å€ 0x80000b28
å†™å…¥åœ°å€ 0x800032c0
0x80000b28: 00 f5 90 23 sh	a5, 0(a1)
è¯»å–åœ°å€ 0x80000b2c
è¯»å–åœ°å€ 0x800032c2
0x80000b2c: 00 25 97 83 lh	a5, 2(a1)
è¯»å–åœ°å€ 0x80000b30
0x80000b30: 40 f5 05 33 sub	a0, a0, a5
è¯»å–åœ°å€ 0x80000b34
0x80000b34: 00 00 80 67 jalr	zero, 0(ra)
è¯»å–åœ°å€ 0x80000d54
0x80000d54: 04 a0 52 63 bge	zero, a0, 0x80000d98
è¯»å–åœ°å€ 0x80000d98
0x80000d98: 00 0a 07 93 addi	a5, s4, 0
è¯»å–åœ°å€ 0x80000d9c
0x80000d9c: ff f4 04 13 addi	s0, s0, -1
è¯»å–åœ°å€ 0x80000da0
è¯»å–åœ°å€ 0x80003228
0x80000da0: 00 0a 2a 03 lw	s4, 0(s4)
è¯»å–åœ°å€ 0x80000da4
0x80000da4: fc 1f f0 6f jal	zero, 0x80000d64
è¯»å–åœ°å€ 0x80000d64
0x80000d64: 02 09 04 63 beq	s2, zero, 0x80000d8c
è¯»å–åœ°å€ 0x80000d68
å†™å…¥åœ°å€ 0x80003230
0x80000d68: 00 f9 20 23 sw	a5, 0(s2)
è¯»å–åœ°å€ 0x80000d6c
0x80000d6c: 00 07 89 13 addi	s2, a5, 0
è¯»å–åœ°å€ 0x80000d70
0x80000d70: fc 04 16 e3 bne	s0, zero, 0x80000d3c
è¯»å–åœ°å€ 0x80000d3c
0x80000d3c: 04 09 8e 63 beq	s3, zero, 0x80000d98
è¯»å–åœ°å€ 0x80000d40
0x80000d40: 04 04 8c 63 beq	s1, zero, 0x80000d98
è¯»å–åœ°å€ 0x80000d44
è¯»å–åœ°å€ 0x80003214
0x80000d44: 00 44 a5 83 lw	a1, 4(s1)
è¯»å–åœ°å€ 0x80000d48
è¯»å–åœ°å€ 0x80003224
0x80000d48: 00 4a 25 03 lw	a0, 4(s4)
è¯»å–åœ°å€ 0x80000d4c
0x80000d4c: 00 0d 06 13 addi	a2, s10, 0
è¯»å–åœ°å€ 0x80000d50
0x80000d50: 00 0b 80 e7 jalr	ra, 0(s7)
è¯»å–åœ°å€ 0x80000adc
0x80000adc: 00 06 0a 63 beq	a2, zero, 0x80000af0
è¯»å–åœ°å€ 0x80000af0
è¯»å–åœ°å€ 0x800032c8
0x80000af0: 00 05 17 83 lh	a5, 0(a0)
è¯»å–åœ°å€ 0x80000af4
0x80000af4: 01 07 97 13 slli	a4, a5, 16
è¯»å–åœ°å€ 0x80000af8
0x80000af8: 01 07 57 13 srli	a4, a4, 16
è¯»å–åœ°å€ 0x80000afc
0x80000afc: 00 87 57 13 srli	a4, a4, 8
è¯»å–åœ°å€ 0x80000b00
0x80000b00: f0 07 f7 93 andi	a5, a5, -256
è¯»å–åœ°å€ 0x80000b04
0x80000b04: 00 e7 e7 b3 or	a5, a5, a4
è¯»å–åœ°å€ 0x80000b08
å†™å…¥åœ°å€ 0x800032c8
0x80000b08: 00 f5 10 23 sh	a5, 0(a0)
è¯»å–åœ°å€ 0x80000b0c
è¯»å–åœ°å€ 0x800032c0
0x80000b0c: 00 05 97 83 lh	a5, 0(a1)
è¯»å–åœ°å€ 0x80000b10
è¯»å–åœ°å€ 0x800032ca
0x80000b10: 00 25 15 03 lh	a0, 2(a0)
è¯»å–åœ°å€ 0x80000b14
0x80000b14: 01 07 97 13 slli	a4, a5, 16
è¯»å–åœ°å€ 0x80000b18
0x80000b18: 01 07 57 13 srli	a4, a4, 16
è¯»å–åœ°å€ 0x80000b1c
0x80000b1c: 00 87 57 13 srli	a4, a4, 8
è¯»å–åœ°å€ 0x80000b20
0x80000b20: f0 07 f7 93 andi	a5, a5, -256
è¯»å–åœ°å€ 0x80000b24
0x80000b24: 00 e7 e7 b3 or	a5, a5, a4
è¯»å–åœ°å€ 0x80000b28
å†™å…¥åœ°å€ 0x800032c0
0x80000b28: 00 f5 90 23 sh	a5, 0(a1)
è¯»å–åœ°å€ 0x80000b2c
è¯»å–åœ°å€ 0x800032c2
0x80000b2c: 00 25 97 83 lh	a5, 2(a1)
è¯»å–åœ°å€ 0x80000b30
0x80000b30: 40 f5 05 33 sub	a0, a0, a5
è¯»å–åœ°å€ 0x80000b34
0x80000b34: 00 00 80 67 jalr	zero, 0(ra)
è¯»å–åœ°å€ 0x80000d54
0x80000d54: 04 a0 52 63 bge	zero, a0, 0x80000d98
è¯»å–åœ°å€ 0x80000d98
0x80000d98: 00 0a 07 93 addi	a5, s4, 0
è¯»å–åœ°å€ 0x80000d9c
0x80000d9c: ff f4 04 13 addi	s0, s0, -1
è¯»å–åœ°å€ 0x80000da0
è¯»å–åœ°å€ 0x80003220
0x80000da0: 00 0a 2a 03 lw	s4, 0(s4)
è¯»å–åœ°å€ 0x80000da4
0x80000da4: fc 1f f0 6f jal	zero, 0x80000d64
è¯»å–åœ°å€ 0x80000d64
0x80000d64: 02 09 04 63 beq	s2, zero, 0x80000d8c
è¯»å–åœ°å€ 0x80000d68
å†™å…¥åœ°å€ 0x80003228
0x80000d68: 00 f9 20 23 sw	a5, 0(s2)
è¯»å–åœ°å€ 0x80000d6c
0x80000d6c: 00 07 89 13 addi	s2, a5, 0
è¯»å–åœ°å€ 0x80000d70
0x80000d70: fc 04 16 e3 bne	s0, zero, 0x80000d3c
è¯»å–åœ°å€ 0x80000d3c
0x80000d3c: 04 09 8e 63 beq	s3, zero, 0x80000d98
è¯»å–åœ°å€ 0x80000d40
0x80000d40: 04 04 8c 63 beq	s1, zero, 0x80000d98
è¯»å–åœ°å€ 0x80000d44
è¯»å–åœ°å€ 0x80003214
0x80000d44: 00 44 a5 83 lw	a1, 4(s1)
è¯»å–åœ°å€ 0x80000d48
è¯»å–åœ°å€ 0x8000321c
0x80000d48: 00 4a 25 03 lw	a0, 4(s4)
è¯»å–åœ°å€ 0x80000d4c
0x80000d4c: 00 0d 06 13 addi	a2, s10, 0
è¯»å–åœ°å€ 0x80000d50
0x80000d50: 00 0b 80 e7 jalr	ra, 0(s7)
è¯»å–åœ°å€ 0x80000adc
0x80000adc: 00 06 0a 63 beq	a2, zero, 0x80000af0
è¯»å–åœ°å€ 0x80000af0
è¯»å–åœ°å€ 0x800032c4
0x80000af0: 00 05 17 83 lh	a5, 0(a0)
è¯»å–åœ°å€ 0x80000af4
0x80000af4: 01 07 97 13 slli	a4, a5, 16
è¯»å–åœ°å€ 0x80000af8
0x80000af8: 01 07 57 13 srli	a4, a4, 16
è¯»å–åœ°å€ 0x80000afc
0x80000afc: 00 87 57 13 srli	a4, a4, 8
è¯»å–åœ°å€ 0x80000b00
0x80000b00: f0 07 f7 93 andi	a5, a5, -256
è¯»å–åœ°å€ 0x80000b04
0x80000b04: 00 e7 e7 b3 or	a5, a5, a4
è¯»å–åœ°å€ 0x80000b08
å†™å…¥åœ°å€ 0x800032c4
0x80000b08: 00 f5 10 23 sh	a5, 0(a0)
è¯»å–åœ°å€ 0x80000b0c
è¯»å–åœ°å€ 0x800032c0
0x80000b0c: 00 05 97 83 lh	a5, 0(a1)
è¯»å–åœ°å€ 0x80000b10
è¯»å–åœ°å€ 0x800032c6
0x80000b10: 00 25 15 03 lh	a0, 2(a0)
è¯»å–åœ°å€ 0x80000b14
0x80000b14: 01 07 97 13 slli	a4, a5, 16
è¯»å–åœ°å€ 0x80000b18
0x80000b18: 01 07 57 13 srli	a4, a4, 16
è¯»å–åœ°å€ 0x80000b1c
0x80000b1c: 00 87 57 13 srli	a4, a4, 8
è¯»å–åœ°å€ 0x80000b20
0x80000b20: f0 07 f7 93 andi	a5, a5, -256
è¯»å–åœ°å€ 0x80000b24
0x80000b24: 00 e7 e7 b3 or	a5, a5, a4
è¯»å–åœ°å€ 0x80000b28
å†™å…¥åœ°å€ 0x800032c0
0x80000b28: 00 f5 90 23 sh	a5, 0(a1)
è¯»å–åœ°å€ 0x80000b2c
è¯»å–åœ°å€ 0x800032c2
0x80000b2c: 00 25 97 83 lh	a5, 2(a1)
è¯»å–åœ°å€ 0x80000b30
0x80000b30: 40 f5 05 33 sub	a0, a0, a5
è¯»å–åœ°å€ 0x80000b34
0x80000b34: 00 00 80 67 jalr	zero, 0(ra)
è¯»å–åœ°å€ 0x80000d54
0x80000d54: 04 a0 52 63 bge	zero, a0, 0x80000d98
è¯»å–åœ°å€ 0x80000d98
0x80000d98: 00 0a 07 93 addi	a5, s4, 0
è¯»å–åœ°å€ 0x80000d9c
0x80000d9c: ff f4 04 13 addi	s0, s0, -1
è¯»å–åœ°å€ 0x80000da0
è¯»å–åœ°å€ 0x80003218
0x80000da0: 00 0a 2a 03 lw	s4, 0(s4)
è¯»å–åœ°å€ 0x80000da4
0x80000da4: fc 1f f0 6f jal	zero, 0x80000d64
è¯»å–åœ°å€ 0x80000d64
0x80000d64: 02 09 04 63 beq	s2, zero, 0x80000d8c
è¯»å–åœ°å€ 0x80000d68
å†™å…¥åœ°å€ 0x80003220
0x80000d68: 00 f9 20 23 sw	a5, 0(s2)
è¯»å–åœ°å€ 0x80000d6c
0x80000d6c: 00 07 89 13 addi	s2, a5, 0
è¯»å–åœ°å€ 0x80000d70
0x80000d70: fc 04 16 e3 bne	s0, zero, 0x80000d3c
è¯»å–åœ°å€ 0x80000d74
0x80000d74: 02 09 8a 63 beq	s3, zero, 0x80000da8
è¯»å–åœ°å€ 0x80000d78
0x80000d78: 02 04 8a 63 beq	s1, zero, 0x80000dac
è¯»å–åœ°å€ 0x80000d7c
0x80000d7c: 00 04 87 93 addi	a5, s1, 0
è¯»å–åœ°å€ 0x80000d80
0x80000d80: ff f9 89 93 addi	s3, s3, -1
è¯»å–åœ°å€ 0x80000d84
è¯»å–åœ°å€ 0x80003210
0x80000d84: 00 04 a4 83 lw	s1, 0(s1)
è¯»å–åœ°å€ 0x80000d88
0x80000d88: fe 09 10 e3 bne	s2, zero, 0x80000d68
è¯»å–åœ°å€ 0x80000d68
å†™å…¥åœ°å€ 0x80003218
0x80000d68: 00 f9 20 23 sw	a5, 0(s2)
è¯»å–åœ°å€ 0x80000d6c
0x80000d6c: 00 07 89 13 addi	s2, a5, 0
è¯»å–åœ°å€ 0x80000d70
0x80000d70: fc 04 16 e3 bne	s0, zero, 0x80000d3c
è¯»å–åœ°å€ 0x80000d74
0x80000d74: 02 09 8a 63 beq	s3, zero, 0x80000da8
è¯»å–åœ°å€ 0x80000d78
0x80000d78: 02 04 8a 63 beq	s1, zero, 0x80000dac
è¯»å–åœ°å€ 0x80000d7c
0x80000d7c: 00 04 87 93 addi	a5, s1, 0
è¯»å–åœ°å€ 0x80000d80
0x80000d80: ff f9 89 93 addi	s3, s3, -1
è¯»å–åœ°å€ 0x80000d84
è¯»å–åœ°å€ 0x80003208
0x80000d84: 00 04 a4 83 lw	s1, 0(s1)
è¯»å–åœ°å€ 0x80000d88
0x80000d88: fe 09 10 e3 bne	s2, zero, 0x80000d68
è¯»å–åœ°å€ 0x80000d68
å†™å…¥åœ°å€ 0x80003210
0x80000d68: 00 f9 20 23 sw	a5, 0(s2)
è¯»å–åœ°å€ 0x80000d6c
0x80000d6c: 00 07 89 13 addi	s2, a5, 0
è¯»å–åœ°å€ 0x80000d70
0x80000d70: fc 04 16 e3 bne	s0, zero, 0x80000d3c
è¯»å–åœ°å€ 0x80000d74
0x80000d74: 02 09 8a 63 beq	s3, zero, 0x80000da8
è¯»å–åœ°å€ 0x80000d78
0x80000d78: 02 04 8a 63 beq	s1, zero, 0x80000dac
è¯»å–åœ°å€ 0x80000d7c
0x80000d7c: 00 04 87 93 addi	a5, s1, 0
è¯»å–åœ°å€ 0x80000d80
0x80000d80: ff f9 89 93 addi	s3, s3, -1
è¯»å–åœ°å€ 0x80000d84
è¯»å–åœ°å€ 0x80003200
0x80000d84: 00 04 a4 83 lw	s1, 0(s1)
è¯»å–åœ°å€ 0x80000d88
0x80000d88: fe 09 10 e3 bne	s2, zero, 0x80000d68
è¯»å–åœ°å€ 0x80000d68
å†™å…¥åœ°å€ 0x80003208
0x80000d68: 00 f9 20 23 sw	a5, 0(s2)
è¯»å–åœ°å€ 0x80000d6c
0x80000d6c: 00 07 89 13 addi	s2, a5, 0
è¯»å–åœ°å€ 0x80000d70
0x80000d70: fc 04 16 e3 bne	s0, zero, 0x80000d3c
è¯»å–åœ°å€ 0x80000d74
0x80000d74: 02 09 8a 63 beq	s3, zero, 0x80000da8
è¯»å–åœ°å€ 0x80000da8
0x80000da8: f6 04 94 e3 bne	s1, zero, 0x80000d10
è¯»å–åœ°å€ 0x80000d10
0x80000d10: 00 1c 0c 13 addi	s8, s8, 1
è¯»å–åœ°å€ 0x80000d14
0x80000d14: 00 04 87 93 addi	a5, s1, 0
è¯»å–åœ°å€ 0x80000d18
0x80000d18: 00 00 04 13 addi	s0, zero, 0
è¯»å–åœ°å€ 0x80000d1c
è¯»å–åœ°å€ 0x800031f0
0x80000d1c: 00 07 a7 83 lw	a5, 0(a5)
è¯»å–åœ°å€ 0x80000d20
0x80000d20: 00 14 04 13 addi	s0, s0, 1
è¯»å–åœ°å€ 0x80000d24
0x80000d24: 00 07 84 63 beq	a5, zero, 0x80000d2c
è¯»å–åœ°å€ 0x80000d28
0x80000d28: fe 8a 9a e3 bne	s5, s0, 0x80000d1c
è¯»å–åœ°å€ 0x80000d1c
è¯»å–åœ°å€ 0x800031e8
0x80000d1c: 00 07 a7 83 lw	a5, 0(a5)
è¯»å–åœ°å€ 0x80000d20
0x80000d20: 00 14 04 13 addi	s0, s0, 1
è¯»å–åœ°å€ 0x80000d24
0x80000d24: 00 07 84 63 beq	a5, zero, 0x80000d2c
è¯»å–åœ°å€ 0x80000d28
0x80000d28: fe 8a 9a e3 bne	s5, s0, 0x80000d1c
è¯»å–åœ°å€ 0x80000d1c
è¯»å–åœ°å€ 0x800031e0
0x80000d1c: 00 07 a7 83 lw	a5, 0(a5)
è¯»å–åœ°å€ 0x80000d20
0x80000d20: 00 14 04 13 addi	s0, s0, 1
è¯»å–åœ°å€ 0x80000d24
0x80000d24: 00 07 84 63 beq	a5, zero, 0x80000d2c
è¯»å–åœ°å€ 0x80000d28
0x80000d28: fe 8a 9a e3 bne	s5, s0, 0x80000d1c
è¯»å–åœ°å€ 0x80000d1c
è¯»å–åœ°å€ 0x800031d8
0x80000d1c: 00 07 a7 83 lw	a5, 0(a5)
è¯»å–åœ°å€ 0x80000d20
0x80000d20: 00 14 04 13 addi	s0, s0, 1
è¯»å–åœ°å€ 0x80000d24
0x80000d24: 00 07 84 63 beq	a5, zero, 0x80000d2c
è¯»å–åœ°å€ 0x80000d28
0x80000d28: fe 8a 9a e3 bne	s5, s0, 0x80000d1c
è¯»å–åœ°å€ 0x80000d2c
0x80000d2c: 00 04 8a 13 addi	s4, s1, 0
è¯»å–åœ°å€ 0x80000d30
0x80000d30: 00 0a 89 93 addi	s3, s5, 0
è¯»å–åœ°å€ 0x80000d34
0x80000d34: 00 07 84 93 addi	s1, a5, 0
è¯»å–åœ°å€ 0x80000d38
0x80000d38: 02 04 0e 63 beq	s0, zero, 0x80000d74
è¯»å–åœ°å€ 0x80000d3c
0x80000d3c: 04 09 8e 63 beq	s3, zero, 0x80000d98
è¯»å–åœ°å€ 0x80000d40
0x80000d40: 04 04 8c 63 beq	s1, zero, 0x80000d98
è¯»å–åœ°å€ 0x80000d44
è¯»å–åœ°å€ 0x800031bc
0x80000d44: 00 44 a5 83 lw	a1, 4(s1)
è¯»å–åœ°å€ 0x80000d48
è¯»å–åœ°å€ 0x800031f4
0x80000d48: 00 4a 25 03 lw	a0, 4(s4)
è¯»å–åœ°å€ 0x80000d4c
0x80000d4c: 00 0d 06 13 addi	a2, s10, 0
è¯»å–åœ°å€ 0x80000d50
0x80000d50: 00 0b 80 e7 jalr	ra, 0(s7)
è¯»å–åœ°å€ 0x80000adc
0x80000adc: 00 06 0a 63 beq	a2, zero, 0x80000af0
è¯»å–åœ°å€ 0x80000af0
è¯»å–åœ°å€ 0x800032b0
0x80000af0: 00 05 17 83 lh	a5, 0(a0)
è¯»å–åœ°å€ 0x80000af4
0x80000af4: 01 07 97 13 slli	a4, a5, 16
è¯»å–åœ°å€ 0x80000af8
0x80000af8: 01 07 57 13 srli	a4, a4, 16
è¯»å–åœ°å€ 0x80000afc
0x80000afc: 00 87 57 13 srli	a4, a4, 8
è¯»å–åœ°å€ 0x80000b00
0x80000b00: f0 07 f7 93 andi	a5, a5, -256
è¯»å–åœ°å€ 0x80000b04
0x80000b04: 00 e7 e7 b3 or	a5, a5, a4
è¯»å–åœ°å€ 0x80000b08
å†™å…¥åœ°å€ 0x800032b0
0x80000b08: 00 f5 10 23 sh	a5, 0(a0)
è¯»å–åœ°å€ 0x80000b0c
è¯»å–åœ°å€ 0x80003294
0x80000b0c: 00 05 97 83 lh	a5, 0(a1)
è¯»å–åœ°å€ 0x80000b10
è¯»å–åœ°å€ 0x800032b2
0x80000b10: 00 25 15 03 lh	a0, 2(a0)
è¯»å–åœ°å€ 0x80000b14
0x80000b14: 01 07 97 13 slli	a4, a5, 16
è¯»å–åœ°å€ 0x80000b18
0x80000b18: 01 07 57 13 srli	a4, a4, 16
è¯»å–åœ°å€ 0x80000b1c
0x80000b1c: 00 87 57 13 srli	a4, a4, 8
è¯»å–åœ°å€ 0x80000b20
0x80000b20: f0 07 f7 93 andi	a5, a5, -256
è¯»å–åœ°å€ 0x80000b24
0x80000b24: 00 e7 e7 b3 or	a5, a5, a4
è¯»å–åœ°å€ 0x80000b28
å†™å…¥åœ°å€ 0x80003294
0x80000b28: 00 f5 90 23 sh	a5, 0(a1)
è¯»å–åœ°å€ 0x80000b2c
è¯»å–åœ°å€ 0x80003296
0x80000b2c: 00 25 97 83 lh	a5, 2(a1)
è¯»å–åœ°å€ 0x80000b30
0x80000b30: 40 f5 05 33 sub	a0, a0, a5
è¯»å–åœ°å€ 0x80000b34
0x80000b34: 00 00 80 67 jalr	zero, 0(ra)
è¯»å–åœ°å€ 0x80000d54
0x80000d54: 04 a0 52 63 bge	zero, a0, 0x80000d98
è¯»å–åœ°å€ 0x80000d58
0x80000d58: 00 04 87 93 addi	a5, s1, 0
è¯»å–åœ°å€ 0x80000d5c
è¯»å–åœ°å€ 0x800031b8
0x80000d5c: 00 04 a4 83 lw	s1, 0(s1)
è¯»å–åœ°å€ 0x80000d60
0x80000d60: ff f9 89 93 addi	s3, s3, -1
è¯»å–åœ°å€ 0x80000d64
0x80000d64: 02 09 04 63 beq	s2, zero, 0x80000d8c
è¯»å–åœ°å€ 0x80000d68
å†™å…¥åœ°å€ 0x80003200
0x80000d68: 00 f9 20 23 sw	a5, 0(s2)
è¯»å–åœ°å€ 0x80000d6c
0x80000d6c: 00 07 89 13 addi	s2, a5, 0
è¯»å–åœ°å€ 0x80000d70
0x80000d70: fc 04 16 e3 bne	s0, zero, 0x80000d3c
è¯»å–åœ°å€ 0x80000d3c
0x80000d3c: 04 09 8e 63 beq	s3, zero, 0x80000d98
è¯»å–åœ°å€ 0x80000d40
0x80000d40: 04 04 8c 63 beq	s1, zero, 0x80000d98
è¯»å–åœ°å€ 0x80000d44
è¯»å–åœ°å€ 0x800031d4
0x80000d44: 00 44 a5 83 lw	a1, 4(s1)
è¯»å–åœ°å€ 0x80000d48
è¯»å–åœ°å€ 0x800031f4
0x80000d48: 00 4a 25 03 lw	a0, 4(s4)
è¯»å–åœ°å€ 0x80000d4c
0x80000d4c: 00 0d 06 13 addi	a2, s10, 0
è¯»å–åœ°å€ 0x80000d50
0x80000d50: 00 0b 80 e7 jalr	ra, 0(s7)
è¯»å–åœ°å€ 0x80000adc
0x80000adc: 00 06 0a 63 beq	a2, zero, 0x80000af0
è¯»å–åœ°å€ 0x80000af0
è¯»å–åœ°å€ 0x800032b0
0x80000af0: 00 05 17 83 lh	a5, 0(a0)
è¯»å–åœ°å€ 0x80000af4
0x80000af4: 01 07 97 13 slli	a4, a5, 16
è¯»å–åœ°å€ 0x80000af8
0x80000af8: 01 07 57 13 srli	a4, a4, 16
è¯»å–åœ°å€ 0x80000afc
0x80000afc: 00 87 57 13 srli	a4, a4, 8
è¯»å–åœ°å€ 0x80000b00
0x80000b00: f0 07 f7 93 andi	a5, a5, -256
è¯»å–åœ°å€ 0x80000b04
0x80000b04: 00 e7 e7 b3 or	a5, a5, a4
è¯»å–åœ°å€ 0x80000b08
å†™å…¥åœ°å€ 0x800032b0
0x80000b08: 00 f5 10 23 sh	a5, 0(a0)
è¯»å–åœ°å€ 0x80000b0c
è¯»å–åœ°å€ 0x800032a0
0x80000b0c: 00 05 97 83 lh	a5, 0(a1)
è¯»å–åœ°å€ 0x80000b10
è¯»å–åœ°å€ 0x800032b2
0x80000b10: 00 25 15 03 lh	a0, 2(a0)
è¯»å–åœ°å€ 0x80000b14
0x80000b14: 01 07 97 13 slli	a4, a5, 16
è¯»å–åœ°å€ 0x80000b18
0x80000b18: 01 07 57 13 srli	a4, a4, 16
è¯»å–åœ°å€ 0x80000b1c
0x80000b1c: 00 87 57 13 srli	a4, a4, 8
è¯»å–åœ°å€ 0x80000b20
0x80000b20: f0 07 f7 93 andi	a5, a5, -256
è¯»å–åœ°å€ 0x80000b24
0x80000b24: 00 e7 e7 b3 or	a5, a5, a4
è¯»å–åœ°å€ 0x80000b28
å†™å…¥åœ°å€ 0x800032a0
0x80000b28: 00 f5 90 23 sh	a5, 0(a1)
è¯»å–åœ°å€ 0x80000b2c
è¯»å–åœ°å€ 0x800032a2
0x80000b2c: 00 25 97 83 lh	a5, 2(a1)
è¯»å–åœ°å€ 0x80000b30
0x80000b30: 40 f5 05 33 sub	a0, a0, a5
è¯»å–åœ°å€ 0x80000b34
0x80000b34: 00 00 80 67 jalr	zero, 0(ra)
è¯»å–åœ°å€ 0x80000d54
0x80000d54: 04 a0 52 63 bge	zero, a0, 0x80000d98
è¯»å–åœ°å€ 0x80000d98
0x80000d98: 00 0a 07 93 addi	a5, s4, 0
è¯»å–åœ°å€ 0x80000d9c
0x80000d9c: ff f4 04 13 addi	s0, s0, -1
è¯»å–åœ°å€ 0x80000da0
è¯»å–åœ°å€ 0x800031f0
0x80000da0: 00 0a 2a 03 lw	s4, 0(s4)
è¯»å–åœ°å€ 0x80000da4
0x80000da4: fc 1f f0 6f jal	zero, 0x80000d64
è¯»å–åœ°å€ 0x80000d64
0x80000d64: 02 09 04 63 beq	s2, zero, 0x80000d8c
è¯»å–åœ°å€ 0x80000d68
å†™å…¥åœ°å€ 0x800031b8
0x80000d68: 00 f9 20 23 sw	a5, 0(s2)
è¯»å–åœ°å€ 0x80000d6c
0x80000d6c: 00 07 89 13 addi	s2, a5, 0
è¯»å–åœ°å€ 0x80000d70
0x80000d70: fc 04 16 e3 bne	s0, zero, 0x80000d3c
è¯»å–åœ°å€ 0x80000d3c
0x80000d3c: 04 09 8e 63 beq	s3, zero, 0x80000d98
è¯»å–åœ°å€ 0x80000d40
0x80000d40: 04 04 8c 63 beq	s1, zero, 0x80000d98
è¯»å–åœ°å€ 0x80000d44
è¯»å–åœ°å€ 0x800031d4
0x80000d44: 00 44 a5 83 lw	a1, 4(s1)
è¯»å–åœ°å€ 0x80000d48
è¯»å–åœ°å€ 0x800031ec
0x80000d48: 00 4a 25 03 lw	a0, 4(s4)
è¯»å–åœ°å€ 0x80000d4c
0x80000d4c: 00 0d 06 13 addi	a2, s10, 0
è¯»å–åœ°å€ 0x80000d50
0x80000d50: 00 0b 80 e7 jalr	ra, 0(s7)
è¯»å–åœ°å€ 0x80000adc
0x80000adc: 00 06 0a 63 beq	a2, zero, 0x80000af0
è¯»å–åœ°å€ 0x80000af0
è¯»å–åœ°å€ 0x800032ac
0x80000af0: 00 05 17 83 lh	a5, 0(a0)
è¯»å–åœ°å€ 0x80000af4
0x80000af4: 01 07 97 13 slli	a4, a5, 16
è¯»å–åœ°å€ 0x80000af8
0x80000af8: 01 07 57 13 srli	a4, a4, 16
è¯»å–åœ°å€ 0x80000afc
0x80000afc: 00 87 57 13 srli	a4, a4, 8
è¯»å–åœ°å€ 0x80000b00
0x80000b00: f0 07 f7 93 andi	a5, a5, -256
è¯»å–åœ°å€ 0x80000b04
0x80000b04: 00 e7 e7 b3 or	a5, a5, a4
è¯»å–åœ°å€ 0x80000b08
å†™å…¥åœ°å€ 0x800032ac
0x80000b08: 00 f5 10 23 sh	a5, 0(a0)
è¯»å–åœ°å€ 0x80000b0c
è¯»å–åœ°å€ 0x800032a0
0x80000b0c: 00 05 97 83 lh	a5, 0(a1)
è¯»å–åœ°å€ 0x80000b10
è¯»å–åœ°å€ 0x800032ae
0x80000b10: 00 25 15 03 lh	a0, 2(a0)
è¯»å–åœ°å€ 0x80000b14
0x80000b14: 01 07 97 13 slli	a4, a5, 16
è¯»å–åœ°å€ 0x80000b18
0x80000b18: 01 07 57 13 srli	a4, a4, 16
è¯»å–åœ°å€ 0x80000b1c
0x80000b1c: 00 87 57 13 srli	a4, a4, 8
è¯»å–åœ°å€ 0x80000b20
0x80000b20: f0 07 f7 93 andi	a5, a5, -256
è¯»å–åœ°å€ 0x80000b24
0x80000b24: 00 e7 e7 b3 or	a5, a5, a4
è¯»å–åœ°å€ 0x80000b28
å†™å…¥åœ°å€ 0x800032a0
0x80000b28: 00 f5 90 23 sh	a5, 0(a1)
è¯»å–åœ°å€ 0x80000b2c
è¯»å–åœ°å€ 0x800032a2
0x80000b2c: 00 25 97 83 lh	a5, 2(a1)
è¯»å–åœ°å€ 0x80000b30
0x80000b30: 40 f5 05 33 sub	a0, a0, a5
è¯»å–åœ°å€ 0x80000b34
0x80000b34: 00 00 80 67 jalr	zero, 0(ra)
è¯»å–åœ°å€ 0x80000d54
0x80000d54: 04 a0 52 63 bge	zero, a0, 0x80000d98
è¯»å–åœ°å€ 0x80000d98
0x80000d98: 00 0a 07 93 addi	a5, s4, 0
è¯»å–åœ°å€ 0x80000d9c
0x80000d9c: ff f4 04 13 addi	s0, s0, -1
è¯»å–åœ°å€ 0x80000da0
è¯»å–åœ°å€ 0x800031e8
0x80000da0: 00 0a 2a 03 lw	s4, 0(s4)
è¯»å–åœ°å€ 0x80000da4
0x80000da4: fc 1f f0 6f jal	zero, 0x80000d64
è¯»å–åœ°å€ 0x80000d64
0x80000d64: 02 09 04 63 beq	s2, zero, 0x80000d8c
è¯»å–åœ°å€ 0x80000d68
å†™å…¥åœ°å€ 0x800031f0
0x80000d68: 00 f9 20 23 sw	a5, 0(s2)
è¯»å–åœ°å€ 0x80000d6c
0x80000d6c: 00 07 89 13 addi	s2, a5, 0
è¯»å–åœ°å€ 0x80000d70
0x80000d70: fc 04 16 e3 bne	s0, zero, 0x80000d3c
è¯»å–åœ°å€ 0x80000d3c
0x80000d3c: 04 09 8e 63 beq	s3, zero, 0x80000d98
è¯»å–åœ°å€ 0x80000d40
0x80000d40: 04 04 8c 63 beq	s1, zero, 0x80000d98
è¯»å–åœ°å€ 0x80000d44
è¯»å–åœ°å€ 0x800031d4
0x80000d44: 00 44 a5 83 lw	a1, 4(s1)
è¯»å–åœ°å€ 0x80000d48
è¯»å–åœ°å€ 0x800031e4
0x80000d48: 00 4a 25 03 lw	a0, 4(s4)
è¯»å–åœ°å€ 0x80000d4c
0x80000d4c: 00 0d 06 13 addi	a2, s10, 0
è¯»å–åœ°å€ 0x80000d50
0x80000d50: 00 0b 80 e7 jalr	ra, 0(s7)
è¯»å–åœ°å€ 0x80000adc
0x80000adc: 00 06 0a 63 beq	a2, zero, 0x80000af0
è¯»å–åœ°å€ 0x80000af0
è¯»å–åœ°å€ 0x800032a8
0x80000af0: 00 05 17 83 lh	a5, 0(a0)
è¯»å–åœ°å€ 0x80000af4
0x80000af4: 01 07 97 13 slli	a4, a5, 16
è¯»å–åœ°å€ 0x80000af8
0x80000af8: 01 07 57 13 srli	a4, a4, 16
è¯»å–åœ°å€ 0x80000afc
0x80000afc: 00 87 57 13 srli	a4, a4, 8
è¯»å–åœ°å€ 0x80000b00
0x80000b00: f0 07 f7 93 andi	a5, a5, -256
è¯»å–åœ°å€ 0x80000b04
0x80000b04: 00 e7 e7 b3 or	a5, a5, a4
è¯»å–åœ°å€ 0x80000b08
å†™å…¥åœ°å€ 0x800032a8
0x80000b08: 00 f5 10 23 sh	a5, 0(a0)
è¯»å–åœ°å€ 0x80000b0c
è¯»å–åœ°å€ 0x800032a0
0x80000b0c: 00 05 97 83 lh	a5, 0(a1)
è¯»å–åœ°å€ 0x80000b10
è¯»å–åœ°å€ 0x800032aa
0x80000b10: 00 25 15 03 lh	a0, 2(a0)
è¯»å–åœ°å€ 0x80000b14
0x80000b14: 01 07 97 13 slli	a4, a5, 16
è¯»å–åœ°å€ 0x80000b18
0x80000b18: 01 07 57 13 srli	a4, a4, 16
è¯»å–åœ°å€ 0x80000b1c
0x80000b1c: 00 87 57 13 srli	a4, a4, 8
è¯»å–åœ°å€ 0x80000b20
0x80000b20: f0 07 f7 93 andi	a5, a5, -256
è¯»å–åœ°å€ 0x80000b24
0x80000b24: 00 e7 e7 b3 or	a5, a5, a4
è¯»å–åœ°å€ 0x80000b28
å†™å…¥åœ°å€ 0x800032a0
0x80000b28: 00 f5 90 23 sh	a5, 0(a1)
è¯»å–åœ°å€ 0x80000b2c
è¯»å–åœ°å€ 0x800032a2
0x80000b2c: 00 25 97 83 lh	a5, 2(a1)
è¯»å–åœ°å€ 0x80000b30
0x80000b30: 40 f5 05 33 sub	a0, a0, a5
è¯»å–åœ°å€ 0x80000b34
0x80000b34: 00 00 80 67 jalr	zero, 0(ra)
è¯»å–åœ°å€ 0x80000d54
0x80000d54: 04 a0 52 63 bge	zero, a0, 0x80000d98
è¯»å–åœ°å€ 0x80000d98
0x80000d98: 00 0a 07 93 addi	a5, s4, 0
è¯»å–åœ°å€ 0x80000d9c
0x80000d9c: ff f4 04 13 addi	s0, s0, -1
è¯»å–åœ°å€ 0x80000da0
è¯»å–åœ°å€ 0x800031e0
0x80000da0: 00 0a 2a 03 lw	s4, 0(s4)
è¯»å–åœ°å€ 0x80000da4
0x80000da4: fc 1f f0 6f jal	zero, 0x80000d64
è¯»å–åœ°å€ 0x80000d64
0x80000d64: 02 09 04 63 beq	s2, zero, 0x80000d8c
è¯»å–åœ°å€ 0x80000d68
å†™å…¥åœ°å€ 0x800031e8
0x80000d68: 00 f9 20 23 sw	a5, 0(s2)
è¯»å–åœ°å€ 0x80000d6c
0x80000d6c: 00 07 89 13 addi	s2, a5, 0
è¯»å–åœ°å€ 0x80000d70
0x80000d70: fc 04 16 e3 bne	s0, zero, 0x80000d3c
è¯»å–åœ°å€ 0x80000d3c
0x80000d3c: 04 09 8e 63 beq	s3, zero, 0x80000d98
è¯»å–åœ°å€ 0x80000d40
0x80000d40: 04 04 8c 63 beq	s1, zero, 0x80000d98
è¯»å–åœ°å€ 0x80000d44
è¯»å–åœ°å€ 0x800031d4
0x80000d44: 00 44 a5 83 lw	a1, 4(s1)
è¯»å–åœ°å€ 0x80000d48
è¯»å–åœ°å€ 0x800031dc
0x80000d48: 00 4a 25 03 lw	a0, 4(s4)
è¯»å–åœ°å€ 0x80000d4c
0x80000d4c: 00 0d 06 13 addi	a2, s10, 0
è¯»å–åœ°å€ 0x80000d50
0x80000d50: 00 0b 80 e7 jalr	ra, 0(s7)
è¯»å–åœ°å€ 0x80000adc
0x80000adc: 00 06 0a 63 beq	a2, zero, 0x80000af0
è¯»å–åœ°å€ 0x80000af0
è¯»å–åœ°å€ 0x800032a4
0x80000af0: 00 05 17 83 lh	a5, 0(a0)
è¯»å–åœ°å€ 0x80000af4
0x80000af4: 01 07 97 13 slli	a4, a5, 16
è¯»å–åœ°å€ 0x80000af8
0x80000af8: 01 07 57 13 srli	a4, a4, 16
è¯»å–åœ°å€ 0x80000afc
0x80000afc: 00 87 57 13 srli	a4, a4, 8
è¯»å–åœ°å€ 0x80000b00
0x80000b00: f0 07 f7 93 andi	a5, a5, -256
è¯»å–åœ°å€ 0x80000b04
0x80000b04: 00 e7 e7 b3 or	a5, a5, a4
è¯»å–åœ°å€ 0x80000b08
å†™å…¥åœ°å€ 0x800032a4
0x80000b08: 00 f5 10 23 sh	a5, 0(a0)
è¯»å–åœ°å€ 0x80000b0c
è¯»å–åœ°å€ 0x800032a0
0x80000b0c: 00 05 97 83 lh	a5, 0(a1)
è¯»å–åœ°å€ 0x80000b10
è¯»å–åœ°å€ 0x800032a6
0x80000b10: 00 25 15 03 lh	a0, 2(a0)
è¯»å–åœ°å€ 0x80000b14
0x80000b14: 01 07 97 13 slli	a4, a5, 16
è¯»å–åœ°å€ 0x80000b18
0x80000b18: 01 07 57 13 srli	a4, a4, 16
è¯»å–åœ°å€ 0x80000b1c
0x80000b1c: 00 87 57 13 srli	a4, a4, 8
è¯»å–åœ°å€ 0x80000b20
0x80000b20: f0 07 f7 93 andi	a5, a5, -256
è¯»å–åœ°å€ 0x80000b24
0x80000b24: 00 e7 e7 b3 or	a5, a5, a4
è¯»å–åœ°å€ 0x80000b28
å†™å…¥åœ°å€ 0x800032a0
0x80000b28: 00 f5 90 23 sh	a5, 0(a1)
è¯»å–åœ°å€ 0x80000b2c
è¯»å–åœ°å€ 0x800032a2
0x80000b2c: 00 25 97 83 lh	a5, 2(a1)
è¯»å–åœ°å€ 0x80000b30
0x80000b30: 40 f5 05 33 sub	a0, a0, a5
è¯»å–åœ°å€ 0x80000b34
0x80000b34: 00 00 80 67 jalr	zero, 0(ra)
è¯»å–åœ°å€ 0x80000d54
0x80000d54: 04 a0 52 63 bge	zero, a0, 0x80000d98
è¯»å–åœ°å€ 0x80000d98
0x80000d98: 00 0a 07 93 addi	a5, s4, 0
è¯»å–åœ°å€ 0x80000d9c
0x80000d9c: ff f4 04 13 addi	s0, s0, -1
è¯»å–åœ°å€ 0x80000da0
è¯»å–åœ°å€ 0x800031d8
0x80000da0: 00 0a 2a 03 lw	s4, 0(s4)
è¯»å–åœ°å€ 0x80000da4
0x80000da4: fc 1f f0 6f jal	zero, 0x80000d64
è¯»å–åœ°å€ 0x80000d64
0x80000d64: 02 09 04 63 beq	s2, zero, 0x80000d8c
è¯»å–åœ°å€ 0x80000d68
å†™å…¥åœ°å€ 0x800031e0
0x80000d68: 00 f9 20 23 sw	a5, 0(s2)
è¯»å–åœ°å€ 0x80000d6c
0x80000d6c: 00 07 89 13 addi	s2, a5, 0
è¯»å–åœ°å€ 0x80000d70
0x80000d70: fc 04 16 e3 bne	s0, zero, 0x80000d3c
è¯»å–åœ°å€ 0x80000d74
0x80000d74: 02 09 8a 63 beq	s3, zero, 0x80000da8
è¯»å–åœ°å€ 0x80000d78
0x80000d78: 02 04 8a 63 beq	s1, zero, 0x80000dac
è¯»å–åœ°å€ 0x80000d7c
0x80000d7c: 00 04 87 93 addi	a5, s1, 0
è¯»å–åœ°å€ 0x80000d80
0x80000d80: ff f9 89 93 addi	s3, s3, -1
è¯»å–åœ°å€ 0x80000d84
è¯»å–åœ°å€ 0x800031d0
0x80000d84: 00 04 a4 83 lw	s1, 0(s1)
è¯»å–åœ°å€ 0x80000d88
0x80000d88: fe 09 10 e3 bne	s2, zero, 0x80000d68
è¯»å–åœ°å€ 0x80000d68
å†™å…¥åœ°å€ 0x800031d8
0x80000d68: 00 f9 20 23 sw	a5, 0(s2)
è¯»å–åœ°å€ 0x80000d6c
0x80000d6c: 00 07 89 13 addi	s2, a5, 0
è¯»å–åœ°å€ 0x80000d70
0x80000d70: fc 04 16 e3 bne	s0, zero, 0x80000d3c
è¯»å–åœ°å€ 0x80000d74
0x80000d74: 02 09 8a 63 beq	s3, zero, 0x80000da8
è¯»å–åœ°å€ 0x80000d78
0x80000d78: 02 04 8a 63 beq	s1, zero, 0x80000dac
è¯»å–åœ°å€ 0x80000d7c
0x80000d7c: 00 04 87 93 addi	a5, s1, 0
è¯»å–åœ°å€ 0x80000d80
0x80000d80: ff f9 89 93 addi	s3, s3, -1
è¯»å–åœ°å€ 0x80000d84
è¯»å–åœ°å€ 0x800031c8
0x80000d84: 00 04 a4 83 lw	s1, 0(s1)
è¯»å–åœ°å€ 0x80000d88
0x80000d88: fe 09 10 e3 bne	s2, zero, 0x80000d68
è¯»å–åœ°å€ 0x80000d68
å†™å…¥åœ°å€ 0x800031d0
0x80000d68: 00 f9 20 23 sw	a5, 0(s2)
è¯»å–åœ°å€ 0x80000d6c
0x80000d6c: 00 07 89 13 addi	s2, a5, 0
è¯»å–åœ°å€ 0x80000d70
0x80000d70: fc 04 16 e3 bne	s0, zero, 0x80000d3c
è¯»å–åœ°å€ 0x80000d74
0x80000d74: 02 09 8a 63 beq	s3, zero, 0x80000da8
è¯»å–åœ°å€ 0x80000d78
0x80000d78: 02 04 8a 63 beq	s1, zero, 0x80000dac
è¯»å–åœ°å€ 0x80000d7c
0x80000d7c: 00 04 87 93 addi	a5, s1, 0
è¯»å–åœ°å€ 0x80000d80
0x80000d80: ff f9 89 93 addi	s3, s3, -1
è¯»å–åœ°å€ 0x80000d84
è¯»å–åœ°å€ 0x800031c0
0x80000d84: 00 04 a4 83 lw	s1, 0(s1)
è¯»å–åœ°å€ 0x80000d88
0x80000d88: fe 09 10 e3 bne	s2, zero, 0x80000d68
è¯»å–åœ°å€ 0x80000d68
å†™å…¥åœ°å€ 0x800031c8
0x80000d68: 00 f9 20 23 sw	a5, 0(s2)
è¯»å–åœ°å€ 0x80000d6c
0x80000d6c: 00 07 89 13 addi	s2, a5, 0
è¯»å–åœ°å€ 0x80000d70
0x80000d70: fc 04 16 e3 bne	s0, zero, 0x80000d3c
è¯»å–åœ°å€ 0x80000d74
0x80000d74: 02 09 8a 63 beq	s3, zero, 0x80000da8
è¯»å–åœ°å€ 0x80000da8
0x80000da8: f6 04 94 e3 bne	s1, zero, 0x80000d10
è¯»å–åœ°å€ 0x80000d10
0x80000d10: 00 1c 0c 13 addi	s8, s8, 1
è¯»å–åœ°å€ 0x80000d14
0x80000d14: 00 04 87 93 addi	a5, s1, 0
è¯»å–åœ°å€ 0x80000d18
0x80000d18: 00 00 04 13 addi	s0, zero, 0
è¯»å–åœ°å€ 0x80000d1c
è¯»å–åœ°å€ 0x800031b0
0x80000d1c: 00 07 a7 83 lw	a5, 0(a5)
è¯»å–åœ°å€ 0x80000d20
0x80000d20: 00 14 04 13 addi	s0, s0, 1
è¯»å–åœ°å€ 0x80000d24
0x80000d24: 00 07 84 63 beq	a5, zero, 0x80000d2c
è¯»å–åœ°å€ 0x80000d28
0x80000d28: fe 8a 9a e3 bne	s5, s0, 0x80000d1c
è¯»å–åœ°å€ 0x80000d1c
è¯»å–åœ°å€ 0x800031a8
0x80000d1c: 00 07 a7 83 lw	a5, 0(a5)
è¯»å–åœ°å€ 0x80000d20
0x80000d20: 00 14 04 13 addi	s0, s0, 1
è¯»å–åœ°å€ 0x80000d24
0x80000d24: 00 07 84 63 beq	a5, zero, 0x80000d2c
è¯»å–åœ°å€ 0x80000d28
0x80000d28: fe 8a 9a e3 bne	s5, s0, 0x80000d1c
è¯»å–åœ°å€ 0x80000d1c
è¯»å–åœ°å€ 0x800031a0
0x80000d1c: 00 07 a7 83 lw	a5, 0(a5)
è¯»å–åœ°å€ 0x80000d20
0x80000d20: 00 14 04 13 addi	s0, s0, 1
è¯»å–åœ°å€ 0x80000d24
0x80000d24: 00 07 84 63 beq	a5, zero, 0x80000d2c
è¯»å–åœ°å€ 0x80000d28
0x80000d28: fe 8a 9a e3 bne	s5, s0, 0x80000d1c
è¯»å–åœ°å€ 0x80000d1c
è¯»å–åœ°å€ 0x80003198
0x80000d1c: 00 07 a7 83 lw	a5, 0(a5)
è¯»å–åœ°å€ 0x80000d20
0x80000d20: 00 14 04 13 addi	s0, s0, 1
è¯»å–åœ°å€ 0x80000d24
0x80000d24: 00 07 84 63 beq	a5, zero, 0x80000d2c
è¯»å–åœ°å€ 0x80000d28
0x80000d28: fe 8a 9a e3 bne	s5, s0, 0x80000d1c
è¯»å–åœ°å€ 0x80000d2c
0x80000d2c: 00 04 8a 13 addi	s4, s1, 0
è¯»å–åœ°å€ 0x80000d30
0x80000d30: 00 0a 89 93 addi	s3, s5, 0
è¯»å–åœ°å€ 0x80000d34
0x80000d34: 00 07 84 93 addi	s1, a5, 0
è¯»å–åœ°å€ 0x80000d38
0x80000d38: 02 04 0e 63 beq	s0, zero, 0x80000d74
è¯»å–åœ°å€ 0x80000d3c
0x80000d3c: 04 09 8e 63 beq	s3, zero, 0x80000d98
è¯»å–åœ°å€ 0x80000d40
0x80000d40: 04 04 8c 63 beq	s1, zero, 0x80000d98
è¯»å–åœ°å€ 0x80000d44
è¯»å–åœ°å€ 0x80003194
0x80000d44: 00 44 a5 83 lw	a1, 4(s1)
è¯»å–åœ°å€ 0x80000d48
è¯»å–åœ°å€ 0x800031b4
0x80000d48: 00 4a 25 03 lw	a0, 4(s4)
è¯»å–åœ°å€ 0x80000d4c
0x80000d4c: 00 0d 06 13 addi	a2, s10, 0
è¯»å–åœ°å€ 0x80000d50
0x80000d50: 00 0b 80 e7 jalr	ra, 0(s7)
è¯»å–åœ°å€ 0x80000adc
0x80000adc: 00 06 0a 63 beq	a2, zero, 0x80000af0
è¯»å–åœ°å€ 0x80000af0
è¯»å–åœ°å€ 0x80003290
0x80000af0: 00 05 17 83 lh	a5, 0(a0)
è¯»å–åœ°å€ 0x80000af4
0x80000af4: 01 07 97 13 slli	a4, a5, 16
è¯»å–åœ°å€ 0x80000af8
0x80000af8: 01 07 57 13 srli	a4, a4, 16
è¯»å–åœ°å€ 0x80000afc
0x80000afc: 00 87 57 13 srli	a4, a4, 8
è¯»å–åœ°å€ 0x80000b00
0x80000b00: f0 07 f7 93 andi	a5, a5, -256
è¯»å–åœ°å€ 0x80000b04
0x80000b04: 00 e7 e7 b3 or	a5, a5, a4
è¯»å–åœ°å€ 0x80000b08
å†™å…¥åœ°å€ 0x80003290
0x80000b08: 00 f5 10 23 sh	a5, 0(a0)
è¯»å–åœ°å€ 0x80000b0c
è¯»å–åœ°å€ 0x80003280
0x80000b0c: 00 05 97 83 lh	a5, 0(a1)
è¯»å–åœ°å€ 0x80000b10
è¯»å–åœ°å€ 0x80003292
0x80000b10: 00 25 15 03 lh	a0, 2(a0)
è¯»å–åœ°å€ 0x80000b14
0x80000b14: 01 07 97 13 slli	a4, a5, 16
è¯»å–åœ°å€ 0x80000b18
0x80000b18: 01 07 57 13 srli	a4, a4, 16
è¯»å–åœ°å€ 0x80000b1c
0x80000b1c: 00 87 57 13 srli	a4, a4, 8
è¯»å–åœ°å€ 0x80000b20
0x80000b20: f0 07 f7 93 andi	a5, a5, -256
è¯»å–åœ°å€ 0x80000b24
0x80000b24: 00 e7 e7 b3 or	a5, a5, a4
è¯»å–åœ°å€ 0x80000b28
å†™å…¥åœ°å€ 0x80003280
0x80000b28: 00 f5 90 23 sh	a5, 0(a1)
è¯»å–åœ°å€ 0x80000b2c
è¯»å–åœ°å€ 0x80003282
0x80000b2c: 00 25 97 83 lh	a5, 2(a1)
è¯»å–åœ°å€ 0x80000b30
0x80000b30: 40 f5 05 33 sub	a0, a0, a5
è¯»å–åœ°å€ 0x80000b34
0x80000b34: 00 00 80 67 jalr	zero, 0(ra)
è¯»å–åœ°å€ 0x80000d54
0x80000d54: 04 a0 52 63 bge	zero, a0, 0x80000d98
è¯»å–åœ°å€ 0x80000d98
0x80000d98: 00 0a 07 93 addi	a5, s4, 0
è¯»å–åœ°å€ 0x80000d9c
0x80000d9c: ff f4 04 13 addi	s0, s0, -1
è¯»å–åœ°å€ 0x80000da0
è¯»å–åœ°å€ 0x800031b0
0x80000da0: 00 0a 2a 03 lw	s4, 0(s4)
è¯»å–åœ°å€ 0x80000da4
0x80000da4: fc 1f f0 6f jal	zero, 0x80000d64
è¯»å–åœ°å€ 0x80000d64
0x80000d64: 02 09 04 63 beq	s2, zero, 0x80000d8c
è¯»å–åœ°å€ 0x80000d68
å†™å…¥åœ°å€ 0x800031c0
0x80000d68: 00 f9 20 23 sw	a5, 0(s2)
è¯»å–åœ°å€ 0x80000d6c
0x80000d6c: 00 07 89 13 addi	s2, a5, 0
è¯»å–åœ°å€ 0x80000d70
0x80000d70: fc 04 16 e3 bne	s0, zero, 0x80000d3c
è¯»å–åœ°å€ 0x80000d3c
0x80000d3c: 04 09 8e 63 beq	s3, zero, 0x80000d98
è¯»å–åœ°å€ 0x80000d40
0x80000d40: 04 04 8c 63 beq	s1, zero, 0x80000d98
è¯»å–åœ°å€ 0x80000d44
è¯»å–åœ°å€ 0x80003194
0x80000d44: 00 44 a5 83 lw	a1, 4(s1)
è¯»å–åœ°å€ 0x80000d48
è¯»å–åœ°å€ 0x800031ac
0x80000d48: 00 4a 25 03 lw	a0, 4(s4)
è¯»å–åœ°å€ 0x80000d4c
0x80000d4c: 00 0d 06 13 addi	a2, s10, 0
è¯»å–åœ°å€ 0x80000d50
0x80000d50: 00 0b 80 e7 jalr	ra, 0(s7)
è¯»å–åœ°å€ 0x80000adc
0x80000adc: 00 06 0a 63 beq	a2, zero, 0x80000af0
è¯»å–åœ°å€ 0x80000af0
è¯»å–åœ°å€ 0x8000328c
0x80000af0: 00 05 17 83 lh	a5, 0(a0)
è¯»å–åœ°å€ 0x80000af4
0x80000af4: 01 07 97 13 slli	a4, a5, 16
è¯»å–åœ°å€ 0x80000af8
0x80000af8: 01 07 57 13 srli	a4, a4, 16
è¯»å–åœ°å€ 0x80000afc
0x80000afc: 00 87 57 13 srli	a4, a4, 8
è¯»å–åœ°å€ 0x80000b00
0x80000b00: f0 07 f7 93 andi	a5, a5, -256
è¯»å–åœ°å€ 0x80000b04
0x80000b04: 00 e7 e7 b3 or	a5, a5, a4
è¯»å–åœ°å€ 0x80000b08
å†™å…¥åœ°å€ 0x8000328c
0x80000b08: 00 f5 10 23 sh	a5, 0(a0)
è¯»å–åœ°å€ 0x80000b0c
è¯»å–åœ°å€ 0x80003280
0x80000b0c: 00 05 97 83 lh	a5, 0(a1)
è¯»å–åœ°å€ 0x80000b10
è¯»å–åœ°å€ 0x8000328e
0x80000b10: 00 25 15 03 lh	a0, 2(a0)
è¯»å–åœ°å€ 0x80000b14
0x80000b14: 01 07 97 13 slli	a4, a5, 16
è¯»å–åœ°å€ 0x80000b18
0x80000b18: 01 07 57 13 srli	a4, a4, 16
è¯»å–åœ°å€ 0x80000b1c
0x80000b1c: 00 87 57 13 srli	a4, a4, 8
è¯»å–åœ°å€ 0x80000b20
0x80000b20: f0 07 f7 93 andi	a5, a5, -256
è¯»å–åœ°å€ 0x80000b24
0x80000b24: 00 e7 e7 b3 or	a5, a5, a4
è¯»å–åœ°å€ 0x80000b28
å†™å…¥åœ°å€ 0x80003280
0x80000b28: 00 f5 90 23 sh	a5, 0(a1)
è¯»å–åœ°å€ 0x80000b2c
è¯»å–åœ°å€ 0x80003282
0x80000b2c: 00 25 97 83 lh	a5, 2(a1)
è¯»å–åœ°å€ 0x80000b30
0x80000b30: 40 f5 05 33 sub	a0, a0, a5
è¯»å–åœ°å€ 0x80000b34
0x80000b34: 00 00 80 67 jalr	zero, 0(ra)
è¯»å–åœ°å€ 0x80000d54
0x80000d54: 04 a0 52 63 bge	zero, a0, 0x80000d98
è¯»å–åœ°å€ 0x80000d98
0x80000d98: 00 0a 07 93 addi	a5, s4, 0
è¯»å–åœ°å€ 0x80000d9c
0x80000d9c: ff f4 04 13 addi	s0, s0, -1
è¯»å–åœ°å€ 0x80000da0
è¯»å–åœ°å€ 0x800031a8
0x80000da0: 00 0a 2a 03 lw	s4, 0(s4)
è¯»å–åœ°å€ 0x80000da4
0x80000da4: fc 1f f0 6f jal	zero, 0x80000d64
è¯»å–åœ°å€ 0x80000d64
0x80000d64: 02 09 04 63 beq	s2, zero, 0x80000d8c
è¯»å–åœ°å€ 0x80000d68
å†™å…¥åœ°å€ 0x800031b0
0x80000d68: 00 f9 20 23 sw	a5, 0(s2)
è¯»å–åœ°å€ 0x80000d6c
0x80000d6c: 00 07 89 13 addi	s2, a5, 0
è¯»å–åœ°å€ 0x80000d70
0x80000d70: fc 04 16 e3 bne	s0, zero, 0x80000d3c
è¯»å–åœ°å€ 0x80000d3c
0x80000d3c: 04 09 8e 63 beq	s3, zero, 0x80000d98
è¯»å–åœ°å€ 0x80000d40
0x80000d40: 04 04 8c 63 beq	s1, zero, 0x80000d98
è¯»å–åœ°å€ 0x80000d44
è¯»å–åœ°å€ 0x80003194
0x80000d44: 00 44 a5 83 lw	a1, 4(s1)
è¯»å–åœ°å€ 0x80000d48
è¯»å–åœ°å€ 0x800031a4
0x80000d48: 00 4a 25 03 lw	a0, 4(s4)
è¯»å–åœ°å€ 0x80000d4c
0x80000d4c: 00 0d 06 13 addi	a2, s10, 0
è¯»å–åœ°å€ 0x80000d50
0x80000d50: 00 0b 80 e7 jalr	ra, 0(s7)
è¯»å–åœ°å€ 0x80000adc
0x80000adc: 00 06 0a 63 beq	a2, zero, 0x80000af0
è¯»å–åœ°å€ 0x80000af0
è¯»å–åœ°å€ 0x80003288
0x80000af0: 00 05 17 83 lh	a5, 0(a0)
è¯»å–åœ°å€ 0x80000af4
0x80000af4: 01 07 97 13 slli	a4, a5, 16
è¯»å–åœ°å€ 0x80000af8
0x80000af8: 01 07 57 13 srli	a4, a4, 16
è¯»å–åœ°å€ 0x80000afc
0x80000afc: 00 87 57 13 srli	a4, a4, 8
è¯»å–åœ°å€ 0x80000b00
0x80000b00: f0 07 f7 93 andi	a5, a5, -256
è¯»å–åœ°å€ 0x80000b04
0x80000b04: 00 e7 e7 b3 or	a5, a5, a4
è¯»å–åœ°å€ 0x80000b08
å†™å…¥åœ°å€ 0x80003288
0x80000b08: 00 f5 10 23 sh	a5, 0(a0)
è¯»å–åœ°å€ 0x80000b0c
è¯»å–åœ°å€ 0x80003280
0x80000b0c: 00 05 97 83 lh	a5, 0(a1)
è¯»å–åœ°å€ 0x80000b10
è¯»å–åœ°å€ 0x8000328a
0x80000b10: 00 25 15 03 lh	a0, 2(a0)
è¯»å–åœ°å€ 0x80000b14
0x80000b14: 01 07 97 13 slli	a4, a5, 16
è¯»å–åœ°å€ 0x80000b18
0x80000b18: 01 07 57 13 srli	a4, a4, 16
è¯»å–åœ°å€ 0x80000b1c
0x80000b1c: 00 87 57 13 srli	a4, a4, 8
è¯»å–åœ°å€ 0x80000b20
0x80000b20: f0 07 f7 93 andi	a5, a5, -256
è¯»å–åœ°å€ 0x80000b24
0x80000b24: 00 e7 e7 b3 or	a5, a5, a4
è¯»å–åœ°å€ 0x80000b28
å†™å…¥åœ°å€ 0x80003280
0x80000b28: 00 f5 90 23 sh	a5, 0(a1)
è¯»å–åœ°å€ 0x80000b2c
è¯»å–åœ°å€ 0x80003282
0x80000b2c: 00 25 97 83 lh	a5, 2(a1)
è¯»å–åœ°å€ 0x80000b30
0x80000b30: 40 f5 05 33 sub	a0, a0, a5
è¯»å–åœ°å€ 0x80000b34
0x80000b34: 00 00 80 67 jalr	zero, 0(ra)
è¯»å–åœ°å€ 0x80000d54
0x80000d54: 04 a0 52 63 bge	zero, a0, 0x80000d98
è¯»å–åœ°å€ 0x80000d98
0x80000d98: 00 0a 07 93 addi	a5, s4, 0
è¯»å–åœ°å€ 0x80000d9c
0x80000d9c: ff f4 04 13 addi	s0, s0, -1
è¯»å–åœ°å€ 0x80000da0
è¯»å–åœ°å€ 0x800031a0
0x80000da0: 00 0a 2a 03 lw	s4, 0(s4)
è¯»å–åœ°å€ 0x80000da4
0x80000da4: fc 1f f0 6f jal	zero, 0x80000d64
è¯»å–åœ°å€ 0x80000d64
0x80000d64: 02 09 04 63 beq	s2, zero, 0x80000d8c
è¯»å–åœ°å€ 0x80000d68
å†™å…¥åœ°å€ 0x800031a8
0x80000d68: 00 f9 20 23 sw	a5, 0(s2)
è¯»å–åœ°å€ 0x80000d6c
0x80000d6c: 00 07 89 13 addi	s2, a5, 0
è¯»å–åœ°å€ 0x80000d70
0x80000d70: fc 04 16 e3 bne	s0, zero, 0x80000d3c
è¯»å–åœ°å€ 0x80000d3c
0x80000d3c: 04 09 8e 63 beq	s3, zero, 0x80000d98
è¯»å–åœ°å€ 0x80000d40
0x80000d40: 04 04 8c 63 beq	s1, zero, 0x80000d98
è¯»å–åœ°å€ 0x80000d44
è¯»å–åœ°å€ 0x80003194
0x80000d44: 00 44 a5 83 lw	a1, 4(s1)
è¯»å–åœ°å€ 0x80000d48
è¯»å–åœ°å€ 0x8000319c
0x80000d48: 00 4a 25 03 lw	a0, 4(s4)
è¯»å–åœ°å€ 0x80000d4c
0x80000d4c: 00 0d 06 13 addi	a2, s10, 0
è¯»å–åœ°å€ 0x80000d50
0x80000d50: 00 0b 80 e7 jalr	ra, 0(s7)
è¯»å–åœ°å€ 0x80000adc
0x80000adc: 00 06 0a 63 beq	a2, zero, 0x80000af0
è¯»å–åœ°å€ 0x80000af0
è¯»å–åœ°å€ 0x80003284
0x80000af0: 00 05 17 83 lh	a5, 0(a0)
è¯»å–åœ°å€ 0x80000af4
0x80000af4: 01 07 97 13 slli	a4, a5, 16
è¯»å–åœ°å€ 0x80000af8
0x80000af8: 01 07 57 13 srli	a4, a4, 16
è¯»å–åœ°å€ 0x80000afc
0x80000afc: 00 87 57 13 srli	a4, a4, 8
è¯»å–åœ°å€ 0x80000b00
0x80000b00: f0 07 f7 93 andi	a5, a5, -256
è¯»å–åœ°å€ 0x80000b04
0x80000b04: 00 e7 e7 b3 or	a5, a5, a4
è¯»å–åœ°å€ 0x80000b08
å†™å…¥åœ°å€ 0x80003284
0x80000b08: 00 f5 10 23 sh	a5, 0(a0)
è¯»å–åœ°å€ 0x80000b0c
è¯»å–åœ°å€ 0x80003280
0x80000b0c: 00 05 97 83 lh	a5, 0(a1)
è¯»å–åœ°å€ 0x80000b10
è¯»å–åœ°å€ 0x80003286
0x80000b10: 00 25 15 03 lh	a0, 2(a0)
è¯»å–åœ°å€ 0x80000b14
0x80000b14: 01 07 97 13 slli	a4, a5, 16
è¯»å–åœ°å€ 0x80000b18
0x80000b18: 01 07 57 13 srli	a4, a4, 16
è¯»å–åœ°å€ 0x80000b1c
0x80000b1c: 00 87 57 13 srli	a4, a4, 8
è¯»å–åœ°å€ 0x80000b20
0x80000b20: f0 07 f7 93 andi	a5, a5, -256
è¯»å–åœ°å€ 0x80000b24
0x80000b24: 00 e7 e7 b3 or	a5, a5, a4
è¯»å–åœ°å€ 0x80000b28
å†™å…¥åœ°å€ 0x80003280
0x80000b28: 00 f5 90 23 sh	a5, 0(a1)
è¯»å–åœ°å€ 0x80000b2c
è¯»å–åœ°å€ 0x80003282
0x80000b2c: 00 25 97 83 lh	a5, 2(a1)
è¯»å–åœ°å€ 0x80000b30
0x80000b30: 40 f5 05 33 sub	a0, a0, a5
è¯»å–åœ°å€ 0x80000b34
0x80000b34: 00 00 80 67 jalr	zero, 0(ra)
è¯»å–åœ°å€ 0x80000d54
0x80000d54: 04 a0 52 63 bge	zero, a0, 0x80000d98
è¯»å–åœ°å€ 0x80000d98
0x80000d98: 00 0a 07 93 addi	a5, s4, 0
è¯»å–åœ°å€ 0x80000d9c
0x80000d9c: ff f4 04 13 addi	s0, s0, -1
è¯»å–åœ°å€ 0x80000da0
è¯»å–åœ°å€ 0x80003198
0x80000da0: 00 0a 2a 03 lw	s4, 0(s4)
è¯»å–åœ°å€ 0x80000da4
0x80000da4: fc 1f f0 6f jal	zero, 0x80000d64
è¯»å–åœ°å€ 0x80000d64
0x80000d64: 02 09 04 63 beq	s2, zero, 0x80000d8c
è¯»å–åœ°å€ 0x80000d68
å†™å…¥åœ°å€ 0x800031a0
0x80000d68: 00 f9 20 23 sw	a5, 0(s2)
è¯»å–åœ°å€ 0x80000d6c
0x80000d6c: 00 07 89 13 addi	s2, a5, 0
è¯»å–åœ°å€ 0x80000d70
0x80000d70: fc 04 16 e3 bne	s0, zero, 0x80000d3c
è¯»å–åœ°å€ 0x80000d74
0x80000d74: 02 09 8a 63 beq	s3, zero, 0x80000da8
è¯»å–åœ°å€ 0x80000d78
0x80000d78: 02 04 8a 63 beq	s1, zero, 0x80000dac
è¯»å–åœ°å€ 0x80000d7c
0x80000d7c: 00 04 87 93 addi	a5, s1, 0
è¯»å–åœ°å€ 0x80000d80
0x80000d80: ff f9 89 93 addi	s3, s3, -1
è¯»å–åœ°å€ 0x80000d84
è¯»å–åœ°å€ 0x80003190
0x80000d84: 00 04 a4 83 lw	s1, 0(s1)
è¯»å–åœ°å€ 0x80000d88
0x80000d88: fe 09 10 e3 bne	s2, zero, 0x80000d68
è¯»å–åœ°å€ 0x80000d68
å†™å…¥åœ°å€ 0x80003198
0x80000d68: 00 f9 20 23 sw	a5, 0(s2)
è¯»å–åœ°å€ 0x80000d6c
0x80000d6c: 00 07 89 13 addi	s2, a5, 0
è¯»å–åœ°å€ 0x80000d70
0x80000d70: fc 04 16 e3 bne	s0, zero, 0x80000d3c
è¯»å–åœ°å€ 0x80000d74
0x80000d74: 02 09 8a 63 beq	s3, zero, 0x80000da8
è¯»å–åœ°å€ 0x80000d78
0x80000d78: 02 04 8a 63 beq	s1, zero, 0x80000dac
è¯»å–åœ°å€ 0x80000d7c
0x80000d7c: 00 04 87 93 addi	a5, s1, 0
è¯»å–åœ°å€ 0x80000d80
0x80000d80: ff f9 89 93 addi	s3, s3, -1
è¯»å–åœ°å€ 0x80000d84
è¯»å–åœ°å€ 0x80003188
0x80000d84: 00 04 a4 83 lw	s1, 0(s1)
è¯»å–åœ°å€ 0x80000d88
0x80000d88: fe 09 10 e3 bne	s2, zero, 0x80000d68
è¯»å–åœ°å€ 0x80000d68
å†™å…¥åœ°å€ 0x80003190
0x80000d68: 00 f9 20 23 sw	a5, 0(s2)
è¯»å–åœ°å€ 0x80000d6c
0x80000d6c: 00 07 89 13 addi	s2, a5, 0
è¯»å–åœ°å€ 0x80000d70
0x80000d70: fc 04 16 e3 bne	s0, zero, 0x80000d3c
è¯»å–åœ°å€ 0x80000d74
0x80000d74: 02 09 8a 63 beq	s3, zero, 0x80000da8
è¯»å–åœ°å€ 0x80000d78
0x80000d78: 02 04 8a 63 beq	s1, zero, 0x80000dac
è¯»å–åœ°å€ 0x80000dac
å†™å…¥åœ°å€ 0x80003188
0x80000dac: 00 09 20 23 sw	zero, 0(s2)
è¯»å–åœ°å€ 0x80000db0
0x80000db0: 01 9c 0c 63 beq	s8, s9, 0x80000dc8
è¯»å–åœ°å€ 0x80000db4
0x80000db4: 00 1a 9a 93 slli	s5, s5, 1
è¯»å–åœ°å€ 0x80000db8
0x80000db8: 00 0b 04 93 addi	s1, s6, 0
è¯»å–åœ°å€ 0x80000dbc
0x80000dbc: f4 5f f0 6f jal	zero, 0x80000d00
è¯»å–åœ°å€ 0x80000d00
0x80000d00: 0c 04 80 63 beq	s1, zero, 0x80000dc0
è¯»å–åœ°å€ 0x80000d04
0x80000d04: 00 00 0c 13 addi	s8, zero, 0
è¯»å–åœ°å€ 0x80000d08
0x80000d08: 00 00 09 13 addi	s2, zero, 0
è¯»å–åœ°å€ 0x80000d0c
0x80000d0c: 00 00 0b 13 addi	s6, zero, 0
è¯»å–åœ°å€ 0x80000d10
0x80000d10: 00 1c 0c 13 addi	s8, s8, 1
è¯»å–åœ°å€ 0x80000d14
0x80000d14: 00 04 87 93 addi	a5, s1, 0
è¯»å–åœ°å€ 0x80000d18
0x80000d18: 00 00 04 13 addi	s0, zero, 0
è¯»å–åœ°å€ 0x80000d1c
è¯»å–åœ°å€ 0x80003180
0x80000d1c: 00 07 a7 83 lw	a5, 0(a5)
è¯»å–åœ°å€ 0x80000d20
0x80000d20: 00 14 04 13 addi	s0, s0, 1
è¯»å–åœ°å€ 0x80000d24
0x80000d24: 00 07 84 63 beq	a5, zero, 0x80000d2c
è¯»å–åœ°å€ 0x80000d28
0x80000d28: fe 8a 9a e3 bne	s5, s0, 0x80000d1c
è¯»å–åœ°å€ 0x80000d1c
è¯»å–åœ°å€ 0x80003268
0x80000d1c: 00 07 a7 83 lw	a5, 0(a5)
è¯»å–åœ°å€ 0x80000d20
0x80000d20: 00 14 04 13 addi	s0, s0, 1
è¯»å–åœ°å€ 0x80000d24
0x80000d24: 00 07 84 63 beq	a5, zero, 0x80000d2c
è¯»å–åœ°å€ 0x80000d28
0x80000d28: fe 8a 9a e3 bne	s5, s0, 0x80000d1c
è¯»å–åœ°å€ 0x80000d1c
è¯»å–åœ°å€ 0x80003260
0x80000d1c: 00 07 a7 83 lw	a5, 0(a5)
è¯»å–åœ°å€ 0x80000d20
0x80000d20: 00 14 04 13 addi	s0, s0, 1
è¯»å–åœ°å€ 0x80000d24
0x80000d24: 00 07 84 63 beq	a5, zero, 0x80000d2c
è¯»å–åœ°å€ 0x80000d28
0x80000d28: fe 8a 9a e3 bne	s5, s0, 0x80000d1c
è¯»å–åœ°å€ 0x80000d1c
è¯»å–åœ°å€ 0x80003258
0x80000d1c: 00 07 a7 83 lw	a5, 0(a5)
è¯»å–åœ°å€ 0x80000d20
0x80000d20: 00 14 04 13 addi	s0, s0, 1
è¯»å–åœ°å€ 0x80000d24
0x80000d24: 00 07 84 63 beq	a5, zero, 0x80000d2c
è¯»å–åœ°å€ 0x80000d28
0x80000d28: fe 8a 9a e3 bne	s5, s0, 0x80000d1c
è¯»å–åœ°å€ 0x80000d1c
è¯»å–åœ°å€ 0x80003250
0x80000d1c: 00 07 a7 83 lw	a5, 0(a5)
è¯»å–åœ°å€ 0x80000d20
0x80000d20: 00 14 04 13 addi	s0, s0, 1
è¯»å–åœ°å€ 0x80000d24
0x80000d24: 00 07 84 63 beq	a5, zero, 0x80000d2c
è¯»å–åœ°å€ 0x80000d28
0x80000d28: fe 8a 9a e3 bne	s5, s0, 0x80000d1c
è¯»å–åœ°å€ 0x80000d1c
è¯»å–åœ°å€ 0x80003248
0x80000d1c: 00 07 a7 83 lw	a5, 0(a5)
è¯»å–åœ°å€ 0x80000d20
0x80000d20: 00 14 04 13 addi	s0, s0, 1
è¯»å–åœ°å€ 0x80000d24
0x80000d24: 00 07 84 63 beq	a5, zero, 0x80000d2c
è¯»å–åœ°å€ 0x80000d28
0x80000d28: fe 8a 9a e3 bne	s5, s0, 0x80000d1c
è¯»å–åœ°å€ 0x80000d1c
è¯»å–åœ°å€ 0x80003238
0x80000d1c: 00 07 a7 83 lw	a5, 0(a5)
è¯»å–åœ°å€ 0x80000d20
0x80000d20: 00 14 04 13 addi	s0, s0, 1
è¯»å–åœ°å€ 0x80000d24
0x80000d24: 00 07 84 63 beq	a5, zero, 0x80000d2c
è¯»å–åœ°å€ 0x80000d28
0x80000d28: fe 8a 9a e3 bne	s5, s0, 0x80000d1c
è¯»å–åœ°å€ 0x80000d1c
è¯»å–åœ°å€ 0x80003240
0x80000d1c: 00 07 a7 83 lw	a5, 0(a5)
è¯»å–åœ°å€ 0x80000d20
0x80000d20: 00 14 04 13 addi	s0, s0, 1
è¯»å–åœ°å€ 0x80000d24
0x80000d24: 00 07 84 63 beq	a5, zero, 0x80000d2c
è¯»å–åœ°å€ 0x80000d28
0x80000d28: fe 8a 9a e3 bne	s5, s0, 0x80000d1c
è¯»å–åœ°å€ 0x80000d2c
0x80000d2c: 00 04 8a 13 addi	s4, s1, 0
è¯»å–åœ°å€ 0x80000d30
0x80000d30: 00 0a 89 93 addi	s3, s5, 0
è¯»å–åœ°å€ 0x80000d34
0x80000d34: 00 07 84 93 addi	s1, a5, 0
è¯»å–åœ°å€ 0x80000d38
0x80000d38: 02 04 0e 63 beq	s0, zero, 0x80000d74
è¯»å–åœ°å€ 0x80000d3c
0x80000d3c: 04 09 8e 63 beq	s3, zero, 0x80000d98
è¯»å–åœ°å€ 0x80000d40
0x80000d40: 04 04 8c 63 beq	s1, zero, 0x80000d98
è¯»å–åœ°å€ 0x80000d44
è¯»å–åœ°å€ 0x800031fc
0x80000d44: 00 44 a5 83 lw	a1, 4(s1)
è¯»å–åœ°å€ 0x80000d48
è¯»å–åœ°å€ 0x80003184
0x80000d48: 00 4a 25 03 lw	a0, 4(s4)
è¯»å–åœ°å€ 0x80000d4c
0x80000d4c: 00 0d 06 13 addi	a2, s10, 0
è¯»å–åœ°å€ 0x80000d50
0x80000d50: 00 0b 80 e7 jalr	ra, 0(s7)
è¯»å–åœ°å€ 0x80000adc
0x80000adc: 00 06 0a 63 beq	a2, zero, 0x80000af0
è¯»å–åœ°å€ 0x80000af0
è¯»å–åœ°å€ 0x80003278
0x80000af0: 00 05 17 83 lh	a5, 0(a0)
è¯»å–åœ°å€ 0x80000af4
0x80000af4: 01 07 97 13 slli	a4, a5, 16
è¯»å–åœ°å€ 0x80000af8
0x80000af8: 01 07 57 13 srli	a4, a4, 16
è¯»å–åœ°å€ 0x80000afc
0x80000afc: 00 87 57 13 srli	a4, a4, 8
è¯»å–åœ°å€ 0x80000b00
0x80000b00: f0 07 f7 93 andi	a5, a5, -256
è¯»å–åœ°å€ 0x80000b04
0x80000b04: 00 e7 e7 b3 or	a5, a5, a4
è¯»å–åœ°å€ 0x80000b08
å†™å…¥åœ°å€ 0x80003278
0x80000b08: 00 f5 10 23 sh	a5, 0(a0)
è¯»å–åœ°å€ 0x80000b0c
è¯»å–åœ°å€ 0x800032b4
0x80000b0c: 00 05 97 83 lh	a5, 0(a1)
è¯»å–åœ°å€ 0x80000b10
è¯»å–åœ°å€ 0x8000327a
0x80000b10: 00 25 15 03 lh	a0, 2(a0)
è¯»å–åœ°å€ 0x80000b14
0x80000b14: 01 07 97 13 slli	a4, a5, 16
è¯»å–åœ°å€ 0x80000b18
0x80000b18: 01 07 57 13 srli	a4, a4, 16
è¯»å–åœ°å€ 0x80000b1c
0x80000b1c: 00 87 57 13 srli	a4, a4, 8
è¯»å–åœ°å€ 0x80000b20
0x80000b20: f0 07 f7 93 andi	a5, a5, -256
è¯»å–åœ°å€ 0x80000b24
0x80000b24: 00 e7 e7 b3 or	a5, a5, a4
è¯»å–åœ°å€ 0x80000b28
å†™å…¥åœ°å€ 0x800032b4
0x80000b28: 00 f5 90 23 sh	a5, 0(a1)
è¯»å–åœ°å€ 0x80000b2c
è¯»å–åœ°å€ 0x800032b6
0x80000b2c: 00 25 97 83 lh	a5, 2(a1)
è¯»å–åœ°å€ 0x80000b30
0x80000b30: 40 f5 05 33 sub	a0, a0, a5
è¯»å–åœ°å€ 0x80000b34
0x80000b34: 00 00 80 67 jalr	zero, 0(ra)
è¯»å–åœ°å€ 0x80000d54
0x80000d54: 04 a0 52 63 bge	zero, a0, 0x80000d98
è¯»å–åœ°å€ 0x80000d98
0x80000d98: 00 0a 07 93 addi	a5, s4, 0
è¯»å–åœ°å€ 0x80000d9c
0x80000d9c: ff f4 04 13 addi	s0, s0, -1
è¯»å–åœ°å€ 0x80000da0
è¯»å–åœ°å€ 0x80003180
0x80000da0: 00 0a 2a 03 lw	s4, 0(s4)
è¯»å–åœ°å€ 0x80000da4
0x80000da4: fc 1f f0 6f jal	zero, 0x80000d64
è¯»å–åœ°å€ 0x80000d64
0x80000d64: 02 09 04 63 beq	s2, zero, 0x80000d8c
è¯»å–åœ°å€ 0x80000d8c
0x80000d8c: 00 07 8b 13 addi	s6, a5, 0
è¯»å–åœ°å€ 0x80000d90
0x80000d90: 00 07 89 13 addi	s2, a5, 0
è¯»å–åœ°å€ 0x80000d94
0x80000d94: fd df f0 6f jal	zero, 0x80000d70
è¯»å–åœ°å€ 0x80000d70
0x80000d70: fc 04 16 e3 bne	s0, zero, 0x80000d3c
è¯»å–åœ°å€ 0x80000d3c
0x80000d3c: 04 09 8e 63 beq	s3, zero, 0x80000d98
è¯»å–åœ°å€ 0x80000d40
0x80000d40: 04 04 8c 63 beq	s1, zero, 0x80000d98
è¯»å–åœ°å€ 0x80000d44
è¯»å–åœ°å€ 0x800031fc
0x80000d44: 00 44 a5 83 lw	a1, 4(s1)
è¯»å–åœ°å€ 0x80000d48
è¯»å–åœ°å€ 0x8000326c
0x80000d48: 00 4a 25 03 lw	a0, 4(s4)
è¯»å–åœ°å€ 0x80000d4c
0x80000d4c: 00 0d 06 13 addi	a2, s10, 0
è¯»å–åœ°å€ 0x80000d50
0x80000d50: 00 0b 80 e7 jalr	ra, 0(s7)
è¯»å–åœ°å€ 0x80000adc
0x80000adc: 00 06 0a 63 beq	a2, zero, 0x80000af0
è¯»å–åœ°å€ 0x80000af0
è¯»å–åœ°å€ 0x800032ec
0x80000af0: 00 05 17 83 lh	a5, 0(a0)
è¯»å–åœ°å€ 0x80000af4
0x80000af4: 01 07 97 13 slli	a4, a5, 16
è¯»å–åœ°å€ 0x80000af8
0x80000af8: 01 07 57 13 srli	a4, a4, 16
è¯»å–åœ°å€ 0x80000afc
0x80000afc: 00 87 57 13 srli	a4, a4, 8
è¯»å–åœ°å€ 0x80000b00
0x80000b00: f0 07 f7 93 andi	a5, a5, -256
è¯»å–åœ°å€ 0x80000b04
0x80000b04: 00 e7 e7 b3 or	a5, a5, a4
è¯»å–åœ°å€ 0x80000b08
å†™å…¥åœ°å€ 0x800032ec
0x80000b08: 00 f5 10 23 sh	a5, 0(a0)
è¯»å–åœ°å€ 0x80000b0c
è¯»å–åœ°å€ 0x800032b4
0x80000b0c: 00 05 97 83 lh	a5, 0(a1)
è¯»å–åœ°å€ 0x80000b10
è¯»å–åœ°å€ 0x800032ee
0x80000b10: 00 25 15 03 lh	a0, 2(a0)
è¯»å–åœ°å€ 0x80000b14
0x80000b14: 01 07 97 13 slli	a4, a5, 16
è¯»å–åœ°å€ 0x80000b18
0x80000b18: 01 07 57 13 srli	a4, a4, 16
è¯»å–åœ°å€ 0x80000b1c
0x80000b1c: 00 87 57 13 srli	a4, a4, 8
è¯»å–åœ°å€ 0x80000b20
0x80000b20: f0 07 f7 93 andi	a5, a5, -256
è¯»å–åœ°å€ 0x80000b24
0x80000b24: 00 e7 e7 b3 or	a5, a5, a4
è¯»å–åœ°å€ 0x80000b28
å†™å…¥åœ°å€ 0x800032b4
0x80000b28: 00 f5 90 23 sh	a5, 0(a1)
è¯»å–åœ°å€ 0x80000b2c
è¯»å–åœ°å€ 0x800032b6
0x80000b2c: 00 25 97 83 lh	a5, 2(a1)
è¯»å–åœ°å€ 0x80000b30
0x80000b30: 40 f5 05 33 sub	a0, a0, a5
è¯»å–åœ°å€ 0x80000b34
0x80000b34: 00 00 80 67 jalr	zero, 0(ra)
è¯»å–åœ°å€ 0x80000d54
0x80000d54: 04 a0 52 63 bge	zero, a0, 0x80000d98
è¯»å–åœ°å€ 0x80000d98
0x80000d98: 00 0a 07 93 addi	a5, s4, 0
è¯»å–åœ°å€ 0x80000d9c
0x80000d9c: ff f4 04 13 addi	s0, s0, -1
è¯»å–åœ°å€ 0x80000da0
è¯»å–åœ°å€ 0x80003268
0x80000da0: 00 0a 2a 03 lw	s4, 0(s4)
è¯»å–åœ°å€ 0x80000da4
0x80000da4: fc 1f f0 6f jal	zero, 0x80000d64
è¯»å–åœ°å€ 0x80000d64
0x80000d64: 02 09 04 63 beq	s2, zero, 0x80000d8c
è¯»å–åœ°å€ 0x80000d68
å†™å…¥åœ°å€ 0x80003180
0x80000d68: 00 f9 20 23 sw	a5, 0(s2)
è¯»å–åœ°å€ 0x80000d6c
0x80000d6c: 00 07 89 13 addi	s2, a5, 0
è¯»å–åœ°å€ 0x80000d70
0x80000d70: fc 04 16 e3 bne	s0, zero, 0x80000d3c
è¯»å–åœ°å€ 0x80000d3c
0x80000d3c: 04 09 8e 63 beq	s3, zero, 0x80000d98
è¯»å–åœ°å€ 0x80000d40
0x80000d40: 04 04 8c 63 beq	s1, zero, 0x80000d98
è¯»å–åœ°å€ 0x80000d44
è¯»å–åœ°å€ 0x800031fc
0x80000d44: 00 44 a5 83 lw	a1, 4(s1)
è¯»å–åœ°å€ 0x80000d48
è¯»å–åœ°å€ 0x80003264
0x80000d48: 00 4a 25 03 lw	a0, 4(s4)
è¯»å–åœ°å€ 0x80000d4c
0x80000d4c: 00 0d 06 13 addi	a2, s10, 0
è¯»å–åœ°å€ 0x80000d50
0x80000d50: 00 0b 80 e7 jalr	ra, 0(s7)
è¯»å–åœ°å€ 0x80000adc
0x80000adc: 00 06 0a 63 beq	a2, zero, 0x80000af0
è¯»å–åœ°å€ 0x80000af0
è¯»å–åœ°å€ 0x800032e8
0x80000af0: 00 05 17 83 lh	a5, 0(a0)
è¯»å–åœ°å€ 0x80000af4
0x80000af4: 01 07 97 13 slli	a4, a5, 16
è¯»å–åœ°å€ 0x80000af8
0x80000af8: 01 07 57 13 srli	a4, a4, 16
è¯»å–åœ°å€ 0x80000afc
0x80000afc: 00 87 57 13 srli	a4, a4, 8
è¯»å–åœ°å€ 0x80000b00
0x80000b00: f0 07 f7 93 andi	a5, a5, -256
è¯»å–åœ°å€ 0x80000b04
0x80000b04: 00 e7 e7 b3 or	a5, a5, a4
è¯»å–åœ°å€ 0x80000b08
å†™å…¥åœ°å€ 0x800032e8
0x80000b08: 00 f5 10 23 sh	a5, 0(a0)
è¯»å–åœ°å€ 0x80000b0c
è¯»å–åœ°å€ 0x800032b4
0x80000b0c: 00 05 97 83 lh	a5, 0(a1)
è¯»å–åœ°å€ 0x80000b10
è¯»å–åœ°å€ 0x800032ea
0x80000b10: 00 25 15 03 lh	a0, 2(a0)
è¯»å–åœ°å€ 0x80000b14
0x80000b14: 01 07 97 13 slli	a4, a5, 16
è¯»å–åœ°å€ 0x80000b18
0x80000b18: 01 07 57 13 srli	a4, a4, 16
è¯»å–åœ°å€ 0x80000b1c
0x80000b1c: 00 87 57 13 srli	a4, a4, 8
è¯»å–åœ°å€ 0x80000b20
0x80000b20: f0 07 f7 93 andi	a5, a5, -256
è¯»å–åœ°å€ 0x80000b24
0x80000b24: 00 e7 e7 b3 or	a5, a5, a4
è¯»å–åœ°å€ 0x80000b28
å†™å…¥åœ°å€ 0x800032b4
0x80000b28: 00 f5 90 23 sh	a5, 0(a1)
è¯»å–åœ°å€ 0x80000b2c
è¯»å–åœ°å€ 0x800032b6
0x80000b2c: 00 25 97 83 lh	a5, 2(a1)
è¯»å–åœ°å€ 0x80000b30
0x80000b30: 40 f5 05 33 sub	a0, a0, a5
è¯»å–åœ°å€ 0x80000b34
0x80000b34: 00 00 80 67 jalr	zero, 0(ra)
è¯»å–åœ°å€ 0x80000d54
0x80000d54: 04 a0 52 63 bge	zero, a0, 0x80000d98
è¯»å–åœ°å€ 0x80000d98
0x80000d98: 00 0a 07 93 addi	a5, s4, 0
è¯»å–åœ°å€ 0x80000d9c
0x80000d9c: ff f4 04 13 addi	s0, s0, -1
è¯»å–åœ°å€ 0x80000da0
è¯»å–åœ°å€ 0x80003260
0x80000da0: 00 0a 2a 03 lw	s4, 0(s4)
è¯»å–åœ°å€ 0x80000da4
0x80000da4: fc 1f f0 6f jal	zero, 0x80000d64
è¯»å–åœ°å€ 0x80000d64
0x80000d64: 02 09 04 63 beq	s2, zero, 0x80000d8c
è¯»å–åœ°å€ 0x80000d68
å†™å…¥åœ°å€ 0x80003268
0x80000d68: 00 f9 20 23 sw	a5, 0(s2)
è¯»å–åœ°å€ 0x80000d6c
0x80000d6c: 00 07 89 13 addi	s2, a5, 0
è¯»å–åœ°å€ 0x80000d70
0x80000d70: fc 04 16 e3 bne	s0, zero, 0x80000d3c
è¯»å–åœ°å€ 0x80000d3c
0x80000d3c: 04 09 8e 63 beq	s3, zero, 0x80000d98
è¯»å–åœ°å€ 0x80000d40
0x80000d40: 04 04 8c 63 beq	s1, zero, 0x80000d98
è¯»å–åœ°å€ 0x80000d44
è¯»å–åœ°å€ 0x800031fc
0x80000d44: 00 44 a5 83 lw	a1, 4(s1)
è¯»å–åœ°å€ 0x80000d48
è¯»å–åœ°å€ 0x8000325c
0x80000d48: 00 4a 25 03 lw	a0, 4(s4)
è¯»å–åœ°å€ 0x80000d4c
0x80000d4c: 00 0d 06 13 addi	a2, s10, 0
è¯»å–åœ°å€ 0x80000d50
0x80000d50: 00 0b 80 e7 jalr	ra, 0(s7)
è¯»å–åœ°å€ 0x80000adc
0x80000adc: 00 06 0a 63 beq	a2, zero, 0x80000af0
è¯»å–åœ°å€ 0x80000af0
è¯»å–åœ°å€ 0x800032e4
0x80000af0: 00 05 17 83 lh	a5, 0(a0)
è¯»å–åœ°å€ 0x80000af4
0x80000af4: 01 07 97 13 slli	a4, a5, 16
è¯»å–åœ°å€ 0x80000af8
0x80000af8: 01 07 57 13 srli	a4, a4, 16
è¯»å–åœ°å€ 0x80000afc
0x80000afc: 00 87 57 13 srli	a4, a4, 8
è¯»å–åœ°å€ 0x80000b00
0x80000b00: f0 07 f7 93 andi	a5, a5, -256
è¯»å–åœ°å€ 0x80000b04
0x80000b04: 00 e7 e7 b3 or	a5, a5, a4
è¯»å–åœ°å€ 0x80000b08
å†™å…¥åœ°å€ 0x800032e4
0x80000b08: 00 f5 10 23 sh	a5, 0(a0)
è¯»å–åœ°å€ 0x80000b0c
è¯»å–åœ°å€ 0x800032b4
0x80000b0c: 00 05 97 83 lh	a5, 0(a1)
è¯»å–åœ°å€ 0x80000b10
è¯»å–åœ°å€ 0x800032e6
0x80000b10: 00 25 15 03 lh	a0, 2(a0)
è¯»å–åœ°å€ 0x80000b14
0x80000b14: 01 07 97 13 slli	a4, a5, 16
è¯»å–åœ°å€ 0x80000b18
0x80000b18: 01 07 57 13 srli	a4, a4, 16
è¯»å–åœ°å€ 0x80000b1c
0x80000b1c: 00 87 57 13 srli	a4, a4, 8
è¯»å–åœ°å€ 0x80000b20
0x80000b20: f0 07 f7 93 andi	a5, a5, -256
è¯»å–åœ°å€ 0x80000b24
0x80000b24: 00 e7 e7 b3 or	a5, a5, a4
è¯»å–åœ°å€ 0x80000b28
å†™å…¥åœ°å€ 0x800032b4
0x80000b28: 00 f5 90 23 sh	a5, 0(a1)
è¯»å–åœ°å€ 0x80000b2c
è¯»å–åœ°å€ 0x800032b6
0x80000b2c: 00 25 97 83 lh	a5, 2(a1)
è¯»å–åœ°å€ 0x80000b30
0x80000b30: 40 f5 05 33 sub	a0, a0, a5
è¯»å–åœ°å€ 0x80000b34
0x80000b34: 00 00 80 67 jalr	zero, 0(ra)
è¯»å–åœ°å€ 0x80000d54
0x80000d54: 04 a0 52 63 bge	zero, a0, 0x80000d98
è¯»å–åœ°å€ 0x80000d98
0x80000d98: 00 0a 07 93 addi	a5, s4, 0
è¯»å–åœ°å€ 0x80000d9c
0x80000d9c: ff f4 04 13 addi	s0, s0, -1
è¯»å–åœ°å€ 0x80000da0
è¯»å–åœ°å€ 0x80003258
0x80000da0: 00 0a 2a 03 lw	s4, 0(s4)
è¯»å–åœ°å€ 0x80000da4
0x80000da4: fc 1f f0 6f jal	zero, 0x80000d64
è¯»å–åœ°å€ 0x80000d64
0x80000d64: 02 09 04 63 beq	s2, zero, 0x80000d8c
è¯»å–åœ°å€ 0x80000d68
å†™å…¥åœ°å€ 0x80003260
0x80000d68: 00 f9 20 23 sw	a5, 0(s2)
è¯»å–åœ°å€ 0x80000d6c
0x80000d6c: 00 07 89 13 addi	s2, a5, 0
è¯»å–åœ°å€ 0x80000d70
0x80000d70: fc 04 16 e3 bne	s0, zero, 0x80000d3c
è¯»å–åœ°å€ 0x80000d3c
0x80000d3c: 04 09 8e 63 beq	s3, zero, 0x80000d98
è¯»å–åœ°å€ 0x80000d40
0x80000d40: 04 04 8c 63 beq	s1, zero, 0x80000d98
è¯»å–åœ°å€ 0x80000d44
è¯»å–åœ°å€ 0x800031fc
0x80000d44: 00 44 a5 83 lw	a1, 4(s1)
è¯»å–åœ°å€ 0x80000d48
è¯»å–åœ°å€ 0x80003254
0x80000d48: 00 4a 25 03 lw	a0, 4(s4)
è¯»å–åœ°å€ 0x80000d4c
0x80000d4c: 00 0d 06 13 addi	a2, s10, 0
è¯»å–åœ°å€ 0x80000d50
0x80000d50: 00 0b 80 e7 jalr	ra, 0(s7)
è¯»å–åœ°å€ 0x80000adc
0x80000adc: 00 06 0a 63 beq	a2, zero, 0x80000af0
è¯»å–åœ°å€ 0x80000af0
è¯»å–åœ°å€ 0x800032e0
0x80000af0: 00 05 17 83 lh	a5, 0(a0)
è¯»å–åœ°å€ 0x80000af4
0x80000af4: 01 07 97 13 slli	a4, a5, 16
è¯»å–åœ°å€ 0x80000af8
0x80000af8: 01 07 57 13 srli	a4, a4, 16
è¯»å–åœ°å€ 0x80000afc
0x80000afc: 00 87 57 13 srli	a4, a4, 8
è¯»å–åœ°å€ 0x80000b00
0x80000b00: f0 07 f7 93 andi	a5, a5, -256
è¯»å–åœ°å€ 0x80000b04
0x80000b04: 00 e7 e7 b3 or	a5, a5, a4
è¯»å–åœ°å€ 0x80000b08
å†™å…¥åœ°å€ 0x800032e0
0x80000b08: 00 f5 10 23 sh	a5, 0(a0)
è¯»å–åœ°å€ 0x80000b0c
è¯»å–åœ°å€ 0x800032b4
0x80000b0c: 00 05 97 83 lh	a5, 0(a1)
è¯»å–åœ°å€ 0x80000b10
è¯»å–åœ°å€ 0x800032e2
0x80000b10: 00 25 15 03 lh	a0, 2(a0)
è¯»å–åœ°å€ 0x80000b14
0x80000b14: 01 07 97 13 slli	a4, a5, 16
è¯»å–åœ°å€ 0x80000b18
0x80000b18: 01 07 57 13 srli	a4, a4, 16
è¯»å–åœ°å€ 0x80000b1c
0x80000b1c: 00 87 57 13 srli	a4, a4, 8
è¯»å–åœ°å€ 0x80000b20
0x80000b20: f0 07 f7 93 andi	a5, a5, -256
è¯»å–åœ°å€ 0x80000b24
0x80000b24: 00 e7 e7 b3 or	a5, a5, a4
è¯»å–åœ°å€ 0x80000b28
å†™å…¥åœ°å€ 0x800032b4
0x80000b28: 00 f5 90 23 sh	a5, 0(a1)
è¯»å–åœ°å€ 0x80000b2c
è¯»å–åœ°å€ 0x800032b6
0x80000b2c: 00 25 97 83 lh	a5, 2(a1)
è¯»å–åœ°å€ 0x80000b30
0x80000b30: 40 f5 05 33 sub	a0, a0, a5
è¯»å–åœ°å€ 0x80000b34
0x80000b34: 00 00 80 67 jalr	zero, 0(ra)
è¯»å–åœ°å€ 0x80000d54
0x80000d54: 04 a0 52 63 bge	zero, a0, 0x80000d98
è¯»å–åœ°å€ 0x80000d98
0x80000d98: 00 0a 07 93 addi	a5, s4, 0
è¯»å–åœ°å€ 0x80000d9c
0x80000d9c: ff f4 04 13 addi	s0, s0, -1
è¯»å–åœ°å€ 0x80000da0
è¯»å–åœ°å€ 0x80003250
0x80000da0: 00 0a 2a 03 lw	s4, 0(s4)
è¯»å–åœ°å€ 0x80000da4
0x80000da4: fc 1f f0 6f jal	zero, 0x80000d64
è¯»å–åœ°å€ 0x80000d64
0x80000d64: 02 09 04 63 beq	s2, zero, 0x80000d8c
è¯»å–åœ°å€ 0x80000d68
å†™å…¥åœ°å€ 0x80003258
0x80000d68: 00 f9 20 23 sw	a5, 0(s2)
è¯»å–åœ°å€ 0x80000d6c
0x80000d6c: 00 07 89 13 addi	s2, a5, 0
è¯»å–åœ°å€ 0x80000d70
0x80000d70: fc 04 16 e3 bne	s0, zero, 0x80000d3c
è¯»å–åœ°å€ 0x80000d3c
0x80000d3c: 04 09 8e 63 beq	s3, zero, 0x80000d98
è¯»å–åœ°å€ 0x80000d40
0x80000d40: 04 04 8c 63 beq	s1, zero, 0x80000d98
è¯»å–åœ°å€ 0x80000d44
è¯»å–åœ°å€ 0x800031fc
0x80000d44: 00 44 a5 83 lw	a1, 4(s1)
è¯»å–åœ°å€ 0x80000d48
è¯»å–åœ°å€ 0x8000324c
0x80000d48: 00 4a 25 03 lw	a0, 4(s4)
è¯»å–åœ°å€ 0x80000d4c
0x80000d4c: 00 0d 06 13 addi	a2, s10, 0
è¯»å–åœ°å€ 0x80000d50
0x80000d50: 00 0b 80 e7 jalr	ra, 0(s7)
è¯»å–åœ°å€ 0x80000adc
0x80000adc: 00 06 0a 63 beq	a2, zero, 0x80000af0
è¯»å–åœ°å€ 0x80000af0
è¯»å–åœ°å€ 0x800032dc
0x80000af0: 00 05 17 83 lh	a5, 0(a0)
è¯»å–åœ°å€ 0x80000af4
0x80000af4: 01 07 97 13 slli	a4, a5, 16
è¯»å–åœ°å€ 0x80000af8
0x80000af8: 01 07 57 13 srli	a4, a4, 16
è¯»å–åœ°å€ 0x80000afc
0x80000afc: 00 87 57 13 srli	a4, a4, 8
è¯»å–åœ°å€ 0x80000b00
0x80000b00: f0 07 f7 93 andi	a5, a5, -256
è¯»å–åœ°å€ 0x80000b04
0x80000b04: 00 e7 e7 b3 or	a5, a5, a4
è¯»å–åœ°å€ 0x80000b08
å†™å…¥åœ°å€ 0x800032dc
0x80000b08: 00 f5 10 23 sh	a5, 0(a0)
è¯»å–åœ°å€ 0x80000b0c
è¯»å–åœ°å€ 0x800032b4
0x80000b0c: 00 05 97 83 lh	a5, 0(a1)
è¯»å–åœ°å€ 0x80000b10
è¯»å–åœ°å€ 0x800032de
0x80000b10: 00 25 15 03 lh	a0, 2(a0)
è¯»å–åœ°å€ 0x80000b14
0x80000b14: 01 07 97 13 slli	a4, a5, 16
è¯»å–åœ°å€ 0x80000b18
0x80000b18: 01 07 57 13 srli	a4, a4, 16
è¯»å–åœ°å€ 0x80000b1c
0x80000b1c: 00 87 57 13 srli	a4, a4, 8
è¯»å–åœ°å€ 0x80000b20
0x80000b20: f0 07 f7 93 andi	a5, a5, -256
è¯»å–åœ°å€ 0x80000b24
0x80000b24: 00 e7 e7 b3 or	a5, a5, a4
è¯»å–åœ°å€ 0x80000b28
å†™å…¥åœ°å€ 0x800032b4
0x80000b28: 00 f5 90 23 sh	a5, 0(a1)
è¯»å–åœ°å€ 0x80000b2c
è¯»å–åœ°å€ 0x800032b6
0x80000b2c: 00 25 97 83 lh	a5, 2(a1)
è¯»å–åœ°å€ 0x80000b30
0x80000b30: 40 f5 05 33 sub	a0, a0, a5
è¯»å–åœ°å€ 0x80000b34
0x80000b34: 00 00 80 67 jalr	zero, 0(ra)
è¯»å–åœ°å€ 0x80000d54
0x80000d54: 04 a0 52 63 bge	zero, a0, 0x80000d98
è¯»å–åœ°å€ 0x80000d98
0x80000d98: 00 0a 07 93 addi	a5, s4, 0
è¯»å–åœ°å€ 0x80000d9c
0x80000d9c: ff f4 04 13 addi	s0, s0, -1
è¯»å–åœ°å€ 0x80000da0
è¯»å–åœ°å€ 0x80003248
0x80000da0: 00 0a 2a 03 lw	s4, 0(s4)
è¯»å–åœ°å€ 0x80000da4
0x80000da4: fc 1f f0 6f jal	zero, 0x80000d64
è¯»å–åœ°å€ 0x80000d64
0x80000d64: 02 09 04 63 beq	s2, zero, 0x80000d8c
è¯»å–åœ°å€ 0x80000d68
å†™å…¥åœ°å€ 0x80003250
0x80000d68: 00 f9 20 23 sw	a5, 0(s2)
è¯»å–åœ°å€ 0x80000d6c
0x80000d6c: 00 07 89 13 addi	s2, a5, 0
è¯»å–åœ°å€ 0x80000d70
0x80000d70: fc 04 16 e3 bne	s0, zero, 0x80000d3c
è¯»å–åœ°å€ 0x80000d3c
0x80000d3c: 04 09 8e 63 beq	s3, zero, 0x80000d98
è¯»å–åœ°å€ 0x80000d40
0x80000d40: 04 04 8c 63 beq	s1, zero, 0x80000d98
è¯»å–åœ°å€ 0x80000d44
è¯»å–åœ°å€ 0x800031fc
0x80000d44: 00 44 a5 83 lw	a1, 4(s1)
è¯»å–åœ°å€ 0x80000d48
è¯»å–åœ°å€ 0x8000323c
0x80000d48: 00 4a 25 03 lw	a0, 4(s4)
è¯»å–åœ°å€ 0x80000d4c
0x80000d4c: 00 0d 06 13 addi	a2, s10, 0
è¯»å–åœ°å€ 0x80000d50
0x80000d50: 00 0b 80 e7 jalr	ra, 0(s7)
è¯»å–åœ°å€ 0x80000adc
0x80000adc: 00 06 0a 63 beq	a2, zero, 0x80000af0
è¯»å–åœ°å€ 0x80000af0
è¯»å–åœ°å€ 0x800032d4
0x80000af0: 00 05 17 83 lh	a5, 0(a0)
è¯»å–åœ°å€ 0x80000af4
0x80000af4: 01 07 97 13 slli	a4, a5, 16
è¯»å–åœ°å€ 0x80000af8
0x80000af8: 01 07 57 13 srli	a4, a4, 16
è¯»å–åœ°å€ 0x80000afc
0x80000afc: 00 87 57 13 srli	a4, a4, 8
è¯»å–åœ°å€ 0x80000b00
0x80000b00: f0 07 f7 93 andi	a5, a5, -256
è¯»å–åœ°å€ 0x80000b04
0x80000b04: 00 e7 e7 b3 or	a5, a5, a4
è¯»å–åœ°å€ 0x80000b08
å†™å…¥åœ°å€ 0x800032d4
0x80000b08: 00 f5 10 23 sh	a5, 0(a0)
è¯»å–åœ°å€ 0x80000b0c
è¯»å–åœ°å€ 0x800032b4
0x80000b0c: 00 05 97 83 lh	a5, 0(a1)
è¯»å–åœ°å€ 0x80000b10
è¯»å–åœ°å€ 0x800032d6
0x80000b10: 00 25 15 03 lh	a0, 2(a0)
è¯»å–åœ°å€ 0x80000b14
0x80000b14: 01 07 97 13 slli	a4, a5, 16
è¯»å–åœ°å€ 0x80000b18
0x80000b18: 01 07 57 13 srli	a4, a4, 16
è¯»å–åœ°å€ 0x80000b1c
0x80000b1c: 00 87 57 13 srli	a4, a4, 8
è¯»å–åœ°å€ 0x80000b20
0x80000b20: f0 07 f7 93 andi	a5, a5, -256
è¯»å–åœ°å€ 0x80000b24
0x80000b24: 00 e7 e7 b3 or	a5, a5, a4
è¯»å–åœ°å€ 0x80000b28
å†™å…¥åœ°å€ 0x800032b4
0x80000b28: 00 f5 90 23 sh	a5, 0(a1)
è¯»å–åœ°å€ 0x80000b2c
è¯»å–åœ°å€ 0x800032b6
0x80000b2c: 00 25 97 83 lh	a5, 2(a1)
è¯»å–åœ°å€ 0x80000b30
0x80000b30: 40 f5 05 33 sub	a0, a0, a5
è¯»å–åœ°å€ 0x80000b34
0x80000b34: 00 00 80 67 jalr	zero, 0(ra)
è¯»å–åœ°å€ 0x80000d54
0x80000d54: 04 a0 52 63 bge	zero, a0, 0x80000d98
è¯»å–åœ°å€ 0x80000d98
0x80000d98: 00 0a 07 93 addi	a5, s4, 0
è¯»å–åœ°å€ 0x80000d9c
0x80000d9c: ff f4 04 13 addi	s0, s0, -1
è¯»å–åœ°å€ 0x80000da0
è¯»å–åœ°å€ 0x80003238
0x80000da0: 00 0a 2a 03 lw	s4, 0(s4)
è¯»å–åœ°å€ 0x80000da4
0x80000da4: fc 1f f0 6f jal	zero, 0x80000d64
è¯»å–åœ°å€ 0x80000d64
0x80000d64: 02 09 04 63 beq	s2, zero, 0x80000d8c
è¯»å–åœ°å€ 0x80000d68
å†™å…¥åœ°å€ 0x80003248
0x80000d68: 00 f9 20 23 sw	a5, 0(s2)
è¯»å–åœ°å€ 0x80000d6c
0x80000d6c: 00 07 89 13 addi	s2, a5, 0
è¯»å–åœ°å€ 0x80000d70
0x80000d70: fc 04 16 e3 bne	s0, zero, 0x80000d3c
è¯»å–åœ°å€ 0x80000d3c
0x80000d3c: 04 09 8e 63 beq	s3, zero, 0x80000d98
è¯»å–åœ°å€ 0x80000d40
0x80000d40: 04 04 8c 63 beq	s1, zero, 0x80000d98
è¯»å–åœ°å€ 0x80000d44
è¯»å–åœ°å€ 0x800031fc
0x80000d44: 00 44 a5 83 lw	a1, 4(s1)
è¯»å–åœ°å€ 0x80000d48
è¯»å–åœ°å€ 0x80003244
0x80000d48: 00 4a 25 03 lw	a0, 4(s4)
è¯»å–åœ°å€ 0x80000d4c
0x80000d4c: 00 0d 06 13 addi	a2, s10, 0
è¯»å–åœ°å€ 0x80000d50
0x80000d50: 00 0b 80 e7 jalr	ra, 0(s7)
è¯»å–åœ°å€ 0x80000adc
0x80000adc: 00 06 0a 63 beq	a2, zero, 0x80000af0
è¯»å–åœ°å€ 0x80000af0
è¯»å–åœ°å€ 0x800032d8
0x80000af0: 00 05 17 83 lh	a5, 0(a0)
è¯»å–åœ°å€ 0x80000af4
0x80000af4: 01 07 97 13 slli	a4, a5, 16
è¯»å–åœ°å€ 0x80000af8
0x80000af8: 01 07 57 13 srli	a4, a4, 16
è¯»å–åœ°å€ 0x80000afc
0x80000afc: 00 87 57 13 srli	a4, a4, 8
è¯»å–åœ°å€ 0x80000b00
0x80000b00: f0 07 f7 93 andi	a5, a5, -256
è¯»å–åœ°å€ 0x80000b04
0x80000b04: 00 e7 e7 b3 or	a5, a5, a4
è¯»å–åœ°å€ 0x80000b08
å†™å…¥åœ°å€ 0x800032d8
0x80000b08: 00 f5 10 23 sh	a5, 0(a0)
è¯»å–åœ°å€ 0x80000b0c
è¯»å–åœ°å€ 0x800032b4
0x80000b0c: 00 05 97 83 lh	a5, 0(a1)
è¯»å–åœ°å€ 0x80000b10
è¯»å–åœ°å€ 0x800032da
0x80000b10: 00 25 15 03 lh	a0, 2(a0)
è¯»å–åœ°å€ 0x80000b14
0x80000b14: 01 07 97 13 slli	a4, a5, 16
è¯»å–åœ°å€ 0x80000b18
0x80000b18: 01 07 57 13 srli	a4, a4, 16
è¯»å–åœ°å€ 0x80000b1c
0x80000b1c: 00 87 57 13 srli	a4, a4, 8
è¯»å–åœ°å€ 0x80000b20
0x80000b20: f0 07 f7 93 andi	a5, a5, -256
è¯»å–åœ°å€ 0x80000b24
0x80000b24: 00 e7 e7 b3 or	a5, a5, a4
è¯»å–åœ°å€ 0x80000b28
å†™å…¥åœ°å€ 0x800032b4
0x80000b28: 00 f5 90 23 sh	a5, 0(a1)
è¯»å–åœ°å€ 0x80000b2c
è¯»å–åœ°å€ 0x800032b6
0x80000b2c: 00 25 97 83 lh	a5, 2(a1)
è¯»å–åœ°å€ 0x80000b30
0x80000b30: 40 f5 05 33 sub	a0, a0, a5
è¯»å–åœ°å€ 0x80000b34
0x80000b34: 00 00 80 67 jalr	zero, 0(ra)
è¯»å–åœ°å€ 0x80000d54
0x80000d54: 04 a0 52 63 bge	zero, a0, 0x80000d98
è¯»å–åœ°å€ 0x80000d58
0x80000d58: 00 04 87 93 addi	a5, s1, 0
è¯»å–åœ°å€ 0x80000d5c
è¯»å–åœ°å€ 0x800031f8
0x80000d5c: 00 04 a4 83 lw	s1, 0(s1)
è¯»å–åœ°å€ 0x80000d60
0x80000d60: ff f9 89 93 addi	s3, s3, -1
è¯»å–åœ°å€ 0x80000d64
0x80000d64: 02 09 04 63 beq	s2, zero, 0x80000d8c
è¯»å–åœ°å€ 0x80000d68
å†™å…¥åœ°å€ 0x80003238
0x80000d68: 00 f9 20 23 sw	a5, 0(s2)
è¯»å–åœ°å€ 0x80000d6c
0x80000d6c: 00 07 89 13 addi	s2, a5, 0
è¯»å–åœ°å€ 0x80000d70
0x80000d70: fc 04 16 e3 bne	s0, zero, 0x80000d3c
è¯»å–åœ°å€ 0x80000d3c
0x80000d3c: 04 09 8e 63 beq	s3, zero, 0x80000d98
è¯»å–åœ°å€ 0x80000d40
0x80000d40: 04 04 8c 63 beq	s1, zero, 0x80000d98
è¯»å–åœ°å€ 0x80000d44
è¯»å–åœ°å€ 0x80003234
0x80000d44: 00 44 a5 83 lw	a1, 4(s1)
è¯»å–åœ°å€ 0x80000d48
è¯»å–åœ°å€ 0x80003244
0x80000d48: 00 4a 25 03 lw	a0, 4(s4)
è¯»å–åœ°å€ 0x80000d4c
0x80000d4c: 00 0d 06 13 addi	a2, s10, 0
è¯»å–åœ°å€ 0x80000d50
0x80000d50: 00 0b 80 e7 jalr	ra, 0(s7)
è¯»å–åœ°å€ 0x80000adc
0x80000adc: 00 06 0a 63 beq	a2, zero, 0x80000af0
è¯»å–åœ°å€ 0x80000af0
è¯»å–åœ°å€ 0x800032d8
0x80000af0: 00 05 17 83 lh	a5, 0(a0)
è¯»å–åœ°å€ 0x80000af4
0x80000af4: 01 07 97 13 slli	a4, a5, 16
è¯»å–åœ°å€ 0x80000af8
0x80000af8: 01 07 57 13 srli	a4, a4, 16
è¯»å–åœ°å€ 0x80000afc
0x80000afc: 00 87 57 13 srli	a4, a4, 8
è¯»å–åœ°å€ 0x80000b00
0x80000b00: f0 07 f7 93 andi	a5, a5, -256
è¯»å–åœ°å€ 0x80000b04
0x80000b04: 00 e7 e7 b3 or	a5, a5, a4
è¯»å–åœ°å€ 0x80000b08
å†™å…¥åœ°å€ 0x800032d8
0x80000b08: 00 f5 10 23 sh	a5, 0(a0)
è¯»å–åœ°å€ 0x80000b0c
è¯»å–åœ°å€ 0x800032d0
0x80000b0c: 00 05 97 83 lh	a5, 0(a1)
è¯»å–åœ°å€ 0x80000b10
è¯»å–åœ°å€ 0x800032da
0x80000b10: 00 25 15 03 lh	a0, 2(a0)
è¯»å–åœ°å€ 0x80000b14
0x80000b14: 01 07 97 13 slli	a4, a5, 16
è¯»å–åœ°å€ 0x80000b18
0x80000b18: 01 07 57 13 srli	a4, a4, 16
è¯»å–åœ°å€ 0x80000b1c
0x80000b1c: 00 87 57 13 srli	a4, a4, 8
è¯»å–åœ°å€ 0x80000b20
0x80000b20: f0 07 f7 93 andi	a5, a5, -256
è¯»å–åœ°å€ 0x80000b24
0x80000b24: 00 e7 e7 b3 or	a5, a5, a4
è¯»å–åœ°å€ 0x80000b28
å†™å…¥åœ°å€ 0x800032d0
0x80000b28: 00 f5 90 23 sh	a5, 0(a1)
è¯»å–åœ°å€ 0x80000b2c
è¯»å–åœ°å€ 0x800032d2
0x80000b2c: 00 25 97 83 lh	a5, 2(a1)
è¯»å–åœ°å€ 0x80000b30
0x80000b30: 40 f5 05 33 sub	a0, a0, a5
è¯»å–åœ°å€ 0x80000b34
0x80000b34: 00 00 80 67 jalr	zero, 0(ra)
è¯»å–åœ°å€ 0x80000d54
0x80000d54: 04 a0 52 63 bge	zero, a0, 0x80000d98
è¯»å–åœ°å€ 0x80000d58
0x80000d58: 00 04 87 93 addi	a5, s1, 0
è¯»å–åœ°å€ 0x80000d5c
è¯»å–åœ°å€ 0x80003230
0x80000d5c: 00 04 a4 83 lw	s1, 0(s1)
è¯»å–åœ°å€ 0x80000d60
0x80000d60: ff f9 89 93 addi	s3, s3, -1
è¯»å–åœ°å€ 0x80000d64
0x80000d64: 02 09 04 63 beq	s2, zero, 0x80000d8c
è¯»å–åœ°å€ 0x80000d68
å†™å…¥åœ°å€ 0x800031f8
0x80000d68: 00 f9 20 23 sw	a5, 0(s2)
è¯»å–åœ°å€ 0x80000d6c
0x80000d6c: 00 07 89 13 addi	s2, a5, 0
è¯»å–åœ°å€ 0x80000d70
0x80000d70: fc 04 16 e3 bne	s0, zero, 0x80000d3c
è¯»å–åœ°å€ 0x80000d3c
0x80000d3c: 04 09 8e 63 beq	s3, zero, 0x80000d98
è¯»å–åœ°å€ 0x80000d40
0x80000d40: 04 04 8c 63 beq	s1, zero, 0x80000d98
è¯»å–åœ°å€ 0x80000d44
è¯»å–åœ°å€ 0x8000322c
0x80000d44: 00 44 a5 83 lw	a1, 4(s1)
è¯»å–åœ°å€ 0x80000d48
è¯»å–åœ°å€ 0x80003244
0x80000d48: 00 4a 25 03 lw	a0, 4(s4)
è¯»å–åœ°å€ 0x80000d4c
0x80000d4c: 00 0d 06 13 addi	a2, s10, 0
è¯»å–åœ°å€ 0x80000d50
0x80000d50: 00 0b 80 e7 jalr	ra, 0(s7)
è¯»å–åœ°å€ 0x80000adc
0x80000adc: 00 06 0a 63 beq	a2, zero, 0x80000af0
è¯»å–åœ°å€ 0x80000af0
è¯»å–åœ°å€ 0x800032d8
0x80000af0: 00 05 17 83 lh	a5, 0(a0)
è¯»å–åœ°å€ 0x80000af4
0x80000af4: 01 07 97 13 slli	a4, a5, 16
è¯»å–åœ°å€ 0x80000af8
0x80000af8: 01 07 57 13 srli	a4, a4, 16
è¯»å–åœ°å€ 0x80000afc
0x80000afc: 00 87 57 13 srli	a4, a4, 8
è¯»å–åœ°å€ 0x80000b00
0x80000b00: f0 07 f7 93 andi	a5, a5, -256
è¯»å–åœ°å€ 0x80000b04
0x80000b04: 00 e7 e7 b3 or	a5, a5, a4
è¯»å–åœ°å€ 0x80000b08
å†™å…¥åœ°å€ 0x800032d8
0x80000b08: 00 f5 10 23 sh	a5, 0(a0)
è¯»å–åœ°å€ 0x80000b0c
è¯»å–åœ°å€ 0x800032cc
0x80000b0c: 00 05 97 83 lh	a5, 0(a1)
è¯»å–åœ°å€ 0x80000b10
è¯»å–åœ°å€ 0x800032da
0x80000b10: 00 25 15 03 lh	a0, 2(a0)
è¯»å–åœ°å€ 0x80000b14
0x80000b14: 01 07 97 13 slli	a4, a5, 16
è¯»å–åœ°å€ 0x80000b18
0x80000b18: 01 07 57 13 srli	a4, a4, 16
è¯»å–åœ°å€ 0x80000b1c
0x80000b1c: 00 87 57 13 srli	a4, a4, 8
è¯»å–åœ°å€ 0x80000b20
0x80000b20: f0 07 f7 93 andi	a5, a5, -256
è¯»å–åœ°å€ 0x80000b24
0x80000b24: 00 e7 e7 b3 or	a5, a5, a4
è¯»å–åœ°å€ 0x80000b28
å†™å…¥åœ°å€ 0x800032cc
0x80000b28: 00 f5 90 23 sh	a5, 0(a1)
è¯»å–åœ°å€ 0x80000b2c
è¯»å–åœ°å€ 0x800032ce
0x80000b2c: 00 25 97 83 lh	a5, 2(a1)
è¯»å–åœ°å€ 0x80000b30
0x80000b30: 40 f5 05 33 sub	a0, a0, a5
è¯»å–åœ°å€ 0x80000b34
0x80000b34: 00 00 80 67 jalr	zero, 0(ra)
è¯»å–åœ°å€ 0x80000d54
0x80000d54: 04 a0 52 63 bge	zero, a0, 0x80000d98
è¯»å–åœ°å€ 0x80000d58
0x80000d58: 00 04 87 93 addi	a5, s1, 0
è¯»å–åœ°å€ 0x80000d5c
è¯»å–åœ°å€ 0x80003228
0x80000d5c: 00 04 a4 83 lw	s1, 0(s1)
è¯»å–åœ°å€ 0x80000d60
0x80000d60: ff f9 89 93 addi	s3, s3, -1
è¯»å–åœ°å€ 0x80000d64
0x80000d64: 02 09 04 63 beq	s2, zero, 0x80000d8c
è¯»å–åœ°å€ 0x80000d68
å†™å…¥åœ°å€ 0x80003230
0x80000d68: 00 f9 20 23 sw	a5, 0(s2)
è¯»å–åœ°å€ 0x80000d6c
0x80000d6c: 00 07 89 13 addi	s2, a5, 0
è¯»å–åœ°å€ 0x80000d70
0x80000d70: fc 04 16 e3 bne	s0, zero, 0x80000d3c
è¯»å–åœ°å€ 0x80000d3c
0x80000d3c: 04 09 8e 63 beq	s3, zero, 0x80000d98
è¯»å–åœ°å€ 0x80000d40
0x80000d40: 04 04 8c 63 beq	s1, zero, 0x80000d98
è¯»å–åœ°å€ 0x80000d44
è¯»å–åœ°å€ 0x80003224
0x80000d44: 00 44 a5 83 lw	a1, 4(s1)
è¯»å–åœ°å€ 0x80000d48
è¯»å–åœ°å€ 0x80003244
0x80000d48: 00 4a 25 03 lw	a0, 4(s4)
è¯»å–åœ°å€ 0x80000d4c
0x80000d4c: 00 0d 06 13 addi	a2, s10, 0
è¯»å–åœ°å€ 0x80000d50
0x80000d50: 00 0b 80 e7 jalr	ra, 0(s7)
è¯»å–åœ°å€ 0x80000adc
0x80000adc: 00 06 0a 63 beq	a2, zero, 0x80000af0
è¯»å–åœ°å€ 0x80000af0
è¯»å–åœ°å€ 0x800032d8
0x80000af0: 00 05 17 83 lh	a5, 0(a0)
è¯»å–åœ°å€ 0x80000af4
0x80000af4: 01 07 97 13 slli	a4, a5, 16
è¯»å–åœ°å€ 0x80000af8
0x80000af8: 01 07 57 13 srli	a4, a4, 16
è¯»å–åœ°å€ 0x80000afc
0x80000afc: 00 87 57 13 srli	a4, a4, 8
è¯»å–åœ°å€ 0x80000b00
0x80000b00: f0 07 f7 93 andi	a5, a5, -256
è¯»å–åœ°å€ 0x80000b04
0x80000b04: 00 e7 e7 b3 or	a5, a5, a4
è¯»å–åœ°å€ 0x80000b08
å†™å…¥åœ°å€ 0x800032d8
0x80000b08: 00 f5 10 23 sh	a5, 0(a0)
è¯»å–åœ°å€ 0x80000b0c
è¯»å–åœ°å€ 0x800032c8
0x80000b0c: 00 05 97 83 lh	a5, 0(a1)
è¯»å–åœ°å€ 0x80000b10
è¯»å–åœ°å€ 0x800032da
0x80000b10: 00 25 15 03 lh	a0, 2(a0)
è¯»å–åœ°å€ 0x80000b14
0x80000b14: 01 07 97 13 slli	a4, a5, 16
è¯»å–åœ°å€ 0x80000b18
0x80000b18: 01 07 57 13 srli	a4, a4, 16
è¯»å–åœ°å€ 0x80000b1c
0x80000b1c: 00 87 57 13 srli	a4, a4, 8
è¯»å–åœ°å€ 0x80000b20
0x80000b20: f0 07 f7 93 andi	a5, a5, -256
è¯»å–åœ°å€ 0x80000b24
0x80000b24: 00 e7 e7 b3 or	a5, a5, a4
è¯»å–åœ°å€ 0x80000b28
å†™å…¥åœ°å€ 0x800032c8
0x80000b28: 00 f5 90 23 sh	a5, 0(a1)
è¯»å–åœ°å€ 0x80000b2c
è¯»å–åœ°å€ 0x800032ca
0x80000b2c: 00 25 97 83 lh	a5, 2(a1)
è¯»å–åœ°å€ 0x80000b30
0x80000b30: 40 f5 05 33 sub	a0, a0, a5
è¯»å–åœ°å€ 0x80000b34
0x80000b34: 00 00 80 67 jalr	zero, 0(ra)
è¯»å–åœ°å€ 0x80000d54
0x80000d54: 04 a0 52 63 bge	zero, a0, 0x80000d98
è¯»å–åœ°å€ 0x80000d58
0x80000d58: 00 04 87 93 addi	a5, s1, 0
è¯»å–åœ°å€ 0x80000d5c
è¯»å–åœ°å€ 0x80003220
0x80000d5c: 00 04 a4 83 lw	s1, 0(s1)
è¯»å–åœ°å€ 0x80000d60
0x80000d60: ff f9 89 93 addi	s3, s3, -1
è¯»å–åœ°å€ 0x80000d64
0x80000d64: 02 09 04 63 beq	s2, zero, 0x80000d8c
è¯»å–åœ°å€ 0x80000d68
å†™å…¥åœ°å€ 0x80003228
0x80000d68: 00 f9 20 23 sw	a5, 0(s2)
è¯»å–åœ°å€ 0x80000d6c
0x80000d6c: 00 07 89 13 addi	s2, a5, 0
è¯»å–åœ°å€ 0x80000d70
0x80000d70: fc 04 16 e3 bne	s0, zero, 0x80000d3c
è¯»å–åœ°å€ 0x80000d3c
0x80000d3c: 04 09 8e 63 beq	s3, zero, 0x80000d98
è¯»å–åœ°å€ 0x80000d40
0x80000d40: 04 04 8c 63 beq	s1, zero, 0x80000d98
è¯»å–åœ°å€ 0x80000d44
è¯»å–åœ°å€ 0x8000321c
0x80000d44: 00 44 a5 83 lw	a1, 4(s1)
è¯»å–åœ°å€ 0x80000d48
è¯»å–åœ°å€ 0x80003244
0x80000d48: 00 4a 25 03 lw	a0, 4(s4)
è¯»å–åœ°å€ 0x80000d4c
0x80000d4c: 00 0d 06 13 addi	a2, s10, 0
è¯»å–åœ°å€ 0x80000d50
0x80000d50: 00 0b 80 e7 jalr	ra, 0(s7)
è¯»å–åœ°å€ 0x80000adc
0x80000adc: 00 06 0a 63 beq	a2, zero, 0x80000af0
è¯»å–åœ°å€ 0x80000af0
è¯»å–åœ°å€ 0x800032d8
0x80000af0: 00 05 17 83 lh	a5, 0(a0)
è¯»å–åœ°å€ 0x80000af4
0x80000af4: 01 07 97 13 slli	a4, a5, 16
è¯»å–åœ°å€ 0x80000af8
0x80000af8: 01 07 57 13 srli	a4, a4, 16
è¯»å–åœ°å€ 0x80000afc
0x80000afc: 00 87 57 13 srli	a4, a4, 8
è¯»å–åœ°å€ 0x80000b00
0x80000b00: f0 07 f7 93 andi	a5, a5, -256
è¯»å–åœ°å€ 0x80000b04
0x80000b04: 00 e7 e7 b3 or	a5, a5, a4
è¯»å–åœ°å€ 0x80000b08
å†™å…¥åœ°å€ 0x800032d8
0x80000b08: 00 f5 10 23 sh	a5, 0(a0)
è¯»å–åœ°å€ 0x80000b0c
è¯»å–åœ°å€ 0x800032c4
0x80000b0c: 00 05 97 83 lh	a5, 0(a1)
è¯»å–åœ°å€ 0x80000b10
è¯»å–åœ°å€ 0x800032da
0x80000b10: 00 25 15 03 lh	a0, 2(a0)
è¯»å–åœ°å€ 0x80000b14
0x80000b14: 01 07 97 13 slli	a4, a5, 16
è¯»å–åœ°å€ 0x80000b18
0x80000b18: 01 07 57 13 srli	a4, a4, 16
è¯»å–åœ°å€ 0x80000b1c
0x80000b1c: 00 87 57 13 srli	a4, a4, 8
è¯»å–åœ°å€ 0x80000b20
0x80000b20: f0 07 f7 93 andi	a5, a5, -256
è¯»å–åœ°å€ 0x80000b24
0x80000b24: 00 e7 e7 b3 or	a5, a5, a4
è¯»å–åœ°å€ 0x80000b28
å†™å…¥åœ°å€ 0x800032c4
0x80000b28: 00 f5 90 23 sh	a5, 0(a1)
è¯»å–åœ°å€ 0x80000b2c
è¯»å–åœ°å€ 0x800032c6
0x80000b2c: 00 25 97 83 lh	a5, 2(a1)
è¯»å–åœ°å€ 0x80000b30
0x80000b30: 40 f5 05 33 sub	a0, a0, a5
è¯»å–åœ°å€ 0x80000b34
0x80000b34: 00 00 80 67 jalr	zero, 0(ra)
è¯»å–åœ°å€ 0x80000d54
0x80000d54: 04 a0 52 63 bge	zero, a0, 0x80000d98
è¯»å–åœ°å€ 0x80000d58
0x80000d58: 00 04 87 93 addi	a5, s1, 0
è¯»å–åœ°å€ 0x80000d5c
è¯»å–åœ°å€ 0x80003218
0x80000d5c: 00 04 a4 83 lw	s1, 0(s1)
è¯»å–åœ°å€ 0x80000d60
0x80000d60: ff f9 89 93 addi	s3, s3, -1
è¯»å–åœ°å€ 0x80000d64
0x80000d64: 02 09 04 63 beq	s2, zero, 0x80000d8c
è¯»å–åœ°å€ 0x80000d68
å†™å…¥åœ°å€ 0x80003220
0x80000d68: 00 f9 20 23 sw	a5, 0(s2)
è¯»å–åœ°å€ 0x80000d6c
0x80000d6c: 00 07 89 13 addi	s2, a5, 0
è¯»å–åœ°å€ 0x80000d70
0x80000d70: fc 04 16 e3 bne	s0, zero, 0x80000d3c
è¯»å–åœ°å€ 0x80000d3c
0x80000d3c: 04 09 8e 63 beq	s3, zero, 0x80000d98
è¯»å–åœ°å€ 0x80000d40
0x80000d40: 04 04 8c 63 beq	s1, zero, 0x80000d98
è¯»å–åœ°å€ 0x80000d44
è¯»å–åœ°å€ 0x80003214
0x80000d44: 00 44 a5 83 lw	a1, 4(s1)
è¯»å–åœ°å€ 0x80000d48
è¯»å–åœ°å€ 0x80003244
0x80000d48: 00 4a 25 03 lw	a0, 4(s4)
è¯»å–åœ°å€ 0x80000d4c
0x80000d4c: 00 0d 06 13 addi	a2, s10, 0
è¯»å–åœ°å€ 0x80000d50
0x80000d50: 00 0b 80 e7 jalr	ra, 0(s7)
è¯»å–åœ°å€ 0x80000adc
0x80000adc: 00 06 0a 63 beq	a2, zero, 0x80000af0
è¯»å–åœ°å€ 0x80000af0
è¯»å–åœ°å€ 0x800032d8
0x80000af0: 00 05 17 83 lh	a5, 0(a0)
è¯»å–åœ°å€ 0x80000af4
0x80000af4: 01 07 97 13 slli	a4, a5, 16
è¯»å–åœ°å€ 0x80000af8
0x80000af8: 01 07 57 13 srli	a4, a4, 16
è¯»å–åœ°å€ 0x80000afc
0x80000afc: 00 87 57 13 srli	a4, a4, 8
è¯»å–åœ°å€ 0x80000b00
0x80000b00: f0 07 f7 93 andi	a5, a5, -256
è¯»å–åœ°å€ 0x80000b04
0x80000b04: 00 e7 e7 b3 or	a5, a5, a4
è¯»å–åœ°å€ 0x80000b08
å†™å…¥åœ°å€ 0x800032d8
0x80000b08: 00 f5 10 23 sh	a5, 0(a0)
è¯»å–åœ°å€ 0x80000b0c
è¯»å–åœ°å€ 0x800032c0
0x80000b0c: 00 05 97 83 lh	a5, 0(a1)
è¯»å–åœ°å€ 0x80000b10
è¯»å–åœ°å€ 0x800032da
0x80000b10: 00 25 15 03 lh	a0, 2(a0)
è¯»å–åœ°å€ 0x80000b14
0x80000b14: 01 07 97 13 slli	a4, a5, 16
è¯»å–åœ°å€ 0x80000b18
0x80000b18: 01 07 57 13 srli	a4, a4, 16
è¯»å–åœ°å€ 0x80000b1c
0x80000b1c: 00 87 57 13 srli	a4, a4, 8
è¯»å–åœ°å€ 0x80000b20
0x80000b20: f0 07 f7 93 andi	a5, a5, -256
è¯»å–åœ°å€ 0x80000b24
0x80000b24: 00 e7 e7 b3 or	a5, a5, a4
è¯»å–åœ°å€ 0x80000b28
å†™å…¥åœ°å€ 0x800032c0
0x80000b28: 00 f5 90 23 sh	a5, 0(a1)
è¯»å–åœ°å€ 0x80000b2c
è¯»å–åœ°å€ 0x800032c2
0x80000b2c: 00 25 97 83 lh	a5, 2(a1)
è¯»å–åœ°å€ 0x80000b30
0x80000b30: 40 f5 05 33 sub	a0, a0, a5
è¯»å–åœ°å€ 0x80000b34
0x80000b34: 00 00 80 67 jalr	zero, 0(ra)
è¯»å–åœ°å€ 0x80000d54
0x80000d54: 04 a0 52 63 bge	zero, a0, 0x80000d98
è¯»å–åœ°å€ 0x80000d58
0x80000d58: 00 04 87 93 addi	a5, s1, 0
è¯»å–åœ°å€ 0x80000d5c
è¯»å–åœ°å€ 0x80003210
0x80000d5c: 00 04 a4 83 lw	s1, 0(s1)
è¯»å–åœ°å€ 0x80000d60
0x80000d60: ff f9 89 93 addi	s3, s3, -1
è¯»å–åœ°å€ 0x80000d64
0x80000d64: 02 09 04 63 beq	s2, zero, 0x80000d8c
è¯»å–åœ°å€ 0x80000d68
å†™å…¥åœ°å€ 0x80003218
0x80000d68: 00 f9 20 23 sw	a5, 0(s2)
è¯»å–åœ°å€ 0x80000d6c
0x80000d6c: 00 07 89 13 addi	s2, a5, 0
è¯»å–åœ°å€ 0x80000d70
0x80000d70: fc 04 16 e3 bne	s0, zero, 0x80000d3c
è¯»å–åœ°å€ 0x80000d3c
0x80000d3c: 04 09 8e 63 beq	s3, zero, 0x80000d98
è¯»å–åœ°å€ 0x80000d40
0x80000d40: 04 04 8c 63 beq	s1, zero, 0x80000d98
è¯»å–åœ°å€ 0x80000d44
è¯»å–åœ°å€ 0x8000320c
0x80000d44: 00 44 a5 83 lw	a1, 4(s1)
è¯»å–åœ°å€ 0x80000d48
è¯»å–åœ°å€ 0x80003244
0x80000d48: 00 4a 25 03 lw	a0, 4(s4)
è¯»å–åœ°å€ 0x80000d4c
0x80000d4c: 00 0d 06 13 addi	a2, s10, 0
è¯»å–åœ°å€ 0x80000d50
0x80000d50: 00 0b 80 e7 jalr	ra, 0(s7)
è¯»å–åœ°å€ 0x80000adc
0x80000adc: 00 06 0a 63 beq	a2, zero, 0x80000af0
è¯»å–åœ°å€ 0x80000af0
è¯»å–åœ°å€ 0x800032d8
0x80000af0: 00 05 17 83 lh	a5, 0(a0)
è¯»å–åœ°å€ 0x80000af4
0x80000af4: 01 07 97 13 slli	a4, a5, 16
è¯»å–åœ°å€ 0x80000af8
0x80000af8: 01 07 57 13 srli	a4, a4, 16
è¯»å–åœ°å€ 0x80000afc
0x80000afc: 00 87 57 13 srli	a4, a4, 8
è¯»å–åœ°å€ 0x80000b00
0x80000b00: f0 07 f7 93 andi	a5, a5, -256
è¯»å–åœ°å€ 0x80000b04
0x80000b04: 00 e7 e7 b3 or	a5, a5, a4
è¯»å–åœ°å€ 0x80000b08
å†™å…¥åœ°å€ 0x800032d8
0x80000b08: 00 f5 10 23 sh	a5, 0(a0)
è¯»å–åœ°å€ 0x80000b0c
è¯»å–åœ°å€ 0x800032bc
0x80000b0c: 00 05 97 83 lh	a5, 0(a1)
è¯»å–åœ°å€ 0x80000b10
è¯»å–åœ°å€ 0x800032da
0x80000b10: 00 25 15 03 lh	a0, 2(a0)
è¯»å–åœ°å€ 0x80000b14
0x80000b14: 01 07 97 13 slli	a4, a5, 16
è¯»å–åœ°å€ 0x80000b18
0x80000b18: 01 07 57 13 srli	a4, a4, 16
è¯»å–åœ°å€ 0x80000b1c
0x80000b1c: 00 87 57 13 srli	a4, a4, 8
è¯»å–åœ°å€ 0x80000b20
0x80000b20: f0 07 f7 93 andi	a5, a5, -256
è¯»å–åœ°å€ 0x80000b24
0x80000b24: 00 e7 e7 b3 or	a5, a5, a4
è¯»å–åœ°å€ 0x80000b28
å†™å…¥åœ°å€ 0x800032bc
0x80000b28: 00 f5 90 23 sh	a5, 0(a1)
è¯»å–åœ°å€ 0x80000b2c
è¯»å–åœ°å€ 0x800032be
0x80000b2c: 00 25 97 83 lh	a5, 2(a1)
è¯»å–åœ°å€ 0x80000b30
0x80000b30: 40 f5 05 33 sub	a0, a0, a5
è¯»å–åœ°å€ 0x80000b34
0x80000b34: 00 00 80 67 jalr	zero, 0(ra)
è¯»å–åœ°å€ 0x80000d54
0x80000d54: 04 a0 52 63 bge	zero, a0, 0x80000d98
è¯»å–åœ°å€ 0x80000d58
0x80000d58: 00 04 87 93 addi	a5, s1, 0
è¯»å–åœ°å€ 0x80000d5c
è¯»å–åœ°å€ 0x80003208
0x80000d5c: 00 04 a4 83 lw	s1, 0(s1)
è¯»å–åœ°å€ 0x80000d60
0x80000d60: ff f9 89 93 addi	s3, s3, -1
è¯»å–åœ°å€ 0x80000d64
0x80000d64: 02 09 04 63 beq	s2, zero, 0x80000d8c
è¯»å–åœ°å€ 0x80000d68
å†™å…¥åœ°å€ 0x80003210
0x80000d68: 00 f9 20 23 sw	a5, 0(s2)
è¯»å–åœ°å€ 0x80000d6c
0x80000d6c: 00 07 89 13 addi	s2, a5, 0
è¯»å–åœ°å€ 0x80000d70
0x80000d70: fc 04 16 e3 bne	s0, zero, 0x80000d3c
è¯»å–åœ°å€ 0x80000d3c
0x80000d3c: 04 09 8e 63 beq	s3, zero, 0x80000d98
è¯»å–åœ°å€ 0x80000d40
0x80000d40: 04 04 8c 63 beq	s1, zero, 0x80000d98
è¯»å–åœ°å€ 0x80000d44
è¯»å–åœ°å€ 0x80003204
0x80000d44: 00 44 a5 83 lw	a1, 4(s1)
è¯»å–åœ°å€ 0x80000d48
è¯»å–åœ°å€ 0x80003244
0x80000d48: 00 4a 25 03 lw	a0, 4(s4)
è¯»å–åœ°å€ 0x80000d4c
0x80000d4c: 00 0d 06 13 addi	a2, s10, 0
è¯»å–åœ°å€ 0x80000d50
0x80000d50: 00 0b 80 e7 jalr	ra, 0(s7)
è¯»å–åœ°å€ 0x80000adc
0x80000adc: 00 06 0a 63 beq	a2, zero, 0x80000af0
è¯»å–åœ°å€ 0x80000af0
è¯»å–åœ°å€ 0x800032d8
0x80000af0: 00 05 17 83 lh	a5, 0(a0)
è¯»å–åœ°å€ 0x80000af4
0x80000af4: 01 07 97 13 slli	a4, a5, 16
è¯»å–åœ°å€ 0x80000af8
0x80000af8: 01 07 57 13 srli	a4, a4, 16
è¯»å–åœ°å€ 0x80000afc
0x80000afc: 00 87 57 13 srli	a4, a4, 8
è¯»å–åœ°å€ 0x80000b00
0x80000b00: f0 07 f7 93 andi	a5, a5, -256
è¯»å–åœ°å€ 0x80000b04
0x80000b04: 00 e7 e7 b3 or	a5, a5, a4
è¯»å–åœ°å€ 0x80000b08
å†™å…¥åœ°å€ 0x800032d8
0x80000b08: 00 f5 10 23 sh	a5, 0(a0)
è¯»å–åœ°å€ 0x80000b0c
è¯»å–åœ°å€ 0x800032b8
0x80000b0c: 00 05 97 83 lh	a5, 0(a1)
è¯»å–åœ°å€ 0x80000b10
è¯»å–åœ°å€ 0x800032da
0x80000b10: 00 25 15 03 lh	a0, 2(a0)
è¯»å–åœ°å€ 0x80000b14
0x80000b14: 01 07 97 13 slli	a4, a5, 16
è¯»å–åœ°å€ 0x80000b18
0x80000b18: 01 07 57 13 srli	a4, a4, 16
è¯»å–åœ°å€ 0x80000b1c
0x80000b1c: 00 87 57 13 srli	a4, a4, 8
è¯»å–åœ°å€ 0x80000b20
0x80000b20: f0 07 f7 93 andi	a5, a5, -256
è¯»å–åœ°å€ 0x80000b24
0x80000b24: 00 e7 e7 b3 or	a5, a5, a4
è¯»å–åœ°å€ 0x80000b28
å†™å…¥åœ°å€ 0x800032b8
0x80000b28: 00 f5 90 23 sh	a5, 0(a1)
è¯»å–åœ°å€ 0x80000b2c
è¯»å–åœ°å€ 0x800032ba
0x80000b2c: 00 25 97 83 lh	a5, 2(a1)
è¯»å–åœ°å€ 0x80000b30
0x80000b30: 40 f5 05 33 sub	a0, a0, a5
è¯»å–åœ°å€ 0x80000b34
0x80000b34: 00 00 80 67 jalr	zero, 0(ra)
è¯»å–åœ°å€ 0x80000d54
0x80000d54: 04 a0 52 63 bge	zero, a0, 0x80000d98
è¯»å–åœ°å€ 0x80000d98
0x80000d98: 00 0a 07 93 addi	a5, s4, 0
è¯»å–åœ°å€ 0x80000d9c
0x80000d9c: ff f4 04 13 addi	s0, s0, -1
è¯»å–åœ°å€ 0x80000da0
è¯»å–åœ°å€ 0x80003240
0x80000da0: 00 0a 2a 03 lw	s4, 0(s4)
è¯»å–åœ°å€ 0x80000da4
0x80000da4: fc 1f f0 6f jal	zero, 0x80000d64
è¯»å–åœ°å€ 0x80000d64
0x80000d64: 02 09 04 63 beq	s2, zero, 0x80000d8c
è¯»å–åœ°å€ 0x80000d68
å†™å…¥åœ°å€ 0x80003208
0x80000d68: 00 f9 20 23 sw	a5, 0(s2)
è¯»å–åœ°å€ 0x80000d6c
0x80000d6c: 00 07 89 13 addi	s2, a5, 0
è¯»å–åœ°å€ 0x80000d70
0x80000d70: fc 04 16 e3 bne	s0, zero, 0x80000d3c
è¯»å–åœ°å€ 0x80000d74
0x80000d74: 02 09 8a 63 beq	s3, zero, 0x80000da8
è¯»å–åœ°å€ 0x80000d78
0x80000d78: 02 04 8a 63 beq	s1, zero, 0x80000dac
è¯»å–åœ°å€ 0x80000d7c
0x80000d7c: 00 04 87 93 addi	a5, s1, 0
è¯»å–åœ°å€ 0x80000d80
0x80000d80: ff f9 89 93 addi	s3, s3, -1
è¯»å–åœ°å€ 0x80000d84
è¯»å–åœ°å€ 0x80003200
0x80000d84: 00 04 a4 83 lw	s1, 0(s1)
è¯»å–åœ°å€ 0x80000d88
0x80000d88: fe 09 10 e3 bne	s2, zero, 0x80000d68
è¯»å–åœ°å€ 0x80000d68
å†™å…¥åœ°å€ 0x80003240
0x80000d68: 00 f9 20 23 sw	a5, 0(s2)
è¯»å–åœ°å€ 0x80000d6c
0x80000d6c: 00 07 89 13 addi	s2, a5, 0
è¯»å–åœ°å€ 0x80000d70
0x80000d70: fc 04 16 e3 bne	s0, zero, 0x80000d3c
è¯»å–åœ°å€ 0x80000d74
0x80000d74: 02 09 8a 63 beq	s3, zero, 0x80000da8
è¯»å–åœ°å€ 0x80000da8
0x80000da8: f6 04 94 e3 bne	s1, zero, 0x80000d10
è¯»å–åœ°å€ 0x80000d10
0x80000d10: 00 1c 0c 13 addi	s8, s8, 1
è¯»å–åœ°å€ 0x80000d14
0x80000d14: 00 04 87 93 addi	a5, s1, 0
è¯»å–åœ°å€ 0x80000d18
0x80000d18: 00 00 04 13 addi	s0, zero, 0
è¯»å–åœ°å€ 0x80000d1c
è¯»å–åœ°å€ 0x800031b8
0x80000d1c: 00 07 a7 83 lw	a5, 0(a5)
è¯»å–åœ°å€ 0x80000d20
0x80000d20: 00 14 04 13 addi	s0, s0, 1
è¯»å–åœ°å€ 0x80000d24
0x80000d24: 00 07 84 63 beq	a5, zero, 0x80000d2c
è¯»å–åœ°å€ 0x80000d28
0x80000d28: fe 8a 9a e3 bne	s5, s0, 0x80000d1c
è¯»å–åœ°å€ 0x80000d1c
è¯»å–åœ°å€ 0x800031f0
0x80000d1c: 00 07 a7 83 lw	a5, 0(a5)
è¯»å–åœ°å€ 0x80000d20
0x80000d20: 00 14 04 13 addi	s0, s0, 1
è¯»å–åœ°å€ 0x80000d24
0x80000d24: 00 07 84 63 beq	a5, zero, 0x80000d2c
è¯»å–åœ°å€ 0x80000d28
0x80000d28: fe 8a 9a e3 bne	s5, s0, 0x80000d1c
è¯»å–åœ°å€ 0x80000d1c
è¯»å–åœ°å€ 0x800031e8
0x80000d1c: 00 07 a7 83 lw	a5, 0(a5)
è¯»å–åœ°å€ 0x80000d20
0x80000d20: 00 14 04 13 addi	s0, s0, 1
è¯»å–åœ°å€ 0x80000d24
0x80000d24: 00 07 84 63 beq	a5, zero, 0x80000d2c
è¯»å–åœ°å€ 0x80000d28
0x80000d28: fe 8a 9a e3 bne	s5, s0, 0x80000d1c
è¯»å–åœ°å€ 0x80000d1c
è¯»å–åœ°å€ 0x800031e0
0x80000d1c: 00 07 a7 83 lw	a5, 0(a5)
è¯»å–åœ°å€ 0x80000d20
0x80000d20: 00 14 04 13 addi	s0, s0, 1
è¯»å–åœ°å€ 0x80000d24
0x80000d24: 00 07 84 63 beq	a5, zero, 0x80000d2c
è¯»å–åœ°å€ 0x80000d28
0x80000d28: fe 8a 9a e3 bne	s5, s0, 0x80000d1c
è¯»å–åœ°å€ 0x80000d1c
è¯»å–åœ°å€ 0x800031d8
0x80000d1c: 00 07 a7 83 lw	a5, 0(a5)
è¯»å–åœ°å€ 0x80000d20
0x80000d20: 00 14 04 13 addi	s0, s0, 1
è¯»å–åœ°å€ 0x80000d24
0x80000d24: 00 07 84 63 beq	a5, zero, 0x80000d2c
è¯»å–åœ°å€ 0x80000d28
0x80000d28: fe 8a 9a e3 bne	s5, s0, 0x80000d1c
è¯»å–åœ°å€ 0x80000d1c
è¯»å–åœ°å€ 0x800031d0
0x80000d1c: 00 07 a7 83 lw	a5, 0(a5)
è¯»å–åœ°å€ 0x80000d20
0x80000d20: 00 14 04 13 addi	s0, s0, 1
è¯»å–åœ°å€ 0x80000d24
0x80000d24: 00 07 84 63 beq	a5, zero, 0x80000d2c
è¯»å–åœ°å€ 0x80000d28
0x80000d28: fe 8a 9a e3 bne	s5, s0, 0x80000d1c
è¯»å–åœ°å€ 0x80000d1c
è¯»å–åœ°å€ 0x800031c8
0x80000d1c: 00 07 a7 83 lw	a5, 0(a5)
è¯»å–åœ°å€ 0x80000d20
0x80000d20: 00 14 04 13 addi	s0, s0, 1
è¯»å–åœ°å€ 0x80000d24
0x80000d24: 00 07 84 63 beq	a5, zero, 0x80000d2c
è¯»å–åœ°å€ 0x80000d28
0x80000d28: fe 8a 9a e3 bne	s5, s0, 0x80000d1c
è¯»å–åœ°å€ 0x80000d1c
è¯»å–åœ°å€ 0x800031c0
0x80000d1c: 00 07 a7 83 lw	a5, 0(a5)
è¯»å–åœ°å€ 0x80000d20
0x80000d20: 00 14 04 13 addi	s0, s0, 1
è¯»å–åœ°å€ 0x80000d24
0x80000d24: 00 07 84 63 beq	a5, zero, 0x80000d2c
è¯»å–åœ°å€ 0x80000d28
0x80000d28: fe 8a 9a e3 bne	s5, s0, 0x80000d1c
è¯»å–åœ°å€ 0x80000d2c
0x80000d2c: 00 04 8a 13 addi	s4, s1, 0
è¯»å–åœ°å€ 0x80000d30
0x80000d30: 00 0a 89 93 addi	s3, s5, 0
è¯»å–åœ°å€ 0x80000d34
0x80000d34: 00 07 84 93 addi	s1, a5, 0
è¯»å–åœ°å€ 0x80000d38
0x80000d38: 02 04 0e 63 beq	s0, zero, 0x80000d74
è¯»å–åœ°å€ 0x80000d3c
0x80000d3c: 04 09 8e 63 beq	s3, zero, 0x80000d98
è¯»å–åœ°å€ 0x80000d40
0x80000d40: 04 04 8c 63 beq	s1, zero, 0x80000d98
è¯»å–åœ°å€ 0x80000d44
è¯»å–åœ°å€ 0x800031b4
0x80000d44: 00 44 a5 83 lw	a1, 4(s1)
è¯»å–åœ°å€ 0x80000d48
è¯»å–åœ°å€ 0x800031bc
0x80000d48: 00 4a 25 03 lw	a0, 4(s4)
è¯»å–åœ°å€ 0x80000d4c
0x80000d4c: 00 0d 06 13 addi	a2, s10, 0
è¯»å–åœ°å€ 0x80000d50
0x80000d50: 00 0b 80 e7 jalr	ra, 0(s7)
è¯»å–åœ°å€ 0x80000adc
0x80000adc: 00 06 0a 63 beq	a2, zero, 0x80000af0
è¯»å–åœ°å€ 0x80000af0
è¯»å–åœ°å€ 0x80003294
0x80000af0: 00 05 17 83 lh	a5, 0(a0)
è¯»å–åœ°å€ 0x80000af4
0x80000af4: 01 07 97 13 slli	a4, a5, 16
è¯»å–åœ°å€ 0x80000af8
0x80000af8: 01 07 57 13 srli	a4, a4, 16
è¯»å–åœ°å€ 0x80000afc
0x80000afc: 00 87 57 13 srli	a4, a4, 8
è¯»å–åœ°å€ 0x80000b00
0x80000b00: f0 07 f7 93 andi	a5, a5, -256
è¯»å–åœ°å€ 0x80000b04
0x80000b04: 00 e7 e7 b3 or	a5, a5, a4
è¯»å–åœ°å€ 0x80000b08
å†™å…¥åœ°å€ 0x80003294
0x80000b08: 00 f5 10 23 sh	a5, 0(a0)
è¯»å–åœ°å€ 0x80000b0c
è¯»å–åœ°å€ 0x80003290
0x80000b0c: 00 05 97 83 lh	a5, 0(a1)
è¯»å–åœ°å€ 0x80000b10
è¯»å–åœ°å€ 0x80003296
0x80000b10: 00 25 15 03 lh	a0, 2(a0)
è¯»å–åœ°å€ 0x80000b14
0x80000b14: 01 07 97 13 slli	a4, a5, 16
è¯»å–åœ°å€ 0x80000b18
0x80000b18: 01 07 57 13 srli	a4, a4, 16
è¯»å–åœ°å€ 0x80000b1c
0x80000b1c: 00 87 57 13 srli	a4, a4, 8
è¯»å–åœ°å€ 0x80000b20
0x80000b20: f0 07 f7 93 andi	a5, a5, -256
è¯»å–åœ°å€ 0x80000b24
0x80000b24: 00 e7 e7 b3 or	a5, a5, a4
è¯»å–åœ°å€ 0x80000b28
å†™å…¥åœ°å€ 0x80003290
0x80000b28: 00 f5 90 23 sh	a5, 0(a1)
è¯»å–åœ°å€ 0x80000b2c
è¯»å–åœ°å€ 0x80003292
0x80000b2c: 00 25 97 83 lh	a5, 2(a1)
è¯»å–åœ°å€ 0x80000b30
0x80000b30: 40 f5 05 33 sub	a0, a0, a5
è¯»å–åœ°å€ 0x80000b34
0x80000b34: 00 00 80 67 jalr	zero, 0(ra)
è¯»å–åœ°å€ 0x80000d54
0x80000d54: 04 a0 52 63 bge	zero, a0, 0x80000d98
è¯»å–åœ°å€ 0x80000d98
0x80000d98: 00 0a 07 93 addi	a5, s4, 0
è¯»å–åœ°å€ 0x80000d9c
0x80000d9c: ff f4 04 13 addi	s0, s0, -1
è¯»å–åœ°å€ 0x80000da0
è¯»å–åœ°å€ 0x800031b8
0x80000da0: 00 0a 2a 03 lw	s4, 0(s4)
è¯»å–åœ°å€ 0x80000da4
0x80000da4: fc 1f f0 6f jal	zero, 0x80000d64
è¯»å–åœ°å€ 0x80000d64
0x80000d64: 02 09 04 63 beq	s2, zero, 0x80000d8c
è¯»å–åœ°å€ 0x80000d68
å†™å…¥åœ°å€ 0x80003200
0x80000d68: 00 f9 20 23 sw	a5, 0(s2)
è¯»å–åœ°å€ 0x80000d6c
0x80000d6c: 00 07 89 13 addi	s2, a5, 0
è¯»å–åœ°å€ 0x80000d70
0x80000d70: fc 04 16 e3 bne	s0, zero, 0x80000d3c
è¯»å–åœ°å€ 0x80000d3c
0x80000d3c: 04 09 8e 63 beq	s3, zero, 0x80000d98
è¯»å–åœ°å€ 0x80000d40
0x80000d40: 04 04 8c 63 beq	s1, zero, 0x80000d98
è¯»å–åœ°å€ 0x80000d44
è¯»å–åœ°å€ 0x800031b4
0x80000d44: 00 44 a5 83 lw	a1, 4(s1)
è¯»å–åœ°å€ 0x80000d48
è¯»å–åœ°å€ 0x800031f4
0x80000d48: 00 4a 25 03 lw	a0, 4(s4)
è¯»å–åœ°å€ 0x80000d4c
0x80000d4c: 00 0d 06 13 addi	a2, s10, 0
è¯»å–åœ°å€ 0x80000d50
0x80000d50: 00 0b 80 e7 jalr	ra, 0(s7)
è¯»å–åœ°å€ 0x80000adc
0x80000adc: 00 06 0a 63 beq	a2, zero, 0x80000af0
è¯»å–åœ°å€ 0x80000af0
è¯»å–åœ°å€ 0x800032b0
0x80000af0: 00 05 17 83 lh	a5, 0(a0)
è¯»å–åœ°å€ 0x80000af4
0x80000af4: 01 07 97 13 slli	a4, a5, 16
è¯»å–åœ°å€ 0x80000af8
0x80000af8: 01 07 57 13 srli	a4, a4, 16
è¯»å–åœ°å€ 0x80000afc
0x80000afc: 00 87 57 13 srli	a4, a4, 8
è¯»å–åœ°å€ 0x80000b00
0x80000b00: f0 07 f7 93 andi	a5, a5, -256
è¯»å–åœ°å€ 0x80000b04
0x80000b04: 00 e7 e7 b3 or	a5, a5, a4
è¯»å–åœ°å€ 0x80000b08
å†™å…¥åœ°å€ 0x800032b0
0x80000b08: 00 f5 10 23 sh	a5, 0(a0)
è¯»å–åœ°å€ 0x80000b0c
è¯»å–åœ°å€ 0x80003290
0x80000b0c: 00 05 97 83 lh	a5, 0(a1)
è¯»å–åœ°å€ 0x80000b10
è¯»å–åœ°å€ 0x800032b2
0x80000b10: 00 25 15 03 lh	a0, 2(a0)
è¯»å–åœ°å€ 0x80000b14
0x80000b14: 01 07 97 13 slli	a4, a5, 16
è¯»å–åœ°å€ 0x80000b18
0x80000b18: 01 07 57 13 srli	a4, a4, 16
è¯»å–åœ°å€ 0x80000b1c
0x80000b1c: 00 87 57 13 srli	a4, a4, 8
è¯»å–åœ°å€ 0x80000b20
0x80000b20: f0 07 f7 93 andi	a5, a5, -256
è¯»å–åœ°å€ 0x80000b24
0x80000b24: 00 e7 e7 b3 or	a5, a5, a4
è¯»å–åœ°å€ 0x80000b28
å†™å…¥åœ°å€ 0x80003290
0x80000b28: 00 f5 90 23 sh	a5, 0(a1)
è¯»å–åœ°å€ 0x80000b2c
è¯»å–åœ°å€ 0x80003292
0x80000b2c: 00 25 97 83 lh	a5, 2(a1)
è¯»å–åœ°å€ 0x80000b30
0x80000b30: 40 f5 05 33 sub	a0, a0, a5
è¯»å–åœ°å€ 0x80000b34
0x80000b34: 00 00 80 67 jalr	zero, 0(ra)
è¯»å–åœ°å€ 0x80000d54
0x80000d54: 04 a0 52 63 bge	zero, a0, 0x80000d98
è¯»å–åœ°å€ 0x80000d98
0x80000d98: 00 0a 07 93 addi	a5, s4, 0
è¯»å–åœ°å€ 0x80000d9c
0x80000d9c: ff f4 04 13 addi	s0, s0, -1
è¯»å–åœ°å€ 0x80000da0
è¯»å–åœ°å€ 0x800031f0
0x80000da0: 00 0a 2a 03 lw	s4, 0(s4)
è¯»å–åœ°å€ 0x80000da4
0x80000da4: fc 1f f0 6f jal	zero, 0x80000d64
è¯»å–åœ°å€ 0x80000d64
0x80000d64: 02 09 04 63 beq	s2, zero, 0x80000d8c
è¯»å–åœ°å€ 0x80000d68
å†™å…¥åœ°å€ 0x800031b8
0x80000d68: 00 f9 20 23 sw	a5, 0(s2)
è¯»å–åœ°å€ 0x80000d6c
0x80000d6c: 00 07 89 13 addi	s2, a5, 0
è¯»å–åœ°å€ 0x80000d70
0x80000d70: fc 04 16 e3 bne	s0, zero, 0x80000d3c
è¯»å–åœ°å€ 0x80000d3c
0x80000d3c: 04 09 8e 63 beq	s3, zero, 0x80000d98
è¯»å–åœ°å€ 0x80000d40
0x80000d40: 04 04 8c 63 beq	s1, zero, 0x80000d98
è¯»å–åœ°å€ 0x80000d44
è¯»å–åœ°å€ 0x800031b4
0x80000d44: 00 44 a5 83 lw	a1, 4(s1)
è¯»å–åœ°å€ 0x80000d48
è¯»å–åœ°å€ 0x800031ec
0x80000d48: 00 4a 25 03 lw	a0, 4(s4)
è¯»å–åœ°å€ 0x80000d4c
0x80000d4c: 00 0d 06 13 addi	a2, s10, 0
è¯»å–åœ°å€ 0x80000d50
0x80000d50: 00 0b 80 e7 jalr	ra, 0(s7)
è¯»å–åœ°å€ 0x80000adc
0x80000adc: 00 06 0a 63 beq	a2, zero, 0x80000af0
è¯»å–åœ°å€ 0x80000af0
è¯»å–åœ°å€ 0x800032ac
0x80000af0: 00 05 17 83 lh	a5, 0(a0)
è¯»å–åœ°å€ 0x80000af4
0x80000af4: 01 07 97 13 slli	a4, a5, 16
è¯»å–åœ°å€ 0x80000af8
0x80000af8: 01 07 57 13 srli	a4, a4, 16
è¯»å–åœ°å€ 0x80000afc
0x80000afc: 00 87 57 13 srli	a4, a4, 8
è¯»å–åœ°å€ 0x80000b00
0x80000b00: f0 07 f7 93 andi	a5, a5, -256
è¯»å–åœ°å€ 0x80000b04
0x80000b04: 00 e7 e7 b3 or	a5, a5, a4
è¯»å–åœ°å€ 0x80000b08
å†™å…¥åœ°å€ 0x800032ac
0x80000b08: 00 f5 10 23 sh	a5, 0(a0)
è¯»å–åœ°å€ 0x80000b0c
è¯»å–åœ°å€ 0x80003290
0x80000b0c: 00 05 97 83 lh	a5, 0(a1)
è¯»å–åœ°å€ 0x80000b10
è¯»å–åœ°å€ 0x800032ae
0x80000b10: 00 25 15 03 lh	a0, 2(a0)
è¯»å–åœ°å€ 0x80000b14
0x80000b14: 01 07 97 13 slli	a4, a5, 16
è¯»å–åœ°å€ 0x80000b18
0x80000b18: 01 07 57 13 srli	a4, a4, 16
è¯»å–åœ°å€ 0x80000b1c
0x80000b1c: 00 87 57 13 srli	a4, a4, 8
è¯»å–åœ°å€ 0x80000b20
0x80000b20: f0 07 f7 93 andi	a5, a5, -256
è¯»å–åœ°å€ 0x80000b24
0x80000b24: 00 e7 e7 b3 or	a5, a5, a4
è¯»å–åœ°å€ 0x80000b28
å†™å…¥åœ°å€ 0x80003290
0x80000b28: 00 f5 90 23 sh	a5, 0(a1)
è¯»å–åœ°å€ 0x80000b2c
è¯»å–åœ°å€ 0x80003292
0x80000b2c: 00 25 97 83 lh	a5, 2(a1)
è¯»å–åœ°å€ 0x80000b30
0x80000b30: 40 f5 05 33 sub	a0, a0, a5
è¯»å–åœ°å€ 0x80000b34
0x80000b34: 00 00 80 67 jalr	zero, 0(ra)
è¯»å–åœ°å€ 0x80000d54
0x80000d54: 04 a0 52 63 bge	zero, a0, 0x80000d98
è¯»å–åœ°å€ 0x80000d58
0x80000d58: 00 04 87 93 addi	a5, s1, 0
è¯»å–åœ°å€ 0x80000d5c
è¯»å–åœ°å€ 0x800031b0
0x80000d5c: 00 04 a4 83 lw	s1, 0(s1)
è¯»å–åœ°å€ 0x80000d60
0x80000d60: ff f9 89 93 addi	s3, s3, -1
è¯»å–åœ°å€ 0x80000d64
0x80000d64: 02 09 04 63 beq	s2, zero, 0x80000d8c
è¯»å–åœ°å€ 0x80000d68
å†™å…¥åœ°å€ 0x800031f0
0x80000d68: 00 f9 20 23 sw	a5, 0(s2)
è¯»å–åœ°å€ 0x80000d6c
0x80000d6c: 00 07 89 13 addi	s2, a5, 0
è¯»å–åœ°å€ 0x80000d70
0x80000d70: fc 04 16 e3 bne	s0, zero, 0x80000d3c
è¯»å–åœ°å€ 0x80000d3c
0x80000d3c: 04 09 8e 63 beq	s3, zero, 0x80000d98
è¯»å–åœ°å€ 0x80000d40
0x80000d40: 04 04 8c 63 beq	s1, zero, 0x80000d98
è¯»å–åœ°å€ 0x80000d44
è¯»å–åœ°å€ 0x800031ac
0x80000d44: 00 44 a5 83 lw	a1, 4(s1)
è¯»å–åœ°å€ 0x80000d48
è¯»å–åœ°å€ 0x800031ec
0x80000d48: 00 4a 25 03 lw	a0, 4(s4)
è¯»å–åœ°å€ 0x80000d4c
0x80000d4c: 00 0d 06 13 addi	a2, s10, 0
è¯»å–åœ°å€ 0x80000d50
0x80000d50: 00 0b 80 e7 jalr	ra, 0(s7)
è¯»å–åœ°å€ 0x80000adc
0x80000adc: 00 06 0a 63 beq	a2, zero, 0x80000af0
è¯»å–åœ°å€ 0x80000af0
è¯»å–åœ°å€ 0x800032ac
0x80000af0: 00 05 17 83 lh	a5, 0(a0)
è¯»å–åœ°å€ 0x80000af4
0x80000af4: 01 07 97 13 slli	a4, a5, 16
è¯»å–åœ°å€ 0x80000af8
0x80000af8: 01 07 57 13 srli	a4, a4, 16
è¯»å–åœ°å€ 0x80000afc
0x80000afc: 00 87 57 13 srli	a4, a4, 8
è¯»å–åœ°å€ 0x80000b00
0x80000b00: f0 07 f7 93 andi	a5, a5, -256
è¯»å–åœ°å€ 0x80000b04
0x80000b04: 00 e7 e7 b3 or	a5, a5, a4
è¯»å–åœ°å€ 0x80000b08
å†™å…¥åœ°å€ 0x800032ac
0x80000b08: 00 f5 10 23 sh	a5, 0(a0)
è¯»å–åœ°å€ 0x80000b0c
è¯»å–åœ°å€ 0x8000328c
0x80000b0c: 00 05 97 83 lh	a5, 0(a1)
è¯»å–åœ°å€ 0x80000b10
è¯»å–åœ°å€ 0x800032ae
0x80000b10: 00 25 15 03 lh	a0, 2(a0)
è¯»å–åœ°å€ 0x80000b14
0x80000b14: 01 07 97 13 slli	a4, a5, 16
è¯»å–åœ°å€ 0x80000b18
0x80000b18: 01 07 57 13 srli	a4, a4, 16
è¯»å–åœ°å€ 0x80000b1c
0x80000b1c: 00 87 57 13 srli	a4, a4, 8
è¯»å–åœ°å€ 0x80000b20
0x80000b20: f0 07 f7 93 andi	a5, a5, -256
è¯»å–åœ°å€ 0x80000b24
0x80000b24: 00 e7 e7 b3 or	a5, a5, a4
è¯»å–åœ°å€ 0x80000b28
å†™å…¥åœ°å€ 0x8000328c
0x80000b28: 00 f5 90 23 sh	a5, 0(a1)
è¯»å–åœ°å€ 0x80000b2c
è¯»å–åœ°å€ 0x8000328e
0x80000b2c: 00 25 97 83 lh	a5, 2(a1)
è¯»å–åœ°å€ 0x80000b30
0x80000b30: 40 f5 05 33 sub	a0, a0, a5
è¯»å–åœ°å€ 0x80000b34
0x80000b34: 00 00 80 67 jalr	zero, 0(ra)
è¯»å–åœ°å€ 0x80000d54
0x80000d54: 04 a0 52 63 bge	zero, a0, 0x80000d98
è¯»å–åœ°å€ 0x80000d98
0x80000d98: 00 0a 07 93 addi	a5, s4, 0
è¯»å–åœ°å€ 0x80000d9c
0x80000d9c: ff f4 04 13 addi	s0, s0, -1
è¯»å–åœ°å€ 0x80000da0
è¯»å–åœ°å€ 0x800031e8
0x80000da0: 00 0a 2a 03 lw	s4, 0(s4)
è¯»å–åœ°å€ 0x80000da4
0x80000da4: fc 1f f0 6f jal	zero, 0x80000d64
è¯»å–åœ°å€ 0x80000d64
0x80000d64: 02 09 04 63 beq	s2, zero, 0x80000d8c
è¯»å–åœ°å€ 0x80000d68
å†™å…¥åœ°å€ 0x800031b0
0x80000d68: 00 f9 20 23 sw	a5, 0(s2)
è¯»å–åœ°å€ 0x80000d6c
0x80000d6c: 00 07 89 13 addi	s2, a5, 0
è¯»å–åœ°å€ 0x80000d70
0x80000d70: fc 04 16 e3 bne	s0, zero, 0x80000d3c
è¯»å–åœ°å€ 0x80000d3c
0x80000d3c: 04 09 8e 63 beq	s3, zero, 0x80000d98
è¯»å–åœ°å€ 0x80000d40
0x80000d40: 04 04 8c 63 beq	s1, zero, 0x80000d98
è¯»å–åœ°å€ 0x80000d44
è¯»å–åœ°å€ 0x800031ac
0x80000d44: 00 44 a5 83 lw	a1, 4(s1)
è¯»å–åœ°å€ 0x80000d48
è¯»å–åœ°å€ 0x800031e4
0x80000d48: 00 4a 25 03 lw	a0, 4(s4)
è¯»å–åœ°å€ 0x80000d4c
0x80000d4c: 00 0d 06 13 addi	a2, s10, 0
è¯»å–åœ°å€ 0x80000d50
0x80000d50: 00 0b 80 e7 jalr	ra, 0(s7)
è¯»å–åœ°å€ 0x80000adc
0x80000adc: 00 06 0a 63 beq	a2, zero, 0x80000af0
è¯»å–åœ°å€ 0x80000af0
è¯»å–åœ°å€ 0x800032a8
0x80000af0: 00 05 17 83 lh	a5, 0(a0)
è¯»å–åœ°å€ 0x80000af4
0x80000af4: 01 07 97 13 slli	a4, a5, 16
è¯»å–åœ°å€ 0x80000af8
0x80000af8: 01 07 57 13 srli	a4, a4, 16
è¯»å–åœ°å€ 0x80000afc
0x80000afc: 00 87 57 13 srli	a4, a4, 8
è¯»å–åœ°å€ 0x80000b00
0x80000b00: f0 07 f7 93 andi	a5, a5, -256
è¯»å–åœ°å€ 0x80000b04
0x80000b04: 00 e7 e7 b3 or	a5, a5, a4
è¯»å–åœ°å€ 0x80000b08
å†™å…¥åœ°å€ 0x800032a8
0x80000b08: 00 f5 10 23 sh	a5, 0(a0)
è¯»å–åœ°å€ 0x80000b0c
è¯»å–åœ°å€ 0x8000328c
0x80000b0c: 00 05 97 83 lh	a5, 0(a1)
è¯»å–åœ°å€ 0x80000b10
è¯»å–åœ°å€ 0x800032aa
0x80000b10: 00 25 15 03 lh	a0, 2(a0)
è¯»å–åœ°å€ 0x80000b14
0x80000b14: 01 07 97 13 slli	a4, a5, 16
è¯»å–åœ°å€ 0x80000b18
0x80000b18: 01 07 57 13 srli	a4, a4, 16
è¯»å–åœ°å€ 0x80000b1c
0x80000b1c: 00 87 57 13 srli	a4, a4, 8
è¯»å–åœ°å€ 0x80000b20
0x80000b20: f0 07 f7 93 andi	a5, a5, -256
è¯»å–åœ°å€ 0x80000b24
0x80000b24: 00 e7 e7 b3 or	a5, a5, a4
è¯»å–åœ°å€ 0x80000b28
å†™å…¥åœ°å€ 0x8000328c
0x80000b28: 00 f5 90 23 sh	a5, 0(a1)
è¯»å–åœ°å€ 0x80000b2c
è¯»å–åœ°å€ 0x8000328e
0x80000b2c: 00 25 97 83 lh	a5, 2(a1)
è¯»å–åœ°å€ 0x80000b30
0x80000b30: 40 f5 05 33 sub	a0, a0, a5
è¯»å–åœ°å€ 0x80000b34
0x80000b34: 00 00 80 67 jalr	zero, 0(ra)
è¯»å–åœ°å€ 0x80000d54
0x80000d54: 04 a0 52 63 bge	zero, a0, 0x80000d98
è¯»å–åœ°å€ 0x80000d58
0x80000d58: 00 04 87 93 addi	a5, s1, 0
è¯»å–åœ°å€ 0x80000d5c
è¯»å–åœ°å€ 0x800031a8
0x80000d5c: 00 04 a4 83 lw	s1, 0(s1)
è¯»å–åœ°å€ 0x80000d60
0x80000d60: ff f9 89 93 addi	s3, s3, -1
è¯»å–åœ°å€ 0x80000d64
0x80000d64: 02 09 04 63 beq	s2, zero, 0x80000d8c
è¯»å–åœ°å€ 0x80000d68
å†™å…¥åœ°å€ 0x800031e8
0x80000d68: 00 f9 20 23 sw	a5, 0(s2)
è¯»å–åœ°å€ 0x80000d6c
0x80000d6c: 00 07 89 13 addi	s2, a5, 0
è¯»å–åœ°å€ 0x80000d70
0x80000d70: fc 04 16 e3 bne	s0, zero, 0x80000d3c
è¯»å–åœ°å€ 0x80000d3c
0x80000d3c: 04 09 8e 63 beq	s3, zero, 0x80000d98
è¯»å–åœ°å€ 0x80000d40
0x80000d40: 04 04 8c 63 beq	s1, zero, 0x80000d98
è¯»å–åœ°å€ 0x80000d44
è¯»å–åœ°å€ 0x800031a4
0x80000d44: 00 44 a5 83 lw	a1, 4(s1)
è¯»å–åœ°å€ 0x80000d48
è¯»å–åœ°å€ 0x800031e4
0x80000d48: 00 4a 25 03 lw	a0, 4(s4)
è¯»å–åœ°å€ 0x80000d4c
0x80000d4c: 00 0d 06 13 addi	a2, s10, 0
è¯»å–åœ°å€ 0x80000d50
0x80000d50: 00 0b 80 e7 jalr	ra, 0(s7)
è¯»å–åœ°å€ 0x80000adc
0x80000adc: 00 06 0a 63 beq	a2, zero, 0x80000af0
è¯»å–åœ°å€ 0x80000af0
è¯»å–åœ°å€ 0x800032a8
0x80000af0: 00 05 17 83 lh	a5, 0(a0)
è¯»å–åœ°å€ 0x80000af4
0x80000af4: 01 07 97 13 slli	a4, a5, 16
è¯»å–åœ°å€ 0x80000af8
0x80000af8: 01 07 57 13 srli	a4, a4, 16
è¯»å–åœ°å€ 0x80000afc
0x80000afc: 00 87 57 13 srli	a4, a4, 8
è¯»å–åœ°å€ 0x80000b00
0x80000b00: f0 07 f7 93 andi	a5, a5, -256
è¯»å–åœ°å€ 0x80000b04
0x80000b04: 00 e7 e7 b3 or	a5, a5, a4
è¯»å–åœ°å€ 0x80000b08
å†™å…¥åœ°å€ 0x800032a8
0x80000b08: 00 f5 10 23 sh	a5, 0(a0)
è¯»å–åœ°å€ 0x80000b0c
è¯»å–åœ°å€ 0x80003288
0x80000b0c: 00 05 97 83 lh	a5, 0(a1)
è¯»å–åœ°å€ 0x80000b10
è¯»å–åœ°å€ 0x800032aa
0x80000b10: 00 25 15 03 lh	a0, 2(a0)
è¯»å–åœ°å€ 0x80000b14
0x80000b14: 01 07 97 13 slli	a4, a5, 16
è¯»å–åœ°å€ 0x80000b18
0x80000b18: 01 07 57 13 srli	a4, a4, 16
è¯»å–åœ°å€ 0x80000b1c
0x80000b1c: 00 87 57 13 srli	a4, a4, 8
è¯»å–åœ°å€ 0x80000b20
0x80000b20: f0 07 f7 93 andi	a5, a5, -256
è¯»å–åœ°å€ 0x80000b24
0x80000b24: 00 e7 e7 b3 or	a5, a5, a4
è¯»å–åœ°å€ 0x80000b28
å†™å…¥åœ°å€ 0x80003288
0x80000b28: 00 f5 90 23 sh	a5, 0(a1)
è¯»å–åœ°å€ 0x80000b2c
è¯»å–åœ°å€ 0x8000328a
0x80000b2c: 00 25 97 83 lh	a5, 2(a1)
è¯»å–åœ°å€ 0x80000b30
0x80000b30: 40 f5 05 33 sub	a0, a0, a5
è¯»å–åœ°å€ 0x80000b34
0x80000b34: 00 00 80 67 jalr	zero, 0(ra)
è¯»å–åœ°å€ 0x80000d54
0x80000d54: 04 a0 52 63 bge	zero, a0, 0x80000d98
è¯»å–åœ°å€ 0x80000d98
0x80000d98: 00 0a 07 93 addi	a5, s4, 0
è¯»å–åœ°å€ 0x80000d9c
0x80000d9c: ff f4 04 13 addi	s0, s0, -1
è¯»å–åœ°å€ 0x80000da0
è¯»å–åœ°å€ 0x800031e0
0x80000da0: 00 0a 2a 03 lw	s4, 0(s4)
è¯»å–åœ°å€ 0x80000da4
0x80000da4: fc 1f f0 6f jal	zero, 0x80000d64
è¯»å–åœ°å€ 0x80000d64
0x80000d64: 02 09 04 63 beq	s2, zero, 0x80000d8c
è¯»å–åœ°å€ 0x80000d68
å†™å…¥åœ°å€ 0x800031a8
0x80000d68: 00 f9 20 23 sw	a5, 0(s2)
è¯»å–åœ°å€ 0x80000d6c
0x80000d6c: 00 07 89 13 addi	s2, a5, 0
è¯»å–åœ°å€ 0x80000d70
0x80000d70: fc 04 16 e3 bne	s0, zero, 0x80000d3c
è¯»å–åœ°å€ 0x80000d3c
0x80000d3c: 04 09 8e 63 beq	s3, zero, 0x80000d98
è¯»å–åœ°å€ 0x80000d40
0x80000d40: 04 04 8c 63 beq	s1, zero, 0x80000d98
è¯»å–åœ°å€ 0x80000d44
è¯»å–åœ°å€ 0x800031a4
0x80000d44: 00 44 a5 83 lw	a1, 4(s1)
è¯»å–åœ°å€ 0x80000d48
è¯»å–åœ°å€ 0x800031dc
0x80000d48: 00 4a 25 03 lw	a0, 4(s4)
è¯»å–åœ°å€ 0x80000d4c
0x80000d4c: 00 0d 06 13 addi	a2, s10, 0
è¯»å–åœ°å€ 0x80000d50
0x80000d50: 00 0b 80 e7 jalr	ra, 0(s7)
è¯»å–åœ°å€ 0x80000adc
0x80000adc: 00 06 0a 63 beq	a2, zero, 0x80000af0
è¯»å–åœ°å€ 0x80000af0
è¯»å–åœ°å€ 0x800032a4
0x80000af0: 00 05 17 83 lh	a5, 0(a0)
è¯»å–åœ°å€ 0x80000af4
0x80000af4: 01 07 97 13 slli	a4, a5, 16
è¯»å–åœ°å€ 0x80000af8
0x80000af8: 01 07 57 13 srli	a4, a4, 16
è¯»å–åœ°å€ 0x80000afc
0x80000afc: 00 87 57 13 srli	a4, a4, 8
è¯»å–åœ°å€ 0x80000b00
0x80000b00: f0 07 f7 93 andi	a5, a5, -256
è¯»å–åœ°å€ 0x80000b04
0x80000b04: 00 e7 e7 b3 or	a5, a5, a4
è¯»å–åœ°å€ 0x80000b08
å†™å…¥åœ°å€ 0x800032a4
0x80000b08: 00 f5 10 23 sh	a5, 0(a0)
è¯»å–åœ°å€ 0x80000b0c
è¯»å–åœ°å€ 0x80003288
0x80000b0c: 00 05 97 83 lh	a5, 0(a1)
è¯»å–åœ°å€ 0x80000b10
è¯»å–åœ°å€ 0x800032a6
0x80000b10: 00 25 15 03 lh	a0, 2(a0)
è¯»å–åœ°å€ 0x80000b14
0x80000b14: 01 07 97 13 slli	a4, a5, 16
è¯»å–åœ°å€ 0x80000b18
0x80000b18: 01 07 57 13 srli	a4, a4, 16
è¯»å–åœ°å€ 0x80000b1c
0x80000b1c: 00 87 57 13 srli	a4, a4, 8
è¯»å–åœ°å€ 0x80000b20
0x80000b20: f0 07 f7 93 andi	a5, a5, -256
è¯»å–åœ°å€ 0x80000b24
0x80000b24: 00 e7 e7 b3 or	a5, a5, a4
è¯»å–åœ°å€ 0x80000b28
å†™å…¥åœ°å€ 0x80003288
0x80000b28: 00 f5 90 23 sh	a5, 0(a1)
è¯»å–åœ°å€ 0x80000b2c
è¯»å–åœ°å€ 0x8000328a
0x80000b2c: 00 25 97 83 lh	a5, 2(a1)
è¯»å–åœ°å€ 0x80000b30
0x80000b30: 40 f5 05 33 sub	a0, a0, a5
è¯»å–åœ°å€ 0x80000b34
0x80000b34: 00 00 80 67 jalr	zero, 0(ra)
è¯»å–åœ°å€ 0x80000d54
0x80000d54: 04 a0 52 63 bge	zero, a0, 0x80000d98
è¯»å–åœ°å€ 0x80000d58
0x80000d58: 00 04 87 93 addi	a5, s1, 0
è¯»å–åœ°å€ 0x80000d5c
è¯»å–åœ°å€ 0x800031a0
0x80000d5c: 00 04 a4 83 lw	s1, 0(s1)
è¯»å–åœ°å€ 0x80000d60
0x80000d60: ff f9 89 93 addi	s3, s3, -1
è¯»å–åœ°å€ 0x80000d64
0x80000d64: 02 09 04 63 beq	s2, zero, 0x80000d8c
è¯»å–åœ°å€ 0x80000d68
å†™å…¥åœ°å€ 0x800031e0
0x80000d68: 00 f9 20 23 sw	a5, 0(s2)
è¯»å–åœ°å€ 0x80000d6c
0x80000d6c: 00 07 89 13 addi	s2, a5, 0
è¯»å–åœ°å€ 0x80000d70
0x80000d70: fc 04 16 e3 bne	s0, zero, 0x80000d3c
è¯»å–åœ°å€ 0x80000d3c
0x80000d3c: 04 09 8e 63 beq	s3, zero, 0x80000d98
è¯»å–åœ°å€ 0x80000d40
0x80000d40: 04 04 8c 63 beq	s1, zero, 0x80000d98
è¯»å–åœ°å€ 0x80000d44
è¯»å–åœ°å€ 0x8000319c
0x80000d44: 00 44 a5 83 lw	a1, 4(s1)
è¯»å–åœ°å€ 0x80000d48
è¯»å–åœ°å€ 0x800031dc
0x80000d48: 00 4a 25 03 lw	a0, 4(s4)
è¯»å–åœ°å€ 0x80000d4c
0x80000d4c: 00 0d 06 13 addi	a2, s10, 0
è¯»å–åœ°å€ 0x80000d50
0x80000d50: 00 0b 80 e7 jalr	ra, 0(s7)
è¯»å–åœ°å€ 0x80000adc
0x80000adc: 00 06 0a 63 beq	a2, zero, 0x80000af0
è¯»å–åœ°å€ 0x80000af0
è¯»å–åœ°å€ 0x800032a4
0x80000af0: 00 05 17 83 lh	a5, 0(a0)
è¯»å–åœ°å€ 0x80000af4
0x80000af4: 01 07 97 13 slli	a4, a5, 16
è¯»å–åœ°å€ 0x80000af8
0x80000af8: 01 07 57 13 srli	a4, a4, 16
è¯»å–åœ°å€ 0x80000afc
0x80000afc: 00 87 57 13 srli	a4, a4, 8
è¯»å–åœ°å€ 0x80000b00
0x80000b00: f0 07 f7 93 andi	a5, a5, -256
è¯»å–åœ°å€ 0x80000b04
0x80000b04: 00 e7 e7 b3 or	a5, a5, a4
è¯»å–åœ°å€ 0x80000b08
å†™å…¥åœ°å€ 0x800032a4
0x80000b08: 00 f5 10 23 sh	a5, 0(a0)
è¯»å–åœ°å€ 0x80000b0c
è¯»å–åœ°å€ 0x80003284
0x80000b0c: 00 05 97 83 lh	a5, 0(a1)
è¯»å–åœ°å€ 0x80000b10
è¯»å–åœ°å€ 0x800032a6
0x80000b10: 00 25 15 03 lh	a0, 2(a0)
è¯»å–åœ°å€ 0x80000b14
0x80000b14: 01 07 97 13 slli	a4, a5, 16
è¯»å–åœ°å€ 0x80000b18
0x80000b18: 01 07 57 13 srli	a4, a4, 16
è¯»å–åœ°å€ 0x80000b1c
0x80000b1c: 00 87 57 13 srli	a4, a4, 8
è¯»å–åœ°å€ 0x80000b20
0x80000b20: f0 07 f7 93 andi	a5, a5, -256
è¯»å–åœ°å€ 0x80000b24
0x80000b24: 00 e7 e7 b3 or	a5, a5, a4
è¯»å–åœ°å€ 0x80000b28
å†™å…¥åœ°å€ 0x80003284
0x80000b28: 00 f5 90 23 sh	a5, 0(a1)
è¯»å–åœ°å€ 0x80000b2c
è¯»å–åœ°å€ 0x80003286
0x80000b2c: 00 25 97 83 lh	a5, 2(a1)
è¯»å–åœ°å€ 0x80000b30
0x80000b30: 40 f5 05 33 sub	a0, a0, a5
è¯»å–åœ°å€ 0x80000b34
0x80000b34: 00 00 80 67 jalr	zero, 0(ra)
è¯»å–åœ°å€ 0x80000d54
0x80000d54: 04 a0 52 63 bge	zero, a0, 0x80000d98
è¯»å–åœ°å€ 0x80000d98
0x80000d98: 00 0a 07 93 addi	a5, s4, 0
è¯»å–åœ°å€ 0x80000d9c
0x80000d9c: ff f4 04 13 addi	s0, s0, -1
è¯»å–åœ°å€ 0x80000da0
è¯»å–åœ°å€ 0x800031d8
0x80000da0: 00 0a 2a 03 lw	s4, 0(s4)
è¯»å–åœ°å€ 0x80000da4
0x80000da4: fc 1f f0 6f jal	zero, 0x80000d64
è¯»å–åœ°å€ 0x80000d64
0x80000d64: 02 09 04 63 beq	s2, zero, 0x80000d8c
è¯»å–åœ°å€ 0x80000d68
å†™å…¥åœ°å€ 0x800031a0
0x80000d68: 00 f9 20 23 sw	a5, 0(s2)
è¯»å–åœ°å€ 0x80000d6c
0x80000d6c: 00 07 89 13 addi	s2, a5, 0
è¯»å–åœ°å€ 0x80000d70
0x80000d70: fc 04 16 e3 bne	s0, zero, 0x80000d3c
è¯»å–åœ°å€ 0x80000d3c
0x80000d3c: 04 09 8e 63 beq	s3, zero, 0x80000d98
è¯»å–åœ°å€ 0x80000d40
0x80000d40: 04 04 8c 63 beq	s1, zero, 0x80000d98
è¯»å–åœ°å€ 0x80000d44
è¯»å–åœ°å€ 0x8000319c
0x80000d44: 00 44 a5 83 lw	a1, 4(s1)
è¯»å–åœ°å€ 0x80000d48
è¯»å–åœ°å€ 0x800031d4
0x80000d48: 00 4a 25 03 lw	a0, 4(s4)
è¯»å–åœ°å€ 0x80000d4c
0x80000d4c: 00 0d 06 13 addi	a2, s10, 0
è¯»å–åœ°å€ 0x80000d50
0x80000d50: 00 0b 80 e7 jalr	ra, 0(s7)
è¯»å–åœ°å€ 0x80000adc
0x80000adc: 00 06 0a 63 beq	a2, zero, 0x80000af0
è¯»å–åœ°å€ 0x80000af0
è¯»å–åœ°å€ 0x800032a0
0x80000af0: 00 05 17 83 lh	a5, 0(a0)
è¯»å–åœ°å€ 0x80000af4
0x80000af4: 01 07 97 13 slli	a4, a5, 16
è¯»å–åœ°å€ 0x80000af8
0x80000af8: 01 07 57 13 srli	a4, a4, 16
è¯»å–åœ°å€ 0x80000afc
0x80000afc: 00 87 57 13 srli	a4, a4, 8
è¯»å–åœ°å€ 0x80000b00
0x80000b00: f0 07 f7 93 andi	a5, a5, -256
è¯»å–åœ°å€ 0x80000b04
0x80000b04: 00 e7 e7 b3 or	a5, a5, a4
è¯»å–åœ°å€ 0x80000b08
å†™å…¥åœ°å€ 0x800032a0
0x80000b08: 00 f5 10 23 sh	a5, 0(a0)
è¯»å–åœ°å€ 0x80000b0c
è¯»å–åœ°å€ 0x80003284
0x80000b0c: 00 05 97 83 lh	a5, 0(a1)
è¯»å–åœ°å€ 0x80000b10
è¯»å–åœ°å€ 0x800032a2
0x80000b10: 00 25 15 03 lh	a0, 2(a0)
è¯»å–åœ°å€ 0x80000b14
0x80000b14: 01 07 97 13 slli	a4, a5, 16
è¯»å–åœ°å€ 0x80000b18
0x80000b18: 01 07 57 13 srli	a4, a4, 16
è¯»å–åœ°å€ 0x80000b1c
0x80000b1c: 00 87 57 13 srli	a4, a4, 8
è¯»å–åœ°å€ 0x80000b20
0x80000b20: f0 07 f7 93 andi	a5, a5, -256
è¯»å–åœ°å€ 0x80000b24
0x80000b24: 00 e7 e7 b3 or	a5, a5, a4
è¯»å–åœ°å€ 0x80000b28
å†™å…¥åœ°å€ 0x80003284
0x80000b28: 00 f5 90 23 sh	a5, 0(a1)
è¯»å–åœ°å€ 0x80000b2c
è¯»å–åœ°å€ 0x80003286
0x80000b2c: 00 25 97 83 lh	a5, 2(a1)
è¯»å–åœ°å€ 0x80000b30
0x80000b30: 40 f5 05 33 sub	a0, a0, a5
è¯»å–åœ°å€ 0x80000b34
0x80000b34: 00 00 80 67 jalr	zero, 0(ra)
è¯»å–åœ°å€ 0x80000d54
0x80000d54: 04 a0 52 63 bge	zero, a0, 0x80000d98
è¯»å–åœ°å€ 0x80000d58
0x80000d58: 00 04 87 93 addi	a5, s1, 0
è¯»å–åœ°å€ 0x80000d5c
è¯»å–åœ°å€ 0x80003198
0x80000d5c: 00 04 a4 83 lw	s1, 0(s1)
è¯»å–åœ°å€ 0x80000d60
0x80000d60: ff f9 89 93 addi	s3, s3, -1
è¯»å–åœ°å€ 0x80000d64
0x80000d64: 02 09 04 63 beq	s2, zero, 0x80000d8c
è¯»å–åœ°å€ 0x80000d68
å†™å…¥åœ°å€ 0x800031d8
0x80000d68: 00 f9 20 23 sw	a5, 0(s2)
è¯»å–åœ°å€ 0x80000d6c
0x80000d6c: 00 07 89 13 addi	s2, a5, 0
è¯»å–åœ°å€ 0x80000d70
0x80000d70: fc 04 16 e3 bne	s0, zero, 0x80000d3c
è¯»å–åœ°å€ 0x80000d3c
0x80000d3c: 04 09 8e 63 beq	s3, zero, 0x80000d98
è¯»å–åœ°å€ 0x80000d40
0x80000d40: 04 04 8c 63 beq	s1, zero, 0x80000d98
è¯»å–åœ°å€ 0x80000d44
è¯»å–åœ°å€ 0x80003194
0x80000d44: 00 44 a5 83 lw	a1, 4(s1)
è¯»å–åœ°å€ 0x80000d48
è¯»å–åœ°å€ 0x800031d4
0x80000d48: 00 4a 25 03 lw	a0, 4(s4)
è¯»å–åœ°å€ 0x80000d4c
0x80000d4c: 00 0d 06 13 addi	a2, s10, 0
è¯»å–åœ°å€ 0x80000d50
0x80000d50: 00 0b 80 e7 jalr	ra, 0(s7)
è¯»å–åœ°å€ 0x80000adc
0x80000adc: 00 06 0a 63 beq	a2, zero, 0x80000af0
è¯»å–åœ°å€ 0x80000af0
è¯»å–åœ°å€ 0x800032a0
0x80000af0: 00 05 17 83 lh	a5, 0(a0)
è¯»å–åœ°å€ 0x80000af4
0x80000af4: 01 07 97 13 slli	a4, a5, 16
è¯»å–åœ°å€ 0x80000af8
0x80000af8: 01 07 57 13 srli	a4, a4, 16
è¯»å–åœ°å€ 0x80000afc
0x80000afc: 00 87 57 13 srli	a4, a4, 8
è¯»å–åœ°å€ 0x80000b00
0x80000b00: f0 07 f7 93 andi	a5, a5, -256
è¯»å–åœ°å€ 0x80000b04
0x80000b04: 00 e7 e7 b3 or	a5, a5, a4
è¯»å–åœ°å€ 0x80000b08
å†™å…¥åœ°å€ 0x800032a0
0x80000b08: 00 f5 10 23 sh	a5, 0(a0)
è¯»å–åœ°å€ 0x80000b0c
è¯»å–åœ°å€ 0x80003280
0x80000b0c: 00 05 97 83 lh	a5, 0(a1)
è¯»å–åœ°å€ 0x80000b10
è¯»å–åœ°å€ 0x800032a2
0x80000b10: 00 25 15 03 lh	a0, 2(a0)
è¯»å–åœ°å€ 0x80000b14
0x80000b14: 01 07 97 13 slli	a4, a5, 16
è¯»å–åœ°å€ 0x80000b18
0x80000b18: 01 07 57 13 srli	a4, a4, 16
è¯»å–åœ°å€ 0x80000b1c
0x80000b1c: 00 87 57 13 srli	a4, a4, 8
è¯»å–åœ°å€ 0x80000b20
0x80000b20: f0 07 f7 93 andi	a5, a5, -256
è¯»å–åœ°å€ 0x80000b24
0x80000b24: 00 e7 e7 b3 or	a5, a5, a4
è¯»å–åœ°å€ 0x80000b28
å†™å…¥åœ°å€ 0x80003280
0x80000b28: 00 f5 90 23 sh	a5, 0(a1)
è¯»å–åœ°å€ 0x80000b2c
è¯»å–åœ°å€ 0x80003282
0x80000b2c: 00 25 97 83 lh	a5, 2(a1)
è¯»å–åœ°å€ 0x80000b30
0x80000b30: 40 f5 05 33 sub	a0, a0, a5
è¯»å–åœ°å€ 0x80000b34
0x80000b34: 00 00 80 67 jalr	zero, 0(ra)
è¯»å–åœ°å€ 0x80000d54
0x80000d54: 04 a0 52 63 bge	zero, a0, 0x80000d98
è¯»å–åœ°å€ 0x80000d98
0x80000d98: 00 0a 07 93 addi	a5, s4, 0
è¯»å–åœ°å€ 0x80000d9c
0x80000d9c: ff f4 04 13 addi	s0, s0, -1
è¯»å–åœ°å€ 0x80000da0
è¯»å–åœ°å€ 0x800031d0
0x80000da0: 00 0a 2a 03 lw	s4, 0(s4)
è¯»å–åœ°å€ 0x80000da4
0x80000da4: fc 1f f0 6f jal	zero, 0x80000d64
è¯»å–åœ°å€ 0x80000d64
0x80000d64: 02 09 04 63 beq	s2, zero, 0x80000d8c
è¯»å–åœ°å€ 0x80000d68
å†™å…¥åœ°å€ 0x80003198
0x80000d68: 00 f9 20 23 sw	a5, 0(s2)
è¯»å–åœ°å€ 0x80000d6c
0x80000d6c: 00 07 89 13 addi	s2, a5, 0
è¯»å–åœ°å€ 0x80000d70
0x80000d70: fc 04 16 e3 bne	s0, zero, 0x80000d3c
è¯»å–åœ°å€ 0x80000d3c
0x80000d3c: 04 09 8e 63 beq	s3, zero, 0x80000d98
è¯»å–åœ°å€ 0x80000d40
0x80000d40: 04 04 8c 63 beq	s1, zero, 0x80000d98
è¯»å–åœ°å€ 0x80000d44
è¯»å–åœ°å€ 0x80003194
0x80000d44: 00 44 a5 83 lw	a1, 4(s1)
è¯»å–åœ°å€ 0x80000d48
è¯»å–åœ°å€ 0x800031cc
0x80000d48: 00 4a 25 03 lw	a0, 4(s4)
è¯»å–åœ°å€ 0x80000d4c
0x80000d4c: 00 0d 06 13 addi	a2, s10, 0
è¯»å–åœ°å€ 0x80000d50
0x80000d50: 00 0b 80 e7 jalr	ra, 0(s7)
è¯»å–åœ°å€ 0x80000adc
0x80000adc: 00 06 0a 63 beq	a2, zero, 0x80000af0
è¯»å–åœ°å€ 0x80000af0
è¯»å–åœ°å€ 0x8000329c
0x80000af0: 00 05 17 83 lh	a5, 0(a0)
è¯»å–åœ°å€ 0x80000af4
0x80000af4: 01 07 97 13 slli	a4, a5, 16
è¯»å–åœ°å€ 0x80000af8
0x80000af8: 01 07 57 13 srli	a4, a4, 16
è¯»å–åœ°å€ 0x80000afc
0x80000afc: 00 87 57 13 srli	a4, a4, 8
è¯»å–åœ°å€ 0x80000b00
0x80000b00: f0 07 f7 93 andi	a5, a5, -256
è¯»å–åœ°å€ 0x80000b04
0x80000b04: 00 e7 e7 b3 or	a5, a5, a4
è¯»å–åœ°å€ 0x80000b08
å†™å…¥åœ°å€ 0x8000329c
0x80000b08: 00 f5 10 23 sh	a5, 0(a0)
è¯»å–åœ°å€ 0x80000b0c
è¯»å–åœ°å€ 0x80003280
0x80000b0c: 00 05 97 83 lh	a5, 0(a1)
è¯»å–åœ°å€ 0x80000b10
è¯»å–åœ°å€ 0x8000329e
0x80000b10: 00 25 15 03 lh	a0, 2(a0)
è¯»å–åœ°å€ 0x80000b14
0x80000b14: 01 07 97 13 slli	a4, a5, 16
è¯»å–åœ°å€ 0x80000b18
0x80000b18: 01 07 57 13 srli	a4, a4, 16
è¯»å–åœ°å€ 0x80000b1c
0x80000b1c: 00 87 57 13 srli	a4, a4, 8
è¯»å–åœ°å€ 0x80000b20
0x80000b20: f0 07 f7 93 andi	a5, a5, -256
è¯»å–åœ°å€ 0x80000b24
0x80000b24: 00 e7 e7 b3 or	a5, a5, a4
è¯»å–åœ°å€ 0x80000b28
å†™å…¥åœ°å€ 0x80003280
0x80000b28: 00 f5 90 23 sh	a5, 0(a1)
è¯»å–åœ°å€ 0x80000b2c
è¯»å–åœ°å€ 0x80003282
0x80000b2c: 00 25 97 83 lh	a5, 2(a1)
è¯»å–åœ°å€ 0x80000b30
0x80000b30: 40 f5 05 33 sub	a0, a0, a5
è¯»å–åœ°å€ 0x80000b34
0x80000b34: 00 00 80 67 jalr	zero, 0(ra)
è¯»å–åœ°å€ 0x80000d54
0x80000d54: 04 a0 52 63 bge	zero, a0, 0x80000d98
è¯»å–åœ°å€ 0x80000d58
0x80000d58: 00 04 87 93 addi	a5, s1, 0
è¯»å–åœ°å€ 0x80000d5c
è¯»å–åœ°å€ 0x80003190
0x80000d5c: 00 04 a4 83 lw	s1, 0(s1)
è¯»å–åœ°å€ 0x80000d60
0x80000d60: ff f9 89 93 addi	s3, s3, -1
è¯»å–åœ°å€ 0x80000d64
0x80000d64: 02 09 04 63 beq	s2, zero, 0x80000d8c
è¯»å–åœ°å€ 0x80000d68
å†™å…¥åœ°å€ 0x800031d0
0x80000d68: 00 f9 20 23 sw	a5, 0(s2)
è¯»å–åœ°å€ 0x80000d6c
0x80000d6c: 00 07 89 13 addi	s2, a5, 0
è¯»å–åœ°å€ 0x80000d70
0x80000d70: fc 04 16 e3 bne	s0, zero, 0x80000d3c
è¯»å–åœ°å€ 0x80000d3c
0x80000d3c: 04 09 8e 63 beq	s3, zero, 0x80000d98
è¯»å–åœ°å€ 0x80000d40
0x80000d40: 04 04 8c 63 beq	s1, zero, 0x80000d98
è¯»å–åœ°å€ 0x80000d44
è¯»å–åœ°å€ 0x8000318c
0x80000d44: 00 44 a5 83 lw	a1, 4(s1)
è¯»å–åœ°å€ 0x80000d48
è¯»å–åœ°å€ 0x800031cc
0x80000d48: 00 4a 25 03 lw	a0, 4(s4)
è¯»å–åœ°å€ 0x80000d4c
0x80000d4c: 00 0d 06 13 addi	a2, s10, 0
è¯»å–åœ°å€ 0x80000d50
0x80000d50: 00 0b 80 e7 jalr	ra, 0(s7)
è¯»å–åœ°å€ 0x80000adc
0x80000adc: 00 06 0a 63 beq	a2, zero, 0x80000af0
è¯»å–åœ°å€ 0x80000af0
è¯»å–åœ°å€ 0x8000329c
0x80000af0: 00 05 17 83 lh	a5, 0(a0)
è¯»å–åœ°å€ 0x80000af4
0x80000af4: 01 07 97 13 slli	a4, a5, 16
è¯»å–åœ°å€ 0x80000af8
0x80000af8: 01 07 57 13 srli	a4, a4, 16
è¯»å–åœ°å€ 0x80000afc
0x80000afc: 00 87 57 13 srli	a4, a4, 8
è¯»å–åœ°å€ 0x80000b00
0x80000b00: f0 07 f7 93 andi	a5, a5, -256
è¯»å–åœ°å€ 0x80000b04
0x80000b04: 00 e7 e7 b3 or	a5, a5, a4
è¯»å–åœ°å€ 0x80000b08
å†™å…¥åœ°å€ 0x8000329c
0x80000b08: 00 f5 10 23 sh	a5, 0(a0)
è¯»å–åœ°å€ 0x80000b0c
è¯»å–åœ°å€ 0x8000327c
0x80000b0c: 00 05 97 83 lh	a5, 0(a1)
è¯»å–åœ°å€ 0x80000b10
è¯»å–åœ°å€ 0x8000329e
0x80000b10: 00 25 15 03 lh	a0, 2(a0)
è¯»å–åœ°å€ 0x80000b14
0x80000b14: 01 07 97 13 slli	a4, a5, 16
è¯»å–åœ°å€ 0x80000b18
0x80000b18: 01 07 57 13 srli	a4, a4, 16
è¯»å–åœ°å€ 0x80000b1c
0x80000b1c: 00 87 57 13 srli	a4, a4, 8
è¯»å–åœ°å€ 0x80000b20
0x80000b20: f0 07 f7 93 andi	a5, a5, -256
è¯»å–åœ°å€ 0x80000b24
0x80000b24: 00 e7 e7 b3 or	a5, a5, a4
è¯»å–åœ°å€ 0x80000b28
å†™å…¥åœ°å€ 0x8000327c
0x80000b28: 00 f5 90 23 sh	a5, 0(a1)
è¯»å–åœ°å€ 0x80000b2c
è¯»å–åœ°å€ 0x8000327e
0x80000b2c: 00 25 97 83 lh	a5, 2(a1)
è¯»å–åœ°å€ 0x80000b30
0x80000b30: 40 f5 05 33 sub	a0, a0, a5
è¯»å–åœ°å€ 0x80000b34
0x80000b34: 00 00 80 67 jalr	zero, 0(ra)
è¯»å–åœ°å€ 0x80000d54
0x80000d54: 04 a0 52 63 bge	zero, a0, 0x80000d98
è¯»å–åœ°å€ 0x80000d98
0x80000d98: 00 0a 07 93 addi	a5, s4, 0
è¯»å–åœ°å€ 0x80000d9c
0x80000d9c: ff f4 04 13 addi	s0, s0, -1
è¯»å–åœ°å€ 0x80000da0
è¯»å–åœ°å€ 0x800031c8
0x80000da0: 00 0a 2a 03 lw	s4, 0(s4)
è¯»å–åœ°å€ 0x80000da4
0x80000da4: fc 1f f0 6f jal	zero, 0x80000d64
è¯»å–åœ°å€ 0x80000d64
0x80000d64: 02 09 04 63 beq	s2, zero, 0x80000d8c
è¯»å–åœ°å€ 0x80000d68
å†™å…¥åœ°å€ 0x80003190
0x80000d68: 00 f9 20 23 sw	a5, 0(s2)
è¯»å–åœ°å€ 0x80000d6c
0x80000d6c: 00 07 89 13 addi	s2, a5, 0
è¯»å–åœ°å€ 0x80000d70
0x80000d70: fc 04 16 e3 bne	s0, zero, 0x80000d3c
è¯»å–åœ°å€ 0x80000d3c
0x80000d3c: 04 09 8e 63 beq	s3, zero, 0x80000d98
è¯»å–åœ°å€ 0x80000d40
0x80000d40: 04 04 8c 63 beq	s1, zero, 0x80000d98
è¯»å–åœ°å€ 0x80000d44
è¯»å–åœ°å€ 0x8000318c
0x80000d44: 00 44 a5 83 lw	a1, 4(s1)
è¯»å–åœ°å€ 0x80000d48
è¯»å–åœ°å€ 0x800031c4
0x80000d48: 00 4a 25 03 lw	a0, 4(s4)
è¯»å–åœ°å€ 0x80000d4c
0x80000d4c: 00 0d 06 13 addi	a2, s10, 0
è¯»å–åœ°å€ 0x80000d50
0x80000d50: 00 0b 80 e7 jalr	ra, 0(s7)
è¯»å–åœ°å€ 0x80000adc
0x80000adc: 00 06 0a 63 beq	a2, zero, 0x80000af0
è¯»å–åœ°å€ 0x80000af0
è¯»å–åœ°å€ 0x80003298
0x80000af0: 00 05 17 83 lh	a5, 0(a0)
è¯»å–åœ°å€ 0x80000af4
0x80000af4: 01 07 97 13 slli	a4, a5, 16
è¯»å–åœ°å€ 0x80000af8
0x80000af8: 01 07 57 13 srli	a4, a4, 16
è¯»å–åœ°å€ 0x80000afc
0x80000afc: 00 87 57 13 srli	a4, a4, 8
è¯»å–åœ°å€ 0x80000b00
0x80000b00: f0 07 f7 93 andi	a5, a5, -256
è¯»å–åœ°å€ 0x80000b04
0x80000b04: 00 e7 e7 b3 or	a5, a5, a4
è¯»å–åœ°å€ 0x80000b08
å†™å…¥åœ°å€ 0x80003298
0x80000b08: 00 f5 10 23 sh	a5, 0(a0)
è¯»å–åœ°å€ 0x80000b0c
è¯»å–åœ°å€ 0x8000327c
0x80000b0c: 00 05 97 83 lh	a5, 0(a1)
è¯»å–åœ°å€ 0x80000b10
è¯»å–åœ°å€ 0x8000329a
0x80000b10: 00 25 15 03 lh	a0, 2(a0)
è¯»å–åœ°å€ 0x80000b14
0x80000b14: 01 07 97 13 slli	a4, a5, 16
è¯»å–åœ°å€ 0x80000b18
0x80000b18: 01 07 57 13 srli	a4, a4, 16
è¯»å–åœ°å€ 0x80000b1c
0x80000b1c: 00 87 57 13 srli	a4, a4, 8
è¯»å–åœ°å€ 0x80000b20
0x80000b20: f0 07 f7 93 andi	a5, a5, -256
è¯»å–åœ°å€ 0x80000b24
0x80000b24: 00 e7 e7 b3 or	a5, a5, a4
è¯»å–åœ°å€ 0x80000b28
å†™å…¥åœ°å€ 0x8000327c
0x80000b28: 00 f5 90 23 sh	a5, 0(a1)
è¯»å–åœ°å€ 0x80000b2c
è¯»å–åœ°å€ 0x8000327e
0x80000b2c: 00 25 97 83 lh	a5, 2(a1)
è¯»å–åœ°å€ 0x80000b30
0x80000b30: 40 f5 05 33 sub	a0, a0, a5
è¯»å–åœ°å€ 0x80000b34
0x80000b34: 00 00 80 67 jalr	zero, 0(ra)
è¯»å–åœ°å€ 0x80000d54
0x80000d54: 04 a0 52 63 bge	zero, a0, 0x80000d98
è¯»å–åœ°å€ 0x80000d98
0x80000d98: 00 0a 07 93 addi	a5, s4, 0
è¯»å–åœ°å€ 0x80000d9c
0x80000d9c: ff f4 04 13 addi	s0, s0, -1
è¯»å–åœ°å€ 0x80000da0
è¯»å–åœ°å€ 0x800031c0
0x80000da0: 00 0a 2a 03 lw	s4, 0(s4)
è¯»å–åœ°å€ 0x80000da4
0x80000da4: fc 1f f0 6f jal	zero, 0x80000d64
è¯»å–åœ°å€ 0x80000d64
0x80000d64: 02 09 04 63 beq	s2, zero, 0x80000d8c
è¯»å–åœ°å€ 0x80000d68
å†™å…¥åœ°å€ 0x800031c8
0x80000d68: 00 f9 20 23 sw	a5, 0(s2)
è¯»å–åœ°å€ 0x80000d6c
0x80000d6c: 00 07 89 13 addi	s2, a5, 0
è¯»å–åœ°å€ 0x80000d70
0x80000d70: fc 04 16 e3 bne	s0, zero, 0x80000d3c
è¯»å–åœ°å€ 0x80000d74
0x80000d74: 02 09 8a 63 beq	s3, zero, 0x80000da8
è¯»å–åœ°å€ 0x80000d78
0x80000d78: 02 04 8a 63 beq	s1, zero, 0x80000dac
è¯»å–åœ°å€ 0x80000d7c
0x80000d7c: 00 04 87 93 addi	a5, s1, 0
è¯»å–åœ°å€ 0x80000d80
0x80000d80: ff f9 89 93 addi	s3, s3, -1
è¯»å–åœ°å€ 0x80000d84
è¯»å–åœ°å€ 0x80003188
0x80000d84: 00 04 a4 83 lw	s1, 0(s1)
è¯»å–åœ°å€ 0x80000d88
0x80000d88: fe 09 10 e3 bne	s2, zero, 0x80000d68
è¯»å–åœ°å€ 0x80000d68
å†™å…¥åœ°å€ 0x800031c0
0x80000d68: 00 f9 20 23 sw	a5, 0(s2)
è¯»å–åœ°å€ 0x80000d6c
0x80000d6c: 00 07 89 13 addi	s2, a5, 0
è¯»å–åœ°å€ 0x80000d70
0x80000d70: fc 04 16 e3 bne	s0, zero, 0x80000d3c
è¯»å–åœ°å€ 0x80000d74
0x80000d74: 02 09 8a 63 beq	s3, zero, 0x80000da8
è¯»å–åœ°å€ 0x80000d78
0x80000d78: 02 04 8a 63 beq	s1, zero, 0x80000dac
è¯»å–åœ°å€ 0x80000dac
å†™å…¥åœ°å€ 0x80003188
0x80000dac: 00 09 20 23 sw	zero, 0(s2)
è¯»å–åœ°å€ 0x80000db0
0x80000db0: 01 9c 0c 63 beq	s8, s9, 0x80000dc8
è¯»å–åœ°å€ 0x80000db4
0x80000db4: 00 1a 9a 93 slli	s5, s5, 1
è¯»å–åœ°å€ 0x80000db8
0x80000db8: 00 0b 04 93 addi	s1, s6, 0
è¯»å–åœ°å€ 0x80000dbc
0x80000dbc: f4 5f f0 6f jal	zero, 0x80000d00
è¯»å–åœ°å€ 0x80000d00
0x80000d00: 0c 04 80 63 beq	s1, zero, 0x80000dc0
è¯»å–åœ°å€ 0x80000d04
0x80000d04: 00 00 0c 13 addi	s8, zero, 0
è¯»å–åœ°å€ 0x80000d08
0x80000d08: 00 00 09 13 addi	s2, zero, 0
è¯»å–åœ°å€ 0x80000d0c
0x80000d0c: 00 00 0b 13 addi	s6, zero, 0
è¯»å–åœ°å€ 0x80000d10
0x80000d10: 00 1c 0c 13 addi	s8, s8, 1
è¯»å–åœ°å€ 0x80000d14
0x80000d14: 00 04 87 93 addi	a5, s1, 0
è¯»å–åœ°å€ 0x80000d18
0x80000d18: 00 00 04 13 addi	s0, zero, 0
è¯»å–åœ°å€ 0x80000d1c
è¯»å–åœ°å€ 0x80003180
0x80000d1c: 00 07 a7 83 lw	a5, 0(a5)
è¯»å–åœ°å€ 0x80000d20
0x80000d20: 00 14 04 13 addi	s0, s0, 1
è¯»å–åœ°å€ 0x80000d24
0x80000d24: 00 07 84 63 beq	a5, zero, 0x80000d2c
è¯»å–åœ°å€ 0x80000d28
0x80000d28: fe 8a 9a e3 bne	s5, s0, 0x80000d1c
è¯»å–åœ°å€ 0x80000d1c
è¯»å–åœ°å€ 0x80003268
0x80000d1c: 00 07 a7 83 lw	a5, 0(a5)
è¯»å–åœ°å€ 0x80000d20
0x80000d20: 00 14 04 13 addi	s0, s0, 1
è¯»å–åœ°å€ 0x80000d24
0x80000d24: 00 07 84 63 beq	a5, zero, 0x80000d2c
è¯»å–åœ°å€ 0x80000d28
0x80000d28: fe 8a 9a e3 bne	s5, s0, 0x80000d1c
è¯»å–åœ°å€ 0x80000d1c
è¯»å–åœ°å€ 0x80003260
0x80000d1c: 00 07 a7 83 lw	a5, 0(a5)
è¯»å–åœ°å€ 0x80000d20
0x80000d20: 00 14 04 13 addi	s0, s0, 1
è¯»å–åœ°å€ 0x80000d24
0x80000d24: 00 07 84 63 beq	a5, zero, 0x80000d2c
è¯»å–åœ°å€ 0x80000d28
0x80000d28: fe 8a 9a e3 bne	s5, s0, 0x80000d1c
è¯»å–åœ°å€ 0x80000d1c
è¯»å–åœ°å€ 0x80003258
0x80000d1c: 00 07 a7 83 lw	a5, 0(a5)
è¯»å–åœ°å€ 0x80000d20
0x80000d20: 00 14 04 13 addi	s0, s0, 1
è¯»å–åœ°å€ 0x80000d24
0x80000d24: 00 07 84 63 beq	a5, zero, 0x80000d2c
è¯»å–åœ°å€ 0x80000d28
0x80000d28: fe 8a 9a e3 bne	s5, s0, 0x80000d1c
è¯»å–åœ°å€ 0x80000d1c
è¯»å–åœ°å€ 0x80003250
0x80000d1c: 00 07 a7 83 lw	a5, 0(a5)
è¯»å–åœ°å€ 0x80000d20
0x80000d20: 00 14 04 13 addi	s0, s0, 1
è¯»å–åœ°å€ 0x80000d24
0x80000d24: 00 07 84 63 beq	a5, zero, 0x80000d2c
è¯»å–åœ°å€ 0x80000d28
0x80000d28: fe 8a 9a e3 bne	s5, s0, 0x80000d1c
è¯»å–åœ°å€ 0x80000d1c
è¯»å–åœ°å€ 0x80003248
0x80000d1c: 00 07 a7 83 lw	a5, 0(a5)
è¯»å–åœ°å€ 0x80000d20
0x80000d20: 00 14 04 13 addi	s0, s0, 1
è¯»å–åœ°å€ 0x80000d24
0x80000d24: 00 07 84 63 beq	a5, zero, 0x80000d2c
è¯»å–åœ°å€ 0x80000d28
0x80000d28: fe 8a 9a e3 bne	s5, s0, 0x80000d1c
è¯»å–åœ°å€ 0x80000d1c
è¯»å–åœ°å€ 0x80003238
0x80000d1c: 00 07 a7 83 lw	a5, 0(a5)
è¯»å–åœ°å€ 0x80000d20
0x80000d20: 00 14 04 13 addi	s0, s0, 1
è¯»å–åœ°å€ 0x80000d24
0x80000d24: 00 07 84 63 beq	a5, zero, 0x80000d2c
è¯»å–åœ°å€ 0x80000d28
0x80000d28: fe 8a 9a e3 bne	s5, s0, 0x80000d1c
è¯»å–åœ°å€ 0x80000d1c
è¯»å–åœ°å€ 0x800031f8
0x80000d1c: 00 07 a7 83 lw	a5, 0(a5)
è¯»å–åœ°å€ 0x80000d20
0x80000d20: 00 14 04 13 addi	s0, s0, 1
è¯»å–åœ°å€ 0x80000d24
0x80000d24: 00 07 84 63 beq	a5, zero, 0x80000d2c
è¯»å–åœ°å€ 0x80000d28
0x80000d28: fe 8a 9a e3 bne	s5, s0, 0x80000d1c
è¯»å–åœ°å€ 0x80000d1c
è¯»å–åœ°å€ 0x80003230
0x80000d1c: 00 07 a7 83 lw	a5, 0(a5)
è¯»å–åœ°å€ 0x80000d20
0x80000d20: 00 14 04 13 addi	s0, s0, 1
è¯»å–åœ°å€ 0x80000d24
0x80000d24: 00 07 84 63 beq	a5, zero, 0x80000d2c
è¯»å–åœ°å€ 0x80000d28
0x80000d28: fe 8a 9a e3 bne	s5, s0, 0x80000d1c
è¯»å–åœ°å€ 0x80000d1c
è¯»å–åœ°å€ 0x80003228
0x80000d1c: 00 07 a7 83 lw	a5, 0(a5)
è¯»å–åœ°å€ 0x80000d20
0x80000d20: 00 14 04 13 addi	s0, s0, 1
è¯»å–åœ°å€ 0x80000d24
0x80000d24: 00 07 84 63 beq	a5, zero, 0x80000d2c
è¯»å–åœ°å€ 0x80000d28
0x80000d28: fe 8a 9a e3 bne	s5, s0, 0x80000d1c
è¯»å–åœ°å€ 0x80000d1c
è¯»å–åœ°å€ 0x80003220
0x80000d1c: 00 07 a7 83 lw	a5, 0(a5)
è¯»å–åœ°å€ 0x80000d20
0x80000d20: 00 14 04 13 addi	s0, s0, 1
è¯»å–åœ°å€ 0x80000d24
0x80000d24: 00 07 84 63 beq	a5, zero, 0x80000d2c
è¯»å–åœ°å€ 0x80000d28
0x80000d28: fe 8a 9a e3 bne	s5, s0, 0x80000d1c
è¯»å–åœ°å€ 0x80000d1c
è¯»å–åœ°å€ 0x80003218
0x80000d1c: 00 07 a7 83 lw	a5, 0(a5)
è¯»å–åœ°å€ 0x80000d20
0x80000d20: 00 14 04 13 addi	s0, s0, 1
è¯»å–åœ°å€ 0x80000d24
0x80000d24: 00 07 84 63 beq	a5, zero, 0x80000d2c
è¯»å–åœ°å€ 0x80000d28
0x80000d28: fe 8a 9a e3 bne	s5, s0, 0x80000d1c
è¯»å–åœ°å€ 0x80000d1c
è¯»å–åœ°å€ 0x80003210
0x80000d1c: 00 07 a7 83 lw	a5, 0(a5)
è¯»å–åœ°å€ 0x80000d20
0x80000d20: 00 14 04 13 addi	s0, s0, 1
è¯»å–åœ°å€ 0x80000d24
0x80000d24: 00 07 84 63 beq	a5, zero, 0x80000d2c
è¯»å–åœ°å€ 0x80000d28
0x80000d28: fe 8a 9a e3 bne	s5, s0, 0x80000d1c
è¯»å–åœ°å€ 0x80000d1c
è¯»å–åœ°å€ 0x80003208
0x80000d1c: 00 07 a7 83 lw	a5, 0(a5)
è¯»å–åœ°å€ 0x80000d20
0x80000d20: 00 14 04 13 addi	s0, s0, 1
è¯»å–åœ°å€ 0x80000d24
0x80000d24: 00 07 84 63 beq	a5, zero, 0x80000d2c
è¯»å–åœ°å€ 0x80000d28
0x80000d28: fe 8a 9a e3 bne	s5, s0, 0x80000d1c
è¯»å–åœ°å€ 0x80000d1c
è¯»å–åœ°å€ 0x80003240
0x80000d1c: 00 07 a7 83 lw	a5, 0(a5)
è¯»å–åœ°å€ 0x80000d20
0x80000d20: 00 14 04 13 addi	s0, s0, 1
è¯»å–åœ°å€ 0x80000d24
0x80000d24: 00 07 84 63 beq	a5, zero, 0x80000d2c
è¯»å–åœ°å€ 0x80000d28
0x80000d28: fe 8a 9a e3 bne	s5, s0, 0x80000d1c
è¯»å–åœ°å€ 0x80000d1c
è¯»å–åœ°å€ 0x80003200
0x80000d1c: 00 07 a7 83 lw	a5, 0(a5)
è¯»å–åœ°å€ 0x80000d20
0x80000d20: 00 14 04 13 addi	s0, s0, 1
è¯»å–åœ°å€ 0x80000d24
0x80000d24: 00 07 84 63 beq	a5, zero, 0x80000d2c
è¯»å–åœ°å€ 0x80000d28
0x80000d28: fe 8a 9a e3 bne	s5, s0, 0x80000d1c
è¯»å–åœ°å€ 0x80000d2c
0x80000d2c: 00 04 8a 13 addi	s4, s1, 0
è¯»å–åœ°å€ 0x80000d30
0x80000d30: 00 0a 89 93 addi	s3, s5, 0
è¯»å–åœ°å€ 0x80000d34
0x80000d34: 00 07 84 93 addi	s1, a5, 0
è¯»å–åœ°å€ 0x80000d38
0x80000d38: 02 04 0e 63 beq	s0, zero, 0x80000d74
è¯»å–åœ°å€ 0x80000d3c
0x80000d3c: 04 09 8e 63 beq	s3, zero, 0x80000d98
è¯»å–åœ°å€ 0x80000d40
0x80000d40: 04 04 8c 63 beq	s1, zero, 0x80000d98
è¯»å–åœ°å€ 0x80000d44
è¯»å–åœ°å€ 0x800031bc
0x80000d44: 00 44 a5 83 lw	a1, 4(s1)
è¯»å–åœ°å€ 0x80000d48
è¯»å–åœ°å€ 0x80003184
0x80000d48: 00 4a 25 03 lw	a0, 4(s4)
è¯»å–åœ°å€ 0x80000d4c
0x80000d4c: 00 0d 06 13 addi	a2, s10, 0
è¯»å–åœ°å€ 0x80000d50
0x80000d50: 00 0b 80 e7 jalr	ra, 0(s7)
è¯»å–åœ°å€ 0x80000adc
0x80000adc: 00 06 0a 63 beq	a2, zero, 0x80000af0
è¯»å–åœ°å€ 0x80000af0
è¯»å–åœ°å€ 0x80003278
0x80000af0: 00 05 17 83 lh	a5, 0(a0)
è¯»å–åœ°å€ 0x80000af4
0x80000af4: 01 07 97 13 slli	a4, a5, 16
è¯»å–åœ°å€ 0x80000af8
0x80000af8: 01 07 57 13 srli	a4, a4, 16
è¯»å–åœ°å€ 0x80000afc
0x80000afc: 00 87 57 13 srli	a4, a4, 8
è¯»å–åœ°å€ 0x80000b00
0x80000b00: f0 07 f7 93 andi	a5, a5, -256
è¯»å–åœ°å€ 0x80000b04
0x80000b04: 00 e7 e7 b3 or	a5, a5, a4
è¯»å–åœ°å€ 0x80000b08
å†™å…¥åœ°å€ 0x80003278
0x80000b08: 00 f5 10 23 sh	a5, 0(a0)
è¯»å–åœ°å€ 0x80000b0c
è¯»å–åœ°å€ 0x80003294
0x80000b0c: 00 05 97 83 lh	a5, 0(a1)
è¯»å–åœ°å€ 0x80000b10
è¯»å–åœ°å€ 0x8000327a
0x80000b10: 00 25 15 03 lh	a0, 2(a0)
è¯»å–åœ°å€ 0x80000b14
0x80000b14: 01 07 97 13 slli	a4, a5, 16
è¯»å–åœ°å€ 0x80000b18
0x80000b18: 01 07 57 13 srli	a4, a4, 16
è¯»å–åœ°å€ 0x80000b1c
0x80000b1c: 00 87 57 13 srli	a4, a4, 8
è¯»å–åœ°å€ 0x80000b20
0x80000b20: f0 07 f7 93 andi	a5, a5, -256
è¯»å–åœ°å€ 0x80000b24
0x80000b24: 00 e7 e7 b3 or	a5, a5, a4
è¯»å–åœ°å€ 0x80000b28
å†™å…¥åœ°å€ 0x80003294
0x80000b28: 00 f5 90 23 sh	a5, 0(a1)
è¯»å–åœ°å€ 0x80000b2c
è¯»å–åœ°å€ 0x80003296
0x80000b2c: 00 25 97 83 lh	a5, 2(a1)
è¯»å–åœ°å€ 0x80000b30
0x80000b30: 40 f5 05 33 sub	a0, a0, a5
è¯»å–åœ°å€ 0x80000b34
0x80000b34: 00 00 80 67 jalr	zero, 0(ra)
è¯»å–åœ°å€ 0x80000d54
0x80000d54: 04 a0 52 63 bge	zero, a0, 0x80000d98
è¯»å–åœ°å€ 0x80000d98
0x80000d98: 00 0a 07 93 addi	a5, s4, 0
è¯»å–åœ°å€ 0x80000d9c
0x80000d9c: ff f4 04 13 addi	s0, s0, -1
è¯»å–åœ°å€ 0x80000da0
è¯»å–åœ°å€ 0x80003180
0x80000da0: 00 0a 2a 03 lw	s4, 0(s4)
è¯»å–åœ°å€ 0x80000da4
0x80000da4: fc 1f f0 6f jal	zero, 0x80000d64
è¯»å–åœ°å€ 0x80000d64
0x80000d64: 02 09 04 63 beq	s2, zero, 0x80000d8c
è¯»å–åœ°å€ 0x80000d8c
0x80000d8c: 00 07 8b 13 addi	s6, a5, 0
è¯»å–åœ°å€ 0x80000d90
0x80000d90: 00 07 89 13 addi	s2, a5, 0
è¯»å–åœ°å€ 0x80000d94
0x80000d94: fd df f0 6f jal	zero, 0x80000d70
è¯»å–åœ°å€ 0x80000d70
0x80000d70: fc 04 16 e3 bne	s0, zero, 0x80000d3c
è¯»å–åœ°å€ 0x80000d3c
0x80000d3c: 04 09 8e 63 beq	s3, zero, 0x80000d98
è¯»å–åœ°å€ 0x80000d40
0x80000d40: 04 04 8c 63 beq	s1, zero, 0x80000d98
è¯»å–åœ°å€ 0x80000d44
è¯»å–åœ°å€ 0x800031bc
0x80000d44: 00 44 a5 83 lw	a1, 4(s1)
è¯»å–åœ°å€ 0x80000d48
è¯»å–åœ°å€ 0x8000326c
0x80000d48: 00 4a 25 03 lw	a0, 4(s4)
è¯»å–åœ°å€ 0x80000d4c
0x80000d4c: 00 0d 06 13 addi	a2, s10, 0
è¯»å–åœ°å€ 0x80000d50
0x80000d50: 00 0b 80 e7 jalr	ra, 0(s7)
è¯»å–åœ°å€ 0x80000adc
0x80000adc: 00 06 0a 63 beq	a2, zero, 0x80000af0
è¯»å–åœ°å€ 0x80000af0
è¯»å–åœ°å€ 0x800032ec
0x80000af0: 00 05 17 83 lh	a5, 0(a0)
è¯»å–åœ°å€ 0x80000af4
0x80000af4: 01 07 97 13 slli	a4, a5, 16
è¯»å–åœ°å€ 0x80000af8
0x80000af8: 01 07 57 13 srli	a4, a4, 16
è¯»å–åœ°å€ 0x80000afc
0x80000afc: 00 87 57 13 srli	a4, a4, 8
è¯»å–åœ°å€ 0x80000b00
0x80000b00: f0 07 f7 93 andi	a5, a5, -256
è¯»å–åœ°å€ 0x80000b04
0x80000b04: 00 e7 e7 b3 or	a5, a5, a4
è¯»å–åœ°å€ 0x80000b08
å†™å…¥åœ°å€ 0x800032ec
0x80000b08: 00 f5 10 23 sh	a5, 0(a0)
è¯»å–åœ°å€ 0x80000b0c
è¯»å–åœ°å€ 0x80003294
0x80000b0c: 00 05 97 83 lh	a5, 0(a1)
è¯»å–åœ°å€ 0x80000b10
è¯»å–åœ°å€ 0x800032ee
0x80000b10: 00 25 15 03 lh	a0, 2(a0)
è¯»å–åœ°å€ 0x80000b14
0x80000b14: 01 07 97 13 slli	a4, a5, 16
è¯»å–åœ°å€ 0x80000b18
0x80000b18: 01 07 57 13 srli	a4, a4, 16
è¯»å–åœ°å€ 0x80000b1c
0x80000b1c: 00 87 57 13 srli	a4, a4, 8
è¯»å–åœ°å€ 0x80000b20
0x80000b20: f0 07 f7 93 andi	a5, a5, -256
è¯»å–åœ°å€ 0x80000b24
0x80000b24: 00 e7 e7 b3 or	a5, a5, a4
è¯»å–åœ°å€ 0x80000b28
å†™å…¥åœ°å€ 0x80003294
0x80000b28: 00 f5 90 23 sh	a5, 0(a1)
è¯»å–åœ°å€ 0x80000b2c
è¯»å–åœ°å€ 0x80003296
0x80000b2c: 00 25 97 83 lh	a5, 2(a1)
è¯»å–åœ°å€ 0x80000b30
0x80000b30: 40 f5 05 33 sub	a0, a0, a5
è¯»å–åœ°å€ 0x80000b34
0x80000b34: 00 00 80 67 jalr	zero, 0(ra)
è¯»å–åœ°å€ 0x80000d54
0x80000d54: 04 a0 52 63 bge	zero, a0, 0x80000d98
è¯»å–åœ°å€ 0x80000d98
0x80000d98: 00 0a 07 93 addi	a5, s4, 0
è¯»å–åœ°å€ 0x80000d9c
0x80000d9c: ff f4 04 13 addi	s0, s0, -1
è¯»å–åœ°å€ 0x80000da0
è¯»å–åœ°å€ 0x80003268
0x80000da0: 00 0a 2a 03 lw	s4, 0(s4)
è¯»å–åœ°å€ 0x80000da4
0x80000da4: fc 1f f0 6f jal	zero, 0x80000d64
è¯»å–åœ°å€ 0x80000d64
0x80000d64: 02 09 04 63 beq	s2, zero, 0x80000d8c
è¯»å–åœ°å€ 0x80000d68
å†™å…¥åœ°å€ 0x80003180
0x80000d68: 00 f9 20 23 sw	a5, 0(s2)
è¯»å–åœ°å€ 0x80000d6c
0x80000d6c: 00 07 89 13 addi	s2, a5, 0
è¯»å–åœ°å€ 0x80000d70
0x80000d70: fc 04 16 e3 bne	s0, zero, 0x80000d3c
è¯»å–åœ°å€ 0x80000d3c
0x80000d3c: 04 09 8e 63 beq	s3, zero, 0x80000d98
è¯»å–åœ°å€ 0x80000d40
0x80000d40: 04 04 8c 63 beq	s1, zero, 0x80000d98
è¯»å–åœ°å€ 0x80000d44
è¯»å–åœ°å€ 0x800031bc
0x80000d44: 00 44 a5 83 lw	a1, 4(s1)
è¯»å–åœ°å€ 0x80000d48
è¯»å–åœ°å€ 0x80003264
0x80000d48: 00 4a 25 03 lw	a0, 4(s4)
è¯»å–åœ°å€ 0x80000d4c
0x80000d4c: 00 0d 06 13 addi	a2, s10, 0
è¯»å–åœ°å€ 0x80000d50
0x80000d50: 00 0b 80 e7 jalr	ra, 0(s7)
è¯»å–åœ°å€ 0x80000adc
0x80000adc: 00 06 0a 63 beq	a2, zero, 0x80000af0
è¯»å–åœ°å€ 0x80000af0
è¯»å–åœ°å€ 0x800032e8
0x80000af0: 00 05 17 83 lh	a5, 0(a0)
è¯»å–åœ°å€ 0x80000af4
0x80000af4: 01 07 97 13 slli	a4, a5, 16
è¯»å–åœ°å€ 0x80000af8
0x80000af8: 01 07 57 13 srli	a4, a4, 16
è¯»å–åœ°å€ 0x80000afc
0x80000afc: 00 87 57 13 srli	a4, a4, 8
è¯»å–åœ°å€ 0x80000b00
0x80000b00: f0 07 f7 93 andi	a5, a5, -256
è¯»å–åœ°å€ 0x80000b04
0x80000b04: 00 e7 e7 b3 or	a5, a5, a4
è¯»å–åœ°å€ 0x80000b08
å†™å…¥åœ°å€ 0x800032e8
0x80000b08: 00 f5 10 23 sh	a5, 0(a0)
è¯»å–åœ°å€ 0x80000b0c
è¯»å–åœ°å€ 0x80003294
0x80000b0c: 00 05 97 83 lh	a5, 0(a1)
è¯»å–åœ°å€ 0x80000b10
è¯»å–åœ°å€ 0x800032ea
0x80000b10: 00 25 15 03 lh	a0, 2(a0)
è¯»å–åœ°å€ 0x80000b14
0x80000b14: 01 07 97 13 slli	a4, a5, 16
è¯»å–åœ°å€ 0x80000b18
0x80000b18: 01 07 57 13 srli	a4, a4, 16
è¯»å–åœ°å€ 0x80000b1c
0x80000b1c: 00 87 57 13 srli	a4, a4, 8
è¯»å–åœ°å€ 0x80000b20
0x80000b20: f0 07 f7 93 andi	a5, a5, -256
è¯»å–åœ°å€ 0x80000b24
0x80000b24: 00 e7 e7 b3 or	a5, a5, a4
è¯»å–åœ°å€ 0x80000b28
å†™å…¥åœ°å€ 0x80003294
0x80000b28: 00 f5 90 23 sh	a5, 0(a1)
è¯»å–åœ°å€ 0x80000b2c
è¯»å–åœ°å€ 0x80003296
0x80000b2c: 00 25 97 83 lh	a5, 2(a1)
è¯»å–åœ°å€ 0x80000b30
0x80000b30: 40 f5 05 33 sub	a0, a0, a5
è¯»å–åœ°å€ 0x80000b34
0x80000b34: 00 00 80 67 jalr	zero, 0(ra)
è¯»å–åœ°å€ 0x80000d54
0x80000d54: 04 a0 52 63 bge	zero, a0, 0x80000d98
è¯»å–åœ°å€ 0x80000d98
0x80000d98: 00 0a 07 93 addi	a5, s4, 0
è¯»å–åœ°å€ 0x80000d9c
0x80000d9c: ff f4 04 13 addi	s0, s0, -1
è¯»å–åœ°å€ 0x80000da0
è¯»å–åœ°å€ 0x80003260
0x80000da0: 00 0a 2a 03 lw	s4, 0(s4)
è¯»å–åœ°å€ 0x80000da4
0x80000da4: fc 1f f0 6f jal	zero, 0x80000d64
è¯»å–åœ°å€ 0x80000d64
0x80000d64: 02 09 04 63 beq	s2, zero, 0x80000d8c
è¯»å–åœ°å€ 0x80000d68
å†™å…¥åœ°å€ 0x80003268
0x80000d68: 00 f9 20 23 sw	a5, 0(s2)
è¯»å–åœ°å€ 0x80000d6c
0x80000d6c: 00 07 89 13 addi	s2, a5, 0
è¯»å–åœ°å€ 0x80000d70
0x80000d70: fc 04 16 e3 bne	s0, zero, 0x80000d3c
è¯»å–åœ°å€ 0x80000d3c
0x80000d3c: 04 09 8e 63 beq	s3, zero, 0x80000d98
è¯»å–åœ°å€ 0x80000d40
0x80000d40: 04 04 8c 63 beq	s1, zero, 0x80000d98
è¯»å–åœ°å€ 0x80000d44
è¯»å–åœ°å€ 0x800031bc
0x80000d44: 00 44 a5 83 lw	a1, 4(s1)
è¯»å–åœ°å€ 0x80000d48
è¯»å–åœ°å€ 0x8000325c
0x80000d48: 00 4a 25 03 lw	a0, 4(s4)
è¯»å–åœ°å€ 0x80000d4c
0x80000d4c: 00 0d 06 13 addi	a2, s10, 0
è¯»å–åœ°å€ 0x80000d50
0x80000d50: 00 0b 80 e7 jalr	ra, 0(s7)
è¯»å–åœ°å€ 0x80000adc
0x80000adc: 00 06 0a 63 beq	a2, zero, 0x80000af0
è¯»å–åœ°å€ 0x80000af0
è¯»å–åœ°å€ 0x800032e4
0x80000af0: 00 05 17 83 lh	a5, 0(a0)
è¯»å–åœ°å€ 0x80000af4
0x80000af4: 01 07 97 13 slli	a4, a5, 16
è¯»å–åœ°å€ 0x80000af8
0x80000af8: 01 07 57 13 srli	a4, a4, 16
è¯»å–åœ°å€ 0x80000afc
0x80000afc: 00 87 57 13 srli	a4, a4, 8
è¯»å–åœ°å€ 0x80000b00
0x80000b00: f0 07 f7 93 andi	a5, a5, -256
è¯»å–åœ°å€ 0x80000b04
0x80000b04: 00 e7 e7 b3 or	a5, a5, a4
è¯»å–åœ°å€ 0x80000b08
å†™å…¥åœ°å€ 0x800032e4
0x80000b08: 00 f5 10 23 sh	a5, 0(a0)
è¯»å–åœ°å€ 0x80000b0c
è¯»å–åœ°å€ 0x80003294
0x80000b0c: 00 05 97 83 lh	a5, 0(a1)
è¯»å–åœ°å€ 0x80000b10
è¯»å–åœ°å€ 0x800032e6
0x80000b10: 00 25 15 03 lh	a0, 2(a0)
è¯»å–åœ°å€ 0x80000b14
0x80000b14: 01 07 97 13 slli	a4, a5, 16
è¯»å–åœ°å€ 0x80000b18
0x80000b18: 01 07 57 13 srli	a4, a4, 16
è¯»å–åœ°å€ 0x80000b1c
0x80000b1c: 00 87 57 13 srli	a4, a4, 8
è¯»å–åœ°å€ 0x80000b20
0x80000b20: f0 07 f7 93 andi	a5, a5, -256
è¯»å–åœ°å€ 0x80000b24
0x80000b24: 00 e7 e7 b3 or	a5, a5, a4
è¯»å–åœ°å€ 0x80000b28
å†™å…¥åœ°å€ 0x80003294
0x80000b28: 00 f5 90 23 sh	a5, 0(a1)
è¯»å–åœ°å€ 0x80000b2c
è¯»å–åœ°å€ 0x80003296
0x80000b2c: 00 25 97 83 lh	a5, 2(a1)
è¯»å–åœ°å€ 0x80000b30
0x80000b30: 40 f5 05 33 sub	a0, a0, a5
è¯»å–åœ°å€ 0x80000b34
0x80000b34: 00 00 80 67 jalr	zero, 0(ra)
è¯»å–åœ°å€ 0x80000d54
0x80000d54: 04 a0 52 63 bge	zero, a0, 0x80000d98
è¯»å–åœ°å€ 0x80000d98
0x80000d98: 00 0a 07 93 addi	a5, s4, 0
è¯»å–åœ°å€ 0x80000d9c
0x80000d9c: ff f4 04 13 addi	s0, s0, -1
è¯»å–åœ°å€ 0x80000da0
è¯»å–åœ°å€ 0x80003258
0x80000da0: 00 0a 2a 03 lw	s4, 0(s4)
è¯»å–åœ°å€ 0x80000da4
0x80000da4: fc 1f f0 6f jal	zero, 0x80000d64
è¯»å–åœ°å€ 0x80000d64
0x80000d64: 02 09 04 63 beq	s2, zero, 0x80000d8c
è¯»å–åœ°å€ 0x80000d68
å†™å…¥åœ°å€ 0x80003260
0x80000d68: 00 f9 20 23 sw	a5, 0(s2)
è¯»å–åœ°å€ 0x80000d6c
0x80000d6c: 00 07 89 13 addi	s2, a5, 0
è¯»å–åœ°å€ 0x80000d70
0x80000d70: fc 04 16 e3 bne	s0, zero, 0x80000d3c
è¯»å–åœ°å€ 0x80000d3c
0x80000d3c: 04 09 8e 63 beq	s3, zero, 0x80000d98
è¯»å–åœ°å€ 0x80000d40
0x80000d40: 04 04 8c 63 beq	s1, zero, 0x80000d98
è¯»å–åœ°å€ 0x80000d44
è¯»å–åœ°å€ 0x800031bc
0x80000d44: 00 44 a5 83 lw	a1, 4(s1)
è¯»å–åœ°å€ 0x80000d48
è¯»å–åœ°å€ 0x80003254
0x80000d48: 00 4a 25 03 lw	a0, 4(s4)
è¯»å–åœ°å€ 0x80000d4c
0x80000d4c: 00 0d 06 13 addi	a2, s10, 0
è¯»å–åœ°å€ 0x80000d50
0x80000d50: 00 0b 80 e7 jalr	ra, 0(s7)
è¯»å–åœ°å€ 0x80000adc
0x80000adc: 00 06 0a 63 beq	a2, zero, 0x80000af0
è¯»å–åœ°å€ 0x80000af0
è¯»å–åœ°å€ 0x800032e0
0x80000af0: 00 05 17 83 lh	a5, 0(a0)
è¯»å–åœ°å€ 0x80000af4
0x80000af4: 01 07 97 13 slli	a4, a5, 16
è¯»å–åœ°å€ 0x80000af8
0x80000af8: 01 07 57 13 srli	a4, a4, 16
è¯»å–åœ°å€ 0x80000afc
0x80000afc: 00 87 57 13 srli	a4, a4, 8
è¯»å–åœ°å€ 0x80000b00
0x80000b00: f0 07 f7 93 andi	a5, a5, -256
è¯»å–åœ°å€ 0x80000b04
0x80000b04: 00 e7 e7 b3 or	a5, a5, a4
è¯»å–åœ°å€ 0x80000b08
å†™å…¥åœ°å€ 0x800032e0
0x80000b08: 00 f5 10 23 sh	a5, 0(a0)
è¯»å–åœ°å€ 0x80000b0c
è¯»å–åœ°å€ 0x80003294
0x80000b0c: 00 05 97 83 lh	a5, 0(a1)
è¯»å–åœ°å€ 0x80000b10
è¯»å–åœ°å€ 0x800032e2
0x80000b10: 00 25 15 03 lh	a0, 2(a0)
è¯»å–åœ°å€ 0x80000b14
0x80000b14: 01 07 97 13 slli	a4, a5, 16
è¯»å–åœ°å€ 0x80000b18
0x80000b18: 01 07 57 13 srli	a4, a4, 16
è¯»å–åœ°å€ 0x80000b1c
0x80000b1c: 00 87 57 13 srli	a4, a4, 8
è¯»å–åœ°å€ 0x80000b20
0x80000b20: f0 07 f7 93 andi	a5, a5, -256
è¯»å–åœ°å€ 0x80000b24
0x80000b24: 00 e7 e7 b3 or	a5, a5, a4
è¯»å–åœ°å€ 0x80000b28
å†™å…¥åœ°å€ 0x80003294
0x80000b28: 00 f5 90 23 sh	a5, 0(a1)
è¯»å–åœ°å€ 0x80000b2c
è¯»å–åœ°å€ 0x80003296
0x80000b2c: 00 25 97 83 lh	a5, 2(a1)
è¯»å–åœ°å€ 0x80000b30
0x80000b30: 40 f5 05 33 sub	a0, a0, a5
è¯»å–åœ°å€ 0x80000b34
0x80000b34: 00 00 80 67 jalr	zero, 0(ra)
è¯»å–åœ°å€ 0x80000d54
0x80000d54: 04 a0 52 63 bge	zero, a0, 0x80000d98
è¯»å–åœ°å€ 0x80000d98
0x80000d98: 00 0a 07 93 addi	a5, s4, 0
è¯»å–åœ°å€ 0x80000d9c
0x80000d9c: ff f4 04 13 addi	s0, s0, -1
è¯»å–åœ°å€ 0x80000da0
è¯»å–åœ°å€ 0x80003250
0x80000da0: 00 0a 2a 03 lw	s4, 0(s4)
è¯»å–åœ°å€ 0x80000da4
0x80000da4: fc 1f f0 6f jal	zero, 0x80000d64
è¯»å–åœ°å€ 0x80000d64
0x80000d64: 02 09 04 63 beq	s2, zero, 0x80000d8c
è¯»å–åœ°å€ 0x80000d68
å†™å…¥åœ°å€ 0x80003258
0x80000d68: 00 f9 20 23 sw	a5, 0(s2)
è¯»å–åœ°å€ 0x80000d6c
0x80000d6c: 00 07 89 13 addi	s2, a5, 0
è¯»å–åœ°å€ 0x80000d70
0x80000d70: fc 04 16 e3 bne	s0, zero, 0x80000d3c
è¯»å–åœ°å€ 0x80000d3c
0x80000d3c: 04 09 8e 63 beq	s3, zero, 0x80000d98
è¯»å–åœ°å€ 0x80000d40
0x80000d40: 04 04 8c 63 beq	s1, zero, 0x80000d98
è¯»å–åœ°å€ 0x80000d44
è¯»å–åœ°å€ 0x800031bc
0x80000d44: 00 44 a5 83 lw	a1, 4(s1)
è¯»å–åœ°å€ 0x80000d48
è¯»å–åœ°å€ 0x8000324c
0x80000d48: 00 4a 25 03 lw	a0, 4(s4)
è¯»å–åœ°å€ 0x80000d4c
0x80000d4c: 00 0d 06 13 addi	a2, s10, 0
è¯»å–åœ°å€ 0x80000d50
0x80000d50: 00 0b 80 e7 jalr	ra, 0(s7)
è¯»å–åœ°å€ 0x80000adc
0x80000adc: 00 06 0a 63 beq	a2, zero, 0x80000af0
è¯»å–åœ°å€ 0x80000af0
è¯»å–åœ°å€ 0x800032dc
0x80000af0: 00 05 17 83 lh	a5, 0(a0)
è¯»å–åœ°å€ 0x80000af4
0x80000af4: 01 07 97 13 slli	a4, a5, 16
è¯»å–åœ°å€ 0x80000af8
0x80000af8: 01 07 57 13 srli	a4, a4, 16
è¯»å–åœ°å€ 0x80000afc
0x80000afc: 00 87 57 13 srli	a4, a4, 8
è¯»å–åœ°å€ 0x80000b00
0x80000b00: f0 07 f7 93 andi	a5, a5, -256
è¯»å–åœ°å€ 0x80000b04
0x80000b04: 00 e7 e7 b3 or	a5, a5, a4
è¯»å–åœ°å€ 0x80000b08
å†™å…¥åœ°å€ 0x800032dc
0x80000b08: 00 f5 10 23 sh	a5, 0(a0)
è¯»å–åœ°å€ 0x80000b0c
è¯»å–åœ°å€ 0x80003294
0x80000b0c: 00 05 97 83 lh	a5, 0(a1)
è¯»å–åœ°å€ 0x80000b10
è¯»å–åœ°å€ 0x800032de
0x80000b10: 00 25 15 03 lh	a0, 2(a0)
è¯»å–åœ°å€ 0x80000b14
0x80000b14: 01 07 97 13 slli	a4, a5, 16
è¯»å–åœ°å€ 0x80000b18
0x80000b18: 01 07 57 13 srli	a4, a4, 16
è¯»å–åœ°å€ 0x80000b1c
0x80000b1c: 00 87 57 13 srli	a4, a4, 8
è¯»å–åœ°å€ 0x80000b20
0x80000b20: f0 07 f7 93 andi	a5, a5, -256
è¯»å–åœ°å€ 0x80000b24
0x80000b24: 00 e7 e7 b3 or	a5, a5, a4
è¯»å–åœ°å€ 0x80000b28
å†™å…¥åœ°å€ 0x80003294
0x80000b28: 00 f5 90 23 sh	a5, 0(a1)
è¯»å–åœ°å€ 0x80000b2c
è¯»å–åœ°å€ 0x80003296
0x80000b2c: 00 25 97 83 lh	a5, 2(a1)
è¯»å–åœ°å€ 0x80000b30
0x80000b30: 40 f5 05 33 sub	a0, a0, a5
è¯»å–åœ°å€ 0x80000b34
0x80000b34: 00 00 80 67 jalr	zero, 0(ra)
è¯»å–åœ°å€ 0x80000d54
0x80000d54: 04 a0 52 63 bge	zero, a0, 0x80000d98
è¯»å–åœ°å€ 0x80000d98
0x80000d98: 00 0a 07 93 addi	a5, s4, 0
è¯»å–åœ°å€ 0x80000d9c
0x80000d9c: ff f4 04 13 addi	s0, s0, -1
è¯»å–åœ°å€ 0x80000da0
è¯»å–åœ°å€ 0x80003248
0x80000da0: 00 0a 2a 03 lw	s4, 0(s4)
è¯»å–åœ°å€ 0x80000da4
0x80000da4: fc 1f f0 6f jal	zero, 0x80000d64
è¯»å–åœ°å€ 0x80000d64
0x80000d64: 02 09 04 63 beq	s2, zero, 0x80000d8c
è¯»å–åœ°å€ 0x80000d68
å†™å…¥åœ°å€ 0x80003250
0x80000d68: 00 f9 20 23 sw	a5, 0(s2)
è¯»å–åœ°å€ 0x80000d6c
0x80000d6c: 00 07 89 13 addi	s2, a5, 0
è¯»å–åœ°å€ 0x80000d70
0x80000d70: fc 04 16 e3 bne	s0, zero, 0x80000d3c
è¯»å–åœ°å€ 0x80000d3c
0x80000d3c: 04 09 8e 63 beq	s3, zero, 0x80000d98
è¯»å–åœ°å€ 0x80000d40
0x80000d40: 04 04 8c 63 beq	s1, zero, 0x80000d98
è¯»å–åœ°å€ 0x80000d44
è¯»å–åœ°å€ 0x800031bc
0x80000d44: 00 44 a5 83 lw	a1, 4(s1)
è¯»å–åœ°å€ 0x80000d48
è¯»å–åœ°å€ 0x8000323c
0x80000d48: 00 4a 25 03 lw	a0, 4(s4)
è¯»å–åœ°å€ 0x80000d4c
0x80000d4c: 00 0d 06 13 addi	a2, s10, 0
è¯»å–åœ°å€ 0x80000d50
0x80000d50: 00 0b 80 e7 jalr	ra, 0(s7)
è¯»å–åœ°å€ 0x80000adc
0x80000adc: 00 06 0a 63 beq	a2, zero, 0x80000af0
è¯»å–åœ°å€ 0x80000af0
è¯»å–åœ°å€ 0x800032d4
0x80000af0: 00 05 17 83 lh	a5, 0(a0)
è¯»å–åœ°å€ 0x80000af4
0x80000af4: 01 07 97 13 slli	a4, a5, 16
è¯»å–åœ°å€ 0x80000af8
0x80000af8: 01 07 57 13 srli	a4, a4, 16
è¯»å–åœ°å€ 0x80000afc
0x80000afc: 00 87 57 13 srli	a4, a4, 8
è¯»å–åœ°å€ 0x80000b00
0x80000b00: f0 07 f7 93 andi	a5, a5, -256
è¯»å–åœ°å€ 0x80000b04
0x80000b04: 00 e7 e7 b3 or	a5, a5, a4
è¯»å–åœ°å€ 0x80000b08
å†™å…¥åœ°å€ 0x800032d4
0x80000b08: 00 f5 10 23 sh	a5, 0(a0)
è¯»å–åœ°å€ 0x80000b0c
è¯»å–åœ°å€ 0x80003294
0x80000b0c: 00 05 97 83 lh	a5, 0(a1)
è¯»å–åœ°å€ 0x80000b10
è¯»å–åœ°å€ 0x800032d6
0x80000b10: 00 25 15 03 lh	a0, 2(a0)
è¯»å–åœ°å€ 0x80000b14
0x80000b14: 01 07 97 13 slli	a4, a5, 16
è¯»å–åœ°å€ 0x80000b18
0x80000b18: 01 07 57 13 srli	a4, a4, 16
è¯»å–åœ°å€ 0x80000b1c
0x80000b1c: 00 87 57 13 srli	a4, a4, 8
è¯»å–åœ°å€ 0x80000b20
0x80000b20: f0 07 f7 93 andi	a5, a5, -256
è¯»å–åœ°å€ 0x80000b24
0x80000b24: 00 e7 e7 b3 or	a5, a5, a4
è¯»å–åœ°å€ 0x80000b28
å†™å…¥åœ°å€ 0x80003294
0x80000b28: 00 f5 90 23 sh	a5, 0(a1)
è¯»å–åœ°å€ 0x80000b2c
è¯»å–åœ°å€ 0x80003296
0x80000b2c: 00 25 97 83 lh	a5, 2(a1)
è¯»å–åœ°å€ 0x80000b30
0x80000b30: 40 f5 05 33 sub	a0, a0, a5
è¯»å–åœ°å€ 0x80000b34
0x80000b34: 00 00 80 67 jalr	zero, 0(ra)
è¯»å–åœ°å€ 0x80000d54
0x80000d54: 04 a0 52 63 bge	zero, a0, 0x80000d98
è¯»å–åœ°å€ 0x80000d98
0x80000d98: 00 0a 07 93 addi	a5, s4, 0
è¯»å–åœ°å€ 0x80000d9c
0x80000d9c: ff f4 04 13 addi	s0, s0, -1
è¯»å–åœ°å€ 0x80000da0
è¯»å–åœ°å€ 0x80003238
0x80000da0: 00 0a 2a 03 lw	s4, 0(s4)
è¯»å–åœ°å€ 0x80000da4
0x80000da4: fc 1f f0 6f jal	zero, 0x80000d64
è¯»å–åœ°å€ 0x80000d64
0x80000d64: 02 09 04 63 beq	s2, zero, 0x80000d8c
è¯»å–åœ°å€ 0x80000d68
å†™å…¥åœ°å€ 0x80003248
0x80000d68: 00 f9 20 23 sw	a5, 0(s2)
è¯»å–åœ°å€ 0x80000d6c
0x80000d6c: 00 07 89 13 addi	s2, a5, 0
è¯»å–åœ°å€ 0x80000d70
0x80000d70: fc 04 16 e3 bne	s0, zero, 0x80000d3c
è¯»å–åœ°å€ 0x80000d3c
0x80000d3c: 04 09 8e 63 beq	s3, zero, 0x80000d98
è¯»å–åœ°å€ 0x80000d40
0x80000d40: 04 04 8c 63 beq	s1, zero, 0x80000d98
è¯»å–åœ°å€ 0x80000d44
è¯»å–åœ°å€ 0x800031bc
0x80000d44: 00 44 a5 83 lw	a1, 4(s1)
è¯»å–åœ°å€ 0x80000d48
è¯»å–åœ°å€ 0x800031fc
0x80000d48: 00 4a 25 03 lw	a0, 4(s4)
è¯»å–åœ°å€ 0x80000d4c
0x80000d4c: 00 0d 06 13 addi	a2, s10, 0
è¯»å–åœ°å€ 0x80000d50
0x80000d50: 00 0b 80 e7 jalr	ra, 0(s7)
è¯»å–åœ°å€ 0x80000adc
0x80000adc: 00 06 0a 63 beq	a2, zero, 0x80000af0
è¯»å–åœ°å€ 0x80000af0
è¯»å–åœ°å€ 0x800032b4
0x80000af0: 00 05 17 83 lh	a5, 0(a0)
è¯»å–åœ°å€ 0x80000af4
0x80000af4: 01 07 97 13 slli	a4, a5, 16
è¯»å–åœ°å€ 0x80000af8
0x80000af8: 01 07 57 13 srli	a4, a4, 16
è¯»å–åœ°å€ 0x80000afc
0x80000afc: 00 87 57 13 srli	a4, a4, 8
è¯»å–åœ°å€ 0x80000b00
0x80000b00: f0 07 f7 93 andi	a5, a5, -256
è¯»å–åœ°å€ 0x80000b04
0x80000b04: 00 e7 e7 b3 or	a5, a5, a4
è¯»å–åœ°å€ 0x80000b08
å†™å…¥åœ°å€ 0x800032b4
0x80000b08: 00 f5 10 23 sh	a5, 0(a0)
è¯»å–åœ°å€ 0x80000b0c
è¯»å–åœ°å€ 0x80003294
0x80000b0c: 00 05 97 83 lh	a5, 0(a1)
è¯»å–åœ°å€ 0x80000b10
è¯»å–åœ°å€ 0x800032b6
0x80000b10: 00 25 15 03 lh	a0, 2(a0)
è¯»å–åœ°å€ 0x80000b14
0x80000b14: 01 07 97 13 slli	a4, a5, 16
è¯»å–åœ°å€ 0x80000b18
0x80000b18: 01 07 57 13 srli	a4, a4, 16
è¯»å–åœ°å€ 0x80000b1c
0x80000b1c: 00 87 57 13 srli	a4, a4, 8
è¯»å–åœ°å€ 0x80000b20
0x80000b20: f0 07 f7 93 andi	a5, a5, -256
è¯»å–åœ°å€ 0x80000b24
0x80000b24: 00 e7 e7 b3 or	a5, a5, a4
è¯»å–åœ°å€ 0x80000b28
å†™å…¥åœ°å€ 0x80003294
0x80000b28: 00 f5 90 23 sh	a5, 0(a1)
è¯»å–åœ°å€ 0x80000b2c
è¯»å–åœ°å€ 0x80003296
0x80000b2c: 00 25 97 83 lh	a5, 2(a1)
è¯»å–åœ°å€ 0x80000b30
0x80000b30: 40 f5 05 33 sub	a0, a0, a5
è¯»å–åœ°å€ 0x80000b34
0x80000b34: 00 00 80 67 jalr	zero, 0(ra)
è¯»å–åœ°å€ 0x80000d54
0x80000d54: 04 a0 52 63 bge	zero, a0, 0x80000d98
è¯»å–åœ°å€ 0x80000d98
0x80000d98: 00 0a 07 93 addi	a5, s4, 0
è¯»å–åœ°å€ 0x80000d9c
0x80000d9c: ff f4 04 13 addi	s0, s0, -1
è¯»å–åœ°å€ 0x80000da0
è¯»å–åœ°å€ 0x800031f8
0x80000da0: 00 0a 2a 03 lw	s4, 0(s4)
è¯»å–åœ°å€ 0x80000da4
0x80000da4: fc 1f f0 6f jal	zero, 0x80000d64
è¯»å–åœ°å€ 0x80000d64
0x80000d64: 02 09 04 63 beq	s2, zero, 0x80000d8c
è¯»å–åœ°å€ 0x80000d68
å†™å…¥åœ°å€ 0x80003238
0x80000d68: 00 f9 20 23 sw	a5, 0(s2)
è¯»å–åœ°å€ 0x80000d6c
0x80000d6c: 00 07 89 13 addi	s2, a5, 0
è¯»å–åœ°å€ 0x80000d70
0x80000d70: fc 04 16 e3 bne	s0, zero, 0x80000d3c
è¯»å–åœ°å€ 0x80000d3c
0x80000d3c: 04 09 8e 63 beq	s3, zero, 0x80000d98
è¯»å–åœ°å€ 0x80000d40
0x80000d40: 04 04 8c 63 beq	s1, zero, 0x80000d98
è¯»å–åœ°å€ 0x80000d44
è¯»å–åœ°å€ 0x800031bc
0x80000d44: 00 44 a5 83 lw	a1, 4(s1)
è¯»å–åœ°å€ 0x80000d48
è¯»å–åœ°å€ 0x80003234
0x80000d48: 00 4a 25 03 lw	a0, 4(s4)
è¯»å–åœ°å€ 0x80000d4c
0x80000d4c: 00 0d 06 13 addi	a2, s10, 0
è¯»å–åœ°å€ 0x80000d50
0x80000d50: 00 0b 80 e7 jalr	ra, 0(s7)
è¯»å–åœ°å€ 0x80000adc
0x80000adc: 00 06 0a 63 beq	a2, zero, 0x80000af0
è¯»å–åœ°å€ 0x80000af0
è¯»å–åœ°å€ 0x800032d0
0x80000af0: 00 05 17 83 lh	a5, 0(a0)
è¯»å–åœ°å€ 0x80000af4
0x80000af4: 01 07 97 13 slli	a4, a5, 16
è¯»å–åœ°å€ 0x80000af8
0x80000af8: 01 07 57 13 srli	a4, a4, 16
è¯»å–åœ°å€ 0x80000afc
0x80000afc: 00 87 57 13 srli	a4, a4, 8
è¯»å–åœ°å€ 0x80000b00
0x80000b00: f0 07 f7 93 andi	a5, a5, -256
è¯»å–åœ°å€ 0x80000b04
0x80000b04: 00 e7 e7 b3 or	a5, a5, a4
è¯»å–åœ°å€ 0x80000b08
å†™å…¥åœ°å€ 0x800032d0
0x80000b08: 00 f5 10 23 sh	a5, 0(a0)
è¯»å–åœ°å€ 0x80000b0c
è¯»å–åœ°å€ 0x80003294
0x80000b0c: 00 05 97 83 lh	a5, 0(a1)
è¯»å–åœ°å€ 0x80000b10
è¯»å–åœ°å€ 0x800032d2
0x80000b10: 00 25 15 03 lh	a0, 2(a0)
è¯»å–åœ°å€ 0x80000b14
0x80000b14: 01 07 97 13 slli	a4, a5, 16
è¯»å–åœ°å€ 0x80000b18
0x80000b18: 01 07 57 13 srli	a4, a4, 16
è¯»å–åœ°å€ 0x80000b1c
0x80000b1c: 00 87 57 13 srli	a4, a4, 8
è¯»å–åœ°å€ 0x80000b20
0x80000b20: f0 07 f7 93 andi	a5, a5, -256
è¯»å–åœ°å€ 0x80000b24
0x80000b24: 00 e7 e7 b3 or	a5, a5, a4
è¯»å–åœ°å€ 0x80000b28
å†™å…¥åœ°å€ 0x80003294
0x80000b28: 00 f5 90 23 sh	a5, 0(a1)
è¯»å–åœ°å€ 0x80000b2c
è¯»å–åœ°å€ 0x80003296
0x80000b2c: 00 25 97 83 lh	a5, 2(a1)
è¯»å–åœ°å€ 0x80000b30
0x80000b30: 40 f5 05 33 sub	a0, a0, a5
è¯»å–åœ°å€ 0x80000b34
0x80000b34: 00 00 80 67 jalr	zero, 0(ra)
è¯»å–åœ°å€ 0x80000d54
0x80000d54: 04 a0 52 63 bge	zero, a0, 0x80000d98
è¯»å–åœ°å€ 0x80000d58
0x80000d58: 00 04 87 93 addi	a5, s1, 0
è¯»å–åœ°å€ 0x80000d5c
è¯»å–åœ°å€ 0x800031b8
0x80000d5c: 00 04 a4 83 lw	s1, 0(s1)
è¯»å–åœ°å€ 0x80000d60
0x80000d60: ff f9 89 93 addi	s3, s3, -1
è¯»å–åœ°å€ 0x80000d64
0x80000d64: 02 09 04 63 beq	s2, zero, 0x80000d8c
è¯»å–åœ°å€ 0x80000d68
å†™å…¥åœ°å€ 0x800031f8
0x80000d68: 00 f9 20 23 sw	a5, 0(s2)
è¯»å–åœ°å€ 0x80000d6c
0x80000d6c: 00 07 89 13 addi	s2, a5, 0
è¯»å–åœ°å€ 0x80000d70
0x80000d70: fc 04 16 e3 bne	s0, zero, 0x80000d3c
è¯»å–åœ°å€ 0x80000d3c
0x80000d3c: 04 09 8e 63 beq	s3, zero, 0x80000d98
è¯»å–åœ°å€ 0x80000d40
0x80000d40: 04 04 8c 63 beq	s1, zero, 0x80000d98
è¯»å–åœ°å€ 0x80000d44
è¯»å–åœ°å€ 0x800031f4
0x80000d44: 00 44 a5 83 lw	a1, 4(s1)
è¯»å–åœ°å€ 0x80000d48
è¯»å–åœ°å€ 0x80003234
0x80000d48: 00 4a 25 03 lw	a0, 4(s4)
è¯»å–åœ°å€ 0x80000d4c
0x80000d4c: 00 0d 06 13 addi	a2, s10, 0
è¯»å–åœ°å€ 0x80000d50
0x80000d50: 00 0b 80 e7 jalr	ra, 0(s7)
è¯»å–åœ°å€ 0x80000adc
0x80000adc: 00 06 0a 63 beq	a2, zero, 0x80000af0
è¯»å–åœ°å€ 0x80000af0
è¯»å–åœ°å€ 0x800032d0
0x80000af0: 00 05 17 83 lh	a5, 0(a0)
è¯»å–åœ°å€ 0x80000af4
0x80000af4: 01 07 97 13 slli	a4, a5, 16
è¯»å–åœ°å€ 0x80000af8
0x80000af8: 01 07 57 13 srli	a4, a4, 16
è¯»å–åœ°å€ 0x80000afc
0x80000afc: 00 87 57 13 srli	a4, a4, 8
è¯»å–åœ°å€ 0x80000b00
0x80000b00: f0 07 f7 93 andi	a5, a5, -256
è¯»å–åœ°å€ 0x80000b04
0x80000b04: 00 e7 e7 b3 or	a5, a5, a4
è¯»å–åœ°å€ 0x80000b08
å†™å…¥åœ°å€ 0x800032d0
0x80000b08: 00 f5 10 23 sh	a5, 0(a0)
è¯»å–åœ°å€ 0x80000b0c
è¯»å–åœ°å€ 0x800032b0
0x80000b0c: 00 05 97 83 lh	a5, 0(a1)
è¯»å–åœ°å€ 0x80000b10
è¯»å–åœ°å€ 0x800032d2
0x80000b10: 00 25 15 03 lh	a0, 2(a0)
è¯»å–åœ°å€ 0x80000b14
0x80000b14: 01 07 97 13 slli	a4, a5, 16
è¯»å–åœ°å€ 0x80000b18
0x80000b18: 01 07 57 13 srli	a4, a4, 16
è¯»å–åœ°å€ 0x80000b1c
0x80000b1c: 00 87 57 13 srli	a4, a4, 8
è¯»å–åœ°å€ 0x80000b20
0x80000b20: f0 07 f7 93 andi	a5, a5, -256
è¯»å–åœ°å€ 0x80000b24
0x80000b24: 00 e7 e7 b3 or	a5, a5, a4
è¯»å–åœ°å€ 0x80000b28
å†™å…¥åœ°å€ 0x800032b0
0x80000b28: 00 f5 90 23 sh	a5, 0(a1)
è¯»å–åœ°å€ 0x80000b2c
è¯»å–åœ°å€ 0x800032b2
0x80000b2c: 00 25 97 83 lh	a5, 2(a1)
è¯»å–åœ°å€ 0x80000b30
0x80000b30: 40 f5 05 33 sub	a0, a0, a5
è¯»å–åœ°å€ 0x80000b34
0x80000b34: 00 00 80 67 jalr	zero, 0(ra)
è¯»å–åœ°å€ 0x80000d54
0x80000d54: 04 a0 52 63 bge	zero, a0, 0x80000d98
è¯»å–åœ°å€ 0x80000d98
0x80000d98: 00 0a 07 93 addi	a5, s4, 0
è¯»å–åœ°å€ 0x80000d9c
0x80000d9c: ff f4 04 13 addi	s0, s0, -1
è¯»å–åœ°å€ 0x80000da0
è¯»å–åœ°å€ 0x80003230
0x80000da0: 00 0a 2a 03 lw	s4, 0(s4)
è¯»å–åœ°å€ 0x80000da4
0x80000da4: fc 1f f0 6f jal	zero, 0x80000d64
è¯»å–åœ°å€ 0x80000d64
0x80000d64: 02 09 04 63 beq	s2, zero, 0x80000d8c
è¯»å–åœ°å€ 0x80000d68
å†™å…¥åœ°å€ 0x800031b8
0x80000d68: 00 f9 20 23 sw	a5, 0(s2)
è¯»å–åœ°å€ 0x80000d6c
0x80000d6c: 00 07 89 13 addi	s2, a5, 0
è¯»å–åœ°å€ 0x80000d70
0x80000d70: fc 04 16 e3 bne	s0, zero, 0x80000d3c
è¯»å–åœ°å€ 0x80000d3c
0x80000d3c: 04 09 8e 63 beq	s3, zero, 0x80000d98
è¯»å–åœ°å€ 0x80000d40
0x80000d40: 04 04 8c 63 beq	s1, zero, 0x80000d98
è¯»å–åœ°å€ 0x80000d44
è¯»å–åœ°å€ 0x800031f4
0x80000d44: 00 44 a5 83 lw	a1, 4(s1)
è¯»å–åœ°å€ 0x80000d48
è¯»å–åœ°å€ 0x8000322c
0x80000d48: 00 4a 25 03 lw	a0, 4(s4)
è¯»å–åœ°å€ 0x80000d4c
0x80000d4c: 00 0d 06 13 addi	a2, s10, 0
è¯»å–åœ°å€ 0x80000d50
0x80000d50: 00 0b 80 e7 jalr	ra, 0(s7)
è¯»å–åœ°å€ 0x80000adc
0x80000adc: 00 06 0a 63 beq	a2, zero, 0x80000af0
è¯»å–åœ°å€ 0x80000af0
è¯»å–åœ°å€ 0x800032cc
0x80000af0: 00 05 17 83 lh	a5, 0(a0)
è¯»å–åœ°å€ 0x80000af4
0x80000af4: 01 07 97 13 slli	a4, a5, 16
è¯»å–åœ°å€ 0x80000af8
0x80000af8: 01 07 57 13 srli	a4, a4, 16
è¯»å–åœ°å€ 0x80000afc
0x80000afc: 00 87 57 13 srli	a4, a4, 8
è¯»å–åœ°å€ 0x80000b00
0x80000b00: f0 07 f7 93 andi	a5, a5, -256
è¯»å–åœ°å€ 0x80000b04
0x80000b04: 00 e7 e7 b3 or	a5, a5, a4
è¯»å–åœ°å€ 0x80000b08
å†™å…¥åœ°å€ 0x800032cc
0x80000b08: 00 f5 10 23 sh	a5, 0(a0)
è¯»å–åœ°å€ 0x80000b0c
è¯»å–åœ°å€ 0x800032b0
0x80000b0c: 00 05 97 83 lh	a5, 0(a1)
è¯»å–åœ°å€ 0x80000b10
è¯»å–åœ°å€ 0x800032ce
0x80000b10: 00 25 15 03 lh	a0, 2(a0)
è¯»å–åœ°å€ 0x80000b14
0x80000b14: 01 07 97 13 slli	a4, a5, 16
è¯»å–åœ°å€ 0x80000b18
0x80000b18: 01 07 57 13 srli	a4, a4, 16
è¯»å–åœ°å€ 0x80000b1c
0x80000b1c: 00 87 57 13 srli	a4, a4, 8
è¯»å–åœ°å€ 0x80000b20
0x80000b20: f0 07 f7 93 andi	a5, a5, -256
è¯»å–åœ°å€ 0x80000b24
0x80000b24: 00 e7 e7 b3 or	a5, a5, a4
è¯»å–åœ°å€ 0x80000b28
å†™å…¥åœ°å€ 0x800032b0
0x80000b28: 00 f5 90 23 sh	a5, 0(a1)
è¯»å–åœ°å€ 0x80000b2c
è¯»å–åœ°å€ 0x800032b2
0x80000b2c: 00 25 97 83 lh	a5, 2(a1)
è¯»å–åœ°å€ 0x80000b30
0x80000b30: 40 f5 05 33 sub	a0, a0, a5
è¯»å–åœ°å€ 0x80000b34
0x80000b34: 00 00 80 67 jalr	zero, 0(ra)
è¯»å–åœ°å€ 0x80000d54
0x80000d54: 04 a0 52 63 bge	zero, a0, 0x80000d98
è¯»å–åœ°å€ 0x80000d58
0x80000d58: 00 04 87 93 addi	a5, s1, 0
è¯»å–åœ°å€ 0x80000d5c
è¯»å–åœ°å€ 0x800031f0
0x80000d5c: 00 04 a4 83 lw	s1, 0(s1)
è¯»å–åœ°å€ 0x80000d60
0x80000d60: ff f9 89 93 addi	s3, s3, -1
è¯»å–åœ°å€ 0x80000d64
0x80000d64: 02 09 04 63 beq	s2, zero, 0x80000d8c
è¯»å–åœ°å€ 0x80000d68
å†™å…¥åœ°å€ 0x80003230
0x80000d68: 00 f9 20 23 sw	a5, 0(s2)
è¯»å–åœ°å€ 0x80000d6c
0x80000d6c: 00 07 89 13 addi	s2, a5, 0
è¯»å–åœ°å€ 0x80000d70
0x80000d70: fc 04 16 e3 bne	s0, zero, 0x80000d3c
è¯»å–åœ°å€ 0x80000d3c
0x80000d3c: 04 09 8e 63 beq	s3, zero, 0x80000d98
è¯»å–åœ°å€ 0x80000d40
0x80000d40: 04 04 8c 63 beq	s1, zero, 0x80000d98
è¯»å–åœ°å€ 0x80000d44
è¯»å–åœ°å€ 0x800031b4
0x80000d44: 00 44 a5 83 lw	a1, 4(s1)
è¯»å–åœ°å€ 0x80000d48
è¯»å–åœ°å€ 0x8000322c
0x80000d48: 00 4a 25 03 lw	a0, 4(s4)
è¯»å–åœ°å€ 0x80000d4c
0x80000d4c: 00 0d 06 13 addi	a2, s10, 0
è¯»å–åœ°å€ 0x80000d50
0x80000d50: 00 0b 80 e7 jalr	ra, 0(s7)
è¯»å–åœ°å€ 0x80000adc
0x80000adc: 00 06 0a 63 beq	a2, zero, 0x80000af0
è¯»å–åœ°å€ 0x80000af0
è¯»å–åœ°å€ 0x800032cc
0x80000af0: 00 05 17 83 lh	a5, 0(a0)
è¯»å–åœ°å€ 0x80000af4
0x80000af4: 01 07 97 13 slli	a4, a5, 16
è¯»å–åœ°å€ 0x80000af8
0x80000af8: 01 07 57 13 srli	a4, a4, 16
è¯»å–åœ°å€ 0x80000afc
0x80000afc: 00 87 57 13 srli	a4, a4, 8
è¯»å–åœ°å€ 0x80000b00
0x80000b00: f0 07 f7 93 andi	a5, a5, -256
è¯»å–åœ°å€ 0x80000b04
0x80000b04: 00 e7 e7 b3 or	a5, a5, a4
è¯»å–åœ°å€ 0x80000b08
å†™å…¥åœ°å€ 0x800032cc
0x80000b08: 00 f5 10 23 sh	a5, 0(a0)
è¯»å–åœ°å€ 0x80000b0c
è¯»å–åœ°å€ 0x80003290
0x80000b0c: 00 05 97 83 lh	a5, 0(a1)
è¯»å–åœ°å€ 0x80000b10
è¯»å–åœ°å€ 0x800032ce
0x80000b10: 00 25 15 03 lh	a0, 2(a0)
è¯»å–åœ°å€ 0x80000b14
0x80000b14: 01 07 97 13 slli	a4, a5, 16
è¯»å–åœ°å€ 0x80000b18
0x80000b18: 01 07 57 13 srli	a4, a4, 16
è¯»å–åœ°å€ 0x80000b1c
0x80000b1c: 00 87 57 13 srli	a4, a4, 8
è¯»å–åœ°å€ 0x80000b20
0x80000b20: f0 07 f7 93 andi	a5, a5, -256
è¯»å–åœ°å€ 0x80000b24
0x80000b24: 00 e7 e7 b3 or	a5, a5, a4
è¯»å–åœ°å€ 0x80000b28
å†™å…¥åœ°å€ 0x80003290
0x80000b28: 00 f5 90 23 sh	a5, 0(a1)
è¯»å–åœ°å€ 0x80000b2c
è¯»å–åœ°å€ 0x80003292
0x80000b2c: 00 25 97 83 lh	a5, 2(a1)
è¯»å–åœ°å€ 0x80000b30
0x80000b30: 40 f5 05 33 sub	a0, a0, a5
è¯»å–åœ°å€ 0x80000b34
0x80000b34: 00 00 80 67 jalr	zero, 0(ra)
è¯»å–åœ°å€ 0x80000d54
0x80000d54: 04 a0 52 63 bge	zero, a0, 0x80000d98
è¯»å–åœ°å€ 0x80000d58
0x80000d58: 00 04 87 93 addi	a5, s1, 0
è¯»å–åœ°å€ 0x80000d5c
è¯»å–åœ°å€ 0x800031b0
0x80000d5c: 00 04 a4 83 lw	s1, 0(s1)
è¯»å–åœ°å€ 0x80000d60
0x80000d60: ff f9 89 93 addi	s3, s3, -1
è¯»å–åœ°å€ 0x80000d64
0x80000d64: 02 09 04 63 beq	s2, zero, 0x80000d8c
è¯»å–åœ°å€ 0x80000d68
å†™å…¥åœ°å€ 0x800031f0
0x80000d68: 00 f9 20 23 sw	a5, 0(s2)
è¯»å–åœ°å€ 0x80000d6c
0x80000d6c: 00 07 89 13 addi	s2, a5, 0
è¯»å–åœ°å€ 0x80000d70
0x80000d70: fc 04 16 e3 bne	s0, zero, 0x80000d3c
è¯»å–åœ°å€ 0x80000d3c
0x80000d3c: 04 09 8e 63 beq	s3, zero, 0x80000d98
è¯»å–åœ°å€ 0x80000d40
0x80000d40: 04 04 8c 63 beq	s1, zero, 0x80000d98
è¯»å–åœ°å€ 0x80000d44
è¯»å–åœ°å€ 0x800031ec
0x80000d44: 00 44 a5 83 lw	a1, 4(s1)
è¯»å–åœ°å€ 0x80000d48
è¯»å–åœ°å€ 0x8000322c
0x80000d48: 00 4a 25 03 lw	a0, 4(s4)
è¯»å–åœ°å€ 0x80000d4c
0x80000d4c: 00 0d 06 13 addi	a2, s10, 0
è¯»å–åœ°å€ 0x80000d50
0x80000d50: 00 0b 80 e7 jalr	ra, 0(s7)
è¯»å–åœ°å€ 0x80000adc
0x80000adc: 00 06 0a 63 beq	a2, zero, 0x80000af0
è¯»å–åœ°å€ 0x80000af0
è¯»å–åœ°å€ 0x800032cc
0x80000af0: 00 05 17 83 lh	a5, 0(a0)
è¯»å–åœ°å€ 0x80000af4
0x80000af4: 01 07 97 13 slli	a4, a5, 16
è¯»å–åœ°å€ 0x80000af8
0x80000af8: 01 07 57 13 srli	a4, a4, 16
è¯»å–åœ°å€ 0x80000afc
0x80000afc: 00 87 57 13 srli	a4, a4, 8
è¯»å–åœ°å€ 0x80000b00
0x80000b00: f0 07 f7 93 andi	a5, a5, -256
è¯»å–åœ°å€ 0x80000b04
0x80000b04: 00 e7 e7 b3 or	a5, a5, a4
è¯»å–åœ°å€ 0x80000b08
å†™å…¥åœ°å€ 0x800032cc
0x80000b08: 00 f5 10 23 sh	a5, 0(a0)
è¯»å–åœ°å€ 0x80000b0c
è¯»å–åœ°å€ 0x800032ac
0x80000b0c: 00 05 97 83 lh	a5, 0(a1)
è¯»å–åœ°å€ 0x80000b10
è¯»å–åœ°å€ 0x800032ce
0x80000b10: 00 25 15 03 lh	a0, 2(a0)
è¯»å–åœ°å€ 0x80000b14
0x80000b14: 01 07 97 13 slli	a4, a5, 16
è¯»å–åœ°å€ 0x80000b18
0x80000b18: 01 07 57 13 srli	a4, a4, 16
è¯»å–åœ°å€ 0x80000b1c
0x80000b1c: 00 87 57 13 srli	a4, a4, 8
è¯»å–åœ°å€ 0x80000b20
0x80000b20: f0 07 f7 93 andi	a5, a5, -256
è¯»å–åœ°å€ 0x80000b24
0x80000b24: 00 e7 e7 b3 or	a5, a5, a4
è¯»å–åœ°å€ 0x80000b28
å†™å…¥åœ°å€ 0x800032ac
0x80000b28: 00 f5 90 23 sh	a5, 0(a1)
è¯»å–åœ°å€ 0x80000b2c
è¯»å–åœ°å€ 0x800032ae
0x80000b2c: 00 25 97 83 lh	a5, 2(a1)
è¯»å–åœ°å€ 0x80000b30
0x80000b30: 40 f5 05 33 sub	a0, a0, a5
è¯»å–åœ°å€ 0x80000b34
0x80000b34: 00 00 80 67 jalr	zero, 0(ra)
è¯»å–åœ°å€ 0x80000d54
0x80000d54: 04 a0 52 63 bge	zero, a0, 0x80000d98
è¯»å–åœ°å€ 0x80000d98
0x80000d98: 00 0a 07 93 addi	a5, s4, 0
è¯»å–åœ°å€ 0x80000d9c
0x80000d9c: ff f4 04 13 addi	s0, s0, -1
è¯»å–åœ°å€ 0x80000da0
è¯»å–åœ°å€ 0x80003228
0x80000da0: 00 0a 2a 03 lw	s4, 0(s4)
è¯»å–åœ°å€ 0x80000da4
0x80000da4: fc 1f f0 6f jal	zero, 0x80000d64
è¯»å–åœ°å€ 0x80000d64
0x80000d64: 02 09 04 63 beq	s2, zero, 0x80000d8c
è¯»å–åœ°å€ 0x80000d68
å†™å…¥åœ°å€ 0x800031b0
0x80000d68: 00 f9 20 23 sw	a5, 0(s2)
è¯»å–åœ°å€ 0x80000d6c
0x80000d6c: 00 07 89 13 addi	s2, a5, 0
è¯»å–åœ°å€ 0x80000d70
0x80000d70: fc 04 16 e3 bne	s0, zero, 0x80000d3c
è¯»å–åœ°å€ 0x80000d3c
0x80000d3c: 04 09 8e 63 beq	s3, zero, 0x80000d98
è¯»å–åœ°å€ 0x80000d40
0x80000d40: 04 04 8c 63 beq	s1, zero, 0x80000d98
è¯»å–åœ°å€ 0x80000d44
è¯»å–åœ°å€ 0x800031ec
0x80000d44: 00 44 a5 83 lw	a1, 4(s1)
è¯»å–åœ°å€ 0x80000d48
è¯»å–åœ°å€ 0x80003224
0x80000d48: 00 4a 25 03 lw	a0, 4(s4)
è¯»å–åœ°å€ 0x80000d4c
0x80000d4c: 00 0d 06 13 addi	a2, s10, 0
è¯»å–åœ°å€ 0x80000d50
0x80000d50: 00 0b 80 e7 jalr	ra, 0(s7)
è¯»å–åœ°å€ 0x80000adc
0x80000adc: 00 06 0a 63 beq	a2, zero, 0x80000af0
è¯»å–åœ°å€ 0x80000af0
è¯»å–åœ°å€ 0x800032c8
0x80000af0: 00 05 17 83 lh	a5, 0(a0)
è¯»å–åœ°å€ 0x80000af4
0x80000af4: 01 07 97 13 slli	a4, a5, 16
è¯»å–åœ°å€ 0x80000af8
0x80000af8: 01 07 57 13 srli	a4, a4, 16
è¯»å–åœ°å€ 0x80000afc
0x80000afc: 00 87 57 13 srli	a4, a4, 8
è¯»å–åœ°å€ 0x80000b00
0x80000b00: f0 07 f7 93 andi	a5, a5, -256
è¯»å–åœ°å€ 0x80000b04
0x80000b04: 00 e7 e7 b3 or	a5, a5, a4
è¯»å–åœ°å€ 0x80000b08
å†™å…¥åœ°å€ 0x800032c8
0x80000b08: 00 f5 10 23 sh	a5, 0(a0)
è¯»å–åœ°å€ 0x80000b0c
è¯»å–åœ°å€ 0x800032ac
0x80000b0c: 00 05 97 83 lh	a5, 0(a1)
è¯»å–åœ°å€ 0x80000b10
è¯»å–åœ°å€ 0x800032ca
0x80000b10: 00 25 15 03 lh	a0, 2(a0)
è¯»å–åœ°å€ 0x80000b14
0x80000b14: 01 07 97 13 slli	a4, a5, 16
è¯»å–åœ°å€ 0x80000b18
0x80000b18: 01 07 57 13 srli	a4, a4, 16
è¯»å–åœ°å€ 0x80000b1c
0x80000b1c: 00 87 57 13 srli	a4, a4, 8
è¯»å–åœ°å€ 0x80000b20
0x80000b20: f0 07 f7 93 andi	a5, a5, -256
è¯»å–åœ°å€ 0x80000b24
0x80000b24: 00 e7 e7 b3 or	a5, a5, a4
è¯»å–åœ°å€ 0x80000b28
å†™å…¥åœ°å€ 0x800032ac
0x80000b28: 00 f5 90 23 sh	a5, 0(a1)
è¯»å–åœ°å€ 0x80000b2c
è¯»å–åœ°å€ 0x800032ae
0x80000b2c: 00 25 97 83 lh	a5, 2(a1)
è¯»å–åœ°å€ 0x80000b30
0x80000b30: 40 f5 05 33 sub	a0, a0, a5
è¯»å–åœ°å€ 0x80000b34
0x80000b34: 00 00 80 67 jalr	zero, 0(ra)
è¯»å–åœ°å€ 0x80000d54
0x80000d54: 04 a0 52 63 bge	zero, a0, 0x80000d98
è¯»å–åœ°å€ 0x80000d58
0x80000d58: 00 04 87 93 addi	a5, s1, 0
è¯»å–åœ°å€ 0x80000d5c
è¯»å–åœ°å€ 0x800031e8
0x80000d5c: 00 04 a4 83 lw	s1, 0(s1)
è¯»å–åœ°å€ 0x80000d60
0x80000d60: ff f9 89 93 addi	s3, s3, -1
è¯»å–åœ°å€ 0x80000d64
0x80000d64: 02 09 04 63 beq	s2, zero, 0x80000d8c
è¯»å–åœ°å€ 0x80000d68
å†™å…¥åœ°å€ 0x80003228
0x80000d68: 00 f9 20 23 sw	a5, 0(s2)
è¯»å–åœ°å€ 0x80000d6c
0x80000d6c: 00 07 89 13 addi	s2, a5, 0
è¯»å–åœ°å€ 0x80000d70
0x80000d70: fc 04 16 e3 bne	s0, zero, 0x80000d3c
è¯»å–åœ°å€ 0x80000d3c
0x80000d3c: 04 09 8e 63 beq	s3, zero, 0x80000d98
è¯»å–åœ°å€ 0x80000d40
0x80000d40: 04 04 8c 63 beq	s1, zero, 0x80000d98
è¯»å–åœ°å€ 0x80000d44
è¯»å–åœ°å€ 0x800031ac
0x80000d44: 00 44 a5 83 lw	a1, 4(s1)
è¯»å–åœ°å€ 0x80000d48
è¯»å–åœ°å€ 0x80003224
0x80000d48: 00 4a 25 03 lw	a0, 4(s4)
è¯»å–åœ°å€ 0x80000d4c
0x80000d4c: 00 0d 06 13 addi	a2, s10, 0
è¯»å–åœ°å€ 0x80000d50
0x80000d50: 00 0b 80 e7 jalr	ra, 0(s7)
è¯»å–åœ°å€ 0x80000adc
0x80000adc: 00 06 0a 63 beq	a2, zero, 0x80000af0
è¯»å–åœ°å€ 0x80000af0
è¯»å–åœ°å€ 0x800032c8
0x80000af0: 00 05 17 83 lh	a5, 0(a0)
è¯»å–åœ°å€ 0x80000af4
0x80000af4: 01 07 97 13 slli	a4, a5, 16
è¯»å–åœ°å€ 0x80000af8
0x80000af8: 01 07 57 13 srli	a4, a4, 16
è¯»å–åœ°å€ 0x80000afc
0x80000afc: 00 87 57 13 srli	a4, a4, 8
è¯»å–åœ°å€ 0x80000b00
0x80000b00: f0 07 f7 93 andi	a5, a5, -256
è¯»å–åœ°å€ 0x80000b04
0x80000b04: 00 e7 e7 b3 or	a5, a5, a4
è¯»å–åœ°å€ 0x80000b08
å†™å…¥åœ°å€ 0x800032c8
0x80000b08: 00 f5 10 23 sh	a5, 0(a0)
è¯»å–åœ°å€ 0x80000b0c
è¯»å–åœ°å€ 0x8000328c
0x80000b0c: 00 05 97 83 lh	a5, 0(a1)
è¯»å–åœ°å€ 0x80000b10
è¯»å–åœ°å€ 0x800032ca
0x80000b10: 00 25 15 03 lh	a0, 2(a0)
è¯»å–åœ°å€ 0x80000b14
0x80000b14: 01 07 97 13 slli	a4, a5, 16
è¯»å–åœ°å€ 0x80000b18
0x80000b18: 01 07 57 13 srli	a4, a4, 16
è¯»å–åœ°å€ 0x80000b1c
0x80000b1c: 00 87 57 13 srli	a4, a4, 8
è¯»å–åœ°å€ 0x80000b20
0x80000b20: f0 07 f7 93 andi	a5, a5, -256
è¯»å–åœ°å€ 0x80000b24
0x80000b24: 00 e7 e7 b3 or	a5, a5, a4
è¯»å–åœ°å€ 0x80000b28
å†™å…¥åœ°å€ 0x8000328c
0x80000b28: 00 f5 90 23 sh	a5, 0(a1)
è¯»å–åœ°å€ 0x80000b2c
è¯»å–åœ°å€ 0x8000328e
0x80000b2c: 00 25 97 83 lh	a5, 2(a1)
è¯»å–åœ°å€ 0x80000b30
0x80000b30: 40 f5 05 33 sub	a0, a0, a5
è¯»å–åœ°å€ 0x80000b34
0x80000b34: 00 00 80 67 jalr	zero, 0(ra)
è¯»å–åœ°å€ 0x80000d54
0x80000d54: 04 a0 52 63 bge	zero, a0, 0x80000d98
è¯»å–åœ°å€ 0x80000d58
0x80000d58: 00 04 87 93 addi	a5, s1, 0
è¯»å–åœ°å€ 0x80000d5c
è¯»å–åœ°å€ 0x800031a8
0x80000d5c: 00 04 a4 83 lw	s1, 0(s1)
è¯»å–åœ°å€ 0x80000d60
0x80000d60: ff f9 89 93 addi	s3, s3, -1
è¯»å–åœ°å€ 0x80000d64
0x80000d64: 02 09 04 63 beq	s2, zero, 0x80000d8c
è¯»å–åœ°å€ 0x80000d68
å†™å…¥åœ°å€ 0x800031e8
0x80000d68: 00 f9 20 23 sw	a5, 0(s2)
è¯»å–åœ°å€ 0x80000d6c
0x80000d6c: 00 07 89 13 addi	s2, a5, 0
è¯»å–åœ°å€ 0x80000d70
0x80000d70: fc 04 16 e3 bne	s0, zero, 0x80000d3c
è¯»å–åœ°å€ 0x80000d3c
0x80000d3c: 04 09 8e 63 beq	s3, zero, 0x80000d98
è¯»å–åœ°å€ 0x80000d40
0x80000d40: 04 04 8c 63 beq	s1, zero, 0x80000d98
è¯»å–åœ°å€ 0x80000d44
è¯»å–åœ°å€ 0x800031e4
0x80000d44: 00 44 a5 83 lw	a1, 4(s1)
è¯»å–åœ°å€ 0x80000d48
è¯»å–åœ°å€ 0x80003224
0x80000d48: 00 4a 25 03 lw	a0, 4(s4)
è¯»å–åœ°å€ 0x80000d4c
0x80000d4c: 00 0d 06 13 addi	a2, s10, 0
è¯»å–åœ°å€ 0x80000d50
0x80000d50: 00 0b 80 e7 jalr	ra, 0(s7)
è¯»å–åœ°å€ 0x80000adc
0x80000adc: 00 06 0a 63 beq	a2, zero, 0x80000af0
è¯»å–åœ°å€ 0x80000af0
è¯»å–åœ°å€ 0x800032c8
0x80000af0: 00 05 17 83 lh	a5, 0(a0)
è¯»å–åœ°å€ 0x80000af4
0x80000af4: 01 07 97 13 slli	a4, a5, 16
è¯»å–åœ°å€ 0x80000af8
0x80000af8: 01 07 57 13 srli	a4, a4, 16
è¯»å–åœ°å€ 0x80000afc
0x80000afc: 00 87 57 13 srli	a4, a4, 8
è¯»å–åœ°å€ 0x80000b00
0x80000b00: f0 07 f7 93 andi	a5, a5, -256
è¯»å–åœ°å€ 0x80000b04
0x80000b04: 00 e7 e7 b3 or	a5, a5, a4
è¯»å–åœ°å€ 0x80000b08
å†™å…¥åœ°å€ 0x800032c8
0x80000b08: 00 f5 10 23 sh	a5, 0(a0)
è¯»å–åœ°å€ 0x80000b0c
è¯»å–åœ°å€ 0x800032a8
0x80000b0c: 00 05 97 83 lh	a5, 0(a1)
è¯»å–åœ°å€ 0x80000b10
è¯»å–åœ°å€ 0x800032ca
0x80000b10: 00 25 15 03 lh	a0, 2(a0)
è¯»å–åœ°å€ 0x80000b14
0x80000b14: 01 07 97 13 slli	a4, a5, 16
è¯»å–åœ°å€ 0x80000b18
0x80000b18: 01 07 57 13 srli	a4, a4, 16
è¯»å–åœ°å€ 0x80000b1c
0x80000b1c: 00 87 57 13 srli	a4, a4, 8
è¯»å–åœ°å€ 0x80000b20
0x80000b20: f0 07 f7 93 andi	a5, a5, -256
è¯»å–åœ°å€ 0x80000b24
0x80000b24: 00 e7 e7 b3 or	a5, a5, a4
è¯»å–åœ°å€ 0x80000b28
å†™å…¥åœ°å€ 0x800032a8
0x80000b28: 00 f5 90 23 sh	a5, 0(a1)
è¯»å–åœ°å€ 0x80000b2c
è¯»å–åœ°å€ 0x800032aa
0x80000b2c: 00 25 97 83 lh	a5, 2(a1)
è¯»å–åœ°å€ 0x80000b30
0x80000b30: 40 f5 05 33 sub	a0, a0, a5
è¯»å–åœ°å€ 0x80000b34
0x80000b34: 00 00 80 67 jalr	zero, 0(ra)
è¯»å–åœ°å€ 0x80000d54
0x80000d54: 04 a0 52 63 bge	zero, a0, 0x80000d98
è¯»å–åœ°å€ 0x80000d98
0x80000d98: 00 0a 07 93 addi	a5, s4, 0
è¯»å–åœ°å€ 0x80000d9c
0x80000d9c: ff f4 04 13 addi	s0, s0, -1
è¯»å–åœ°å€ 0x80000da0
è¯»å–åœ°å€ 0x80003220
0x80000da0: 00 0a 2a 03 lw	s4, 0(s4)
è¯»å–åœ°å€ 0x80000da4
0x80000da4: fc 1f f0 6f jal	zero, 0x80000d64
è¯»å–åœ°å€ 0x80000d64
0x80000d64: 02 09 04 63 beq	s2, zero, 0x80000d8c
è¯»å–åœ°å€ 0x80000d68
å†™å…¥åœ°å€ 0x800031a8
0x80000d68: 00 f9 20 23 sw	a5, 0(s2)
è¯»å–åœ°å€ 0x80000d6c
0x80000d6c: 00 07 89 13 addi	s2, a5, 0
è¯»å–åœ°å€ 0x80000d70
0x80000d70: fc 04 16 e3 bne	s0, zero, 0x80000d3c
è¯»å–åœ°å€ 0x80000d3c
0x80000d3c: 04 09 8e 63 beq	s3, zero, 0x80000d98
è¯»å–åœ°å€ 0x80000d40
0x80000d40: 04 04 8c 63 beq	s1, zero, 0x80000d98
è¯»å–åœ°å€ 0x80000d44
è¯»å–åœ°å€ 0x800031e4
0x80000d44: 00 44 a5 83 lw	a1, 4(s1)
è¯»å–åœ°å€ 0x80000d48
è¯»å–åœ°å€ 0x8000321c
0x80000d48: 00 4a 25 03 lw	a0, 4(s4)
è¯»å–åœ°å€ 0x80000d4c
0x80000d4c: 00 0d 06 13 addi	a2, s10, 0
è¯»å–åœ°å€ 0x80000d50
0x80000d50: 00 0b 80 e7 jalr	ra, 0(s7)
è¯»å–åœ°å€ 0x80000adc
0x80000adc: 00 06 0a 63 beq	a2, zero, 0x80000af0
è¯»å–åœ°å€ 0x80000af0
è¯»å–åœ°å€ 0x800032c4
0x80000af0: 00 05 17 83 lh	a5, 0(a0)
è¯»å–åœ°å€ 0x80000af4
0x80000af4: 01 07 97 13 slli	a4, a5, 16
è¯»å–åœ°å€ 0x80000af8
0x80000af8: 01 07 57 13 srli	a4, a4, 16
è¯»å–åœ°å€ 0x80000afc
0x80000afc: 00 87 57 13 srli	a4, a4, 8
è¯»å–åœ°å€ 0x80000b00
0x80000b00: f0 07 f7 93 andi	a5, a5, -256
è¯»å–åœ°å€ 0x80000b04
0x80000b04: 00 e7 e7 b3 or	a5, a5, a4
è¯»å–åœ°å€ 0x80000b08
å†™å…¥åœ°å€ 0x800032c4
0x80000b08: 00 f5 10 23 sh	a5, 0(a0)
è¯»å–åœ°å€ 0x80000b0c
è¯»å–åœ°å€ 0x800032a8
0x80000b0c: 00 05 97 83 lh	a5, 0(a1)
è¯»å–åœ°å€ 0x80000b10
è¯»å–åœ°å€ 0x800032c6
0x80000b10: 00 25 15 03 lh	a0, 2(a0)
è¯»å–åœ°å€ 0x80000b14
0x80000b14: 01 07 97 13 slli	a4, a5, 16
è¯»å–åœ°å€ 0x80000b18
0x80000b18: 01 07 57 13 srli	a4, a4, 16
è¯»å–åœ°å€ 0x80000b1c
0x80000b1c: 00 87 57 13 srli	a4, a4, 8
è¯»å–åœ°å€ 0x80000b20
0x80000b20: f0 07 f7 93 andi	a5, a5, -256
è¯»å–åœ°å€ 0x80000b24
0x80000b24: 00 e7 e7 b3 or	a5, a5, a4
è¯»å–åœ°å€ 0x80000b28
å†™å…¥åœ°å€ 0x800032a8
0x80000b28: 00 f5 90 23 sh	a5, 0(a1)
è¯»å–åœ°å€ 0x80000b2c
è¯»å–åœ°å€ 0x800032aa
0x80000b2c: 00 25 97 83 lh	a5, 2(a1)
è¯»å–åœ°å€ 0x80000b30
0x80000b30: 40 f5 05 33 sub	a0, a0, a5
è¯»å–åœ°å€ 0x80000b34
0x80000b34: 00 00 80 67 jalr	zero, 0(ra)
è¯»å–åœ°å€ 0x80000d54
0x80000d54: 04 a0 52 63 bge	zero, a0, 0x80000d98
è¯»å–åœ°å€ 0x80000d58
0x80000d58: 00 04 87 93 addi	a5, s1, 0
è¯»å–åœ°å€ 0x80000d5c
è¯»å–åœ°å€ 0x800031e0
0x80000d5c: 00 04 a4 83 lw	s1, 0(s1)
è¯»å–åœ°å€ 0x80000d60
0x80000d60: ff f9 89 93 addi	s3, s3, -1
è¯»å–åœ°å€ 0x80000d64
0x80000d64: 02 09 04 63 beq	s2, zero, 0x80000d8c
è¯»å–åœ°å€ 0x80000d68
å†™å…¥åœ°å€ 0x80003220
0x80000d68: 00 f9 20 23 sw	a5, 0(s2)
è¯»å–åœ°å€ 0x80000d6c
0x80000d6c: 00 07 89 13 addi	s2, a5, 0
è¯»å–åœ°å€ 0x80000d70
0x80000d70: fc 04 16 e3 bne	s0, zero, 0x80000d3c
è¯»å–åœ°å€ 0x80000d3c
0x80000d3c: 04 09 8e 63 beq	s3, zero, 0x80000d98
è¯»å–åœ°å€ 0x80000d40
0x80000d40: 04 04 8c 63 beq	s1, zero, 0x80000d98
è¯»å–åœ°å€ 0x80000d44
è¯»å–åœ°å€ 0x800031a4
0x80000d44: 00 44 a5 83 lw	a1, 4(s1)
è¯»å–åœ°å€ 0x80000d48
è¯»å–åœ°å€ 0x8000321c
0x80000d48: 00 4a 25 03 lw	a0, 4(s4)
è¯»å–åœ°å€ 0x80000d4c
0x80000d4c: 00 0d 06 13 addi	a2, s10, 0
è¯»å–åœ°å€ 0x80000d50
0x80000d50: 00 0b 80 e7 jalr	ra, 0(s7)
è¯»å–åœ°å€ 0x80000adc
0x80000adc: 00 06 0a 63 beq	a2, zero, 0x80000af0
è¯»å–åœ°å€ 0x80000af0
è¯»å–åœ°å€ 0x800032c4
0x80000af0: 00 05 17 83 lh	a5, 0(a0)
è¯»å–åœ°å€ 0x80000af4
0x80000af4: 01 07 97 13 slli	a4, a5, 16
è¯»å–åœ°å€ 0x80000af8
0x80000af8: 01 07 57 13 srli	a4, a4, 16
è¯»å–åœ°å€ 0x80000afc
0x80000afc: 00 87 57 13 srli	a4, a4, 8
è¯»å–åœ°å€ 0x80000b00
0x80000b00: f0 07 f7 93 andi	a5, a5, -256
è¯»å–åœ°å€ 0x80000b04
0x80000b04: 00 e7 e7 b3 or	a5, a5, a4
è¯»å–åœ°å€ 0x80000b08
å†™å…¥åœ°å€ 0x800032c4
0x80000b08: 00 f5 10 23 sh	a5, 0(a0)
è¯»å–åœ°å€ 0x80000b0c
è¯»å–åœ°å€ 0x80003288
0x80000b0c: 00 05 97 83 lh	a5, 0(a1)
è¯»å–åœ°å€ 0x80000b10
è¯»å–åœ°å€ 0x800032c6
0x80000b10: 00 25 15 03 lh	a0, 2(a0)
è¯»å–åœ°å€ 0x80000b14
0x80000b14: 01 07 97 13 slli	a4, a5, 16
è¯»å–åœ°å€ 0x80000b18
0x80000b18: 01 07 57 13 srli	a4, a4, 16
è¯»å–åœ°å€ 0x80000b1c
0x80000b1c: 00 87 57 13 srli	a4, a4, 8
è¯»å–åœ°å€ 0x80000b20
0x80000b20: f0 07 f7 93 andi	a5, a5, -256
è¯»å–åœ°å€ 0x80000b24
0x80000b24: 00 e7 e7 b3 or	a5, a5, a4
è¯»å–åœ°å€ 0x80000b28
å†™å…¥åœ°å€ 0x80003288
0x80000b28: 00 f5 90 23 sh	a5, 0(a1)
è¯»å–åœ°å€ 0x80000b2c
è¯»å–åœ°å€ 0x8000328a
0x80000b2c: 00 25 97 83 lh	a5, 2(a1)
è¯»å–åœ°å€ 0x80000b30
0x80000b30: 40 f5 05 33 sub	a0, a0, a5
è¯»å–åœ°å€ 0x80000b34
0x80000b34: 00 00 80 67 jalr	zero, 0(ra)
è¯»å–åœ°å€ 0x80000d54
0x80000d54: 04 a0 52 63 bge	zero, a0, 0x80000d98
è¯»å–åœ°å€ 0x80000d58
0x80000d58: 00 04 87 93 addi	a5, s1, 0
è¯»å–åœ°å€ 0x80000d5c
è¯»å–åœ°å€ 0x800031a0
0x80000d5c: 00 04 a4 83 lw	s1, 0(s1)
è¯»å–åœ°å€ 0x80000d60
0x80000d60: ff f9 89 93 addi	s3, s3, -1
è¯»å–åœ°å€ 0x80000d64
0x80000d64: 02 09 04 63 beq	s2, zero, 0x80000d8c
è¯»å–åœ°å€ 0x80000d68
å†™å…¥åœ°å€ 0x800031e0
0x80000d68: 00 f9 20 23 sw	a5, 0(s2)
è¯»å–åœ°å€ 0x80000d6c
0x80000d6c: 00 07 89 13 addi	s2, a5, 0
è¯»å–åœ°å€ 0x80000d70
0x80000d70: fc 04 16 e3 bne	s0, zero, 0x80000d3c
è¯»å–åœ°å€ 0x80000d3c
0x80000d3c: 04 09 8e 63 beq	s3, zero, 0x80000d98
è¯»å–åœ°å€ 0x80000d40
0x80000d40: 04 04 8c 63 beq	s1, zero, 0x80000d98
è¯»å–åœ°å€ 0x80000d44
è¯»å–åœ°å€ 0x800031dc
0x80000d44: 00 44 a5 83 lw	a1, 4(s1)
è¯»å–åœ°å€ 0x80000d48
è¯»å–åœ°å€ 0x8000321c
0x80000d48: 00 4a 25 03 lw	a0, 4(s4)
è¯»å–åœ°å€ 0x80000d4c
0x80000d4c: 00 0d 06 13 addi	a2, s10, 0
è¯»å–åœ°å€ 0x80000d50
0x80000d50: 00 0b 80 e7 jalr	ra, 0(s7)
è¯»å–åœ°å€ 0x80000adc
0x80000adc: 00 06 0a 63 beq	a2, zero, 0x80000af0
è¯»å–åœ°å€ 0x80000af0
è¯»å–åœ°å€ 0x800032c4
0x80000af0: 00 05 17 83 lh	a5, 0(a0)
è¯»å–åœ°å€ 0x80000af4
0x80000af4: 01 07 97 13 slli	a4, a5, 16
è¯»å–åœ°å€ 0x80000af8
0x80000af8: 01 07 57 13 srli	a4, a4, 16
è¯»å–åœ°å€ 0x80000afc
0x80000afc: 00 87 57 13 srli	a4, a4, 8
è¯»å–åœ°å€ 0x80000b00
0x80000b00: f0 07 f7 93 andi	a5, a5, -256
è¯»å–åœ°å€ 0x80000b04
0x80000b04: 00 e7 e7 b3 or	a5, a5, a4
è¯»å–åœ°å€ 0x80000b08
å†™å…¥åœ°å€ 0x800032c4
0x80000b08: 00 f5 10 23 sh	a5, 0(a0)
è¯»å–åœ°å€ 0x80000b0c
è¯»å–åœ°å€ 0x800032a4
0x80000b0c: 00 05 97 83 lh	a5, 0(a1)
è¯»å–åœ°å€ 0x80000b10
è¯»å–åœ°å€ 0x800032c6
0x80000b10: 00 25 15 03 lh	a0, 2(a0)
è¯»å–åœ°å€ 0x80000b14
0x80000b14: 01 07 97 13 slli	a4, a5, 16
è¯»å–åœ°å€ 0x80000b18
0x80000b18: 01 07 57 13 srli	a4, a4, 16
è¯»å–åœ°å€ 0x80000b1c
0x80000b1c: 00 87 57 13 srli	a4, a4, 8
è¯»å–åœ°å€ 0x80000b20
0x80000b20: f0 07 f7 93 andi	a5, a5, -256
è¯»å–åœ°å€ 0x80000b24
0x80000b24: 00 e7 e7 b3 or	a5, a5, a4
è¯»å–åœ°å€ 0x80000b28
å†™å…¥åœ°å€ 0x800032a4
0x80000b28: 00 f5 90 23 sh	a5, 0(a1)
è¯»å–åœ°å€ 0x80000b2c
è¯»å–åœ°å€ 0x800032a6
0x80000b2c: 00 25 97 83 lh	a5, 2(a1)
è¯»å–åœ°å€ 0x80000b30
0x80000b30: 40 f5 05 33 sub	a0, a0, a5
è¯»å–åœ°å€ 0x80000b34
