
/home/alan/Project/ysyx/ysyx-workbench/am-kernels/kernels/bad-apple/build/bad-apple-riscv32-nemu.elf:     file format elf32-littleriscv


Disassembly of section .text:

80000000 <_start>:
80000000:	00000413          	li	s0,0
80000004:	01409117          	auipc	sp,0x1409
80000008:	ffc10113          	addi	sp,sp,-4 # 81409000 <_end>
8000000c:	228000ef          	jal	ra,80000234 <_trm_init>

80000010 <main>:
80000010:	fa010113          	addi	sp,sp,-96
80000014:	04112e23          	sw	ra,92(sp)
80000018:	05212823          	sw	s2,80(sp)
8000001c:	03812c23          	sw	s8,56(sp)
80000020:	04812c23          	sw	s0,88(sp)
80000024:	04912a23          	sw	s1,84(sp)
80000028:	05312623          	sw	s3,76(sp)
8000002c:	05412423          	sw	s4,72(sp)
80000030:	05512223          	sw	s5,68(sp)
80000034:	05612023          	sw	s6,64(sp)
80000038:	03712e23          	sw	s7,60(sp)
8000003c:	03912a23          	sw	s9,52(sp)
80000040:	03a12823          	sw	s10,48(sp)
80000044:	03b12623          	sw	s11,44(sp)
80000048:	2a0000ef          	jal	ra,800002e8 <ioe_init>
8000004c:	80000537          	lui	a0,0x80000
80000050:	75850513          	addi	a0,a0,1880 # 80000758 <_end+0xfebf7758>
80000054:	5b4000ef          	jal	ra,80000608 <printf>
80000058:	01010593          	addi	a1,sp,16
8000005c:	00e00513          	li	a0,14
80000060:	2e0000ef          	jal	ra,80000340 <ioe_read>
80000064:	01014c03          	lbu	s8,16(sp)
80000068:	00000913          	li	s2,0
8000006c:	160c1463          	bnez	s8,800001d4 <main+0x1c4>
80000070:	01010593          	addi	a1,sp,16
80000074:	00600513          	li	a0,6
80000078:	2c8000ef          	jal	ra,80000340 <ioe_read>
8000007c:	80000437          	lui	s0,0x80000
80000080:	80192b37          	lui	s6,0x80192
80000084:	7f840793          	addi	a5,s0,2040 # 800007f8 <_end+0xfebf77f8>
80000088:	be4b0b13          	addi	s6,s6,-1052 # 80191be4 <_end+0xfed88be4>
8000008c:	01012a83          	lw	s5,16(sp)
80000090:	01412c83          	lw	s9,20(sp)
80000094:	0d67f663          	bgeu	a5,s6,80000160 <main+0x150>
80000098:	000017b7          	lui	a5,0x1
8000009c:	82078493          	addi	s1,a5,-2016 # 820 <_entry_offset+0x820>
800000a0:	b7b78d13          	addi	s10,a5,-1157
800000a4:	b7c78793          	addi	a5,a5,-1156
800000a8:	00f12423          	sw	a5,8(sp)
800000ac:	000087b7          	lui	a5,0x8
800000b0:	80192a37          	lui	s4,0x80192
800000b4:	23578793          	addi	a5,a5,565 # 8235 <_entry_offset+0x8235>
800000b8:	be8a0a13          	addi	s4,s4,-1048 # 80191be8 <_end+0xfed88be8>
800000bc:	7f840413          	addi	s0,s0,2040
800000c0:	80000db7          	lui	s11,0x80000
800000c4:	00f12623          	sw	a5,12(sp)
800000c8:	760d8513          	addi	a0,s11,1888 # 80000760 <_end+0xfebf7760>
800000cc:	53c000ef          	jal	ra,80000608 <printf>
800000d0:	05000993          	li	s3,80
800000d4:	fb098b93          	addi	s7,s3,-80
800000d8:	403bd793          	srai	a5,s7,0x3
800000dc:	00f407b3          	add	a5,s0,a5
800000e0:	0007c503          	lbu	a0,0(a5)
800000e4:	fffbc793          	not	a5,s7
800000e8:	0077f793          	andi	a5,a5,7
800000ec:	40f55533          	sra	a0,a0,a5
800000f0:	00157513          	andi	a0,a0,1
800000f4:	40a00533          	neg	a0,a0
800000f8:	02a57513          	andi	a0,a0,42
800000fc:	001b8b93          	addi	s7,s7,1
80000100:	02e50513          	addi	a0,a0,46
80000104:	118000ef          	jal	ra,8000021c <putch>
80000108:	fd7998e3          	bne	s3,s7,800000d8 <main+0xc8>
8000010c:	05098993          	addi	s3,s3,80
80000110:	00a00513          	li	a0,10
80000114:	108000ef          	jal	ra,8000021c <putch>
80000118:	fa999ee3          	bne	s3,s1,800000d4 <main+0xc4>
8000011c:	080c1263          	bnez	s8,800001a0 <main+0x190>
80000120:	00c12783          	lw	a5,12(sp)
80000124:	00fa8bb3          	add	s7,s5,a5
80000128:	015bbab3          	sltu	s5,s7,s5
8000012c:	019a89b3          	add	s3,s5,s9
80000130:	00098c93          	mv	s9,s3
80000134:	000b8a93          	mv	s5,s7
80000138:	01010593          	addi	a1,sp,16
8000013c:	00600513          	li	a0,6
80000140:	200000ef          	jal	ra,80000340 <ioe_read>
80000144:	01412783          	lw	a5,20(sp)
80000148:	01012703          	lw	a4,16(sp)
8000014c:	ff37e6e3          	bltu	a5,s3,80000138 <main+0x128>
80000150:	00f99463          	bne	s3,a5,80000158 <main+0x148>
80000154:	ff7762e3          	bltu	a4,s7,80000138 <main+0x128>
80000158:	0fa40413          	addi	s0,s0,250
8000015c:	f76466e3          	bltu	s0,s6,800000c8 <main+0xb8>
80000160:	05c12083          	lw	ra,92(sp)
80000164:	05812403          	lw	s0,88(sp)
80000168:	05412483          	lw	s1,84(sp)
8000016c:	05012903          	lw	s2,80(sp)
80000170:	04c12983          	lw	s3,76(sp)
80000174:	04812a03          	lw	s4,72(sp)
80000178:	04412a83          	lw	s5,68(sp)
8000017c:	04012b03          	lw	s6,64(sp)
80000180:	03c12b83          	lw	s7,60(sp)
80000184:	03812c03          	lw	s8,56(sp)
80000188:	03412c83          	lw	s9,52(sp)
8000018c:	03012d03          	lw	s10,48(sp)
80000190:	02c12d83          	lw	s11,44(sp)
80000194:	00000513          	li	a0,0
80000198:	06010113          	addi	sp,sp,96
8000019c:	00008067          	ret
800001a0:	032d4663          	blt	s10,s2,800001cc <main+0x1bc>
800001a4:	00090793          	mv	a5,s2
800001a8:	07205663          	blez	s2,80000214 <main+0x204>
800001ac:	00fa07b3          	add	a5,s4,a5
800001b0:	01010593          	addi	a1,sp,16
800001b4:	01100513          	li	a0,17
800001b8:	01412823          	sw	s4,16(sp)
800001bc:	00f12a23          	sw	a5,20(sp)
800001c0:	00078a13          	mv	s4,a5
800001c4:	198000ef          	jal	ra,8000035c <ioe_write>
800001c8:	f59ff06f          	j	80000120 <main+0x110>
800001cc:	00812783          	lw	a5,8(sp)
800001d0:	fddff06f          	j	800001ac <main+0x19c>
800001d4:	0000b7b7          	lui	a5,0xb
800001d8:	c4478793          	addi	a5,a5,-956 # ac44 <_entry_offset+0xac44>
800001dc:	00f12823          	sw	a5,16(sp)
800001e0:	00100793          	li	a5,1
800001e4:	00f12a23          	sw	a5,20(sp)
800001e8:	01010593          	addi	a1,sp,16
800001ec:	40000793          	li	a5,1024
800001f0:	00f00513          	li	a0,15
800001f4:	00f12c23          	sw	a5,24(sp)
800001f8:	164000ef          	jal	ra,8000035c <ioe_write>
800001fc:	81401937          	lui	s2,0x81401
80000200:	801927b7          	lui	a5,0x80192
80000204:	be890913          	addi	s2,s2,-1048 # 81400be8 <_end+0xffff7be8>
80000208:	be878793          	addi	a5,a5,-1048 # 80191be8 <_end+0xfed88be8>
8000020c:	40f90933          	sub	s2,s2,a5
80000210:	e61ff06f          	j	80000070 <main+0x60>
80000214:	00000913          	li	s2,0
80000218:	f09ff06f          	j	80000120 <main+0x110>

8000021c <putch>:
8000021c:	a00007b7          	lui	a5,0xa0000
80000220:	3ea78c23          	sb	a0,1016(a5) # a00003f8 <_end+0x1ebf73f8>
80000224:	00008067          	ret

80000228 <halt>:
80000228:	00050513          	mv	a0,a0
8000022c:	00100073          	ebreak
80000230:	0000006f          	j	80000230 <halt+0x8>

80000234 <_trm_init>:
80000234:	80000537          	lui	a0,0x80000
80000238:	ff010113          	addi	sp,sp,-16
8000023c:	7f050513          	addi	a0,a0,2032 # 800007f0 <_end+0xfebf77f0>
80000240:	00112623          	sw	ra,12(sp)
80000244:	dcdff0ef          	jal	ra,80000010 <main>
80000248:	00050513          	mv	a0,a0
8000024c:	00100073          	ebreak
80000250:	0000006f          	j	80000250 <_trm_init+0x1c>

80000254 <__am_timer_config>:
80000254:	00100793          	li	a5,1
80000258:	00f50023          	sb	a5,0(a0)
8000025c:	00f500a3          	sb	a5,1(a0)
80000260:	00008067          	ret

80000264 <__am_input_config>:
80000264:	00100793          	li	a5,1
80000268:	00f50023          	sb	a5,0(a0)
8000026c:	00008067          	ret

80000270 <__am_uart_config>:
80000270:	00050023          	sb	zero,0(a0)
80000274:	00008067          	ret

80000278 <__am_net_config>:
80000278:	00050023          	sb	zero,0(a0)
8000027c:	00008067          	ret

80000280 <fail>:
80000280:	ff010113          	addi	sp,sp,-16
80000284:	00812423          	sw	s0,8(sp)
80000288:	80000437          	lui	s0,0x80000
8000028c:	00112623          	sw	ra,12(sp)
80000290:	76840413          	addi	s0,s0,1896 # 80000768 <_end+0xfebf7768>
80000294:	04100513          	li	a0,65
80000298:	00140413          	addi	s0,s0,1
8000029c:	f81ff0ef          	jal	ra,8000021c <putch>
800002a0:	00044503          	lbu	a0,0(s0)
800002a4:	fe051ae3          	bnez	a0,80000298 <fail+0x18>
800002a8:	80000437          	lui	s0,0x80000
800002ac:	77440413          	addi	s0,s0,1908 # 80000774 <_end+0xfebf7774>
800002b0:	06100513          	li	a0,97
800002b4:	00140413          	addi	s0,s0,1
800002b8:	f65ff0ef          	jal	ra,8000021c <putch>
800002bc:	00044503          	lbu	a0,0(s0)
800002c0:	fe051ae3          	bnez	a0,800002b4 <fail+0x34>
800002c4:	80000437          	lui	s0,0x80000
800002c8:	79040413          	addi	s0,s0,1936 # 80000790 <_end+0xfebf7790>
800002cc:	02000513          	li	a0,32
800002d0:	00140413          	addi	s0,s0,1
800002d4:	f49ff0ef          	jal	ra,8000021c <putch>
800002d8:	00044503          	lbu	a0,0(s0)
800002dc:	fe051ae3          	bnez	a0,800002d0 <fail+0x50>
800002e0:	00100513          	li	a0,1
800002e4:	f45ff0ef          	jal	ra,80000228 <halt>

800002e8 <ioe_init>:
800002e8:	814017b7          	lui	a5,0x81401
800002ec:	ff010113          	addi	sp,sp,-16
800002f0:	be878793          	addi	a5,a5,-1048 # 81400be8 <_end+0xffff7be8>
800002f4:	80000637          	lui	a2,0x80000
800002f8:	00112623          	sw	ra,12(sp)
800002fc:	20078693          	addi	a3,a5,512
80000300:	28060613          	addi	a2,a2,640 # 80000280 <_end+0xfebf7280>
80000304:	00c0006f          	j	80000310 <ioe_init+0x28>
80000308:	00478793          	addi	a5,a5,4
8000030c:	00d78c63          	beq	a5,a3,80000324 <ioe_init+0x3c>
80000310:	0007a703          	lw	a4,0(a5)
80000314:	fe071ae3          	bnez	a4,80000308 <ioe_init+0x20>
80000318:	00c7a023          	sw	a2,0(a5)
8000031c:	00478793          	addi	a5,a5,4
80000320:	fed798e3          	bne	a5,a3,80000310 <ioe_init+0x28>
80000324:	0a8000ef          	jal	ra,800003cc <__am_gpu_init>
80000328:	050000ef          	jal	ra,80000378 <__am_timer_init>
8000032c:	0e0000ef          	jal	ra,8000040c <__am_audio_init>
80000330:	00c12083          	lw	ra,12(sp)
80000334:	00100513          	li	a0,1
80000338:	01010113          	addi	sp,sp,16
8000033c:	00008067          	ret

80000340 <ioe_read>:
80000340:	814017b7          	lui	a5,0x81401
80000344:	00251513          	slli	a0,a0,0x2
80000348:	be878793          	addi	a5,a5,-1048 # 81400be8 <_end+0xffff7be8>
8000034c:	00a787b3          	add	a5,a5,a0
80000350:	0007a783          	lw	a5,0(a5)
80000354:	00058513          	mv	a0,a1
80000358:	00078067          	jr	a5

8000035c <ioe_write>:
8000035c:	814017b7          	lui	a5,0x81401
80000360:	00251513          	slli	a0,a0,0x2
80000364:	be878793          	addi	a5,a5,-1048 # 81400be8 <_end+0xffff7be8>
80000368:	00a787b3          	add	a5,a5,a0
8000036c:	0007a783          	lw	a5,0(a5)
80000370:	00058513          	mv	a0,a1
80000374:	00078067          	jr	a5

80000378 <__am_timer_init>:
80000378:	a00007b7          	lui	a5,0xa0000
8000037c:	0407a423          	sw	zero,72(a5) # a0000048 <_end+0x1ebf7048>
80000380:	0407a623          	sw	zero,76(a5)
80000384:	00008067          	ret

80000388 <__am_timer_uptime>:
80000388:	a00007b7          	lui	a5,0xa0000
8000038c:	0487a703          	lw	a4,72(a5) # a0000048 <_end+0x1ebf7048>
80000390:	04c7a783          	lw	a5,76(a5)
80000394:	00052223          	sw	zero,4(a0)
80000398:	00f52023          	sw	a5,0(a0)
8000039c:	00008067          	ret

800003a0 <__am_timer_rtc>:
800003a0:	76c00793          	li	a5,1900
800003a4:	00052a23          	sw	zero,20(a0)
800003a8:	00052823          	sw	zero,16(a0)
800003ac:	00052623          	sw	zero,12(a0)
800003b0:	00052423          	sw	zero,8(a0)
800003b4:	00052223          	sw	zero,4(a0)
800003b8:	00f52023          	sw	a5,0(a0)
800003bc:	00008067          	ret

800003c0 <__am_input_keybrd>:
800003c0:	00050023          	sb	zero,0(a0)
800003c4:	00052223          	sw	zero,4(a0)
800003c8:	00008067          	ret

800003cc <__am_gpu_init>:
800003cc:	00008067          	ret

800003d0 <__am_gpu_config>:
800003d0:	00100793          	li	a5,1
800003d4:	00f51023          	sh	a5,0(a0)
800003d8:	00052223          	sw	zero,4(a0)
800003dc:	00052423          	sw	zero,8(a0)
800003e0:	00052623          	sw	zero,12(a0)
800003e4:	00008067          	ret

800003e8 <__am_gpu_fbdraw>:
800003e8:	01454783          	lbu	a5,20(a0)
800003ec:	00078863          	beqz	a5,800003fc <__am_gpu_fbdraw+0x14>
800003f0:	a00007b7          	lui	a5,0xa0000
800003f4:	00100713          	li	a4,1
800003f8:	10e7a223          	sw	a4,260(a5) # a0000104 <_end+0x1ebf7104>
800003fc:	00008067          	ret

80000400 <__am_gpu_status>:
80000400:	00100793          	li	a5,1
80000404:	00f50023          	sb	a5,0(a0)
80000408:	00008067          	ret

8000040c <__am_audio_init>:
8000040c:	00008067          	ret

80000410 <__am_audio_config>:
80000410:	00050023          	sb	zero,0(a0)
80000414:	00008067          	ret

80000418 <__am_audio_ctrl>:
80000418:	00008067          	ret

8000041c <__am_audio_status>:
8000041c:	00052023          	sw	zero,0(a0)
80000420:	00008067          	ret

80000424 <__am_audio_play>:
80000424:	00008067          	ret

80000428 <__am_disk_config>:
80000428:	00050023          	sb	zero,0(a0)
8000042c:	00008067          	ret

80000430 <__am_disk_status>:
80000430:	00008067          	ret

80000434 <__am_disk_blkio>:
80000434:	00008067          	ret

80000438 <vsprintf>:
80000438:	fc010113          	addi	sp,sp,-64
8000043c:	01812c23          	sw	s8,24(sp)
80000440:	02112e23          	sw	ra,60(sp)
80000444:	02812c23          	sw	s0,56(sp)
80000448:	02912a23          	sw	s1,52(sp)
8000044c:	03212823          	sw	s2,48(sp)
80000450:	03312623          	sw	s3,44(sp)
80000454:	03412423          	sw	s4,40(sp)
80000458:	03512223          	sw	s5,36(sp)
8000045c:	03612023          	sw	s6,32(sp)
80000460:	01712e23          	sw	s7,28(sp)
80000464:	01912a23          	sw	s9,20(sp)
80000468:	01a12823          	sw	s10,16(sp)
8000046c:	01b12623          	sw	s11,12(sp)
80000470:	0005c783          	lbu	a5,0(a1)
80000474:	00050c13          	mv	s8,a0
80000478:	18078263          	beqz	a5,800005fc <vsprintf+0x1c4>
8000047c:	00058413          	mv	s0,a1
80000480:	00050493          	mv	s1,a0
80000484:	02500a93          	li	s5,37
80000488:	06400b93          	li	s7,100
8000048c:	00a00b13          	li	s6,10
80000490:	00100913          	li	s2,1
80000494:	03000993          	li	s3,48
80000498:	07300d13          	li	s10,115
8000049c:	06300c93          	li	s9,99
800004a0:	00140713          	addi	a4,s0,1
800004a4:	07579c63          	bne	a5,s5,8000051c <vsprintf+0xe4>
800004a8:	00144783          	lbu	a5,1(s0)
800004ac:	0d778463          	beq	a5,s7,80000574 <vsprintf+0x13c>
800004b0:	08fbe263          	bltu	s7,a5,80000534 <vsprintf+0xfc>
800004b4:	07578463          	beq	a5,s5,8000051c <vsprintf+0xe4>
800004b8:	07979863          	bne	a5,s9,80000528 <vsprintf+0xf0>
800004bc:	00062783          	lw	a5,0(a2)
800004c0:	00148493          	addi	s1,s1,1
800004c4:	00460613          	addi	a2,a2,4
800004c8:	fef48fa3          	sb	a5,-1(s1)
800004cc:	00244783          	lbu	a5,2(s0)
800004d0:	00240413          	addi	s0,s0,2
800004d4:	fc0796e3          	bnez	a5,800004a0 <vsprintf+0x68>
800004d8:	41848533          	sub	a0,s1,s8
800004dc:	00048023          	sb	zero,0(s1)
800004e0:	03c12083          	lw	ra,60(sp)
800004e4:	03812403          	lw	s0,56(sp)
800004e8:	03412483          	lw	s1,52(sp)
800004ec:	03012903          	lw	s2,48(sp)
800004f0:	02c12983          	lw	s3,44(sp)
800004f4:	02812a03          	lw	s4,40(sp)
800004f8:	02412a83          	lw	s5,36(sp)
800004fc:	02012b03          	lw	s6,32(sp)
80000500:	01c12b83          	lw	s7,28(sp)
80000504:	01812c03          	lw	s8,24(sp)
80000508:	01412c83          	lw	s9,20(sp)
8000050c:	01012d03          	lw	s10,16(sp)
80000510:	00c12d83          	lw	s11,12(sp)
80000514:	04010113          	addi	sp,sp,64
80000518:	00008067          	ret
8000051c:	00f48023          	sb	a5,0(s1)
80000520:	00144783          	lbu	a5,1(s0)
80000524:	00148493          	addi	s1,s1,1
80000528:	00070413          	mv	s0,a4
8000052c:	f6079ae3          	bnez	a5,800004a0 <vsprintf+0x68>
80000530:	fa9ff06f          	j	800004d8 <vsprintf+0xa0>
80000534:	03a79c63          	bne	a5,s10,8000056c <vsprintf+0x134>
80000538:	00062d83          	lw	s11,0(a2)
8000053c:	00048513          	mv	a0,s1
80000540:	00460a13          	addi	s4,a2,4
80000544:	000d8593          	mv	a1,s11
80000548:	190000ef          	jal	ra,800006d8 <strcpy>
8000054c:	000d8513          	mv	a0,s11
80000550:	154000ef          	jal	ra,800006a4 <strlen>
80000554:	00244783          	lbu	a5,2(s0)
80000558:	00a484b3          	add	s1,s1,a0
8000055c:	000a0613          	mv	a2,s4
80000560:	00240413          	addi	s0,s0,2
80000564:	f2079ee3          	bnez	a5,800004a0 <vsprintf+0x68>
80000568:	f71ff06f          	j	800004d8 <vsprintf+0xa0>
8000056c:	00070413          	mv	s0,a4
80000570:	f31ff06f          	j	800004a0 <vsprintf+0x68>
80000574:	00062683          	lw	a3,0(a2)
80000578:	00460613          	addi	a2,a2,4
8000057c:	06068863          	beqz	a3,800005ec <vsprintf+0x1b4>
80000580:	41f6d793          	srai	a5,a3,0x1f
80000584:	00d7c6b3          	xor	a3,a5,a3
80000588:	40f686b3          	sub	a3,a3,a5
8000058c:	00048593          	mv	a1,s1
80000590:	40990833          	sub	a6,s2,s1
80000594:	0366e733          	rem	a4,a3,s6
80000598:	00058793          	mv	a5,a1
8000059c:	01058533          	add	a0,a1,a6
800005a0:	00158593          	addi	a1,a1,1
800005a4:	0366c6b3          	div	a3,a3,s6
800005a8:	03070713          	addi	a4,a4,48
800005ac:	0ff77713          	zext.b	a4,a4
800005b0:	fee58fa3          	sb	a4,-1(a1)
800005b4:	fe0690e3          	bnez	a3,80000594 <vsprintf+0x15c>
800005b8:	02f4f463          	bgeu	s1,a5,800005e0 <vsprintf+0x1a8>
800005bc:	00048693          	mv	a3,s1
800005c0:	0080006f          	j	800005c8 <vsprintf+0x190>
800005c4:	0007c703          	lbu	a4,0(a5)
800005c8:	0006c583          	lbu	a1,0(a3)
800005cc:	fff78793          	addi	a5,a5,-1
800005d0:	00168693          	addi	a3,a3,1
800005d4:	fee68fa3          	sb	a4,-1(a3)
800005d8:	00b780a3          	sb	a1,1(a5)
800005dc:	fef6e4e3          	bltu	a3,a5,800005c4 <vsprintf+0x18c>
800005e0:	00a484b3          	add	s1,s1,a0
800005e4:	00048023          	sb	zero,0(s1)
800005e8:	ee5ff06f          	j	800004cc <vsprintf+0x94>
800005ec:	01348023          	sb	s3,0(s1)
800005f0:	000480a3          	sb	zero,1(s1)
800005f4:	00148493          	addi	s1,s1,1
800005f8:	ed5ff06f          	j	800004cc <vsprintf+0x94>
800005fc:	00050493          	mv	s1,a0
80000600:	00000513          	li	a0,0
80000604:	ed9ff06f          	j	800004dc <vsprintf+0xa4>

80000608 <printf>:
80000608:	bc010113          	addi	sp,sp,-1088
8000060c:	40812c23          	sw	s0,1048(sp)
80000610:	40912a23          	sw	s1,1044(sp)
80000614:	00050413          	mv	s0,a0
80000618:	42b12223          	sw	a1,1060(sp)
8000061c:	42c12423          	sw	a2,1064(sp)
80000620:	42410493          	addi	s1,sp,1060
80000624:	3fc00613          	li	a2,1020
80000628:	00000593          	li	a1,0
8000062c:	01410513          	addi	a0,sp,20
80000630:	40112e23          	sw	ra,1052(sp)
80000634:	41212823          	sw	s2,1040(sp)
80000638:	42d12623          	sw	a3,1068(sp)
8000063c:	42e12823          	sw	a4,1072(sp)
80000640:	42f12a23          	sw	a5,1076(sp)
80000644:	43012c23          	sw	a6,1080(sp)
80000648:	43112e23          	sw	a7,1084(sp)
8000064c:	00912623          	sw	s1,12(sp)
80000650:	00012823          	sw	zero,16(sp)
80000654:	0e4000ef          	jal	ra,80000738 <memset>
80000658:	00048613          	mv	a2,s1
8000065c:	00040593          	mv	a1,s0
80000660:	01010513          	addi	a0,sp,16
80000664:	dd5ff0ef          	jal	ra,80000438 <vsprintf>
80000668:	00050913          	mv	s2,a0
8000066c:	00a05e63          	blez	a0,80000688 <printf+0x80>
80000670:	01010413          	addi	s0,sp,16
80000674:	00a404b3          	add	s1,s0,a0
80000678:	00044503          	lbu	a0,0(s0)
8000067c:	00140413          	addi	s0,s0,1
80000680:	b9dff0ef          	jal	ra,8000021c <putch>
80000684:	fe941ae3          	bne	s0,s1,80000678 <printf+0x70>
80000688:	41c12083          	lw	ra,1052(sp)
8000068c:	41812403          	lw	s0,1048(sp)
80000690:	41412483          	lw	s1,1044(sp)
80000694:	00090513          	mv	a0,s2
80000698:	41012903          	lw	s2,1040(sp)
8000069c:	44010113          	addi	sp,sp,1088
800006a0:	00008067          	ret

800006a4 <strlen>:
800006a4:	00050713          	mv	a4,a0
800006a8:	02050263          	beqz	a0,800006cc <strlen+0x28>
800006ac:	00054783          	lbu	a5,0(a0)
800006b0:	00000513          	li	a0,0
800006b4:	02078063          	beqz	a5,800006d4 <strlen+0x30>
800006b8:	00150513          	addi	a0,a0,1
800006bc:	00a707b3          	add	a5,a4,a0
800006c0:	0007c783          	lbu	a5,0(a5)
800006c4:	fe079ae3          	bnez	a5,800006b8 <strlen+0x14>
800006c8:	00008067          	ret
800006cc:	00000513          	li	a0,0
800006d0:	00008067          	ret
800006d4:	00008067          	ret

800006d8 <strcpy>:
800006d8:	04058c63          	beqz	a1,80000730 <strcpy+0x58>
800006dc:	0005c683          	lbu	a3,0(a1)
800006e0:	04068263          	beqz	a3,80000724 <strcpy+0x4c>
800006e4:	00000793          	li	a5,0
800006e8:	00178793          	addi	a5,a5,1
800006ec:	00f58733          	add	a4,a1,a5
800006f0:	00074703          	lbu	a4,0(a4)
800006f4:	fe071ae3          	bnez	a4,800006e8 <strcpy+0x10>
800006f8:	00050713          	mv	a4,a0
800006fc:	00158593          	addi	a1,a1,1
80000700:	00a787b3          	add	a5,a5,a0
80000704:	00c0006f          	j	80000710 <strcpy+0x38>
80000708:	0005c683          	lbu	a3,0(a1)
8000070c:	00158593          	addi	a1,a1,1
80000710:	00d70023          	sb	a3,0(a4)
80000714:	00170713          	addi	a4,a4,1
80000718:	fee798e3          	bne	a5,a4,80000708 <strcpy+0x30>
8000071c:	00078023          	sb	zero,0(a5)
80000720:	00008067          	ret
80000724:	00050793          	mv	a5,a0
80000728:	00078023          	sb	zero,0(a5)
8000072c:	00008067          	ret
80000730:	00000513          	li	a0,0
80000734:	00008067          	ret

80000738 <memset>:
80000738:	0ff5f593          	zext.b	a1,a1
8000073c:	00c50733          	add	a4,a0,a2
80000740:	00050793          	mv	a5,a0
80000744:	00060863          	beqz	a2,80000754 <memset+0x1c>
80000748:	00b78023          	sb	a1,0(a5)
8000074c:	00178793          	addi	a5,a5,1
80000750:	fee79ce3          	bne	a5,a4,80000748 <memset+0x10>
80000754:	00008067          	ret
