
/home/alan/Project/ysyx/ysyx-workbench/am-kernels/benchmarks/microbench/build/microbench-riscv32-nemu.elf:     file format elf32-littleriscv


Disassembly of section .text:

80000000 <_start>:
80000000:	00000413          	li	s0,0
80000004:	0000f117          	auipc	sp,0xf
80000008:	ffc10113          	addi	sp,sp,-4 # 8000f000 <_end>
8000000c:	515040ef          	jal	ra,80004d20 <_trm_init>

80000010 <myqsort>:
80000010:	fe010113          	addi	sp,sp,-32
80000014:	01212823          	sw	s2,16(sp)
80000018:	01312623          	sw	s3,12(sp)
8000001c:	00112e23          	sw	ra,28(sp)
80000020:	00812c23          	sw	s0,24(sp)
80000024:	00912a23          	sw	s1,20(sp)
80000028:	00050913          	mv	s2,a0
8000002c:	00060993          	mv	s3,a2
80000030:	0935d063          	bge	a1,s3,800000b0 <myqsort+0xa0>
80000034:	00299493          	slli	s1,s3,0x2
80000038:	009904b3          	add	s1,s2,s1
8000003c:	00259793          	slli	a5,a1,0x2
80000040:	00f908b3          	add	a7,s2,a5
80000044:	00158713          	addi	a4,a1,1
80000048:	0008a803          	lw	a6,0(a7)
8000004c:	09375063          	bge	a4,s3,800000cc <myqsort+0xbc>
80000050:	00478793          	addi	a5,a5,4
80000054:	00f907b3          	add	a5,s2,a5
80000058:	00058413          	mv	s0,a1
8000005c:	0007a683          	lw	a3,0(a5)
80000060:	0106de63          	bge	a3,a6,8000007c <myqsort+0x6c>
80000064:	00140413          	addi	s0,s0,1
80000068:	00241713          	slli	a4,s0,0x2
8000006c:	00e90733          	add	a4,s2,a4
80000070:	00072503          	lw	a0,0(a4)
80000074:	00d72023          	sw	a3,0(a4)
80000078:	00a7a023          	sw	a0,0(a5)
8000007c:	00478793          	addi	a5,a5,4
80000080:	fcf49ee3          	bne	s1,a5,8000005c <myqsort+0x4c>
80000084:	00241793          	slli	a5,s0,0x2
80000088:	0008a683          	lw	a3,0(a7)
8000008c:	00f907b3          	add	a5,s2,a5
80000090:	0007a703          	lw	a4,0(a5)
80000094:	00d7a023          	sw	a3,0(a5)
80000098:	00040613          	mv	a2,s0
8000009c:	00e8a023          	sw	a4,0(a7)
800000a0:	00090513          	mv	a0,s2
800000a4:	f6dff0ef          	jal	ra,80000010 <myqsort>
800000a8:	00140593          	addi	a1,s0,1
800000ac:	f935c8e3          	blt	a1,s3,8000003c <myqsort+0x2c>
800000b0:	01c12083          	lw	ra,28(sp)
800000b4:	01812403          	lw	s0,24(sp)
800000b8:	01412483          	lw	s1,20(sp)
800000bc:	01012903          	lw	s2,16(sp)
800000c0:	00c12983          	lw	s3,12(sp)
800000c4:	02010113          	addi	sp,sp,32
800000c8:	00008067          	ret
800000cc:	00058993          	mv	s3,a1
800000d0:	f61ff06f          	j	80000030 <myqsort+0x20>

800000d4 <bench_qsort_prepare>:
800000d4:	fe010113          	addi	sp,sp,-32
800000d8:	00100513          	li	a0,1
800000dc:	00112e23          	sw	ra,28(sp)
800000e0:	01212823          	sw	s2,16(sp)
800000e4:	01312623          	sw	s3,12(sp)
800000e8:	00812c23          	sw	s0,24(sp)
800000ec:	00912a23          	sw	s1,20(sp)
800000f0:	744000ef          	jal	ra,80000834 <bench_srand>
800000f4:	800067b7          	lui	a5,0x80006
800000f8:	6887a783          	lw	a5,1672(a5) # 80006688 <_end+0xffff7688>
800000fc:	80006937          	lui	s2,0x80006
80000100:	67890913          	addi	s2,s2,1656 # 80006678 <_end+0xffff7678>
80000104:	0007a783          	lw	a5,0(a5)
80000108:	800069b7          	lui	s3,0x80006
8000010c:	67c98993          	addi	s3,s3,1660 # 8000667c <_end+0xffff767c>
80000110:	00279513          	slli	a0,a5,0x2
80000114:	00f92023          	sw	a5,0(s2)
80000118:	674000ef          	jal	ra,8000078c <bench_alloc>
8000011c:	00092783          	lw	a5,0(s2)
80000120:	00a9a023          	sw	a0,0(s3)
80000124:	02f05c63          	blez	a5,8000015c <bench_qsort_prepare+0x88>
80000128:	00000493          	li	s1,0
8000012c:	71c000ef          	jal	ra,80000848 <bench_rand>
80000130:	00050413          	mv	s0,a0
80000134:	714000ef          	jal	ra,80000848 <bench_rand>
80000138:	0009a783          	lw	a5,0(s3)
8000013c:	00249693          	slli	a3,s1,0x2
80000140:	01041413          	slli	s0,s0,0x10
80000144:	00092703          	lw	a4,0(s2)
80000148:	00d787b3          	add	a5,a5,a3
8000014c:	00a46433          	or	s0,s0,a0
80000150:	0087a023          	sw	s0,0(a5)
80000154:	00148493          	addi	s1,s1,1
80000158:	fce4cae3          	blt	s1,a4,8000012c <bench_qsort_prepare+0x58>
8000015c:	01c12083          	lw	ra,28(sp)
80000160:	01812403          	lw	s0,24(sp)
80000164:	01412483          	lw	s1,20(sp)
80000168:	01012903          	lw	s2,16(sp)
8000016c:	00c12983          	lw	s3,12(sp)
80000170:	02010113          	addi	sp,sp,32
80000174:	00008067          	ret

80000178 <bench_qsort_run>:
80000178:	800067b7          	lui	a5,0x80006
8000017c:	6787a603          	lw	a2,1656(a5) # 80006678 <_end+0xffff7678>
80000180:	800067b7          	lui	a5,0x80006
80000184:	67c7a503          	lw	a0,1660(a5) # 8000667c <_end+0xffff767c>
80000188:	00000593          	li	a1,0
8000018c:	e85ff06f          	j	80000010 <myqsort>

80000190 <bench_qsort_validate>:
80000190:	800067b7          	lui	a5,0x80006
80000194:	6787a583          	lw	a1,1656(a5) # 80006678 <_end+0xffff7678>
80000198:	800067b7          	lui	a5,0x80006
8000019c:	67c7a503          	lw	a0,1660(a5) # 8000667c <_end+0xffff767c>
800001a0:	00259593          	slli	a1,a1,0x2
800001a4:	ff010113          	addi	sp,sp,-16
800001a8:	00b505b3          	add	a1,a0,a1
800001ac:	00112623          	sw	ra,12(sp)
800001b0:	6cc000ef          	jal	ra,8000087c <checksum>
800001b4:	800067b7          	lui	a5,0x80006
800001b8:	6887a783          	lw	a5,1672(a5) # 80006688 <_end+0xffff7688>
800001bc:	00c12083          	lw	ra,12(sp)
800001c0:	00c7a783          	lw	a5,12(a5)
800001c4:	01010113          	addi	sp,sp,16
800001c8:	40a78533          	sub	a0,a5,a0
800001cc:	00153513          	seqz	a0,a0
800001d0:	00008067          	ret

800001d4 <format_time>:
800001d4:	fe010113          	addi	sp,sp,-32
800001d8:	3e800613          	li	a2,1000
800001dc:	00000693          	li	a3,0
800001e0:	00812c23          	sw	s0,24(sp)
800001e4:	00912a23          	sw	s1,20(sp)
800001e8:	01212823          	sw	s2,16(sp)
800001ec:	00050493          	mv	s1,a0
800001f0:	01312623          	sw	s3,12(sp)
800001f4:	00112e23          	sw	ra,28(sp)
800001f8:	00058993          	mv	s3,a1
800001fc:	3e800413          	li	s0,1000
80000200:	410050ef          	jal	ra,80005610 <__udivdi3>
80000204:	02850433          	mul	s0,a0,s0
80000208:	40848433          	sub	s0,s1,s0
8000020c:	0084b4b3          	sltu	s1,s1,s0
80000210:	40998933          	sub	s2,s3,s1
80000214:	0e999c63          	bne	s3,s1,8000030c <format_time+0x138>
80000218:	3e700793          	li	a5,999
8000021c:	0e87e863          	bltu	a5,s0,8000030c <format_time+0x138>
80000220:	800064b7          	lui	s1,0x80006
80000224:	800055b7          	lui	a1,0x80005
80000228:	00050613          	mv	a2,a0
8000022c:	79458593          	addi	a1,a1,1940 # 80005794 <_end+0xffff6794>
80000230:	65848513          	addi	a0,s1,1624 # 80006658 <_end+0xffff7658>
80000234:	741040ef          	jal	ra,80005174 <sprintf>
80000238:	65848693          	addi	a3,s1,1624
8000023c:	fff50513          	addi	a0,a0,-1
80000240:	00a686b3          	add	a3,a3,a0
80000244:	0a040463          	beqz	s0,800002ec <format_time+0x118>
80000248:	ccccd537          	lui	a0,0xccccd
8000024c:	100005b7          	lui	a1,0x10000
80000250:	ccd50613          	addi	a2,a0,-819 # cccccccd <_end+0x4ccbdccd>
80000254:	fff58593          	addi	a1,a1,-1 # fffffff <_entry_offset+0xfffffff>
80000258:	00500813          	li	a6,5
8000025c:	ccc50513          	addi	a0,a0,-820
80000260:	00900893          	li	a7,9
80000264:	00491793          	slli	a5,s2,0x4
80000268:	01c45713          	srli	a4,s0,0x1c
8000026c:	00e7e733          	or	a4,a5,a4
80000270:	00b77733          	and	a4,a4,a1
80000274:	00b477b3          	and	a5,s0,a1
80000278:	01895313          	srli	t1,s2,0x18
8000027c:	00e787b3          	add	a5,a5,a4
80000280:	006787b3          	add	a5,a5,t1
80000284:	0307f7b3          	remu	a5,a5,a6
80000288:	00090313          	mv	t1,s2
8000028c:	fff68693          	addi	a3,a3,-1
80000290:	00040e93          	mv	t4,s0
80000294:	40f407b3          	sub	a5,s0,a5
80000298:	00f43733          	sltu	a4,s0,a5
8000029c:	40e90733          	sub	a4,s2,a4
800002a0:	02a78f33          	mul	t5,a5,a0
800002a4:	02c70733          	mul	a4,a4,a2
800002a8:	02c7be33          	mulhu	t3,a5,a2
800002ac:	01e70733          	add	a4,a4,t5
800002b0:	02c787b3          	mul	a5,a5,a2
800002b4:	01c70733          	add	a4,a4,t3
800002b8:	01f71e13          	slli	t3,a4,0x1f
800002bc:	00175913          	srli	s2,a4,0x1
800002c0:	0017d793          	srli	a5,a5,0x1
800002c4:	00fe67b3          	or	a5,t3,a5
800002c8:	00279713          	slli	a4,a5,0x2
800002cc:	00f70733          	add	a4,a4,a5
800002d0:	00171713          	slli	a4,a4,0x1
800002d4:	40e40733          	sub	a4,s0,a4
800002d8:	03070713          	addi	a4,a4,48
800002dc:	00e680a3          	sb	a4,1(a3)
800002e0:	00078413          	mv	s0,a5
800002e4:	f80310e3          	bnez	t1,80000264 <format_time+0x90>
800002e8:	f7d8eee3          	bltu	a7,t4,80000264 <format_time+0x90>
800002ec:	01c12083          	lw	ra,28(sp)
800002f0:	01812403          	lw	s0,24(sp)
800002f4:	01012903          	lw	s2,16(sp)
800002f8:	00c12983          	lw	s3,12(sp)
800002fc:	65848513          	addi	a0,s1,1624
80000300:	01412483          	lw	s1,20(sp)
80000304:	02010113          	addi	sp,sp,32
80000308:	00008067          	ret
8000030c:	800055b7          	lui	a1,0x80005
80000310:	80005537          	lui	a0,0x80005
80000314:	01100613          	li	a2,17
80000318:	72458593          	addi	a1,a1,1828 # 80005724 <_end+0xffff6724>
8000031c:	77850513          	addi	a0,a0,1912 # 80005778 <_end+0xffff6778>
80000320:	5b9040ef          	jal	ra,800050d8 <printf>
80000324:	00100513          	li	a0,1
80000328:	1ed040ef          	jal	ra,80004d14 <halt>

8000032c <main>:
8000032c:	f9010113          	addi	sp,sp,-112
80000330:	06112623          	sw	ra,108(sp)
80000334:	06812423          	sw	s0,104(sp)
80000338:	06912223          	sw	s1,100(sp)
8000033c:	07212023          	sw	s2,96(sp)
80000340:	05312e23          	sw	s3,92(sp)
80000344:	05412c23          	sw	s4,88(sp)
80000348:	05512a23          	sw	s5,84(sp)
8000034c:	05612823          	sw	s6,80(sp)
80000350:	05712623          	sw	s7,76(sp)
80000354:	05812423          	sw	s8,72(sp)
80000358:	05912223          	sw	s9,68(sp)
8000035c:	05a12023          	sw	s10,64(sp)
80000360:	03b12e23          	sw	s11,60(sp)
80000364:	36050263          	beqz	a0,800006c8 <main+0x39c>
80000368:	800065b7          	lui	a1,0x80006
8000036c:	86058593          	addi	a1,a1,-1952 # 80005860 <_end+0xffff6860>
80000370:	00050413          	mv	s0,a0
80000374:	6d1040ef          	jal	ra,80005244 <strcmp>
80000378:	34050863          	beqz	a0,800006c8 <main+0x39c>
8000037c:	800055b7          	lui	a1,0x80005
80000380:	7d858593          	addi	a1,a1,2008 # 800057d8 <_end+0xffff67d8>
80000384:	00040513          	mv	a0,s0
80000388:	6bd040ef          	jal	ra,80005244 <strcmp>
8000038c:	00a12423          	sw	a0,8(sp)
80000390:	02050063          	beqz	a0,800003b0 <main+0x84>
80000394:	800055b7          	lui	a1,0x80005
80000398:	7e058593          	addi	a1,a1,2016 # 800057e0 <_end+0xffff67e0>
8000039c:	00040513          	mv	a0,s0
800003a0:	6a5040ef          	jal	ra,80005244 <strcmp>
800003a4:	00100793          	li	a5,1
800003a8:	00f12423          	sw	a5,8(sp)
800003ac:	38051863          	bnez	a0,8000073c <main+0x410>
800003b0:	225040ef          	jal	ra,80004dd4 <ioe_init>
800003b4:	80006537          	lui	a0,0x80006
800003b8:	00040593          	mv	a1,s0
800003bc:	83050513          	addi	a0,a0,-2000 # 80005830 <_end+0xffff6830>
800003c0:	519040ef          	jal	ra,800050d8 <printf>
800003c4:	02810593          	addi	a1,sp,40
800003c8:	00600513          	li	a0,6
800003cc:	261040ef          	jal	ra,80004e2c <ioe_read>
800003d0:	00812783          	lw	a5,8(sp)
800003d4:	80006937          	lui	s2,0x80006
800003d8:	80006ab7          	lui	s5,0x80006
800003dc:	00178a13          	addi	s4,a5,1
800003e0:	02812783          	lw	a5,40(sp)
800003e4:	004a1a13          	slli	s4,s4,0x4
800003e8:	80006437          	lui	s0,0x80006
800003ec:	00f12c23          	sw	a5,24(sp)
800003f0:	02c12783          	lw	a5,44(sp)
800003f4:	ff0a0b93          	addi	s7,s4,-16
800003f8:	00000c93          	li	s9,0
800003fc:	00f12e23          	sw	a5,28(sp)
80000400:	800067b7          	lui	a5,0x80006
80000404:	00478d13          	addi	s10,a5,4 # 80006004 <_end+0xffff7004>
80000408:	00100793          	li	a5,1
8000040c:	348d0c13          	addi	s8,s10,840
80000410:	00012223          	sw	zero,4(sp)
80000414:	00f12823          	sw	a5,16(sp)
80000418:	00012a23          	sw	zero,20(sp)
8000041c:	68090913          	addi	s2,s2,1664 # 80006680 <_end+0xffff7680>
80000420:	688a8a93          	addi	s5,s5,1672 # 80006688 <_end+0xffff7688>
80000424:	004a0a13          	addi	s4,s4,4
80000428:	45040413          	addi	s0,s0,1104 # 80006450 <_end+0xffff7450>
8000042c:	80006b37          	lui	s6,0x80006
80000430:	80006db7          	lui	s11,0x80006
80000434:	0200006f          	j	80000454 <main+0x128>
80000438:	4a1040ef          	jal	ra,800050d8 <printf>
8000043c:	800067b7          	lui	a5,0x80006
80000440:	870d8593          	addi	a1,s11,-1936 # 80005870 <_end+0xffff6870>
80000444:	88878513          	addi	a0,a5,-1912 # 80005888 <_end+0xffff6888>
80000448:	491040ef          	jal	ra,800050d8 <printf>
8000044c:	054d0d13          	addi	s10,s10,84
80000450:	17ac0663          	beq	s8,s10,800005bc <main+0x290>
80000454:	00042603          	lw	a2,0(s0)
80000458:	00442703          	lw	a4,4(s0)
8000045c:	017d06b3          	add	a3,s10,s7
80000460:	0186a683          	lw	a3,24(a3)
80000464:	01aa05b3          	add	a1,s4,s10
80000468:	00baa023          	sw	a1,0(s5)
8000046c:	40c70733          	sub	a4,a4,a2
80000470:	01a92023          	sw	s10,0(s2)
80000474:	00cd2583          	lw	a1,12(s10)
80000478:	010d2603          	lw	a2,16(s10)
8000047c:	864b0513          	addi	a0,s6,-1948 # 80005864 <_end+0xffff6864>
80000480:	fad76ce3          	bltu	a4,a3,80000438 <main+0x10c>
80000484:	455040ef          	jal	ra,800050d8 <printf>
80000488:	00092683          	lw	a3,0(s2)
8000048c:	00042703          	lw	a4,0(s0)
80000490:	800067b7          	lui	a5,0x80006
80000494:	0006a683          	lw	a3,0(a3)
80000498:	00770713          	addi	a4,a4,7
8000049c:	ff877713          	andi	a4,a4,-8
800004a0:	68e7a223          	sw	a4,1668(a5) # 80006684 <_end+0xffff7684>
800004a4:	000680e7          	jalr	a3
800004a8:	02810593          	addi	a1,sp,40
800004ac:	00600513          	li	a0,6
800004b0:	17d040ef          	jal	ra,80004e2c <ioe_read>
800004b4:	00092703          	lw	a4,0(s2)
800004b8:	02812983          	lw	s3,40(sp)
800004bc:	02c12483          	lw	s1,44(sp)
800004c0:	00472703          	lw	a4,4(a4)
800004c4:	000700e7          	jalr	a4
800004c8:	02810593          	addi	a1,sp,40
800004cc:	00600513          	li	a0,6
800004d0:	15d040ef          	jal	ra,80004e2c <ioe_read>
800004d4:	00092683          	lw	a3,0(s2)
800004d8:	02812703          	lw	a4,40(sp)
800004dc:	02c12783          	lw	a5,44(sp)
800004e0:	0086a683          	lw	a3,8(a3)
800004e4:	413709b3          	sub	s3,a4,s3
800004e8:	01373733          	sltu	a4,a4,s3
800004ec:	409784b3          	sub	s1,a5,s1
800004f0:	40e484b3          	sub	s1,s1,a4
800004f4:	000680e7          	jalr	a3
800004f8:	1e050463          	beqz	a0,800006e0 <main+0x3b4>
800004fc:	800067b7          	lui	a5,0x80006
80000500:	00a12623          	sw	a0,12(sp)
80000504:	89478513          	addi	a0,a5,-1900 # 80005894 <_end+0xffff6894>
80000508:	3d1040ef          	jal	ra,800050d8 <printf>
8000050c:	00412783          	lw	a5,4(sp)
80000510:	013c86b3          	add	a3,s9,s3
80000514:	00c12703          	lw	a4,12(sp)
80000518:	0196b5b3          	sltu	a1,a3,s9
8000051c:	00978633          	add	a2,a5,s1
80000520:	00c587b3          	add	a5,a1,a2
80000524:	00177713          	andi	a4,a4,1
80000528:	00f12223          	sw	a5,4(sp)
8000052c:	00068c93          	mv	s9,a3
80000530:	1c070c63          	beqz	a4,80000708 <main+0x3dc>
80000534:	80006537          	lui	a0,0x80006
80000538:	89850513          	addi	a0,a0,-1896 # 80005898 <_end+0xffff6898>
8000053c:	39d040ef          	jal	ra,800050d8 <printf>
80000540:	0099e733          	or	a4,s3,s1
80000544:	00012623          	sw	zero,12(sp)
80000548:	02070c63          	beqz	a4,80000580 <main+0x254>
8000054c:	000aa683          	lw	a3,0(s5)
80000550:	00018737          	lui	a4,0x18
80000554:	6a070713          	addi	a4,a4,1696 # 186a0 <_entry_offset+0x186a0>
80000558:	0086a503          	lw	a0,8(a3)
8000055c:	00098613          	mv	a2,s3
80000560:	00048693          	mv	a3,s1
80000564:	02e535b3          	mulhu	a1,a0,a4
80000568:	02e50533          	mul	a0,a0,a4
8000056c:	0a4050ef          	jal	ra,80005610 <__udivdi3>
80000570:	01412783          	lw	a5,20(sp)
80000574:	00a12623          	sw	a0,12(sp)
80000578:	00a787b3          	add	a5,a5,a0
8000057c:	00f12a23          	sw	a5,20(sp)
80000580:	800067b7          	lui	a5,0x80006
80000584:	95878513          	addi	a0,a5,-1704 # 80005958 <_end+0xffff6958>
80000588:	351040ef          	jal	ra,800050d8 <printf>
8000058c:	00812783          	lw	a5,8(sp)
80000590:	ea078ee3          	beqz	a5,8000044c <main+0x120>
80000594:	00048593          	mv	a1,s1
80000598:	00098513          	mv	a0,s3
8000059c:	c39ff0ef          	jal	ra,800001d4 <format_time>
800005a0:	00c12603          	lw	a2,12(sp)
800005a4:	800067b7          	lui	a5,0x80006
800005a8:	00050593          	mv	a1,a0
800005ac:	054d0d13          	addi	s10,s10,84
800005b0:	8b078513          	addi	a0,a5,-1872 # 800058b0 <_end+0xffff68b0>
800005b4:	325040ef          	jal	ra,800050d8 <printf>
800005b8:	e9ac1ee3          	bne	s8,s10,80000454 <main+0x128>
800005bc:	00600513          	li	a0,6
800005c0:	02810593          	addi	a1,sp,40
800005c4:	069040ef          	jal	ra,80004e2c <ioe_read>
800005c8:	02812783          	lw	a5,40(sp)
800005cc:	01812703          	lw	a4,24(sp)
800005d0:	02c12403          	lw	s0,44(sp)
800005d4:	80006537          	lui	a0,0x80006
800005d8:	40e784b3          	sub	s1,a5,a4
800005dc:	01c12703          	lw	a4,28(sp)
800005e0:	0097b7b3          	sltu	a5,a5,s1
800005e4:	8c850513          	addi	a0,a0,-1848 # 800058c8 <_end+0xffff68c8>
800005e8:	40e40433          	sub	s0,s0,a4
800005ec:	40f40433          	sub	s0,s0,a5
800005f0:	2e9040ef          	jal	ra,800050d8 <printf>
800005f4:	01012783          	lw	a5,16(sp)
800005f8:	12079463          	bnez	a5,80000720 <main+0x3f4>
800005fc:	800055b7          	lui	a1,0x80005
80000600:	7a858593          	addi	a1,a1,1960 # 800057a8 <_end+0xffff67a8>
80000604:	80006537          	lui	a0,0x80006
80000608:	8fc50513          	addi	a0,a0,-1796 # 800058fc <_end+0xffff68fc>
8000060c:	2cd040ef          	jal	ra,800050d8 <printf>
80000610:	00812703          	lw	a4,8(sp)
80000614:	00100793          	li	a5,1
80000618:	10e7da63          	bge	a5,a4,8000072c <main+0x400>
8000061c:	01412783          	lw	a5,20(sp)
80000620:	00a00593          	li	a1,10
80000624:	80006537          	lui	a0,0x80006
80000628:	02b7d5b3          	divu	a1,a5,a1
8000062c:	90c50513          	addi	a0,a0,-1780 # 8000590c <_end+0xffff690c>
80000630:	2a9040ef          	jal	ra,800050d8 <printf>
80000634:	80006637          	lui	a2,0x80006
80000638:	000185b7          	lui	a1,0x18
8000063c:	80006537          	lui	a0,0x80006
80000640:	92060613          	addi	a2,a2,-1760 # 80005920 <_end+0xffff6920>
80000644:	6a058593          	addi	a1,a1,1696 # 186a0 <_entry_offset+0x186a0>
80000648:	93450513          	addi	a0,a0,-1740 # 80005934 <_end+0xffff6934>
8000064c:	28d040ef          	jal	ra,800050d8 <printf>
80000650:	00412583          	lw	a1,4(sp)
80000654:	000c8513          	mv	a0,s9
80000658:	b7dff0ef          	jal	ra,800001d4 <format_time>
8000065c:	00050593          	mv	a1,a0
80000660:	80006537          	lui	a0,0x80006
80000664:	95c50513          	addi	a0,a0,-1700 # 8000595c <_end+0xffff695c>
80000668:	271040ef          	jal	ra,800050d8 <printf>
8000066c:	00040593          	mv	a1,s0
80000670:	00048513          	mv	a0,s1
80000674:	b61ff0ef          	jal	ra,800001d4 <format_time>
80000678:	00050593          	mv	a1,a0
8000067c:	80006537          	lui	a0,0x80006
80000680:	97050513          	addi	a0,a0,-1680 # 80005970 <_end+0xffff6970>
80000684:	255040ef          	jal	ra,800050d8 <printf>
80000688:	06c12083          	lw	ra,108(sp)
8000068c:	06812403          	lw	s0,104(sp)
80000690:	06412483          	lw	s1,100(sp)
80000694:	06012903          	lw	s2,96(sp)
80000698:	05c12983          	lw	s3,92(sp)
8000069c:	05812a03          	lw	s4,88(sp)
800006a0:	05412a83          	lw	s5,84(sp)
800006a4:	05012b03          	lw	s6,80(sp)
800006a8:	04c12b83          	lw	s7,76(sp)
800006ac:	04812c03          	lw	s8,72(sp)
800006b0:	04412c83          	lw	s9,68(sp)
800006b4:	04012d03          	lw	s10,64(sp)
800006b8:	03c12d83          	lw	s11,60(sp)
800006bc:	00000513          	li	a0,0
800006c0:	07010113          	addi	sp,sp,112
800006c4:	00008067          	ret
800006c8:	80005537          	lui	a0,0x80005
800006cc:	7b050513          	addi	a0,a0,1968 # 800057b0 <_end+0xffff67b0>
800006d0:	80005437          	lui	s0,0x80005
800006d4:	205040ef          	jal	ra,800050d8 <printf>
800006d8:	79c40413          	addi	s0,s0,1948 # 8000579c <_end+0xffff679c>
800006dc:	ca1ff06f          	j	8000037c <main+0x50>
800006e0:	800067b7          	lui	a5,0x80006
800006e4:	98478513          	addi	a0,a5,-1660 # 80005984 <_end+0xffff6984>
800006e8:	1f1040ef          	jal	ra,800050d8 <printf>
800006ec:	00412783          	lw	a5,4(sp)
800006f0:	013c8733          	add	a4,s9,s3
800006f4:	01973633          	sltu	a2,a4,s9
800006f8:	009786b3          	add	a3,a5,s1
800006fc:	00d607b3          	add	a5,a2,a3
80000700:	00070c93          	mv	s9,a4
80000704:	00f12223          	sw	a5,4(sp)
80000708:	800067b7          	lui	a5,0x80006
8000070c:	8a478513          	addi	a0,a5,-1884 # 800058a4 <_end+0xffff68a4>
80000710:	1c9040ef          	jal	ra,800050d8 <printf>
80000714:	00012823          	sw	zero,16(sp)
80000718:	00012623          	sw	zero,12(sp)
8000071c:	e65ff06f          	j	80000580 <main+0x254>
80000720:	800055b7          	lui	a1,0x80005
80000724:	7a058593          	addi	a1,a1,1952 # 800057a0 <_end+0xffff67a0>
80000728:	eddff06f          	j	80000604 <main+0x2d8>
8000072c:	80006537          	lui	a0,0x80006
80000730:	95850513          	addi	a0,a0,-1704 # 80005958 <_end+0xffff6958>
80000734:	1a5040ef          	jal	ra,800050d8 <printf>
80000738:	f19ff06f          	j	80000650 <main+0x324>
8000073c:	800055b7          	lui	a1,0x80005
80000740:	79c58593          	addi	a1,a1,1948 # 8000579c <_end+0xffff679c>
80000744:	00040513          	mv	a0,s0
80000748:	2fd040ef          	jal	ra,80005244 <strcmp>
8000074c:	00200793          	li	a5,2
80000750:	00f12423          	sw	a5,8(sp)
80000754:	c4050ee3          	beqz	a0,800003b0 <main+0x84>
80000758:	800055b7          	lui	a1,0x80005
8000075c:	7e858593          	addi	a1,a1,2024 # 800057e8 <_end+0xffff67e8>
80000760:	00040513          	mv	a0,s0
80000764:	2e1040ef          	jal	ra,80005244 <strcmp>
80000768:	00300793          	li	a5,3
8000076c:	00f12423          	sw	a5,8(sp)
80000770:	c40500e3          	beqz	a0,800003b0 <main+0x84>
80000774:	80005537          	lui	a0,0x80005
80000778:	00040593          	mv	a1,s0
8000077c:	7f050513          	addi	a0,a0,2032 # 800057f0 <_end+0xffff67f0>
80000780:	159040ef          	jal	ra,800050d8 <printf>
80000784:	00100513          	li	a0,1
80000788:	58c040ef          	jal	ra,80004d14 <halt>

8000078c <bench_alloc>:
8000078c:	80006637          	lui	a2,0x80006
80000790:	68460613          	addi	a2,a2,1668 # 80006684 <_end+0xffff7684>
80000794:	00062683          	lw	a3,0(a2)
80000798:	800067b7          	lui	a5,0x80006
8000079c:	00750713          	addi	a4,a0,7
800007a0:	45078793          	addi	a5,a5,1104 # 80006450 <_end+0xffff7450>
800007a4:	ff010113          	addi	sp,sp,-16
800007a8:	ff877713          	andi	a4,a4,-8
800007ac:	0007a583          	lw	a1,0(a5)
800007b0:	00112623          	sw	ra,12(sp)
800007b4:	00e68733          	add	a4,a3,a4
800007b8:	00e62023          	sw	a4,0(a2)
800007bc:	04b76863          	bltu	a4,a1,8000080c <bench_alloc+0x80>
800007c0:	0047a783          	lw	a5,4(a5)
800007c4:	04f77463          	bgeu	a4,a5,8000080c <bench_alloc+0x80>
800007c8:	00068793          	mv	a5,a3
800007cc:	00d70e63          	beq	a4,a3,800007e8 <bench_alloc+0x5c>
800007d0:	00000813          	li	a6,0
800007d4:	00000893          	li	a7,0
800007d8:	0107a023          	sw	a6,0(a5)
800007dc:	0117a223          	sw	a7,4(a5)
800007e0:	00878793          	addi	a5,a5,8
800007e4:	fef716e3          	bne	a4,a5,800007d0 <bench_alloc+0x44>
800007e8:	800067b7          	lui	a5,0x80006
800007ec:	6887a783          	lw	a5,1672(a5) # 80006688 <_end+0xffff7688>
800007f0:	40b70733          	sub	a4,a4,a1
800007f4:	0047a783          	lw	a5,4(a5)
800007f8:	02e7ea63          	bltu	a5,a4,8000082c <bench_alloc+0xa0>
800007fc:	00c12083          	lw	ra,12(sp)
80000800:	00068513          	mv	a0,a3
80000804:	01010113          	addi	sp,sp,16
80000808:	00008067          	ret
8000080c:	0a100613          	li	a2,161
80000810:	800055b7          	lui	a1,0x80005
80000814:	80005537          	lui	a0,0x80005
80000818:	72458593          	addi	a1,a1,1828 # 80005724 <_end+0xffff6724>
8000081c:	77850513          	addi	a0,a0,1912 # 80005778 <_end+0xffff6778>
80000820:	0b9040ef          	jal	ra,800050d8 <printf>
80000824:	00100513          	li	a0,1
80000828:	4ec040ef          	jal	ra,80004d14 <halt>
8000082c:	0a500613          	li	a2,165
80000830:	fe1ff06f          	j	80000810 <bench_alloc+0x84>

80000834 <bench_srand>:
80000834:	01151513          	slli	a0,a0,0x11
80000838:	01155513          	srli	a0,a0,0x11
8000083c:	800067b7          	lui	a5,0x80006
80000840:	34a7a623          	sw	a0,844(a5) # 8000634c <_end+0xffff734c>
80000844:	00008067          	ret

80000848 <bench_rand>:
80000848:	80006737          	lui	a4,0x80006
8000084c:	34c70713          	addi	a4,a4,844 # 8000634c <_end+0xffff734c>
80000850:	00072783          	lw	a5,0(a4)
80000854:	000346b7          	lui	a3,0x34
80000858:	3fd68693          	addi	a3,a3,1021 # 343fd <_entry_offset+0x343fd>
8000085c:	02d787b3          	mul	a5,a5,a3
80000860:	0026a6b7          	lui	a3,0x26a
80000864:	ec368693          	addi	a3,a3,-317 # 269ec3 <_entry_offset+0x269ec3>
80000868:	00d787b3          	add	a5,a5,a3
8000086c:	00179513          	slli	a0,a5,0x1
80000870:	00f72023          	sw	a5,0(a4)
80000874:	01155513          	srli	a0,a0,0x11
80000878:	00008067          	ret

8000087c <checksum>:
8000087c:	00450613          	addi	a2,a0,4
80000880:	06b67463          	bgeu	a2,a1,800008e8 <checksum+0x6c>
80000884:	811ca6b7          	lui	a3,0x811ca
80000888:	01000837          	lui	a6,0x1000
8000088c:	dc568693          	addi	a3,a3,-571 # 811c9dc5 <_end+0x11badc5>
80000890:	19380813          	addi	a6,a6,403 # 1000193 <_entry_offset+0x1000193>
80000894:	00050793          	mv	a5,a0
80000898:	0007c703          	lbu	a4,0(a5)
8000089c:	00178793          	addi	a5,a5,1
800008a0:	00d74733          	xor	a4,a4,a3
800008a4:	030706b3          	mul	a3,a4,a6
800008a8:	fef618e3          	bne	a2,a5,80000898 <checksum+0x1c>
800008ac:	00460613          	addi	a2,a2,4
800008b0:	00450513          	addi	a0,a0,4
800008b4:	feb660e3          	bltu	a2,a1,80000894 <checksum+0x18>
800008b8:	013267b7          	lui	a5,0x1326
800008bc:	19378793          	addi	a5,a5,403 # 1326193 <_entry_offset+0x1326193>
800008c0:	02f70733          	mul	a4,a4,a5
800008c4:	40775793          	srai	a5,a4,0x7
800008c8:	00e7c7b3          	xor	a5,a5,a4
800008cc:	00379713          	slli	a4,a5,0x3
800008d0:	00f70733          	add	a4,a4,a5
800008d4:	41175793          	srai	a5,a4,0x11
800008d8:	00e7c7b3          	xor	a5,a5,a4
800008dc:	00579513          	slli	a0,a5,0x5
800008e0:	00f50533          	add	a0,a0,a5
800008e4:	00008067          	ret
800008e8:	a6f00537          	lui	a0,0xa6f00
800008ec:	79e50513          	addi	a0,a0,1950 # a6f0079e <_end+0x26ef179e>
800008f0:	00008067          	ret

800008f4 <bench_fib_prepare>:
800008f4:	800067b7          	lui	a5,0x80006
800008f8:	6887a783          	lw	a5,1672(a5) # 80006688 <_end+0xffff7688>
800008fc:	ff010113          	addi	sp,sp,-16
80000900:	00812423          	sw	s0,8(sp)
80000904:	0007a783          	lw	a5,0(a5)
80000908:	80006737          	lui	a4,0x80006
8000090c:	00112623          	sw	ra,12(sp)
80000910:	02f78433          	mul	s0,a5,a5
80000914:	68f72823          	sw	a5,1680(a4) # 80006690 <_end+0xffff7690>
80000918:	00241413          	slli	s0,s0,0x2
8000091c:	00040513          	mv	a0,s0
80000920:	e6dff0ef          	jal	ra,8000078c <bench_alloc>
80000924:	00050713          	mv	a4,a0
80000928:	800067b7          	lui	a5,0x80006
8000092c:	00040513          	mv	a0,s0
80000930:	68e7a623          	sw	a4,1676(a5) # 8000668c <_end+0xffff768c>
80000934:	e59ff0ef          	jal	ra,8000078c <bench_alloc>
80000938:	00050713          	mv	a4,a0
8000093c:	800067b7          	lui	a5,0x80006
80000940:	00040513          	mv	a0,s0
80000944:	68e7aa23          	sw	a4,1684(a5) # 80006694 <_end+0xffff7694>
80000948:	e45ff0ef          	jal	ra,8000078c <bench_alloc>
8000094c:	00050713          	mv	a4,a0
80000950:	800067b7          	lui	a5,0x80006
80000954:	00040513          	mv	a0,s0
80000958:	68e7ac23          	sw	a4,1688(a5) # 80006698 <_end+0xffff7698>
8000095c:	e31ff0ef          	jal	ra,8000078c <bench_alloc>
80000960:	00c12083          	lw	ra,12(sp)
80000964:	00812403          	lw	s0,8(sp)
80000968:	800067b7          	lui	a5,0x80006
8000096c:	68a7ae23          	sw	a0,1692(a5) # 8000669c <_end+0xffff769c>
80000970:	01010113          	addi	sp,sp,16
80000974:	00008067          	ret

80000978 <bench_fib_run>:
80000978:	800067b7          	lui	a5,0x80006
8000097c:	6907a303          	lw	t1,1680(a5) # 80006690 <_end+0xffff7690>
80000980:	fe010113          	addi	sp,sp,-32
80000984:	800067b7          	lui	a5,0x80006
80000988:	6947ae03          	lw	t3,1684(a5) # 80006694 <_end+0xffff7694>
8000098c:	00812e23          	sw	s0,28(sp)
80000990:	800067b7          	lui	a5,0x80006
80000994:	00912c23          	sw	s1,24(sp)
80000998:	01212a23          	sw	s2,20(sp)
8000099c:	01312823          	sw	s3,16(sp)
800009a0:	01412623          	sw	s4,12(sp)
800009a4:	01512423          	sw	s5,8(sp)
800009a8:	01612223          	sw	s6,4(sp)
800009ac:	01712023          	sw	s7,0(sp)
800009b0:	6987af83          	lw	t6,1688(a5) # 80006698 <_end+0xffff7698>
800009b4:	24605063          	blez	t1,80000bf4 <bench_fib_run+0x27c>
800009b8:	800067b7          	lui	a5,0x80006
800009bc:	68c7a403          	lw	s0,1676(a5) # 8000668c <_end+0xffff768c>
800009c0:	fff30393          	addi	t2,t1,-1
800009c4:	00231813          	slli	a6,t1,0x2
800009c8:	00000f13          	li	t5,0
800009cc:	00000893          	li	a7,0
800009d0:	00000e93          	li	t4,0
800009d4:	001e8e93          	addi	t4,t4,1
800009d8:	01e40533          	add	a0,s0,t5
800009dc:	01ee05b3          	add	a1,t3,t5
800009e0:	01ef8633          	add	a2,t6,t5
800009e4:	00000793          	li	a5,0
800009e8:	41178733          	sub	a4,a5,a7
800009ec:	41d782b3          	sub	t0,a5,t4
800009f0:	00173713          	seqz	a4,a4
800009f4:	00178793          	addi	a5,a5,1
800009f8:	00100693          	li	a3,1
800009fc:	01138463          	beq	t2,a7,80000a04 <bench_fib_run+0x8c>
80000a00:	0012b693          	seqz	a3,t0
80000a04:	00d52023          	sw	a3,0(a0)
80000a08:	00d5a023          	sw	a3,0(a1)
80000a0c:	00e62023          	sw	a4,0(a2)
80000a10:	00450513          	addi	a0,a0,4
80000a14:	00458593          	addi	a1,a1,4
80000a18:	00460613          	addi	a2,a2,4
80000a1c:	fc6796e3          	bne	a5,t1,800009e8 <bench_fib_run+0x70>
80000a20:	00188893          	addi	a7,a7,1
80000a24:	010f0f33          	add	t5,t5,a6
80000a28:	fbd316e3          	bne	t1,t4,800009d4 <bench_fib_run+0x5c>
80000a2c:	800067b7          	lui	a5,0x80006
80000a30:	69c7a283          	lw	t0,1692(a5) # 8000669c <_end+0xffff769c>
80000a34:	40600eb3          	neg	t4,t1
80000a38:	80000f37          	lui	t5,0x80000
80000a3c:	010f84b3          	add	s1,t6,a6
80000a40:	01028433          	add	s0,t0,a6
80000a44:	01f00393          	li	t2,31
80000a48:	fd3f4f13          	xori	t5,t5,-45
80000a4c:	003e9e93          	slli	t4,t4,0x3
80000a50:	001f7793          	andi	a5,t5,1
80000a54:	0e079663          	bnez	a5,80000b40 <bench_fib_run+0x1c8>
80000a58:	0a605a63          	blez	t1,80000b0c <bench_fib_run+0x194>
80000a5c:	000e0a93          	mv	s5,t3
80000a60:	00028b93          	mv	s7,t0
80000a64:	000e0a13          	mv	s4,t3
80000a68:	00000b13          	li	s6,0
80000a6c:	000e0993          	mv	s3,t3
80000a70:	000b8893          	mv	a7,s7
80000a74:	00000913          	li	s2,0
80000a78:	0008a023          	sw	zero,0(a7)
80000a7c:	00098593          	mv	a1,s3
80000a80:	000a0613          	mv	a2,s4
80000a84:	00000693          	li	a3,0
80000a88:	00000713          	li	a4,0
80000a8c:	00062783          	lw	a5,0(a2)
80000a90:	0005a503          	lw	a0,0(a1)
80000a94:	00170713          	addi	a4,a4,1
80000a98:	00460613          	addi	a2,a2,4
80000a9c:	02a787b3          	mul	a5,a5,a0
80000aa0:	010585b3          	add	a1,a1,a6
80000aa4:	00f686b3          	add	a3,a3,a5
80000aa8:	00d8a023          	sw	a3,0(a7)
80000aac:	fe6740e3          	blt	a4,t1,80000a8c <bench_fib_run+0x114>
80000ab0:	00190913          	addi	s2,s2,1
80000ab4:	00488893          	addi	a7,a7,4
80000ab8:	00498993          	addi	s3,s3,4
80000abc:	fa694ee3          	blt	s2,t1,80000a78 <bench_fib_run+0x100>
80000ac0:	001b0b13          	addi	s6,s6,1
80000ac4:	010a0a33          	add	s4,s4,a6
80000ac8:	010b8bb3          	add	s7,s7,a6
80000acc:	fa6b40e3          	blt	s6,t1,80000a6c <bench_fib_run+0xf4>
80000ad0:	00028513          	mv	a0,t0
80000ad4:	00000593          	li	a1,0
80000ad8:	000a8693          	mv	a3,s5
80000adc:	00050713          	mv	a4,a0
80000ae0:	00000793          	li	a5,0
80000ae4:	00072603          	lw	a2,0(a4)
80000ae8:	00178793          	addi	a5,a5,1
80000aec:	00470713          	addi	a4,a4,4
80000af0:	00c6a023          	sw	a2,0(a3)
80000af4:	00468693          	addi	a3,a3,4
80000af8:	fe67c6e3          	blt	a5,t1,80000ae4 <bench_fib_run+0x16c>
80000afc:	00158593          	addi	a1,a1,1
80000b00:	01050533          	add	a0,a0,a6
80000b04:	010a8ab3          	add	s5,s5,a6
80000b08:	fc65c8e3          	blt	a1,t1,80000ad8 <bench_fib_run+0x160>
80000b0c:	fff38393          	addi	t2,t2,-1
80000b10:	401f5f13          	srai	t5,t5,0x1
80000b14:	f2039ee3          	bnez	t2,80000a50 <bench_fib_run+0xd8>
80000b18:	01c12403          	lw	s0,28(sp)
80000b1c:	01812483          	lw	s1,24(sp)
80000b20:	01412903          	lw	s2,20(sp)
80000b24:	01012983          	lw	s3,16(sp)
80000b28:	00c12a03          	lw	s4,12(sp)
80000b2c:	00812a83          	lw	s5,8(sp)
80000b30:	00412b03          	lw	s6,4(sp)
80000b34:	00012b83          	lw	s7,0(sp)
80000b38:	02010113          	addi	sp,sp,32
80000b3c:	00008067          	ret
80000b40:	fc6056e3          	blez	t1,80000b0c <bench_fib_run+0x194>
80000b44:	00028b13          	mv	s6,t0
80000b48:	00048893          	mv	a7,s1
80000b4c:	000f8a13          	mv	s4,t6
80000b50:	00000a93          	li	s5,0
80000b54:	000e0993          	mv	s3,t3
80000b58:	000b0513          	mv	a0,s6
80000b5c:	00000913          	li	s2,0
80000b60:	00052023          	sw	zero,0(a0)
80000b64:	00098613          	mv	a2,s3
80000b68:	000a0793          	mv	a5,s4
80000b6c:	00000693          	li	a3,0
80000b70:	0007a703          	lw	a4,0(a5)
80000b74:	00062583          	lw	a1,0(a2)
80000b78:	00478793          	addi	a5,a5,4
80000b7c:	01060633          	add	a2,a2,a6
80000b80:	02b70733          	mul	a4,a4,a1
80000b84:	00e686b3          	add	a3,a3,a4
80000b88:	00d52023          	sw	a3,0(a0)
80000b8c:	ff1792e3          	bne	a5,a7,80000b70 <bench_fib_run+0x1f8>
80000b90:	00190913          	addi	s2,s2,1
80000b94:	00450513          	addi	a0,a0,4
80000b98:	00498993          	addi	s3,s3,4
80000b9c:	fc6912e3          	bne	s2,t1,80000b60 <bench_fib_run+0x1e8>
80000ba0:	001a8a93          	addi	s5,s5,1
80000ba4:	010a0a33          	add	s4,s4,a6
80000ba8:	010788b3          	add	a7,a5,a6
80000bac:	010b0b33          	add	s6,s6,a6
80000bb0:	fa6a92e3          	bne	s5,t1,80000b54 <bench_fib_run+0x1dc>
80000bb4:	00040613          	mv	a2,s0
80000bb8:	000f8513          	mv	a0,t6
80000bbc:	00000593          	li	a1,0
80000bc0:	410608b3          	sub	a7,a2,a6
80000bc4:	00050713          	mv	a4,a0
80000bc8:	00088793          	mv	a5,a7
80000bcc:	0007a683          	lw	a3,0(a5)
80000bd0:	00478793          	addi	a5,a5,4
80000bd4:	00470713          	addi	a4,a4,4
80000bd8:	fed72e23          	sw	a3,-4(a4)
80000bdc:	fef618e3          	bne	a2,a5,80000bcc <bench_fib_run+0x254>
80000be0:	00158593          	addi	a1,a1,1
80000be4:	01050533          	add	a0,a0,a6
80000be8:	41d88633          	sub	a2,a7,t4
80000bec:	fc659ae3          	bne	a1,t1,80000bc0 <bench_fib_run+0x248>
80000bf0:	e6dff06f          	j	80000a5c <bench_fib_run+0xe4>
80000bf4:	00231813          	slli	a6,t1,0x2
80000bf8:	e35ff06f          	j	80000a2c <bench_fib_run+0xb4>

80000bfc <bench_fib_validate>:
80000bfc:	800067b7          	lui	a5,0x80006
80000c00:	6907a783          	lw	a5,1680(a5) # 80006690 <_end+0xffff7690>
80000c04:	80006737          	lui	a4,0x80006
80000c08:	69872703          	lw	a4,1688(a4) # 80006698 <_end+0xffff7698>
80000c0c:	02f787b3          	mul	a5,a5,a5
80000c10:	800066b7          	lui	a3,0x80006
80000c14:	6886a683          	lw	a3,1672(a3) # 80006688 <_end+0xffff7688>
80000c18:	00c6a683          	lw	a3,12(a3)
80000c1c:	fff78793          	addi	a5,a5,-1
80000c20:	00279793          	slli	a5,a5,0x2
80000c24:	00f707b3          	add	a5,a4,a5
80000c28:	0007a503          	lw	a0,0(a5)
80000c2c:	40d50533          	sub	a0,a0,a3
80000c30:	00153513          	seqz	a0,a0
80000c34:	00008067          	ret

80000c38 <dfs>:
80000c38:	800067b7          	lui	a5,0x80006
80000c3c:	6a07a783          	lw	a5,1696(a5) # 800066a0 <_end+0xffff76a0>
80000c40:	fe010113          	addi	sp,sp,-32
80000c44:	01212823          	sw	s2,16(sp)
80000c48:	00112e23          	sw	ra,28(sp)
80000c4c:	00812c23          	sw	s0,24(sp)
80000c50:	00912a23          	sw	s1,20(sp)
80000c54:	01312623          	sw	s3,12(sp)
80000c58:	01412423          	sw	s4,8(sp)
80000c5c:	00100913          	li	s2,1
80000c60:	04a78a63          	beq	a5,a0,80000cb4 <dfs+0x7c>
80000c64:	00c5e433          	or	s0,a1,a2
80000c68:	00a46433          	or	s0,s0,a0
80000c6c:	fff44413          	not	s0,s0
80000c70:	00f47433          	and	s0,s0,a5
80000c74:	00050493          	mv	s1,a0
80000c78:	00058a13          	mv	s4,a1
80000c7c:	00060993          	mv	s3,a2
80000c80:	00000913          	li	s2,0
80000c84:	02040863          	beqz	s0,80000cb4 <dfs+0x7c>
80000c88:	408007b3          	neg	a5,s0
80000c8c:	0087f7b3          	and	a5,a5,s0
80000c90:	00f9e633          	or	a2,s3,a5
80000c94:	00fa65b3          	or	a1,s4,a5
80000c98:	00165613          	srli	a2,a2,0x1
80000c9c:	00159593          	slli	a1,a1,0x1
80000ca0:	00f4e533          	or	a0,s1,a5
80000ca4:	40f40433          	sub	s0,s0,a5
80000ca8:	f91ff0ef          	jal	ra,80000c38 <dfs>
80000cac:	00a90933          	add	s2,s2,a0
80000cb0:	fc041ce3          	bnez	s0,80000c88 <dfs+0x50>
80000cb4:	01c12083          	lw	ra,28(sp)
80000cb8:	01812403          	lw	s0,24(sp)
80000cbc:	01412483          	lw	s1,20(sp)
80000cc0:	00c12983          	lw	s3,12(sp)
80000cc4:	00812a03          	lw	s4,8(sp)
80000cc8:	00090513          	mv	a0,s2
80000ccc:	01012903          	lw	s2,16(sp)
80000cd0:	02010113          	addi	sp,sp,32
80000cd4:	00008067          	ret

80000cd8 <bench_queen_prepare>:
80000cd8:	800067b7          	lui	a5,0x80006
80000cdc:	6887a783          	lw	a5,1672(a5) # 80006688 <_end+0xffff7688>
80000ce0:	0007a703          	lw	a4,0(a5)
80000ce4:	800067b7          	lui	a5,0x80006
80000ce8:	6a07a223          	sw	zero,1700(a5) # 800066a4 <_end+0xffff76a4>
80000cec:	00100793          	li	a5,1
80000cf0:	00e797b3          	sll	a5,a5,a4
80000cf4:	fff78793          	addi	a5,a5,-1
80000cf8:	80006737          	lui	a4,0x80006
80000cfc:	6af72023          	sw	a5,1696(a4) # 800066a0 <_end+0xffff76a0>
80000d00:	00008067          	ret

80000d04 <bench_queen_run>:
80000d04:	ff010113          	addi	sp,sp,-16
80000d08:	800067b7          	lui	a5,0x80006
80000d0c:	00812423          	sw	s0,8(sp)
80000d10:	6a07a403          	lw	s0,1696(a5) # 800066a0 <_end+0xffff76a0>
80000d14:	00912223          	sw	s1,4(sp)
80000d18:	00112623          	sw	ra,12(sp)
80000d1c:	00100493          	li	s1,1
80000d20:	02040463          	beqz	s0,80000d48 <bench_queen_run+0x44>
80000d24:	00000493          	li	s1,0
80000d28:	40800533          	neg	a0,s0
80000d2c:	00857533          	and	a0,a0,s0
80000d30:	00155613          	srli	a2,a0,0x1
80000d34:	00151593          	slli	a1,a0,0x1
80000d38:	40a40433          	sub	s0,s0,a0
80000d3c:	efdff0ef          	jal	ra,80000c38 <dfs>
80000d40:	00a484b3          	add	s1,s1,a0
80000d44:	fe0412e3          	bnez	s0,80000d28 <bench_queen_run+0x24>
80000d48:	00c12083          	lw	ra,12(sp)
80000d4c:	00812403          	lw	s0,8(sp)
80000d50:	800067b7          	lui	a5,0x80006
80000d54:	6a97a223          	sw	s1,1700(a5) # 800066a4 <_end+0xffff76a4>
80000d58:	00412483          	lw	s1,4(sp)
80000d5c:	01010113          	addi	sp,sp,16
80000d60:	00008067          	ret

80000d64 <bench_queen_validate>:
80000d64:	800067b7          	lui	a5,0x80006
80000d68:	6887a703          	lw	a4,1672(a5) # 80006688 <_end+0xffff7688>
80000d6c:	800067b7          	lui	a5,0x80006
80000d70:	6a47a783          	lw	a5,1700(a5) # 800066a4 <_end+0xffff76a4>
80000d74:	00c72503          	lw	a0,12(a4)
80000d78:	40f50533          	sub	a0,a0,a5
80000d7c:	00153513          	seqz	a0,a0
80000d80:	00008067          	ret

80000d84 <bench_lzip_prepare>:
80000d84:	800067b7          	lui	a5,0x80006
80000d88:	6887a783          	lw	a5,1672(a5) # 80006688 <_end+0xffff7688>
80000d8c:	fe010113          	addi	sp,sp,-32
80000d90:	00912a23          	sw	s1,20(sp)
80000d94:	0007a783          	lw	a5,0(a5)
80000d98:	800064b7          	lui	s1,0x80006
80000d9c:	6a848493          	addi	s1,s1,1704 # 800066a8 <_end+0xffff76a8>
80000da0:	00100513          	li	a0,1
80000da4:	00112e23          	sw	ra,28(sp)
80000da8:	00f4a023          	sw	a5,0(s1)
80000dac:	01212823          	sw	s2,16(sp)
80000db0:	00812c23          	sw	s0,24(sp)
80000db4:	01312623          	sw	s3,12(sp)
80000db8:	a7dff0ef          	jal	ra,80000834 <bench_srand>
80000dbc:	00009537          	lui	a0,0x9
80000dc0:	80450513          	addi	a0,a0,-2044 # 8804 <_entry_offset+0x8804>
80000dc4:	9c9ff0ef          	jal	ra,8000078c <bench_alloc>
80000dc8:	00050713          	mv	a4,a0
80000dcc:	0004a503          	lw	a0,0(s1)
80000dd0:	800067b7          	lui	a5,0x80006
80000dd4:	6ae7ac23          	sw	a4,1720(a5) # 800066b8 <_end+0xffff76b8>
80000dd8:	9b5ff0ef          	jal	ra,8000078c <bench_alloc>
80000ddc:	00050793          	mv	a5,a0
80000de0:	0004a503          	lw	a0,0(s1)
80000de4:	80006937          	lui	s2,0x80006
80000de8:	6ac90913          	addi	s2,s2,1708 # 800066ac <_end+0xffff76ac>
80000dec:	19050513          	addi	a0,a0,400
80000df0:	00f92023          	sw	a5,0(s2)
80000df4:	999ff0ef          	jal	ra,8000078c <bench_alloc>
80000df8:	0004a783          	lw	a5,0(s1)
80000dfc:	80006737          	lui	a4,0x80006
80000e00:	6aa72823          	sw	a0,1712(a4) # 800066b0 <_end+0xffff76b0>
80000e04:	02f05863          	blez	a5,80000e34 <bench_lzip_prepare+0xb0>
80000e08:	00000413          	li	s0,0
80000e0c:	01a00993          	li	s3,26
80000e10:	a39ff0ef          	jal	ra,80000848 <bench_rand>
80000e14:	03357533          	remu	a0,a0,s3
80000e18:	00092783          	lw	a5,0(s2)
80000e1c:	0004a703          	lw	a4,0(s1)
80000e20:	008787b3          	add	a5,a5,s0
80000e24:	00140413          	addi	s0,s0,1
80000e28:	06150513          	addi	a0,a0,97
80000e2c:	00a78023          	sb	a0,0(a5)
80000e30:	fee440e3          	blt	s0,a4,80000e10 <bench_lzip_prepare+0x8c>
80000e34:	01c12083          	lw	ra,28(sp)
80000e38:	01812403          	lw	s0,24(sp)
80000e3c:	01412483          	lw	s1,20(sp)
80000e40:	01012903          	lw	s2,16(sp)
80000e44:	00c12983          	lw	s3,12(sp)
80000e48:	02010113          	addi	sp,sp,32
80000e4c:	00008067          	ret

80000e50 <bench_lzip_run>:
80000e50:	800067b7          	lui	a5,0x80006
80000e54:	6b87a683          	lw	a3,1720(a5) # 800066b8 <_end+0xffff76b8>
80000e58:	800067b7          	lui	a5,0x80006
80000e5c:	6a87a603          	lw	a2,1704(a5) # 800066a8 <_end+0xffff76a8>
80000e60:	800067b7          	lui	a5,0x80006
80000e64:	6b07a583          	lw	a1,1712(a5) # 800066b0 <_end+0xffff76b0>
80000e68:	800067b7          	lui	a5,0x80006
80000e6c:	6ac7a503          	lw	a0,1708(a5) # 800066ac <_end+0xffff76ac>
80000e70:	ff010113          	addi	sp,sp,-16
80000e74:	00112623          	sw	ra,12(sp)
80000e78:	080000ef          	jal	ra,80000ef8 <qlz_compress>
80000e7c:	00c12083          	lw	ra,12(sp)
80000e80:	800067b7          	lui	a5,0x80006
80000e84:	6aa7aa23          	sw	a0,1716(a5) # 800066b4 <_end+0xffff76b4>
80000e88:	01010113          	addi	sp,sp,16
80000e8c:	00008067          	ret

80000e90 <bench_lzip_validate>:
80000e90:	800067b7          	lui	a5,0x80006
80000e94:	6b07a503          	lw	a0,1712(a5) # 800066b0 <_end+0xffff76b0>
80000e98:	800067b7          	lui	a5,0x80006
80000e9c:	6b47a583          	lw	a1,1716(a5) # 800066b4 <_end+0xffff76b4>
80000ea0:	ff010113          	addi	sp,sp,-16
80000ea4:	00112623          	sw	ra,12(sp)
80000ea8:	00b505b3          	add	a1,a0,a1
80000eac:	9d1ff0ef          	jal	ra,8000087c <checksum>
80000eb0:	800067b7          	lui	a5,0x80006
80000eb4:	6887a783          	lw	a5,1672(a5) # 80006688 <_end+0xffff7688>
80000eb8:	00c12083          	lw	ra,12(sp)
80000ebc:	00c7a783          	lw	a5,12(a5)
80000ec0:	01010113          	addi	sp,sp,16
80000ec4:	40a78533          	sub	a0,a5,a0
80000ec8:	00153513          	seqz	a0,a0
80000ecc:	00008067          	ret

80000ed0 <bench_memcpy.part.0>:
80000ed0:	800065b7          	lui	a1,0x80006
80000ed4:	80005537          	lui	a0,0x80005
80000ed8:	ff010113          	addi	sp,sp,-16
80000edc:	00800613          	li	a2,8
80000ee0:	a8458593          	addi	a1,a1,-1404 # 80005a84 <_end+0xffff6a84>
80000ee4:	77850513          	addi	a0,a0,1912 # 80005778 <_end+0xffff6778>
80000ee8:	00112623          	sw	ra,12(sp)
80000eec:	1ec040ef          	jal	ra,800050d8 <printf>
80000ef0:	00100513          	li	a0,1
80000ef4:	621030ef          	jal	ra,80004d14 <halt>

80000ef8 <qlz_compress>:
80000ef8:	f9010113          	addi	sp,sp,-112
80000efc:	00060713          	mv	a4,a2
80000f00:	00c12c23          	sw	a2,24(sp)
80000f04:	06112623          	sw	ra,108(sp)
80000f08:	06812423          	sw	s0,104(sp)
80000f0c:	06912223          	sw	s1,100(sp)
80000f10:	07212023          	sw	s2,96(sp)
80000f14:	05312e23          	sw	s3,92(sp)
80000f18:	05412c23          	sw	s4,88(sp)
80000f1c:	05512a23          	sw	s5,84(sp)
80000f20:	05612823          	sw	s6,80(sp)
80000f24:	05712623          	sw	s7,76(sp)
80000f28:	05812423          	sw	s8,72(sp)
80000f2c:	05912223          	sw	s9,68(sp)
80000f30:	05a12023          	sw	s10,64(sp)
80000f34:	03b12e23          	sw	s11,60(sp)
80000f38:	fff60613          	addi	a2,a2,-1
80000f3c:	e6e00793          	li	a5,-402
80000f40:	00b12823          	sw	a1,16(sp)
80000f44:	54c7e863          	bltu	a5,a2,80001494 <qlz_compress+0x59c>
80000f48:	00300593          	li	a1,3
80000f4c:	0d700793          	li	a5,215
80000f50:	00b12a23          	sw	a1,20(sp)
80000f54:	00050993          	mv	s3,a0
80000f58:	40e7e663          	bltu	a5,a4,80001364 <qlz_compress+0x46c>
80000f5c:	000087b7          	lui	a5,0x8
80000f60:	00009737          	lui	a4,0x9
80000f64:	00478793          	addi	a5,a5,4 # 8004 <_entry_offset+0x8004>
80000f68:	80470713          	addi	a4,a4,-2044 # 8804 <_entry_offset+0x8804>
80000f6c:	00f687b3          	add	a5,a3,a5
80000f70:	00e68733          	add	a4,a3,a4
80000f74:	00078023          	sb	zero,0(a5)
80000f78:	00178793          	addi	a5,a5,1
80000f7c:	fef71ce3          	bne	a4,a5,80000f74 <qlz_compress+0x7c>
80000f80:	00c98733          	add	a4,s3,a2
80000f84:	01012783          	lw	a5,16(sp)
80000f88:	01412603          	lw	a2,20(sp)
80000f8c:	00e12e23          	sw	a4,28(sp)
80000f90:	ff670d13          	addi	s10,a4,-10
80000f94:	00c78633          	add	a2,a5,a2
80000f98:	00c12423          	sw	a2,8(sp)
80000f9c:	00460f13          	addi	t5,a2,4
80000fa0:	593d6c63          	bltu	s10,s3,80001538 <qlz_compress+0x640>
80000fa4:	01812783          	lw	a5,24(sp)
80000fa8:	ffc70d93          	addi	s11,a4,-4
80000fac:	80000337          	lui	t1,0x80000
80000fb0:	0017d793          	srli	a5,a5,0x1
80000fb4:	00f987b3          	add	a5,s3,a5
80000fb8:	00f12623          	sw	a5,12(sp)
80000fbc:	00098713          	mv	a4,s3
80000fc0:	00060793          	mv	a5,a2
80000fc4:	00008b37          	lui	s6,0x8
80000fc8:	00400493          	li	s1,4
80000fcc:	03010413          	addi	s0,sp,48
80000fd0:	40ed83b3          	sub	t2,s11,a4
80000fd4:	0fe00613          	li	a2,254
80000fd8:	00765463          	bge	a2,t2,80000fe0 <qlz_compress+0xe8>
80000fdc:	0fe00393          	li	t2,254
80000fe0:	00174803          	lbu	a6,1(a4)
80000fe4:	00274603          	lbu	a2,2(a4)
80000fe8:	00074503          	lbu	a0,0(a4)
80000fec:	00881813          	slli	a6,a6,0x8
80000ff0:	01061613          	slli	a2,a2,0x10
80000ff4:	00c86833          	or	a6,a6,a2
80000ff8:	00d85593          	srli	a1,a6,0xd
80000ffc:	00985613          	srli	a2,a6,0x9
80001000:	00b64633          	xor	a2,a2,a1
80001004:	00a86833          	or	a6,a6,a0
80001008:	01064633          	xor	a2,a2,a6
8000100c:	7ff67613          	andi	a2,a2,2047
80001010:	00461893          	slli	a7,a2,0x4
80001014:	01168eb3          	add	t4,a3,a7
80001018:	004eae03          	lw	t3,4(t4)
8000101c:	00c68533          	add	a0,a3,a2
80001020:	00ab05b3          	add	a1,s6,a0
80001024:	ffe70913          	addi	s2,a4,-2
80001028:	0045cf83          	lbu	t6,4(a1)
8000102c:	00138c93          	addi	s9,t2,1
80001030:	092e7863          	bgeu	t3,s2,800010c0 <qlz_compress+0x1c8>
80001034:	280f9e63          	bnez	t6,800012d0 <qlz_compress+0x3d8>
80001038:	00eea223          	sw	a4,4(t4)
8000103c:	00100613          	li	a2,1
80001040:	00c58223          	sb	a2,4(a1)
80001044:	00135313          	srli	t1,t1,0x1
80001048:	00074603          	lbu	a2,0(a4)
8000104c:	001f0f13          	addi	t5,t5,1 # 80000001 <_end+0xffff1001>
80001050:	00170713          	addi	a4,a4,1
80001054:	fecf0fa3          	sb	a2,-1(t5)
80001058:	00137593          	andi	a1,t1,1
8000105c:	00058613          	mv	a2,a1
80001060:	10ed6663          	bltu	s10,a4,8000116c <qlz_compress+0x274>
80001064:	f60606e3          	beqz	a2,80000fd0 <qlz_compress+0xd8>
80001068:	00c12603          	lw	a2,12(sp)
8000106c:	00e67e63          	bgeu	a2,a4,80001088 <qlz_compress+0x190>
80001070:	00812583          	lw	a1,8(sp)
80001074:	41370633          	sub	a2,a4,s3
80001078:	40565513          	srai	a0,a2,0x5
8000107c:	40bf05b3          	sub	a1,t5,a1
80001080:	40a60633          	sub	a2,a2,a0
80001084:	42b64663          	blt	a2,a1,800014b0 <qlz_compress+0x5b8>
80001088:	80000637          	lui	a2,0x80000
8000108c:	00135313          	srli	t1,t1,0x1
80001090:	00c36333          	or	t1,t1,a2
80001094:	02612623          	sw	t1,44(sp)
80001098:	02c10613          	addi	a2,sp,44
8000109c:	00064583          	lbu	a1,0(a2) # 80000000 <_end+0xffff1000>
800010a0:	00160613          	addi	a2,a2,1
800010a4:	00178793          	addi	a5,a5,1
800010a8:	feb78fa3          	sb	a1,-1(a5)
800010ac:	fec418e3          	bne	s0,a2,8000109c <qlz_compress+0x1a4>
800010b0:	000f0793          	mv	a5,t5
800010b4:	80000337          	lui	t1,0x80000
800010b8:	004f0f13          	addi	t5,t5,4
800010bc:	f15ff06f          	j	80000fd0 <qlz_compress+0xd8>
800010c0:	00000593          	li	a1,0
800010c4:	011688b3          	add	a7,a3,a7
800010c8:	00000c13          	li	s8,0
800010cc:	00100e13          	li	t3,1
800010d0:	03fe7463          	bgeu	t3,t6,800010f8 <qlz_compress+0x200>
800010d4:	0088ae83          	lw	t4,8(a7)
800010d8:	00b702b3          	add	t0,a4,a1
800010dc:	0002ca03          	lbu	s4,0(t0)
800010e0:	00be82b3          	add	t0,t4,a1
800010e4:	0002c283          	lbu	t0,0(t0)
800010e8:	165a0e63          	beq	s4,t0,80001264 <qlz_compress+0x36c>
800010ec:	001e0e13          	addi	t3,t3,1
800010f0:	00488893          	addi	a7,a7,4
800010f4:	fc9e1ee3          	bne	t3,s1,800010d0 <qlz_compress+0x1d8>
800010f8:	003ff893          	andi	a7,t6,3
800010fc:	00261813          	slli	a6,a2,0x2
80001100:	01180833          	add	a6,a6,a7
80001104:	00281813          	slli	a6,a6,0x2
80001108:	01068833          	add	a6,a3,a6
8000110c:	00ab0533          	add	a0,s6,a0
80001110:	00e82223          	sw	a4,4(a6)
80001114:	001f8f93          	addi	t6,t6,1
80001118:	01f50223          	sb	t6,4(a0)
8000111c:	00200513          	li	a0,2
80001120:	00135313          	srli	t1,t1,0x1
80001124:	f2b572e3          	bgeu	a0,a1,80001048 <qlz_compress+0x150>
80001128:	80000537          	lui	a0,0x80000
8000112c:	00561613          	slli	a2,a2,0x5
80001130:	00a36333          	or	t1,t1,a0
80001134:	00900513          	li	a0,9
80001138:	00b70733          	add	a4,a4,a1
8000113c:	01866633          	or	a2,a2,s8
80001140:	20b56063          	bltu	a0,a1,80001340 <qlz_compress+0x448>
80001144:	ffe58593          	addi	a1,a1,-2
80001148:	00259593          	slli	a1,a1,0x2
8000114c:	00c5e633          	or	a2,a1,a2
80001150:	00865593          	srli	a1,a2,0x8
80001154:	00cf0023          	sb	a2,0(t5)
80001158:	00bf00a3          	sb	a1,1(t5)
8000115c:	00137593          	andi	a1,t1,1
80001160:	002f0f13          	addi	t5,t5,2
80001164:	00058613          	mv	a2,a1
80001168:	eeed7ee3          	bgeu	s10,a4,80001064 <qlz_compress+0x16c>
8000116c:	01c12803          	lw	a6,28(sp)
80001170:	00135513          	srli	a0,t1,0x1
80001174:	00050293          	mv	t0,a0
80001178:	1ee86c63          	bltu	a6,a4,80001370 <qlz_compress+0x478>
8000117c:	01c12583          	lw	a1,28(sp)
80001180:	02c10813          	addi	a6,sp,44
80001184:	80000fb7          	lui	t6,0x80000
80001188:	ffd58e13          	addi	t3,a1,-3
8000118c:	01812583          	lw	a1,24(sp)
80001190:	03010893          	addi	a7,sp,48
80001194:	00008eb7          	lui	t4,0x8
80001198:	00b989b3          	add	s3,s3,a1
8000119c:	08061863          	bnez	a2,8000122c <qlz_compress+0x334>
800011a0:	00235513          	srli	a0,t1,0x2
800011a4:	0012f593          	andi	a1,t0,1
800011a8:	00028313          	mv	t1,t0
800011ac:	06ee6063          	bltu	t3,a4,8000120c <qlz_compress+0x314>
800011b0:	00174283          	lbu	t0,1(a4)
800011b4:	00274603          	lbu	a2,2(a4)
800011b8:	00074403          	lbu	s0,0(a4)
800011bc:	00829293          	slli	t0,t0,0x8
800011c0:	01061613          	slli	a2,a2,0x10
800011c4:	00c2e2b3          	or	t0,t0,a2
800011c8:	00d2d393          	srli	t2,t0,0xd
800011cc:	0092d613          	srli	a2,t0,0x9
800011d0:	00764633          	xor	a2,a2,t2
800011d4:	0082e2b3          	or	t0,t0,s0
800011d8:	00564633          	xor	a2,a2,t0
800011dc:	7ff67613          	andi	a2,a2,2047
800011e0:	00c682b3          	add	t0,a3,a2
800011e4:	005e82b3          	add	t0,t4,t0
800011e8:	0042c383          	lbu	t2,4(t0)
800011ec:	00261613          	slli	a2,a2,0x2
800011f0:	0033f413          	andi	s0,t2,3
800011f4:	00860633          	add	a2,a2,s0
800011f8:	00261613          	slli	a2,a2,0x2
800011fc:	00c68633          	add	a2,a3,a2
80001200:	00e62223          	sw	a4,4(a2)
80001204:	00138393          	addi	t2,t2,1
80001208:	00728223          	sb	t2,4(t0)
8000120c:	00074603          	lbu	a2,0(a4)
80001210:	00170713          	addi	a4,a4,1
80001214:	001f0f13          	addi	t5,t5,1
80001218:	fecf0fa3          	sb	a2,-1(t5)
8000121c:	15370c63          	beq	a4,s3,80001374 <qlz_compress+0x47c>
80001220:	00137613          	andi	a2,t1,1
80001224:	00135293          	srli	t0,t1,0x1
80001228:	f6060ce3          	beqz	a2,800011a0 <qlz_compress+0x2a8>
8000122c:	01f2e2b3          	or	t0,t0,t6
80001230:	02512623          	sw	t0,44(sp)
80001234:	00080613          	mv	a2,a6
80001238:	00064583          	lbu	a1,0(a2)
8000123c:	00160613          	addi	a2,a2,1
80001240:	00178793          	addi	a5,a5,1
80001244:	feb78fa3          	sb	a1,-1(a5)
80001248:	fec898e3          	bne	a7,a2,80001238 <qlz_compress+0x340>
8000124c:	000f0793          	mv	a5,t5
80001250:	20000537          	lui	a0,0x20000
80001254:	004f0f13          	addi	t5,t5,4
80001258:	00000593          	li	a1,0
8000125c:	40000337          	lui	t1,0x40000
80001260:	f4dff06f          	j	800011ac <qlz_compress+0x2b4>
80001264:	001ec283          	lbu	t0,1(t4) # 8001 <_entry_offset+0x8001>
80001268:	002eca03          	lbu	s4,2(t4)
8000126c:	000eca83          	lbu	s5,0(t4)
80001270:	00829293          	slli	t0,t0,0x8
80001274:	010a1a13          	slli	s4,s4,0x10
80001278:	0142e2b3          	or	t0,t0,s4
8000127c:	0152e2b3          	or	t0,t0,s5
80001280:	e70296e3          	bne	t0,a6,800010ec <qlz_compress+0x1f4>
80001284:	e72ef4e3          	bgeu	t4,s2,800010ec <qlz_compress+0x1f4>
80001288:	003eca03          	lbu	s4,3(t4)
8000128c:	00374283          	lbu	t0,3(a4)
80001290:	2a5a1063          	bne	s4,t0,80001530 <qlz_compress+0x638>
80001294:	00300293          	li	t0,3
80001298:	0192e663          	bltu	t0,s9,800012a4 <qlz_compress+0x3ac>
8000129c:	2940006f          	j	80001530 <qlz_compress+0x638>
800012a0:	1f738663          	beq	t2,s7,8000148c <qlz_compress+0x594>
800012a4:	00028b93          	mv	s7,t0
800012a8:	00128293          	addi	t0,t0,1
800012ac:	005e8ab3          	add	s5,t4,t0
800012b0:	00570a33          	add	s4,a4,t0
800012b4:	000aca83          	lbu	s5,0(s5)
800012b8:	000a4a03          	lbu	s4,0(s4)
800012bc:	ff4a82e3          	beq	s5,s4,800012a0 <qlz_compress+0x3a8>
800012c0:	e255f6e3          	bgeu	a1,t0,800010ec <qlz_compress+0x1f4>
800012c4:	000e0c13          	mv	s8,t3
800012c8:	00028593          	mv	a1,t0
800012cc:	e21ff06f          	j	800010ec <qlz_compress+0x1f4>
800012d0:	001e4583          	lbu	a1,1(t3)
800012d4:	002e4e83          	lbu	t4,2(t3)
800012d8:	000e4283          	lbu	t0,0(t3)
800012dc:	00859593          	slli	a1,a1,0x8
800012e0:	010e9e93          	slli	t4,t4,0x10
800012e4:	01d5eeb3          	or	t4,a1,t4
800012e8:	005eeeb3          	or	t4,t4,t0
800012ec:	00000593          	li	a1,0
800012f0:	dd0e9ae3          	bne	t4,a6,800010c4 <qlz_compress+0x1cc>
800012f4:	003e4283          	lbu	t0,3(t3)
800012f8:	00374e83          	lbu	t4,3(a4)
800012fc:	00300593          	li	a1,3
80001300:	ddd292e3          	bne	t0,t4,800010c4 <qlz_compress+0x1cc>
80001304:	00474e83          	lbu	t4,4(a4)
80001308:	004e4583          	lbu	a1,4(t3)
8000130c:	24be9663          	bne	t4,a1,80001558 <qlz_compress+0x660>
80001310:	00400593          	li	a1,4
80001314:	db94f8e3          	bgeu	s1,s9,800010c4 <qlz_compress+0x1cc>
80001318:	00058a93          	mv	s5,a1
8000131c:	00158593          	addi	a1,a1,1
80001320:	00be0eb3          	add	t4,t3,a1
80001324:	00b702b3          	add	t0,a4,a1
80001328:	000eca03          	lbu	s4,0(t4)
8000132c:	0002ce83          	lbu	t4,0(t0)
80001330:	d9da1ae3          	bne	s4,t4,800010c4 <qlz_compress+0x1cc>
80001334:	ff5392e3          	bne	t2,s5,80001318 <qlz_compress+0x420>
80001338:	000c8593          	mv	a1,s9
8000133c:	d89ff06f          	j	800010c4 <qlz_compress+0x1cc>
80001340:	01059593          	slli	a1,a1,0x10
80001344:	00c5e5b3          	or	a1,a1,a2
80001348:	0085d513          	srli	a0,a1,0x8
8000134c:	0105d613          	srli	a2,a1,0x10
80001350:	00bf0023          	sb	a1,0(t5)
80001354:	00af00a3          	sb	a0,1(t5)
80001358:	00cf0123          	sb	a2,2(t5)
8000135c:	003f0f13          	addi	t5,t5,3
80001360:	cf9ff06f          	j	80001058 <qlz_compress+0x160>
80001364:	00900793          	li	a5,9
80001368:	00f12a23          	sw	a5,20(sp)
8000136c:	bf1ff06f          	j	80000f5c <qlz_compress+0x64>
80001370:	02c10813          	addi	a6,sp,44
80001374:	00059c63          	bnez	a1,8000138c <qlz_compress+0x494>
80001378:	00030513          	mv	a0,t1
8000137c:	00135313          	srli	t1,t1,0x1
80001380:	00137713          	andi	a4,t1,1
80001384:	fe070ae3          	beqz	a4,80001378 <qlz_compress+0x480>
80001388:	00255513          	srli	a0,a0,0x2
8000138c:	80000737          	lui	a4,0x80000
80001390:	00e56533          	or	a0,a0,a4
80001394:	02a12623          	sw	a0,44(sp)
80001398:	03010613          	addi	a2,sp,48
8000139c:	00084703          	lbu	a4,0(a6)
800013a0:	00180813          	addi	a6,a6,1
800013a4:	00178793          	addi	a5,a5,1
800013a8:	fee78fa3          	sb	a4,-1(a5)
800013ac:	ff0618e3          	bne	a2,a6,8000139c <qlz_compress+0x4a4>
800013b0:	00812783          	lw	a5,8(sp)
800013b4:	40ff0533          	sub	a0,t5,a5
800013b8:	00900793          	li	a5,9
800013bc:	00f55463          	bge	a0,a5,800013c4 <qlz_compress+0x4cc>
800013c0:	00900513          	li	a0,9
800013c4:	01412783          	lw	a5,20(sp)
800013c8:	00f50533          	add	a0,a0,a5
800013cc:	00100793          	li	a5,1
800013d0:	0006a023          	sw	zero,0(a3)
800013d4:	01412683          	lw	a3,20(sp)
800013d8:	00300713          	li	a4,3
800013dc:	0ce68063          	beq	a3,a4,8000149c <qlz_compress+0x5a4>
800013e0:	01012703          	lw	a4,16(sp)
800013e4:	0027e793          	ori	a5,a5,2
800013e8:	02c10813          	addi	a6,sp,44
800013ec:	00f70023          	sb	a5,0(a4) # 80000000 <_end+0xffff1000>
800013f0:	02a12623          	sw	a0,44(sp)
800013f4:	00080793          	mv	a5,a6
800013f8:	00170713          	addi	a4,a4,1
800013fc:	03010613          	addi	a2,sp,48
80001400:	0007c683          	lbu	a3,0(a5)
80001404:	00178793          	addi	a5,a5,1
80001408:	00170713          	addi	a4,a4,1
8000140c:	fed70fa3          	sb	a3,-1(a4)
80001410:	fef618e3          	bne	a2,a5,80001400 <qlz_compress+0x508>
80001414:	01812783          	lw	a5,24(sp)
80001418:	03010693          	addi	a3,sp,48
8000141c:	02f12623          	sw	a5,44(sp)
80001420:	01012783          	lw	a5,16(sp)
80001424:	00578793          	addi	a5,a5,5
80001428:	00084703          	lbu	a4,0(a6)
8000142c:	00180813          	addi	a6,a6,1
80001430:	00178793          	addi	a5,a5,1
80001434:	fee78fa3          	sb	a4,-1(a5)
80001438:	fed818e3          	bne	a6,a3,80001428 <qlz_compress+0x530>
8000143c:	01012783          	lw	a5,16(sp)
80001440:	0007c783          	lbu	a5,0(a5)
80001444:	01012703          	lw	a4,16(sp)
80001448:	0487e793          	ori	a5,a5,72
8000144c:	00f70023          	sb	a5,0(a4)
80001450:	06c12083          	lw	ra,108(sp)
80001454:	06812403          	lw	s0,104(sp)
80001458:	06412483          	lw	s1,100(sp)
8000145c:	06012903          	lw	s2,96(sp)
80001460:	05c12983          	lw	s3,92(sp)
80001464:	05812a03          	lw	s4,88(sp)
80001468:	05412a83          	lw	s5,84(sp)
8000146c:	05012b03          	lw	s6,80(sp)
80001470:	04c12b83          	lw	s7,76(sp)
80001474:	04812c03          	lw	s8,72(sp)
80001478:	04412c83          	lw	s9,68(sp)
8000147c:	04012d03          	lw	s10,64(sp)
80001480:	03c12d83          	lw	s11,60(sp)
80001484:	07010113          	addi	sp,sp,112
80001488:	00008067          	ret
8000148c:	000c8293          	mv	t0,s9
80001490:	e31ff06f          	j	800012c0 <qlz_compress+0x3c8>
80001494:	00000513          	li	a0,0
80001498:	fb9ff06f          	j	80001450 <qlz_compress+0x558>
8000149c:	01012703          	lw	a4,16(sp)
800014a0:	01812683          	lw	a3,24(sp)
800014a4:	00a700a3          	sb	a0,1(a4)
800014a8:	00d70123          	sb	a3,2(a4)
800014ac:	f99ff06f          	j	80001444 <qlz_compress+0x54c>
800014b0:	0c098063          	beqz	s3,80001570 <qlz_compress+0x678>
800014b4:	01812603          	lw	a2,24(sp)
800014b8:	00812703          	lw	a4,8(sp)
800014bc:	00c987b3          	add	a5,s3,a2
800014c0:	02f77a63          	bgeu	a4,a5,800014f4 <qlz_compress+0x5fc>
800014c4:	02e9f863          	bgeu	s3,a4,800014f4 <qlz_compress+0x5fc>
800014c8:	00c70733          	add	a4,a4,a2
800014cc:	fff7c603          	lbu	a2,-1(a5)
800014d0:	fff78793          	addi	a5,a5,-1
800014d4:	fff70713          	addi	a4,a4,-1
800014d8:	00c70023          	sb	a2,0(a4)
800014dc:	fef998e3          	bne	s3,a5,800014cc <qlz_compress+0x5d4>
800014e0:	01412783          	lw	a5,20(sp)
800014e4:	01812703          	lw	a4,24(sp)
800014e8:	00e78533          	add	a0,a5,a4
800014ec:	00000793          	li	a5,0
800014f0:	ee1ff06f          	j	800013d0 <qlz_compress+0x4d8>
800014f4:	00812603          	lw	a2,8(sp)
800014f8:	0009c703          	lbu	a4,0(s3)
800014fc:	00198993          	addi	s3,s3,1
80001500:	00160613          	addi	a2,a2,1
80001504:	00c12423          	sw	a2,8(sp)
80001508:	fee60fa3          	sb	a4,-1(a2)
8000150c:	fd378ae3          	beq	a5,s3,800014e0 <qlz_compress+0x5e8>
80001510:	00812603          	lw	a2,8(sp)
80001514:	0009c703          	lbu	a4,0(s3)
80001518:	00198993          	addi	s3,s3,1
8000151c:	00160613          	addi	a2,a2,1
80001520:	00c12423          	sw	a2,8(sp)
80001524:	fee60fa3          	sb	a4,-1(a2)
80001528:	fd3796e3          	bne	a5,s3,800014f4 <qlz_compress+0x5fc>
8000152c:	fb5ff06f          	j	800014e0 <qlz_compress+0x5e8>
80001530:	00300293          	li	t0,3
80001534:	d8dff06f          	j	800012c0 <qlz_compress+0x3c8>
80001538:	01c12783          	lw	a5,28(sp)
8000153c:	0337e263          	bltu	a5,s3,80001560 <qlz_compress+0x668>
80001540:	00812783          	lw	a5,8(sp)
80001544:	00098713          	mv	a4,s3
80001548:	80000337          	lui	t1,0x80000
8000154c:	400002b7          	lui	t0,0x40000
80001550:	00000613          	li	a2,0
80001554:	c29ff06f          	j	8000117c <qlz_compress+0x284>
80001558:	00400593          	li	a1,4
8000155c:	b69ff06f          	j	800010c4 <qlz_compress+0x1cc>
80001560:	00812783          	lw	a5,8(sp)
80001564:	80000337          	lui	t1,0x80000
80001568:	02c10813          	addi	a6,sp,44
8000156c:	e0dff06f          	j	80001378 <qlz_compress+0x480>
80001570:	961ff0ef          	jal	ra,80000ed0 <bench_memcpy.part.0>

80001574 <bench_md5_prepare>:
80001574:	800067b7          	lui	a5,0x80006
80001578:	6887a783          	lw	a5,1672(a5) # 80006688 <_end+0xffff7688>
8000157c:	ff010113          	addi	sp,sp,-16
80001580:	00912223          	sw	s1,4(sp)
80001584:	0007a783          	lw	a5,0(a5)
80001588:	800064b7          	lui	s1,0x80006
8000158c:	6bc48493          	addi	s1,s1,1724 # 800066bc <_end+0xffff76bc>
80001590:	00100513          	li	a0,1
80001594:	00f4a023          	sw	a5,0(s1)
80001598:	00112623          	sw	ra,12(sp)
8000159c:	01212023          	sw	s2,0(sp)
800015a0:	00812423          	sw	s0,8(sp)
800015a4:	a90ff0ef          	jal	ra,80000834 <bench_srand>
800015a8:	0004a503          	lw	a0,0(s1)
800015ac:	80006937          	lui	s2,0x80006
800015b0:	6c490913          	addi	s2,s2,1732 # 800066c4 <_end+0xffff76c4>
800015b4:	9d8ff0ef          	jal	ra,8000078c <bench_alloc>
800015b8:	0004a783          	lw	a5,0(s1)
800015bc:	00a92023          	sw	a0,0(s2)
800015c0:	02f05263          	blez	a5,800015e4 <bench_md5_prepare+0x70>
800015c4:	00000413          	li	s0,0
800015c8:	a80ff0ef          	jal	ra,80000848 <bench_rand>
800015cc:	00092783          	lw	a5,0(s2)
800015d0:	0004a703          	lw	a4,0(s1)
800015d4:	008787b3          	add	a5,a5,s0
800015d8:	00a78023          	sb	a0,0(a5)
800015dc:	00140413          	addi	s0,s0,1
800015e0:	fee444e3          	blt	s0,a4,800015c8 <bench_md5_prepare+0x54>
800015e4:	01000513          	li	a0,16
800015e8:	9a4ff0ef          	jal	ra,8000078c <bench_alloc>
800015ec:	00c12083          	lw	ra,12(sp)
800015f0:	00812403          	lw	s0,8(sp)
800015f4:	800067b7          	lui	a5,0x80006
800015f8:	6ca7a023          	sw	a0,1728(a5) # 800066c0 <_end+0xffff76c0>
800015fc:	00412483          	lw	s1,4(sp)
80001600:	00012903          	lw	s2,0(sp)
80001604:	01010113          	addi	sp,sp,16
80001608:	00008067          	ret

8000160c <bench_md5_run>:
8000160c:	800067b7          	lui	a5,0x80006
80001610:	6bc7a603          	lw	a2,1724(a5) # 800066bc <_end+0xffff76bc>
80001614:	f9010113          	addi	sp,sp,-112
80001618:	800067b7          	lui	a5,0x80006
8000161c:	07312023          	sw	s3,96(sp)
80001620:	6c47a983          	lw	s3,1732(a5) # 800066c4 <_end+0xffff76c4>
80001624:	00160793          	addi	a5,a2,1
80001628:	800065b7          	lui	a1,0x80006
8000162c:	05712823          	sw	s7,80(sp)
80001630:	06812623          	sw	s0,108(sp)
80001634:	06912423          	sw	s1,104(sp)
80001638:	07212223          	sw	s2,100(sp)
8000163c:	05412e23          	sw	s4,92(sp)
80001640:	05512c23          	sw	s5,88(sp)
80001644:	05612a23          	sw	s6,84(sp)
80001648:	05812623          	sw	s8,76(sp)
8000164c:	05912423          	sw	s9,72(sp)
80001650:	05a12223          	sw	s10,68(sp)
80001654:	05b12023          	sw	s11,64(sp)
80001658:	03f7f693          	andi	a3,a5,63
8000165c:	03800713          	li	a4,56
80001660:	6c05ab83          	lw	s7,1728(a1) # 800066c0 <_end+0xffff76c0>
80001664:	00078f93          	mv	t6,a5
80001668:	00c985b3          	add	a1,s3,a2
8000166c:	2ce68c63          	beq	a3,a4,80001944 <bench_md5_run+0x338>
80001670:	03800693          	li	a3,56
80001674:	001f8f93          	addi	t6,t6,1 # 80000001 <_end+0xffff1001>
80001678:	03fff713          	andi	a4,t6,63
8000167c:	fed71ce3          	bne	a4,a3,80001674 <bench_md5_run+0x68>
80001680:	f8000713          	li	a4,-128
80001684:	00e58023          	sb	a4,0(a1)
80001688:	2df7f263          	bgeu	a5,t6,8000194c <bench_md5_run+0x340>
8000168c:	00f987b3          	add	a5,s3,a5
80001690:	01f98733          	add	a4,s3,t6
80001694:	00078023          	sb	zero,0(a5)
80001698:	00178793          	addi	a5,a5,1
8000169c:	fef71ce3          	bne	a4,a5,80001694 <bench_md5_run+0x88>
800016a0:	00361693          	slli	a3,a2,0x3
800016a4:	0086d813          	srli	a6,a3,0x8
800016a8:	0106d513          	srli	a0,a3,0x10
800016ac:	0186d593          	srli	a1,a3,0x18
800016b0:	004f8793          	addi	a5,t6,4
800016b4:	00d70023          	sb	a3,0(a4)
800016b8:	010700a3          	sb	a6,1(a4)
800016bc:	00a70123          	sb	a0,2(a4)
800016c0:	00b701a3          	sb	a1,3(a4)
800016c4:	00f987b3          	add	a5,s3,a5
800016c8:	01d65613          	srli	a2,a2,0x1d
800016cc:	103253b7          	lui	t2,0x10325
800016d0:	98bae437          	lui	s0,0x98bae
800016d4:	efcdb4b7          	lui	s1,0xefcdb
800016d8:	67452937          	lui	s2,0x67452
800016dc:	80006b37          	lui	s6,0x80006
800016e0:	80006ab7          	lui	s5,0x80006
800016e4:	d76aaa37          	lui	s4,0xd76aa
800016e8:	00c78023          	sb	a2,0(a5)
800016ec:	000780a3          	sb	zero,1(a5)
800016f0:	00078123          	sb	zero,2(a5)
800016f4:	000781a3          	sb	zero,3(a5)
800016f8:	47638393          	addi	t2,t2,1142 # 10325476 <_entry_offset+0x10325476>
800016fc:	cfe40413          	addi	s0,s0,-770 # 98badcfe <_end+0x18b9ecfe>
80001700:	b8948493          	addi	s1,s1,-1143 # efcdab89 <_end+0x6fccbb89>
80001704:	30190913          	addi	s2,s2,769 # 67452301 <_entry_offset+0x67452301>
80001708:	00000293          	li	t0,0
8000170c:	ae4b0b13          	addi	s6,s6,-1308 # 80005ae4 <_end+0xffff6ae4>
80001710:	be4a8a93          	addi	s5,s5,-1052 # 80005be4 <_end+0xffff6be4>
80001714:	478a0a13          	addi	s4,s4,1144 # d76aa478 <_end+0x5769b478>
80001718:	00f00c93          	li	s9,15
8000171c:	02f00f13          	li	t5,47
80001720:	03f00c13          	li	s8,63
80001724:	005987b3          	add	a5,s3,t0
80001728:	00010713          	mv	a4,sp
8000172c:	0017c583          	lbu	a1,1(a5)
80001730:	0007c503          	lbu	a0,0(a5)
80001734:	0027c603          	lbu	a2,2(a5)
80001738:	0037c683          	lbu	a3,3(a5)
8000173c:	00859593          	slli	a1,a1,0x8
80001740:	00a5e5b3          	or	a1,a1,a0
80001744:	01061613          	slli	a2,a2,0x10
80001748:	00b66633          	or	a2,a2,a1
8000174c:	01869693          	slli	a3,a3,0x18
80001750:	00c6e6b3          	or	a3,a3,a2
80001754:	00d72023          	sw	a3,0(a4)
80001758:	00470713          	addi	a4,a4,4
8000175c:	04010693          	addi	a3,sp,64
80001760:	00478793          	addi	a5,a5,4
80001764:	fce694e3          	bne	a3,a4,8000172c <bench_md5_run+0x120>
80001768:	00090d93          	mv	s11,s2
8000176c:	000a0d13          	mv	s10,s4
80001770:	00000893          	li	a7,0
80001774:	000b0513          	mv	a0,s6
80001778:	000a8593          	mv	a1,s5
8000177c:	00048713          	mv	a4,s1
80001780:	00038813          	mv	a6,t2
80001784:	00040613          	mv	a2,s0
80001788:	00000e93          	li	t4,0
8000178c:	00100313          	li	t1,1
80001790:	00500e13          	li	t3,5
80001794:	00700693          	li	a3,7
80001798:	01ad8db3          	add	s11,s11,s10
8000179c:	091cf063          	bgeu	s9,a7,8000181c <bench_md5_run+0x210>
800017a0:	00e647b3          	xor	a5,a2,a4
800017a4:	01f00d13          	li	s10,31
800017a8:	0107f7b3          	and	a5,a5,a6
800017ac:	091d6263          	bltu	s10,a7,80001830 <bench_md5_run+0x224>
800017b0:	00c7c7b3          	xor	a5,a5,a2
800017b4:	00f37d13          	andi	s10,t1,15
800017b8:	002d1d13          	slli	s10,s10,0x2
800017bc:	040d0d13          	addi	s10,s10,64
800017c0:	002d0d33          	add	s10,s10,sp
800017c4:	fc0d2d03          	lw	s10,-64(s10)
800017c8:	01b787b3          	add	a5,a5,s11
800017cc:	40d00db3          	neg	s11,a3
800017d0:	01a787b3          	add	a5,a5,s10
800017d4:	00d796b3          	sll	a3,a5,a3
800017d8:	01b7d7b3          	srl	a5,a5,s11
800017dc:	00f6e7b3          	or	a5,a3,a5
800017e0:	00e787b3          	add	a5,a5,a4
800017e4:	00052d03          	lw	s10,0(a0) # 20000000 <_entry_offset+0x20000000>
800017e8:	00080d93          	mv	s11,a6
800017ec:	00188893          	addi	a7,a7,1
800017f0:	0005a683          	lw	a3,0(a1)
800017f4:	00060813          	mv	a6,a2
800017f8:	00450513          	addi	a0,a0,4
800017fc:	00070613          	mv	a2,a4
80001800:	00458593          	addi	a1,a1,4
80001804:	003e0e13          	addi	t3,t3,3
80001808:	00530313          	addi	t1,t1,5 # 80000005 <_end+0xffff1005>
8000180c:	007e8e93          	addi	t4,t4,7
80001810:	00078713          	mv	a4,a5
80001814:	01ad8db3          	add	s11,s11,s10
80001818:	f91ce4e3          	bltu	s9,a7,800017a0 <bench_md5_run+0x194>
8000181c:	010647b3          	xor	a5,a2,a6
80001820:	00e7f7b3          	and	a5,a5,a4
80001824:	0107c7b3          	xor	a5,a5,a6
80001828:	00088d13          	mv	s10,a7
8000182c:	f8dff06f          	j	800017b8 <bench_md5_run+0x1ac>
80001830:	010647b3          	xor	a5,a2,a6
80001834:	011f6863          	bltu	t5,a7,80001844 <bench_md5_run+0x238>
80001838:	00e7c7b3          	xor	a5,a5,a4
8000183c:	00fe7d13          	andi	s10,t3,15
80001840:	f79ff06f          	j	800017b8 <bench_md5_run+0x1ac>
80001844:	00fefd13          	andi	s10,t4,15
80001848:	002d1d13          	slli	s10,s10,0x2
8000184c:	040d0793          	addi	a5,s10,64
80001850:	00278d33          	add	s10,a5,sp
80001854:	fc0d2d03          	lw	s10,-64(s10)
80001858:	fff84793          	not	a5,a6
8000185c:	00e7e7b3          	or	a5,a5,a4
80001860:	00c7c7b3          	xor	a5,a5,a2
80001864:	01a787b3          	add	a5,a5,s10
80001868:	01b787b3          	add	a5,a5,s11
8000186c:	40d00d33          	neg	s10,a3
80001870:	00d796b3          	sll	a3,a5,a3
80001874:	01a7d7b3          	srl	a5,a5,s10
80001878:	00d7e7b3          	or	a5,a5,a3
8000187c:	00e787b3          	add	a5,a5,a4
80001880:	f78892e3          	bne	a7,s8,800017e4 <bench_md5_run+0x1d8>
80001884:	04028293          	addi	t0,t0,64 # 40000040 <_entry_offset+0x40000040>
80001888:	01090933          	add	s2,s2,a6
8000188c:	00f484b3          	add	s1,s1,a5
80001890:	00e40433          	add	s0,s0,a4
80001894:	00c383b3          	add	t2,t2,a2
80001898:	e9f2e6e3          	bltu	t0,t6,80001724 <bench_md5_run+0x118>
8000189c:	00895f13          	srli	t5,s2,0x8
800018a0:	01095e93          	srli	t4,s2,0x10
800018a4:	01895e13          	srli	t3,s2,0x18
800018a8:	0084d313          	srli	t1,s1,0x8
800018ac:	0104d893          	srli	a7,s1,0x10
800018b0:	0184d813          	srli	a6,s1,0x18
800018b4:	00845513          	srli	a0,s0,0x8
800018b8:	01045593          	srli	a1,s0,0x10
800018bc:	01845613          	srli	a2,s0,0x18
800018c0:	0083d693          	srli	a3,t2,0x8
800018c4:	0103d713          	srli	a4,t2,0x10
800018c8:	0183d793          	srli	a5,t2,0x18
800018cc:	012b8023          	sb	s2,0(s7)
800018d0:	01eb80a3          	sb	t5,1(s7)
800018d4:	01db8123          	sb	t4,2(s7)
800018d8:	01cb81a3          	sb	t3,3(s7)
800018dc:	009b8223          	sb	s1,4(s7)
800018e0:	006b82a3          	sb	t1,5(s7)
800018e4:	011b8323          	sb	a7,6(s7)
800018e8:	010b83a3          	sb	a6,7(s7)
800018ec:	008b8423          	sb	s0,8(s7)
800018f0:	00ab84a3          	sb	a0,9(s7)
800018f4:	00bb8523          	sb	a1,10(s7)
800018f8:	00cb85a3          	sb	a2,11(s7)
800018fc:	007b8623          	sb	t2,12(s7)
80001900:	00db86a3          	sb	a3,13(s7)
80001904:	00eb8723          	sb	a4,14(s7)
80001908:	00fb87a3          	sb	a5,15(s7)
8000190c:	06c12403          	lw	s0,108(sp)
80001910:	06812483          	lw	s1,104(sp)
80001914:	06412903          	lw	s2,100(sp)
80001918:	06012983          	lw	s3,96(sp)
8000191c:	05c12a03          	lw	s4,92(sp)
80001920:	05812a83          	lw	s5,88(sp)
80001924:	05412b03          	lw	s6,84(sp)
80001928:	05012b83          	lw	s7,80(sp)
8000192c:	04c12c03          	lw	s8,76(sp)
80001930:	04812c83          	lw	s9,72(sp)
80001934:	04412d03          	lw	s10,68(sp)
80001938:	04012d83          	lw	s11,64(sp)
8000193c:	07010113          	addi	sp,sp,112
80001940:	00008067          	ret
80001944:	f8000793          	li	a5,-128
80001948:	00f58023          	sb	a5,0(a1)
8000194c:	01f98733          	add	a4,s3,t6
80001950:	d51ff06f          	j	800016a0 <bench_md5_run+0x94>

80001954 <bench_md5_validate>:
80001954:	800067b7          	lui	a5,0x80006
80001958:	6c07a503          	lw	a0,1728(a5) # 800066c0 <_end+0xffff76c0>
8000195c:	ff010113          	addi	sp,sp,-16
80001960:	00112623          	sw	ra,12(sp)
80001964:	01050593          	addi	a1,a0,16
80001968:	f15fe0ef          	jal	ra,8000087c <checksum>
8000196c:	800067b7          	lui	a5,0x80006
80001970:	6887a783          	lw	a5,1672(a5) # 80006688 <_end+0xffff7688>
80001974:	00c12083          	lw	ra,12(sp)
80001978:	00c7a783          	lw	a5,12(a5)
8000197c:	01010113          	addi	sp,sp,16
80001980:	40a78533          	sub	a0,a5,a0
80001984:	00153513          	seqz	a0,a0
80001988:	00008067          	ret

8000198c <_ZL9radixPassPiS_S_ii>:
8000198c:	fe010113          	addi	sp,sp,-32
80001990:	01412423          	sw	s4,8(sp)
80001994:	00070a13          	mv	s4,a4
80001998:	00170713          	addi	a4,a4,1
8000199c:	01512223          	sw	s5,4(sp)
800019a0:	00271a93          	slli	s5,a4,0x2
800019a4:	00812c23          	sw	s0,24(sp)
800019a8:	00050413          	mv	s0,a0
800019ac:	000a8513          	mv	a0,s5
800019b0:	00912a23          	sw	s1,20(sp)
800019b4:	01212823          	sw	s2,16(sp)
800019b8:	01312623          	sw	s3,12(sp)
800019bc:	00112e23          	sw	ra,28(sp)
800019c0:	00058993          	mv	s3,a1
800019c4:	00060493          	mv	s1,a2
800019c8:	00068913          	mv	s2,a3
800019cc:	dc1fe0ef          	jal	ra,8000078c <bench_alloc>
800019d0:	0e0a4463          	bltz	s4,80001ab8 <_ZL9radixPassPiS_S_ii+0x12c>
800019d4:	00050793          	mv	a5,a0
800019d8:	00aa8733          	add	a4,s5,a0
800019dc:	0007a023          	sw	zero,0(a5)
800019e0:	00478793          	addi	a5,a5,4
800019e4:	fef71ce3          	bne	a4,a5,800019dc <_ZL9radixPassPiS_S_ii+0x50>
800019e8:	05205063          	blez	s2,80001a28 <_ZL9radixPassPiS_S_ii+0x9c>
800019ec:	00291713          	slli	a4,s2,0x2
800019f0:	00040813          	mv	a6,s0
800019f4:	00870733          	add	a4,a4,s0
800019f8:	00082783          	lw	a5,0(a6)
800019fc:	00480813          	addi	a6,a6,4
80001a00:	00279793          	slli	a5,a5,0x2
80001a04:	00f487b3          	add	a5,s1,a5
80001a08:	0007a783          	lw	a5,0(a5)
80001a0c:	00279793          	slli	a5,a5,0x2
80001a10:	00f507b3          	add	a5,a0,a5
80001a14:	0007a883          	lw	a7,0(a5)
80001a18:	00188893          	addi	a7,a7,1
80001a1c:	0117a023          	sw	a7,0(a5)
80001a20:	fd071ce3          	bne	a4,a6,800019f8 <_ZL9radixPassPiS_S_ii+0x6c>
80001a24:	020a4663          	bltz	s4,80001a50 <_ZL9radixPassPiS_S_ii+0xc4>
80001a28:	00050793          	mv	a5,a0
80001a2c:	00000693          	li	a3,0
80001a30:	00000813          	li	a6,0
80001a34:	0007a603          	lw	a2,0(a5)
80001a38:	00180813          	addi	a6,a6,1
80001a3c:	00d7a023          	sw	a3,0(a5)
80001a40:	00c686b3          	add	a3,a3,a2
80001a44:	00478793          	addi	a5,a5,4
80001a48:	ff0a56e3          	bge	s4,a6,80001a34 <_ZL9radixPassPiS_S_ii+0xa8>
80001a4c:	05205463          	blez	s2,80001a94 <_ZL9radixPassPiS_S_ii+0x108>
80001a50:	00040893          	mv	a7,s0
80001a54:	00000813          	li	a6,0
80001a58:	0008a683          	lw	a3,0(a7)
80001a5c:	00180813          	addi	a6,a6,1
80001a60:	00488893          	addi	a7,a7,4
80001a64:	00269793          	slli	a5,a3,0x2
80001a68:	00f487b3          	add	a5,s1,a5
80001a6c:	0007a703          	lw	a4,0(a5)
80001a70:	00271713          	slli	a4,a4,0x2
80001a74:	00e50733          	add	a4,a0,a4
80001a78:	00072783          	lw	a5,0(a4)
80001a7c:	00178613          	addi	a2,a5,1
80001a80:	00279793          	slli	a5,a5,0x2
80001a84:	00c72023          	sw	a2,0(a4)
80001a88:	00f987b3          	add	a5,s3,a5
80001a8c:	00d7a023          	sw	a3,0(a5)
80001a90:	fd2844e3          	blt	a6,s2,80001a58 <_ZL9radixPassPiS_S_ii+0xcc>
80001a94:	01c12083          	lw	ra,28(sp)
80001a98:	01812403          	lw	s0,24(sp)
80001a9c:	01412483          	lw	s1,20(sp)
80001aa0:	01012903          	lw	s2,16(sp)
80001aa4:	00c12983          	lw	s3,12(sp)
80001aa8:	00812a03          	lw	s4,8(sp)
80001aac:	00412a83          	lw	s5,4(sp)
80001ab0:	02010113          	addi	sp,sp,32
80001ab4:	00008067          	ret
80001ab8:	f3204ae3          	bgtz	s2,800019ec <_ZL9radixPassPiS_S_ii+0x60>
80001abc:	fd9ff06f          	j	80001a94 <_ZL9radixPassPiS_S_ii+0x108>

80001ac0 <_Z11suffixArrayPiS_ii>:
80001ac0:	fb010113          	addi	sp,sp,-80
80001ac4:	00300793          	li	a5,3
80001ac8:	04812423          	sw	s0,72(sp)
80001acc:	00260413          	addi	s0,a2,2
80001ad0:	02f44433          	div	s0,s0,a5
80001ad4:	03812423          	sw	s8,40(sp)
80001ad8:	03712623          	sw	s7,44(sp)
80001adc:	04912223          	sw	s1,68(sp)
80001ae0:	03412c23          	sw	s4,56(sp)
80001ae4:	00050a13          	mv	s4,a0
80001ae8:	04112623          	sw	ra,76(sp)
80001aec:	05212023          	sw	s2,64(sp)
80001af0:	03312e23          	sw	s3,60(sp)
80001af4:	03512a23          	sw	s5,52(sp)
80001af8:	00068993          	mv	s3,a3
80001afc:	03612823          	sw	s6,48(sp)
80001b00:	03912223          	sw	s9,36(sp)
80001b04:	03a12023          	sw	s10,32(sp)
80001b08:	00060c93          	mv	s9,a2
80001b0c:	01b12e23          	sw	s11,28(sp)
80001b10:	00058d93          	mv	s11,a1
80001b14:	02f64c33          	div	s8,a2,a5
80001b18:	00241913          	slli	s2,s0,0x2
80001b1c:	008c0c33          	add	s8,s8,s0
80001b20:	003c0b93          	addi	s7,s8,3
80001b24:	002b9b93          	slli	s7,s7,0x2
80001b28:	000b8513          	mv	a0,s7
80001b2c:	002c0493          	addi	s1,s8,2
80001b30:	c5dfe0ef          	jal	ra,8000078c <bench_alloc>
80001b34:	00249493          	slli	s1,s1,0x2
80001b38:	00950733          	add	a4,a0,s1
80001b3c:	ffc48d13          	addi	s10,s1,-4
80001b40:	00072023          	sw	zero,0(a4)
80001b44:	ff848b13          	addi	s6,s1,-8
80001b48:	01a50733          	add	a4,a0,s10
80001b4c:	00072023          	sw	zero,0(a4)
80001b50:	01650733          	add	a4,a0,s6
80001b54:	00072023          	sw	zero,0(a4)
80001b58:	00050a93          	mv	s5,a0
80001b5c:	000b8513          	mv	a0,s7
80001b60:	c2dfe0ef          	jal	ra,8000078c <bench_alloc>
80001b64:	009504b3          	add	s1,a0,s1
80001b68:	0004a023          	sw	zero,0(s1)
80001b6c:	01a50d33          	add	s10,a0,s10
80001b70:	000d2023          	sw	zero,0(s10)
80001b74:	01650b33          	add	s6,a0,s6
80001b78:	000b2023          	sw	zero,0(s6)
80001b7c:	00050b93          	mv	s7,a0
80001b80:	00090513          	mv	a0,s2
80001b84:	c09fe0ef          	jal	ra,8000078c <bench_alloc>
80001b88:	00050893          	mv	a7,a0
80001b8c:	00090513          	mv	a0,s2
80001b90:	01112423          	sw	a7,8(sp)
80001b94:	bf9fe0ef          	jal	ra,8000078c <bench_alloc>
80001b98:	001c8b13          	addi	s6,s9,1
80001b9c:	00300793          	li	a5,3
80001ba0:	02fb4b33          	div	s6,s6,a5
80001ba4:	00050d13          	mv	s10,a0
80001ba8:	00812883          	lw	a7,8(sp)
80001bac:	00000713          	li	a4,0
80001bb0:	00000693          	li	a3,0
80001bb4:	00300513          	li	a0,3
80001bb8:	41640b33          	sub	s6,s0,s6
80001bbc:	016c85b3          	add	a1,s9,s6
80001bc0:	02b05a63          	blez	a1,80001bf4 <_Z11suffixArrayPiS_ii+0x134>
80001bc4:	00269793          	slli	a5,a3,0x2
80001bc8:	00170713          	addi	a4,a4,1
80001bcc:	00fa87b3          	add	a5,s5,a5
80001bd0:	02b70263          	beq	a4,a1,80001bf4 <_Z11suffixArrayPiS_ii+0x134>
80001bd4:	02a76633          	rem	a2,a4,a0
80001bd8:	fe0606e3          	beqz	a2,80001bc4 <_Z11suffixArrayPiS_ii+0x104>
80001bdc:	00168693          	addi	a3,a3,1
80001be0:	00e7a023          	sw	a4,0(a5)
80001be4:	00269793          	slli	a5,a3,0x2
80001be8:	00170713          	addi	a4,a4,1
80001bec:	00fa87b3          	add	a5,s5,a5
80001bf0:	feb712e3          	bne	a4,a1,80001bd4 <_Z11suffixArrayPiS_ii+0x114>
80001bf4:	008a0613          	addi	a2,s4,8
80001bf8:	000b8593          	mv	a1,s7
80001bfc:	000a8513          	mv	a0,s5
80001c00:	00098713          	mv	a4,s3
80001c04:	000c0693          	mv	a3,s8
80001c08:	01112423          	sw	a7,8(sp)
80001c0c:	d81ff0ef          	jal	ra,8000198c <_ZL9radixPassPiS_S_ii>
80001c10:	00098713          	mv	a4,s3
80001c14:	000c0693          	mv	a3,s8
80001c18:	004a0613          	addi	a2,s4,4
80001c1c:	000a8593          	mv	a1,s5
80001c20:	000b8513          	mv	a0,s7
80001c24:	d69ff0ef          	jal	ra,8000198c <_ZL9radixPassPiS_S_ii>
80001c28:	00098713          	mv	a4,s3
80001c2c:	000c0693          	mv	a3,s8
80001c30:	000a0613          	mv	a2,s4
80001c34:	000b8593          	mv	a1,s7
80001c38:	000a8513          	mv	a0,s5
80001c3c:	d51ff0ef          	jal	ra,8000198c <_ZL9radixPassPiS_S_ii>
80001c40:	00812883          	lw	a7,8(sp)
80001c44:	0f805663          	blez	s8,80001d30 <_Z11suffixArrayPiS_ii+0x270>
80001c48:	002c1713          	slli	a4,s8,0x2
80001c4c:	000b8493          	mv	s1,s7
80001c50:	01770733          	add	a4,a4,s7
80001c54:	000b8613          	mv	a2,s7
80001c58:	fff00813          	li	a6,-1
80001c5c:	fff00e13          	li	t3,-1
80001c60:	fff00513          	li	a0,-1
80001c64:	00000693          	li	a3,0
80001c68:	00300593          	li	a1,3
80001c6c:	00100313          	li	t1,1
80001c70:	02c0006f          	j	80001c9c <_Z11suffixArrayPiS_ii+0x1dc>
80001c74:	00168693          	addi	a3,a3,1
80001c78:	000e8513          	mv	a0,t4
80001c7c:	02b7c7b3          	div	a5,a5,a1
80001c80:	006f0463          	beq	t5,t1,80001c88 <_Z11suffixArrayPiS_ii+0x1c8>
80001c84:	00f407b3          	add	a5,s0,a5
80001c88:	00279793          	slli	a5,a5,0x2
80001c8c:	00fa87b3          	add	a5,s5,a5
80001c90:	00d7a023          	sw	a3,0(a5)
80001c94:	00460613          	addi	a2,a2,4
80001c98:	02c70c63          	beq	a4,a2,80001cd0 <_Z11suffixArrayPiS_ii+0x210>
80001c9c:	00062783          	lw	a5,0(a2)
80001ca0:	00080293          	mv	t0,a6
80001ca4:	000e0f93          	mv	t6,t3
80001ca8:	00279813          	slli	a6,a5,0x2
80001cac:	010a0833          	add	a6,s4,a6
80001cb0:	00082e83          	lw	t4,0(a6)
80001cb4:	00482e03          	lw	t3,4(a6)
80001cb8:	00882803          	lw	a6,8(a6)
80001cbc:	02b7ef33          	rem	t5,a5,a1
80001cc0:	faae9ae3          	bne	t4,a0,80001c74 <_Z11suffixArrayPiS_ii+0x1b4>
80001cc4:	fbcf98e3          	bne	t6,t3,80001c74 <_Z11suffixArrayPiS_ii+0x1b4>
80001cc8:	fb0296e3          	bne	t0,a6,80001c74 <_Z11suffixArrayPiS_ii+0x1b4>
80001ccc:	fb1ff06f          	j	80001c7c <_Z11suffixArrayPiS_ii+0x1bc>
80001cd0:	40000537          	lui	a0,0x40000
80001cd4:	000a8593          	mv	a1,s5
80001cd8:	00000613          	li	a2,0
80001cdc:	fff50513          	addi	a0,a0,-1 # 3fffffff <_entry_offset+0x3fffffff>
80001ce0:	2786c863          	blt	a3,s8,80001f50 <_Z11suffixArrayPiS_ii+0x490>
80001ce4:	0005a783          	lw	a5,0(a1)
80001ce8:	00458593          	addi	a1,a1,4
80001cec:	00a787b3          	add	a5,a5,a0
80001cf0:	00279793          	slli	a5,a5,0x2
80001cf4:	00fb87b3          	add	a5,s7,a5
80001cf8:	00c7a023          	sw	a2,0(a5)
80001cfc:	00160613          	addi	a2,a2,1
80001d00:	fecc12e3          	bne	s8,a2,80001ce4 <_Z11suffixArrayPiS_ii+0x224>
80001d04:	00000593          	li	a1,0
80001d08:	0004a683          	lw	a3,0(s1)
80001d0c:	00259793          	slli	a5,a1,0x2
80001d10:	00448493          	addi	s1,s1,4
80001d14:	00169613          	slli	a2,a3,0x1
80001d18:	00f887b3          	add	a5,a7,a5
80001d1c:	00d60633          	add	a2,a2,a3
80001d20:	0086d663          	bge	a3,s0,80001d2c <_Z11suffixArrayPiS_ii+0x26c>
80001d24:	00c7a023          	sw	a2,0(a5)
80001d28:	00158593          	addi	a1,a1,1
80001d2c:	fc971ee3          	bne	a4,s1,80001d08 <_Z11suffixArrayPiS_ii+0x248>
80001d30:	00098713          	mv	a4,s3
80001d34:	00040693          	mv	a3,s0
80001d38:	000a0613          	mv	a2,s4
80001d3c:	000d0593          	mv	a1,s10
80001d40:	00088513          	mv	a0,a7
80001d44:	c49ff0ef          	jal	ra,8000198c <_ZL9radixPassPiS_S_ii>
80001d48:	11905863          	blez	s9,80001e58 <_Z11suffixArrayPiS_ii+0x398>
80001d4c:	002c1313          	slli	t1,s8,0x2
80001d50:	006b8333          	add	t1,s7,t1
80001d54:	012d0933          	add	s2,s10,s2
80001d58:	00000613          	li	a2,0
80001d5c:	00000813          	li	a6,0
80001d60:	00300893          	li	a7,3
80001d64:	0400006f          	j	80001da4 <_Z11suffixArrayPiS_ii+0x2e4>
80001d68:	00169593          	slli	a1,a3,0x1
80001d6c:	00d585b3          	add	a1,a1,a3
80001d70:	00158593          	addi	a1,a1,1
80001d74:	00259513          	slli	a0,a1,0x2
80001d78:	00aa0533          	add	a0,s4,a0
80001d7c:	00052503          	lw	a0,0(a0)
80001d80:	09f54663          	blt	a0,t6,80001e0c <_Z11suffixArrayPiS_ii+0x34c>
80001d84:	11f50863          	beq	a0,t6,80001e94 <_Z11suffixArrayPiS_ii+0x3d4>
80001d88:	00261593          	slli	a1,a2,0x2
80001d8c:	00bd87b3          	add	a5,s11,a1
80001d90:	01c7a023          	sw	t3,0(a5)
80001d94:	00180813          	addi	a6,a6,1
80001d98:	13040a63          	beq	s0,a6,80001ecc <_Z11suffixArrayPiS_ii+0x40c>
80001d9c:	00160613          	addi	a2,a2,1
80001da0:	0b965c63          	bge	a2,s9,80001e58 <_Z11suffixArrayPiS_ii+0x398>
80001da4:	00281793          	slli	a5,a6,0x2
80001da8:	00fd07b3          	add	a5,s10,a5
80001dac:	0007ae03          	lw	t3,0(a5)
80001db0:	002b1713          	slli	a4,s6,0x2
80001db4:	00eb8733          	add	a4,s7,a4
80001db8:	00072683          	lw	a3,0(a4)
80001dbc:	002e1513          	slli	a0,t3,0x2
80001dc0:	00aa0533          	add	a0,s4,a0
80001dc4:	031e4f33          	div	t5,t3,a7
80001dc8:	00052f83          	lw	t6,0(a0)
80001dcc:	f886cee3          	blt	a3,s0,80001d68 <_Z11suffixArrayPiS_ii+0x2a8>
80001dd0:	408686b3          	sub	a3,a3,s0
80001dd4:	00169e93          	slli	t4,a3,0x1
80001dd8:	00de8eb3          	add	t4,t4,a3
80001ddc:	002e8593          	addi	a1,t4,2
80001de0:	00259293          	slli	t0,a1,0x2
80001de4:	005a02b3          	add	t0,s4,t0
80001de8:	0002a283          	lw	t0,0(t0)
80001dec:	03f2c063          	blt	t0,t6,80001e0c <_Z11suffixArrayPiS_ii+0x34c>
80001df0:	f9f29ce3          	bne	t0,t6,80001d88 <_Z11suffixArrayPiS_ii+0x2c8>
80001df4:	003e8e93          	addi	t4,t4,3
80001df8:	002e9e93          	slli	t4,t4,0x2
80001dfc:	01da0eb3          	add	t4,s4,t4
80001e00:	000eae83          	lw	t4,0(t4)
80001e04:	00452503          	lw	a0,4(a0)
80001e08:	10aede63          	bge	t4,a0,80001f24 <_Z11suffixArrayPiS_ii+0x464>
80001e0c:	00261713          	slli	a4,a2,0x2
80001e10:	00ed86b3          	add	a3,s11,a4
80001e14:	00b6a023          	sw	a1,0(a3)
80001e18:	001b0b13          	addi	s6,s6,1
80001e1c:	f96c10e3          	bne	s8,s6,80001d9c <_Z11suffixArrayPiS_ii+0x2dc>
80001e20:	00160613          	addi	a2,a2,1
80001e24:	f6885ce3          	bge	a6,s0,80001d9c <_Z11suffixArrayPiS_ii+0x2dc>
80001e28:	00470713          	addi	a4,a4,4
80001e2c:	00ed8733          	add	a4,s11,a4
80001e30:	0007a683          	lw	a3,0(a5)
80001e34:	00478793          	addi	a5,a5,4
80001e38:	00470713          	addi	a4,a4,4
80001e3c:	fed72e23          	sw	a3,-4(a4)
80001e40:	fef918e3          	bne	s2,a5,80001e30 <_Z11suffixArrayPiS_ii+0x370>
80001e44:	41060833          	sub	a6,a2,a6
80001e48:	00880633          	add	a2,a6,s0
80001e4c:	00160613          	addi	a2,a2,1
80001e50:	00040813          	mv	a6,s0
80001e54:	f59648e3          	blt	a2,s9,80001da4 <_Z11suffixArrayPiS_ii+0x2e4>
80001e58:	04c12083          	lw	ra,76(sp)
80001e5c:	04812403          	lw	s0,72(sp)
80001e60:	04412483          	lw	s1,68(sp)
80001e64:	04012903          	lw	s2,64(sp)
80001e68:	03c12983          	lw	s3,60(sp)
80001e6c:	03812a03          	lw	s4,56(sp)
80001e70:	03412a83          	lw	s5,52(sp)
80001e74:	03012b03          	lw	s6,48(sp)
80001e78:	02c12b83          	lw	s7,44(sp)
80001e7c:	02812c03          	lw	s8,40(sp)
80001e80:	02412c83          	lw	s9,36(sp)
80001e84:	02012d03          	lw	s10,32(sp)
80001e88:	01c12d83          	lw	s11,28(sp)
80001e8c:	05010113          	addi	sp,sp,80
80001e90:	00008067          	ret
80001e94:	008686b3          	add	a3,a3,s0
80001e98:	00269693          	slli	a3,a3,0x2
80001e9c:	002f1f13          	slli	t5,t5,0x2
80001ea0:	00da86b3          	add	a3,s5,a3
80001ea4:	01ea8f33          	add	t5,s5,t5
80001ea8:	0006a503          	lw	a0,0(a3)
80001eac:	000f2683          	lw	a3,0(t5)
80001eb0:	eca6cce3          	blt	a3,a0,80001d88 <_Z11suffixArrayPiS_ii+0x2c8>
80001eb4:	00261713          	slli	a4,a2,0x2
80001eb8:	00ed86b3          	add	a3,s11,a4
80001ebc:	00b6a023          	sw	a1,0(a3)
80001ec0:	001b0b13          	addi	s6,s6,1
80001ec4:	ed6c1ce3          	bne	s8,s6,80001d9c <_Z11suffixArrayPiS_ii+0x2dc>
80001ec8:	f59ff06f          	j	80001e20 <_Z11suffixArrayPiS_ii+0x360>
80001ecc:	00160613          	addi	a2,a2,1
80001ed0:	ed8b56e3          	bge	s6,s8,80001d9c <_Z11suffixArrayPiS_ii+0x2dc>
80001ed4:	00458593          	addi	a1,a1,4
80001ed8:	00070793          	mv	a5,a4
80001edc:	00bd85b3          	add	a1,s11,a1
80001ee0:	0007a683          	lw	a3,0(a5)
80001ee4:	40868e33          	sub	t3,a3,s0
80001ee8:	001e1713          	slli	a4,t3,0x1
80001eec:	00169513          	slli	a0,a3,0x1
80001ef0:	01c70733          	add	a4,a4,t3
80001ef4:	00d50533          	add	a0,a0,a3
80001ef8:	00270713          	addi	a4,a4,2
80001efc:	0086d463          	bge	a3,s0,80001f04 <_Z11suffixArrayPiS_ii+0x444>
80001f00:	00150713          	addi	a4,a0,1
80001f04:	00e5a023          	sw	a4,0(a1)
80001f08:	00478793          	addi	a5,a5,4
80001f0c:	00458593          	addi	a1,a1,4
80001f10:	fcf318e3          	bne	t1,a5,80001ee0 <_Z11suffixArrayPiS_ii+0x420>
80001f14:	41660633          	sub	a2,a2,s6
80001f18:	01860633          	add	a2,a2,s8
80001f1c:	000c0b13          	mv	s6,s8
80001f20:	e7dff06f          	j	80001d9c <_Z11suffixArrayPiS_ii+0x2dc>
80001f24:	e6ae92e3          	bne	t4,a0,80001d88 <_Z11suffixArrayPiS_ii+0x2c8>
80001f28:	00168693          	addi	a3,a3,1
80001f2c:	01e40533          	add	a0,s0,t5
80001f30:	00269693          	slli	a3,a3,0x2
80001f34:	00251513          	slli	a0,a0,0x2
80001f38:	00da86b3          	add	a3,s5,a3
80001f3c:	00aa8533          	add	a0,s5,a0
80001f40:	0006ae83          	lw	t4,0(a3)
80001f44:	00052683          	lw	a3,0(a0)
80001f48:	e5d6c0e3          	blt	a3,t4,80001d88 <_Z11suffixArrayPiS_ii+0x2c8>
80001f4c:	ec1ff06f          	j	80001e0c <_Z11suffixArrayPiS_ii+0x34c>
80001f50:	000c0613          	mv	a2,s8
80001f54:	000b8593          	mv	a1,s7
80001f58:	000a8513          	mv	a0,s5
80001f5c:	01112623          	sw	a7,12(sp)
80001f60:	00e12423          	sw	a4,8(sp)
80001f64:	b5dff0ef          	jal	ra,80001ac0 <_Z11suffixArrayPiS_ii>
80001f68:	00c12883          	lw	a7,12(sp)
80001f6c:	00812703          	lw	a4,8(sp)
80001f70:	000b8613          	mv	a2,s7
80001f74:	00000693          	li	a3,0
80001f78:	00062783          	lw	a5,0(a2)
80001f7c:	00168693          	addi	a3,a3,1
80001f80:	00460613          	addi	a2,a2,4
80001f84:	00279793          	slli	a5,a5,0x2
80001f88:	00fa87b3          	add	a5,s5,a5
80001f8c:	00d7a023          	sw	a3,0(a5)
80001f90:	ff8694e3          	bne	a3,s8,80001f78 <_Z11suffixArrayPiS_ii+0x4b8>
80001f94:	d71ff06f          	j	80001d04 <_Z11suffixArrayPiS_ii+0x244>

80001f98 <bench_ssort_prepare>:
80001f98:	800067b7          	lui	a5,0x80006
80001f9c:	6887a783          	lw	a5,1672(a5) # 80006688 <_end+0xffff7688>
80001fa0:	fe010113          	addi	sp,sp,-32
80001fa4:	00912a23          	sw	s1,20(sp)
80001fa8:	0007a783          	lw	a5,0(a5)
80001fac:	800064b7          	lui	s1,0x80006
80001fb0:	6c848493          	addi	s1,s1,1736 # 800066c8 <_end+0xffff76c8>
80001fb4:	00100513          	li	a0,1
80001fb8:	00112e23          	sw	ra,28(sp)
80001fbc:	00f4a023          	sw	a5,0(s1)
80001fc0:	01212823          	sw	s2,16(sp)
80001fc4:	00812c23          	sw	s0,24(sp)
80001fc8:	01312623          	sw	s3,12(sp)
80001fcc:	869fe0ef          	jal	ra,80000834 <bench_srand>
80001fd0:	0004a503          	lw	a0,0(s1)
80001fd4:	80006937          	lui	s2,0x80006
80001fd8:	6cc90913          	addi	s2,s2,1740 # 800066cc <_end+0xffff76cc>
80001fdc:	00a50513          	addi	a0,a0,10
80001fe0:	00251513          	slli	a0,a0,0x2
80001fe4:	fa8fe0ef          	jal	ra,8000078c <bench_alloc>
80001fe8:	00050793          	mv	a5,a0
80001fec:	0004a503          	lw	a0,0(s1)
80001ff0:	00f92023          	sw	a5,0(s2)
80001ff4:	00a50513          	addi	a0,a0,10
80001ff8:	00251513          	slli	a0,a0,0x2
80001ffc:	f90fe0ef          	jal	ra,8000078c <bench_alloc>
80002000:	0004a783          	lw	a5,0(s1)
80002004:	80006737          	lui	a4,0x80006
80002008:	6ca72823          	sw	a0,1744(a4) # 800066d0 <_end+0xffff76d0>
8000200c:	02f05863          	blez	a5,8000203c <bench_ssort_prepare+0xa4>
80002010:	00000413          	li	s0,0
80002014:	01a00993          	li	s3,26
80002018:	831fe0ef          	jal	ra,80000848 <bench_rand>
8000201c:	03357533          	remu	a0,a0,s3
80002020:	00092783          	lw	a5,0(s2)
80002024:	00241693          	slli	a3,s0,0x2
80002028:	0004a703          	lw	a4,0(s1)
8000202c:	00d787b3          	add	a5,a5,a3
80002030:	00140413          	addi	s0,s0,1
80002034:	00a7a023          	sw	a0,0(a5)
80002038:	fee440e3          	blt	s0,a4,80002018 <bench_ssort_prepare+0x80>
8000203c:	01c12083          	lw	ra,28(sp)
80002040:	01812403          	lw	s0,24(sp)
80002044:	01412483          	lw	s1,20(sp)
80002048:	01012903          	lw	s2,16(sp)
8000204c:	00c12983          	lw	s3,12(sp)
80002050:	02010113          	addi	sp,sp,32
80002054:	00008067          	ret

80002058 <bench_ssort_run>:
80002058:	800067b7          	lui	a5,0x80006
8000205c:	6c87a603          	lw	a2,1736(a5) # 800066c8 <_end+0xffff76c8>
80002060:	800067b7          	lui	a5,0x80006
80002064:	6d07a583          	lw	a1,1744(a5) # 800066d0 <_end+0xffff76d0>
80002068:	800067b7          	lui	a5,0x80006
8000206c:	6cc7a503          	lw	a0,1740(a5) # 800066cc <_end+0xffff76cc>
80002070:	01a00693          	li	a3,26
80002074:	a4dff06f          	j	80001ac0 <_Z11suffixArrayPiS_ii>

80002078 <bench_ssort_validate>:
80002078:	800067b7          	lui	a5,0x80006
8000207c:	6c87a583          	lw	a1,1736(a5) # 800066c8 <_end+0xffff76c8>
80002080:	800067b7          	lui	a5,0x80006
80002084:	6d07a503          	lw	a0,1744(a5) # 800066d0 <_end+0xffff76d0>
80002088:	00259593          	slli	a1,a1,0x2
8000208c:	ff010113          	addi	sp,sp,-16
80002090:	00b505b3          	add	a1,a0,a1
80002094:	00112623          	sw	ra,12(sp)
80002098:	fe4fe0ef          	jal	ra,8000087c <checksum>
8000209c:	800067b7          	lui	a5,0x80006
800020a0:	6887a783          	lw	a5,1672(a5) # 80006688 <_end+0xffff7688>
800020a4:	00c12083          	lw	ra,12(sp)
800020a8:	00c7a783          	lw	a5,12(a5)
800020ac:	01010113          	addi	sp,sp,16
800020b0:	40a78533          	sub	a0,a5,a0
800020b4:	00153513          	seqz	a0,a0
800020b8:	00008067          	ret

800020bc <bench_sieve_prepare>:
800020bc:	800067b7          	lui	a5,0x80006
800020c0:	6887a783          	lw	a5,1672(a5) # 80006688 <_end+0xffff7688>
800020c4:	ff010113          	addi	sp,sp,-16
800020c8:	00812423          	sw	s0,8(sp)
800020cc:	0007a783          	lw	a5,0(a5)
800020d0:	80006437          	lui	s0,0x80006
800020d4:	6d440413          	addi	s0,s0,1748 # 800066d4 <_end+0xffff76d4>
800020d8:	41f7d513          	srai	a0,a5,0x1f
800020dc:	00757513          	andi	a0,a0,7
800020e0:	00f50533          	add	a0,a0,a5
800020e4:	40355513          	srai	a0,a0,0x3
800020e8:	08050513          	addi	a0,a0,128
800020ec:	00f42023          	sw	a5,0(s0)
800020f0:	00112623          	sw	ra,12(sp)
800020f4:	e98fe0ef          	jal	ra,8000078c <bench_alloc>
800020f8:	00042783          	lw	a5,0(s0)
800020fc:	800066b7          	lui	a3,0x80006
80002100:	6ca6ae23          	sw	a0,1756(a3) # 800066dc <_end+0xffff76dc>
80002104:	41f7d713          	srai	a4,a5,0x1f
80002108:	01f77713          	andi	a4,a4,31
8000210c:	fe100693          	li	a3,-31
80002110:	00f70733          	add	a4,a4,a5
80002114:	02d7c063          	blt	a5,a3,80002134 <bench_sieve_prepare+0x78>
80002118:	40575713          	srai	a4,a4,0x5
8000211c:	00000793          	li	a5,0
80002120:	fff00693          	li	a3,-1
80002124:	00d52023          	sw	a3,0(a0)
80002128:	00178793          	addi	a5,a5,1
8000212c:	00450513          	addi	a0,a0,4
80002130:	fef75ae3          	bge	a4,a5,80002124 <bench_sieve_prepare+0x68>
80002134:	00c12083          	lw	ra,12(sp)
80002138:	00812403          	lw	s0,8(sp)
8000213c:	01010113          	addi	sp,sp,16
80002140:	00008067          	ret

80002144 <bench_sieve_run>:
80002144:	800067b7          	lui	a5,0x80006
80002148:	6d47a503          	lw	a0,1748(a5) # 800066d4 <_end+0xffff76d4>
8000214c:	12a05063          	blez	a0,8000226c <bench_sieve_run+0x128>
80002150:	80006637          	lui	a2,0x80006
80002154:	6dc60613          	addi	a2,a2,1756 # 800066dc <_end+0xffff76dc>
80002158:	00062683          	lw	a3,0(a2)
8000215c:	0006a703          	lw	a4,0(a3)
80002160:	00175713          	srli	a4,a4,0x1
80002164:	00177713          	andi	a4,a4,1
80002168:	00071c63          	bnez	a4,80002180 <bench_sieve_run+0x3c>
8000216c:	1180006f          	j	80002284 <bench_sieve_run+0x140>
80002170:	0007a783          	lw	a5,0(a5)
80002174:	00e7d7b3          	srl	a5,a5,a4
80002178:	0017f793          	andi	a5,a5,1
8000217c:	10078263          	beqz	a5,80002280 <bench_sieve_run+0x13c>
80002180:	00170713          	addi	a4,a4,1
80002184:	40575793          	srai	a5,a4,0x5
80002188:	00279793          	slli	a5,a5,0x2
8000218c:	00f687b3          	add	a5,a3,a5
80002190:	fee550e3          	bge	a0,a4,80002170 <bench_sieve_run+0x2c>
80002194:	00300793          	li	a5,3
80002198:	0ca7da63          	bge	a5,a0,8000226c <bench_sieve_run+0x128>
8000219c:	00062803          	lw	a6,0(a2)
800021a0:	00400893          	li	a7,4
800021a4:	00200593          	li	a1,2
800021a8:	00100313          	li	t1,1
800021ac:	0140006f          	j	800021c0 <bench_sieve_run+0x7c>
800021b0:	00158593          	addi	a1,a1,1
800021b4:	02b587b3          	mul	a5,a1,a1
800021b8:	00288893          	addi	a7,a7,2
800021bc:	06f54063          	blt	a0,a5,8000221c <bench_sieve_run+0xd8>
800021c0:	4055d793          	srai	a5,a1,0x5
800021c4:	00279793          	slli	a5,a5,0x2
800021c8:	00f807b3          	add	a5,a6,a5
800021cc:	0007a783          	lw	a5,0(a5)
800021d0:	00b7d7b3          	srl	a5,a5,a1
800021d4:	0017f793          	andi	a5,a5,1
800021d8:	fc078ce3          	beqz	a5,800021b0 <bench_sieve_run+0x6c>
800021dc:	00088713          	mv	a4,a7
800021e0:	fd1548e3          	blt	a0,a7,800021b0 <bench_sieve_run+0x6c>
800021e4:	40575793          	srai	a5,a4,0x5
800021e8:	00279793          	slli	a5,a5,0x2
800021ec:	00f807b3          	add	a5,a6,a5
800021f0:	0007a683          	lw	a3,0(a5)
800021f4:	00e31633          	sll	a2,t1,a4
800021f8:	fff64613          	not	a2,a2
800021fc:	00c6f6b3          	and	a3,a3,a2
80002200:	00d7a023          	sw	a3,0(a5)
80002204:	00b70733          	add	a4,a4,a1
80002208:	fce55ee3          	bge	a0,a4,800021e4 <bench_sieve_run+0xa0>
8000220c:	00158593          	addi	a1,a1,1
80002210:	02b587b3          	mul	a5,a1,a1
80002214:	00288893          	addi	a7,a7,2
80002218:	faf554e3          	bge	a0,a5,800021c0 <bench_sieve_run+0x7c>
8000221c:	800065b7          	lui	a1,0x80006
80002220:	6d858593          	addi	a1,a1,1752 # 800066d8 <_end+0xffff76d8>
80002224:	0005a023          	sw	zero,0(a1)
80002228:	00000613          	li	a2,0
8000222c:	00000693          	li	a3,0
80002230:	00200713          	li	a4,2
80002234:	40575793          	srai	a5,a4,0x5
80002238:	00279793          	slli	a5,a5,0x2
8000223c:	00f807b3          	add	a5,a6,a5
80002240:	0007a783          	lw	a5,0(a5)
80002244:	00e7d7b3          	srl	a5,a5,a4
80002248:	0017f793          	andi	a5,a5,1
8000224c:	00170713          	addi	a4,a4,1
80002250:	00078663          	beqz	a5,8000225c <bench_sieve_run+0x118>
80002254:	00168693          	addi	a3,a3,1
80002258:	00100613          	li	a2,1
8000225c:	fce55ce3          	bge	a0,a4,80002234 <bench_sieve_run+0xf0>
80002260:	02060063          	beqz	a2,80002280 <bench_sieve_run+0x13c>
80002264:	00d5a023          	sw	a3,0(a1)
80002268:	00008067          	ret
8000226c:	800065b7          	lui	a1,0x80006
80002270:	6d858593          	addi	a1,a1,1752 # 800066d8 <_end+0xffff76d8>
80002274:	0005a023          	sw	zero,0(a1)
80002278:	00100793          	li	a5,1
8000227c:	00a7c663          	blt	a5,a0,80002288 <bench_sieve_run+0x144>
80002280:	00008067          	ret
80002284:	00008067          	ret
80002288:	800067b7          	lui	a5,0x80006
8000228c:	6dc7a803          	lw	a6,1756(a5) # 800066dc <_end+0xffff76dc>
80002290:	f99ff06f          	j	80002228 <bench_sieve_run+0xe4>

80002294 <bench_sieve_validate>:
80002294:	800067b7          	lui	a5,0x80006
80002298:	6887a703          	lw	a4,1672(a5) # 80006688 <_end+0xffff7688>
8000229c:	800067b7          	lui	a5,0x80006
800022a0:	6d87a783          	lw	a5,1752(a5) # 800066d8 <_end+0xffff76d8>
800022a4:	00c72503          	lw	a0,12(a4)
800022a8:	40f50533          	sub	a0,a0,a5
800022ac:	00153513          	seqz	a0,a0
800022b0:	00008067          	ret

800022b4 <bench_bf_prepare>:
800022b4:	800067b7          	lui	a5,0x80006
800022b8:	6887a783          	lw	a5,1672(a5) # 80006688 <_end+0xffff7688>
800022bc:	fe010113          	addi	sp,sp,-32
800022c0:	00912a23          	sw	s1,20(sp)
800022c4:	0007a783          	lw	a5,0(a5)
800022c8:	800064b7          	lui	s1,0x80006
800022cc:	6e048493          	addi	s1,s1,1760 # 800066e0 <_end+0xffff76e0>
800022d0:	00f4a023          	sw	a5,0(s1)
800022d4:	00004537          	lui	a0,0x4
800022d8:	800067b7          	lui	a5,0x80006
800022dc:	00112e23          	sw	ra,28(sp)
800022e0:	01212823          	sw	s2,16(sp)
800022e4:	6e07a423          	sw	zero,1768(a5) # 800066e8 <_end+0xffff76e8>
800022e8:	00812c23          	sw	s0,24(sp)
800022ec:	01312623          	sw	s3,12(sp)
800022f0:	01412423          	sw	s4,8(sp)
800022f4:	c98fe0ef          	jal	ra,8000078c <bench_alloc>
800022f8:	00050713          	mv	a4,a0
800022fc:	800067b7          	lui	a5,0x80006
80002300:	40000513          	li	a0,1024
80002304:	6ee7a223          	sw	a4,1764(a5) # 800066e4 <_end+0xffff76e4>
80002308:	c84fe0ef          	jal	ra,8000078c <bench_alloc>
8000230c:	00050713          	mv	a4,a0
80002310:	800067b7          	lui	a5,0x80006
80002314:	00002537          	lui	a0,0x2
80002318:	6ee7a623          	sw	a4,1772(a5) # 800066ec <_end+0xffff76ec>
8000231c:	c70fe0ef          	jal	ra,8000078c <bench_alloc>
80002320:	00050713          	mv	a4,a0
80002324:	0004a503          	lw	a0,0(s1)
80002328:	800067b7          	lui	a5,0x80006
8000232c:	6ee7aa23          	sw	a4,1780(a5) # 800066f4 <_end+0xffff76f4>
80002330:	800067b7          	lui	a5,0x80006
80002334:	80006737          	lui	a4,0x80006
80002338:	ce078793          	addi	a5,a5,-800 # 80005ce0 <_end+0xffff6ce0>
8000233c:	00150513          	addi	a0,a0,1 # 2001 <_entry_offset+0x2001>
80002340:	6ef72823          	sw	a5,1776(a4) # 800066f0 <_end+0xffff76f0>
80002344:	80006937          	lui	s2,0x80006
80002348:	c44fe0ef          	jal	ra,8000078c <bench_alloc>
8000234c:	00050793          	mv	a5,a0
80002350:	6f890913          	addi	s2,s2,1784 # 800066f8 <_end+0xffff76f8>
80002354:	00001537          	lui	a0,0x1
80002358:	00f92023          	sw	a5,0(s2)
8000235c:	c30fe0ef          	jal	ra,8000078c <bench_alloc>
80002360:	00050713          	mv	a4,a0
80002364:	800067b7          	lui	a5,0x80006
80002368:	70e7a023          	sw	a4,1792(a5) # 80006700 <_end+0xffff7700>
8000236c:	00100513          	li	a0,1
80002370:	800067b7          	lui	a5,0x80006
80002374:	6e07ae23          	sw	zero,1788(a5) # 800066fc <_end+0xffff76fc>
80002378:	cbcfe0ef          	jal	ra,80000834 <bench_srand>
8000237c:	0004a783          	lw	a5,0(s1)
80002380:	02f05e63          	blez	a5,800023bc <bench_bf_prepare+0x108>
80002384:	800069b7          	lui	s3,0x80006
80002388:	00000413          	li	s0,0
8000238c:	d9498993          	addi	s3,s3,-620 # 80005d94 <_end+0xffff6d94>
80002390:	03e00a13          	li	s4,62
80002394:	cb4fe0ef          	jal	ra,80000848 <bench_rand>
80002398:	03457533          	remu	a0,a0,s4
8000239c:	00092783          	lw	a5,0(s2)
800023a0:	0004a703          	lw	a4,0(s1)
800023a4:	008787b3          	add	a5,a5,s0
800023a8:	00140413          	addi	s0,s0,1
800023ac:	00a98533          	add	a0,s3,a0
800023b0:	00054683          	lbu	a3,0(a0) # 1000 <_entry_offset+0x1000>
800023b4:	00d78023          	sb	a3,0(a5)
800023b8:	fce44ee3          	blt	s0,a4,80002394 <bench_bf_prepare+0xe0>
800023bc:	01c12083          	lw	ra,28(sp)
800023c0:	01812403          	lw	s0,24(sp)
800023c4:	01412483          	lw	s1,20(sp)
800023c8:	01012903          	lw	s2,16(sp)
800023cc:	00c12983          	lw	s3,12(sp)
800023d0:	00812a03          	lw	s4,8(sp)
800023d4:	02010113          	addi	sp,sp,32
800023d8:	00008067          	ret

800023dc <bench_bf_run>:
800023dc:	80006f37          	lui	t5,0x80006
800023e0:	6f0f0f13          	addi	t5,t5,1776 # 800066f0 <_end+0xffff76f0>
800023e4:	000f2683          	lw	a3,0(t5)
800023e8:	fd010113          	addi	sp,sp,-48
800023ec:	01712823          	sw	s7,16(sp)
800023f0:	02812623          	sw	s0,44(sp)
800023f4:	02912423          	sw	s1,40(sp)
800023f8:	03212223          	sw	s2,36(sp)
800023fc:	03312023          	sw	s3,32(sp)
80002400:	01412e23          	sw	s4,28(sp)
80002404:	01512c23          	sw	s5,24(sp)
80002408:	01612a23          	sw	s6,20(sp)
8000240c:	01812623          	sw	s8,12(sp)
80002410:	0006c783          	lbu	a5,0(a3)
80002414:	80006fb7          	lui	t6,0x80006
80002418:	6e8f8f93          	addi	t6,t6,1768 # 800066e8 <_end+0xffff76e8>
8000241c:	80006737          	lui	a4,0x80006
80002420:	6e472603          	lw	a2,1764(a4) # 800066e4 <_end+0xffff76e4>
80002424:	000fab83          	lw	s7,0(t6)
80002428:	36078663          	beqz	a5,80002794 <bench_bf_run+0x3b8>
8000242c:	80006737          	lui	a4,0x80006
80002430:	80006e37          	lui	t3,0x80006
80002434:	6ec72283          	lw	t0,1772(a4) # 800066ec <_end+0xffff76ec>
80002438:	00168693          	addi	a3,a3,1
8000243c:	000b8893          	mv	a7,s7
80002440:	00000513          	li	a0,0
80002444:	00000e93          	li	t4,0
80002448:	00000713          	li	a4,0
8000244c:	03200593          	li	a1,50
80002450:	dd4e0e13          	addi	t3,t3,-556 # 80005dd4 <_end+0xffff6dd4>
80002454:	00001337          	lui	t1,0x1
80002458:	00800c13          	li	s8,8
8000245c:	00100b13          	li	s6,1
80002460:	00700a93          	li	s5,7
80002464:	20000a13          	li	s4,512
80002468:	00600993          	li	s3,6
8000246c:	00500913          	li	s2,5
80002470:	00400493          	li	s1,4
80002474:	00300413          	li	s0,3
80002478:	00200393          	li	t2,2
8000247c:	fd578793          	addi	a5,a5,-43
80002480:	0ff7f793          	zext.b	a5,a5
80002484:	00f5ea63          	bltu	a1,a5,80002498 <bench_bf_run+0xbc>
80002488:	00279793          	slli	a5,a5,0x2
8000248c:	01c787b3          	add	a5,a5,t3
80002490:	0007a783          	lw	a5,0(a5)
80002494:	00078067          	jr	a5
80002498:	0006c783          	lbu	a5,0(a3)
8000249c:	00068813          	mv	a6,a3
800024a0:	10078863          	beqz	a5,800025b0 <bench_bf_run+0x1d4>
800024a4:	00168693          	addi	a3,a3,1
800024a8:	00100513          	li	a0,1
800024ac:	fd1ff06f          	j	8000247c <bench_bf_run+0xa0>
800024b0:	2a088c63          	beqz	a7,80002768 <bench_bf_run+0x38c>
800024b4:	fff88893          	addi	a7,a7,-1
800024b8:	00189793          	slli	a5,a7,0x1
800024bc:	00f287b3          	add	a5,t0,a5
800024c0:	0007d803          	lhu	a6,0(a5)
800024c4:	00271793          	slli	a5,a4,0x2
800024c8:	00f607b3          	add	a5,a2,a5
800024cc:	00281513          	slli	a0,a6,0x2
800024d0:	01079123          	sh	a6,2(a5)
800024d4:	01879023          	sh	s8,0(a5)
800024d8:	00a607b3          	add	a5,a2,a0
800024dc:	00e79123          	sh	a4,2(a5)
800024e0:	00100e93          	li	t4,1
800024e4:	0006c783          	lbu	a5,0(a3)
800024e8:	00170713          	addi	a4,a4,1
800024ec:	01071713          	slli	a4,a4,0x10
800024f0:	01075713          	srli	a4,a4,0x10
800024f4:	00068813          	mv	a6,a3
800024f8:	0a078c63          	beqz	a5,800025b0 <bench_bf_run+0x1d4>
800024fc:	fa6714e3          	bne	a4,t1,800024a4 <bench_bf_run+0xc8>
80002500:	00df2023          	sw	a3,0(t5)
80002504:	000e8463          	beqz	t4,8000250c <bench_bf_run+0x130>
80002508:	011fa023          	sw	a7,0(t6)
8000250c:	00065783          	lhu	a5,0(a2)
80002510:	16078663          	beqz	a5,8000267c <bench_bf_run+0x2a0>
80002514:	80006337          	lui	t1,0x80006
80002518:	80006e37          	lui	t3,0x80006
8000251c:	6f830313          	addi	t1,t1,1784 # 800066f8 <_end+0xffff76f8>
80002520:	6fce0e13          	addi	t3,t3,1788 # 800066fc <_end+0xffff76fc>
80002524:	80006737          	lui	a4,0x80006
80002528:	00032e83          	lw	t4,0(t1)
8000252c:	000e2f03          	lw	t5,0(t3)
80002530:	6f472883          	lw	a7,1780(a4) # 800066f4 <_end+0xffff76f4>
80002534:	800065b7          	lui	a1,0x80006
80002538:	80006737          	lui	a4,0x80006
8000253c:	70072403          	lw	s0,1792(a4) # 80006700 <_end+0xffff7700>
80002540:	00000f93          	li	t6,0
80002544:	00060713          	mv	a4,a2
80002548:	00000293          	li	t0,0
8000254c:	00000693          	li	a3,0
80002550:	00000513          	li	a0,0
80002554:	00800813          	li	a6,8
80002558:	ea058593          	addi	a1,a1,-352 # 80005ea0 <_end+0xffff6ea0>
8000255c:	000013b7          	lui	t2,0x1
80002560:	10f86663          	bltu	a6,a5,8000266c <bench_bf_run+0x290>
80002564:	00279793          	slli	a5,a5,0x2
80002568:	00b787b3          	add	a5,a5,a1
8000256c:	0007a783          	lw	a5,0(a5)
80002570:	00078067          	jr	a5
80002574:	00271793          	slli	a5,a4,0x2
80002578:	00f607b3          	add	a5,a2,a5
8000257c:	01579023          	sh	s5,0(a5)
80002580:	1f488e63          	beq	a7,s4,8000277c <bench_bf_run+0x3a0>
80002584:	00189793          	slli	a5,a7,0x1
80002588:	00f287b3          	add	a5,t0,a5
8000258c:	00e79023          	sh	a4,0(a5)
80002590:	0006c783          	lbu	a5,0(a3)
80002594:	00170713          	addi	a4,a4,1
80002598:	01071713          	slli	a4,a4,0x10
8000259c:	00188893          	addi	a7,a7,1
800025a0:	00100e93          	li	t4,1
800025a4:	01075713          	srli	a4,a4,0x10
800025a8:	00068813          	mv	a6,a3
800025ac:	f40798e3          	bnez	a5,800024fc <bench_bf_run+0x120>
800025b0:	00df2023          	sw	a3,0(t5)
800025b4:	000e8663          	beqz	t4,800025c0 <bench_bf_run+0x1e4>
800025b8:	011fa023          	sw	a7,0(t6)
800025bc:	00088b93          	mv	s7,a7
800025c0:	f40b96e3          	bnez	s7,8000250c <bench_bf_run+0x130>
800025c4:	000017b7          	lui	a5,0x1
800025c8:	f4f702e3          	beq	a4,a5,8000250c <bench_bf_run+0x130>
800025cc:	00271713          	slli	a4,a4,0x2
800025d0:	00e60733          	add	a4,a2,a4
800025d4:	00071023          	sh	zero,0(a4)
800025d8:	00065783          	lhu	a5,0(a2)
800025dc:	f2079ce3          	bnez	a5,80002514 <bench_bf_run+0x138>
800025e0:	09c0006f          	j	8000267c <bench_bf_run+0x2a0>
800025e4:	00271793          	slli	a5,a4,0x2
800025e8:	00f607b3          	add	a5,a2,a5
800025ec:	01679023          	sh	s6,0(a5) # 1000 <_entry_offset+0x1000>
800025f0:	ef5ff06f          	j	800024e4 <bench_bf_run+0x108>
800025f4:	00271793          	slli	a5,a4,0x2
800025f8:	00f607b3          	add	a5,a2,a5
800025fc:	00779023          	sh	t2,0(a5)
80002600:	ee5ff06f          	j	800024e4 <bench_bf_run+0x108>
80002604:	00271793          	slli	a5,a4,0x2
80002608:	00f607b3          	add	a5,a2,a5
8000260c:	01279023          	sh	s2,0(a5)
80002610:	ed5ff06f          	j	800024e4 <bench_bf_run+0x108>
80002614:	00271793          	slli	a5,a4,0x2
80002618:	00f607b3          	add	a5,a2,a5
8000261c:	00979023          	sh	s1,0(a5)
80002620:	ec5ff06f          	j	800024e4 <bench_bf_run+0x108>
80002624:	00271793          	slli	a5,a4,0x2
80002628:	00f607b3          	add	a5,a2,a5
8000262c:	01379023          	sh	s3,0(a5)
80002630:	eb5ff06f          	j	800024e4 <bench_bf_run+0x108>
80002634:	00271793          	slli	a5,a4,0x2
80002638:	00f607b3          	add	a5,a2,a5
8000263c:	00879023          	sh	s0,0(a5)
80002640:	ea5ff06f          	j	800024e4 <bench_bf_run+0x108>
80002644:	00151793          	slli	a5,a0,0x1
80002648:	00f887b3          	add	a5,a7,a5
8000264c:	0007d783          	lhu	a5,0(a5)
80002650:	08078463          	beqz	a5,800026d8 <bench_bf_run+0x2fc>
80002654:	00275683          	lhu	a3,2(a4)
80002658:	00168693          	addi	a3,a3,1
8000265c:	00269713          	slli	a4,a3,0x2
80002660:	00e60733          	add	a4,a2,a4
80002664:	00075783          	lhu	a5,0(a4)
80002668:	ee079ce3          	bnez	a5,80002560 <bench_bf_run+0x184>
8000266c:	000f8463          	beqz	t6,80002674 <bench_bf_run+0x298>
80002670:	01d32023          	sw	t4,0(t1)
80002674:	00028463          	beqz	t0,8000267c <bench_bf_run+0x2a0>
80002678:	01ee2023          	sw	t5,0(t3)
8000267c:	02c12403          	lw	s0,44(sp)
80002680:	02812483          	lw	s1,40(sp)
80002684:	02412903          	lw	s2,36(sp)
80002688:	02012983          	lw	s3,32(sp)
8000268c:	01c12a03          	lw	s4,28(sp)
80002690:	01812a83          	lw	s5,24(sp)
80002694:	01412b03          	lw	s6,20(sp)
80002698:	01012b83          	lw	s7,16(sp)
8000269c:	00c12c03          	lw	s8,12(sp)
800026a0:	03010113          	addi	sp,sp,48
800026a4:	00008067          	ret
800026a8:	00151793          	slli	a5,a0,0x1
800026ac:	00f887b3          	add	a5,a7,a5
800026b0:	0007d783          	lhu	a5,0(a5)
800026b4:	02079263          	bnez	a5,800026d8 <bench_bf_run+0x2fc>
800026b8:	00275683          	lhu	a3,2(a4)
800026bc:	f9dff06f          	j	80002658 <bench_bf_run+0x27c>
800026c0:	000ec703          	lbu	a4,0(t4)
800026c4:	00151793          	slli	a5,a0,0x1
800026c8:	00f887b3          	add	a5,a7,a5
800026cc:	00e79023          	sh	a4,0(a5)
800026d0:	001e8e93          	addi	t4,t4,1
800026d4:	00100f93          	li	t6,1
800026d8:	00168693          	addi	a3,a3,1
800026dc:	00269713          	slli	a4,a3,0x2
800026e0:	00e60733          	add	a4,a2,a4
800026e4:	00075783          	lhu	a5,0(a4)
800026e8:	e6079ce3          	bnez	a5,80002560 <bench_bf_run+0x184>
800026ec:	f81ff06f          	j	8000266c <bench_bf_run+0x290>
800026f0:	00151793          	slli	a5,a0,0x1
800026f4:	00f887b3          	add	a5,a7,a5
800026f8:	0007d703          	lhu	a4,0(a5)
800026fc:	fff70713          	addi	a4,a4,-1
80002700:	00e79023          	sh	a4,0(a5)
80002704:	fd5ff06f          	j	800026d8 <bench_bf_run+0x2fc>
80002708:	00151793          	slli	a5,a0,0x1
8000270c:	00f887b3          	add	a5,a7,a5
80002710:	0007d703          	lhu	a4,0(a5)
80002714:	01e407b3          	add	a5,s0,t5
80002718:	00100293          	li	t0,1
8000271c:	00e78023          	sb	a4,0(a5)
80002720:	001f0f13          	addi	t5,t5,1
80002724:	fb5ff06f          	j	800026d8 <bench_bf_run+0x2fc>
80002728:	00151793          	slli	a5,a0,0x1
8000272c:	00f887b3          	add	a5,a7,a5
80002730:	0007d703          	lhu	a4,0(a5)
80002734:	00170713          	addi	a4,a4,1
80002738:	00e79023          	sh	a4,0(a5)
8000273c:	f9dff06f          	j	800026d8 <bench_bf_run+0x2fc>
80002740:	fff50513          	addi	a0,a0,-1
80002744:	00168693          	addi	a3,a3,1
80002748:	00269713          	slli	a4,a3,0x2
8000274c:	00e60733          	add	a4,a2,a4
80002750:	00075783          	lhu	a5,0(a4)
80002754:	f0078ce3          	beqz	a5,8000266c <bench_bf_run+0x290>
80002758:	e07564e3          	bltu	a0,t2,80002560 <bench_bf_run+0x184>
8000275c:	f11ff06f          	j	8000266c <bench_bf_run+0x290>
80002760:	00150513          	addi	a0,a0,1
80002764:	fe1ff06f          	j	80002744 <bench_bf_run+0x368>
80002768:	00050463          	beqz	a0,80002770 <bench_bf_run+0x394>
8000276c:	010f2023          	sw	a6,0(t5)
80002770:	d80e8ee3          	beqz	t4,8000250c <bench_bf_run+0x130>
80002774:	000fa023          	sw	zero,0(t6)
80002778:	d95ff06f          	j	8000250c <bench_bf_run+0x130>
8000277c:	00050463          	beqz	a0,80002784 <bench_bf_run+0x3a8>
80002780:	010f2023          	sw	a6,0(t5)
80002784:	d80e84e3          	beqz	t4,8000250c <bench_bf_run+0x130>
80002788:	20000793          	li	a5,512
8000278c:	00ffa023          	sw	a5,0(t6)
80002790:	d7dff06f          	j	8000250c <bench_bf_run+0x130>
80002794:	00060713          	mv	a4,a2
80002798:	e20b8ee3          	beqz	s7,800025d4 <bench_bf_run+0x1f8>
8000279c:	d71ff06f          	j	8000250c <bench_bf_run+0x130>

800027a0 <bench_bf_validate>:
800027a0:	ff010113          	addi	sp,sp,-16
800027a4:	00812423          	sw	s0,8(sp)
800027a8:	80006437          	lui	s0,0x80006
800027ac:	800067b7          	lui	a5,0x80006
800027b0:	6fc40413          	addi	s0,s0,1788 # 800066fc <_end+0xffff76fc>
800027b4:	7007a503          	lw	a0,1792(a5) # 80006700 <_end+0xffff7700>
800027b8:	00042583          	lw	a1,0(s0)
800027bc:	00112623          	sw	ra,12(sp)
800027c0:	00b505b3          	add	a1,a0,a1
800027c4:	8b8fe0ef          	jal	ra,8000087c <checksum>
800027c8:	800067b7          	lui	a5,0x80006
800027cc:	00042683          	lw	a3,0(s0)
800027d0:	6e07a783          	lw	a5,1760(a5) # 800066e0 <_end+0xffff76e0>
800027d4:	00f68c63          	beq	a3,a5,800027ec <bench_bf_validate+0x4c>
800027d8:	00c12083          	lw	ra,12(sp)
800027dc:	00812403          	lw	s0,8(sp)
800027e0:	00000513          	li	a0,0
800027e4:	01010113          	addi	sp,sp,16
800027e8:	00008067          	ret
800027ec:	800067b7          	lui	a5,0x80006
800027f0:	6887a783          	lw	a5,1672(a5) # 80006688 <_end+0xffff7688>
800027f4:	00c12083          	lw	ra,12(sp)
800027f8:	00812403          	lw	s0,8(sp)
800027fc:	00c7a783          	lw	a5,12(a5)
80002800:	40a78533          	sub	a0,a5,a0
80002804:	00153513          	seqz	a0,a0
80002808:	01010113          	addi	sp,sp,16
8000280c:	00008067          	ret

80002810 <_ZNK14Updatable_heapI8N_puzzleILi4EEE7pointerERKS1_.isra.0>:
80002810:	00064803          	lbu	a6,0(a2)
80002814:	00080c63          	beqz	a6,8000282c <_ZNK14Updatable_heapI8N_puzzleILi4EEE7pointerERKS1_.isra.0+0x1c>
80002818:	01462783          	lw	a5,20(a2)
8000281c:	fff50513          	addi	a0,a0,-1
80002820:	00f577b3          	and	a5,a0,a5
80002824:	00279793          	slli	a5,a5,0x2
80002828:	00f585b3          	add	a1,a1,a5
8000282c:	0005a503          	lw	a0,0(a1)
80002830:	04050663          	beqz	a0,8000287c <_ZNK14Updatable_heapI8N_puzzleILi4EEE7pointerERKS1_.isra.0+0x6c>
80002834:	01800893          	li	a7,24
80002838:	00054783          	lbu	a5,0(a0)
8000283c:	04078263          	beqz	a5,80002880 <_ZNK14Updatable_heapI8N_puzzleILi4EEE7pointerERKS1_.isra.0+0x70>
80002840:	04080063          	beqz	a6,80002880 <_ZNK14Updatable_heapI8N_puzzleILi4EEE7pointerERKS1_.isra.0+0x70>
80002844:	01452703          	lw	a4,20(a0)
80002848:	01462783          	lw	a5,20(a2)
8000284c:	02f71a63          	bne	a4,a5,80002880 <_ZNK14Updatable_heapI8N_puzzleILi4EEE7pointerERKS1_.isra.0+0x70>
80002850:	00800713          	li	a4,8
80002854:	ffc70793          	addi	a5,a4,-4
80002858:	00f505b3          	add	a1,a0,a5
8000285c:	00f606b3          	add	a3,a2,a5
80002860:	00058583          	lb	a1,0(a1)
80002864:	00068683          	lb	a3,0(a3)
80002868:	00178793          	addi	a5,a5,1
8000286c:	00d59a63          	bne	a1,a3,80002880 <_ZNK14Updatable_heapI8N_puzzleILi4EEE7pointerERKS1_.isra.0+0x70>
80002870:	fef714e3          	bne	a4,a5,80002858 <_ZNK14Updatable_heapI8N_puzzleILi4EEE7pointerERKS1_.isra.0+0x48>
80002874:	00470713          	addi	a4,a4,4
80002878:	fd171ee3          	bne	a4,a7,80002854 <_ZNK14Updatable_heapI8N_puzzleILi4EEE7pointerERKS1_.isra.0+0x44>
8000287c:	00008067          	ret
80002880:	01852503          	lw	a0,24(a0)
80002884:	fa051ae3          	bnez	a0,80002838 <_ZNK14Updatable_heapI8N_puzzleILi4EEE7pointerERKS1_.isra.0+0x28>
80002888:	00008067          	ret

8000288c <bench_15pz_prepare>:
8000288c:	00008067          	ret

80002890 <bench_15pz_validate>:
80002890:	800067b7          	lui	a5,0x80006
80002894:	6887a703          	lw	a4,1672(a5) # 80006688 <_end+0xffff7688>
80002898:	800067b7          	lui	a5,0x80006
8000289c:	7047a783          	lw	a5,1796(a5) # 80006704 <_end+0xffff7704>
800028a0:	00c72503          	lw	a0,12(a4)
800028a4:	40f50533          	sub	a0,a0,a5
800028a8:	00153513          	seqz	a0,a0
800028ac:	00008067          	ret

800028b0 <_ZN8N_puzzleILi4EEC1Ev>:
800028b0:	f9010113          	addi	sp,sp,-112
800028b4:	05412c23          	sw	s4,88(sp)
800028b8:	05812423          	sw	s8,72(sp)
800028bc:	06112623          	sw	ra,108(sp)
800028c0:	06812423          	sw	s0,104(sp)
800028c4:	06912223          	sw	s1,100(sp)
800028c8:	07212023          	sw	s2,96(sp)
800028cc:	05312e23          	sw	s3,92(sp)
800028d0:	05512a23          	sw	s5,84(sp)
800028d4:	05612823          	sw	s6,80(sp)
800028d8:	05712623          	sw	s7,76(sp)
800028dc:	05912223          	sw	s9,68(sp)
800028e0:	00100793          	li	a5,1
800028e4:	00010a13          	mv	s4,sp
800028e8:	00f50023          	sb	a5,0(a0)
800028ec:	00050c13          	mv	s8,a0
800028f0:	000501a3          	sb	zero,3(a0)
800028f4:	000a0713          	mv	a4,s4
800028f8:	00000793          	li	a5,0
800028fc:	01000693          	li	a3,16
80002900:	00f72023          	sw	a5,0(a4)
80002904:	00178793          	addi	a5,a5,1
80002908:	00470713          	addi	a4,a4,4
8000290c:	fed79ae3          	bne	a5,a3,80002900 <_ZN8N_puzzleILi4EEC1Ev+0x50>
80002910:	000c0413          	mv	s0,s8
80002914:	00000993          	li	s3,0
80002918:	00000c93          	li	s9,0
8000291c:	00400913          	li	s2,4
80002920:	ff000a93          	li	s5,-16
80002924:	000a0b93          	mv	s7,s4
80002928:	00000b13          	li	s6,0
8000292c:	01098493          	addi	s1,s3,16
80002930:	f19fd0ef          	jal	ra,80000848 <bench_rand>
80002934:	416487b3          	sub	a5,s1,s6
80002938:	02f576b3          	remu	a3,a0,a5
8000293c:	016405b3          	add	a1,s0,s6
80002940:	00269693          	slli	a3,a3,0x2
80002944:	04068793          	addi	a5,a3,64
80002948:	002787b3          	add	a5,a5,sp
8000294c:	fc07a603          	lw	a2,-64(a5)
80002950:	fff60513          	addi	a0,a2,-1
80002954:	41f55793          	srai	a5,a0,0x1f
80002958:	01e7d813          	srli	a6,a5,0x1e
8000295c:	01050733          	add	a4,a0,a6
80002960:	0037f793          	andi	a5,a5,3
80002964:	00a787b3          	add	a5,a5,a0
80002968:	00377713          	andi	a4,a4,3
8000296c:	41070733          	sub	a4,a4,a6
80002970:	4027d793          	srai	a5,a5,0x2
80002974:	41670733          	sub	a4,a4,s6
80002978:	419787b3          	sub	a5,a5,s9
8000297c:	41f7d813          	srai	a6,a5,0x1f
80002980:	41f75513          	srai	a0,a4,0x1f
80002984:	00f847b3          	xor	a5,a6,a5
80002988:	00e54733          	xor	a4,a0,a4
8000298c:	410787b3          	sub	a5,a5,a6
80002990:	40a70733          	sub	a4,a4,a0
80002994:	00c58223          	sb	a2,4(a1)
80002998:	00e787b3          	add	a5,a5,a4
8000299c:	0a061463          	bnez	a2,80002a44 <_ZN8N_puzzleILi4EEC1Ev+0x194>
800029a0:	019c00a3          	sb	s9,1(s8)
800029a4:	016c0123          	sb	s6,2(s8)
800029a8:	03cba783          	lw	a5,60(s7)
800029ac:	04068713          	addi	a4,a3,64
800029b0:	002706b3          	add	a3,a4,sp
800029b4:	001b0b13          	addi	s6,s6,1
800029b8:	fcf6a023          	sw	a5,-64(a3)
800029bc:	ffcb8b93          	addi	s7,s7,-4
800029c0:	f72b18e3          	bne	s6,s2,80002930 <_ZN8N_puzzleILi4EEC1Ev+0x80>
800029c4:	ffc98993          	addi	s3,s3,-4
800029c8:	001c8c93          	addi	s9,s9,1
800029cc:	ff0a0a13          	addi	s4,s4,-16
800029d0:	00440413          	addi	s0,s0,4
800029d4:	f55998e3          	bne	s3,s5,80002924 <_ZN8N_puzzleILi4EEC1Ev+0x74>
800029d8:	000c2a23          	sw	zero,20(s8)
800029dc:	004c0693          	addi	a3,s8,4
800029e0:	014c0513          	addi	a0,s8,20
800029e4:	00000713          	li	a4,0
800029e8:	7b500593          	li	a1,1973
800029ec:	ffc68793          	addi	a5,a3,-4
800029f0:	02b70733          	mul	a4,a4,a1
800029f4:	00478603          	lb	a2,4(a5)
800029f8:	00178793          	addi	a5,a5,1
800029fc:	00c70733          	add	a4,a4,a2
80002a00:	fef698e3          	bne	a3,a5,800029f0 <_ZN8N_puzzleILi4EEC1Ev+0x140>
80002a04:	00468693          	addi	a3,a3,4
80002a08:	fed512e3          	bne	a0,a3,800029ec <_ZN8N_puzzleILi4EEC1Ev+0x13c>
80002a0c:	06c12083          	lw	ra,108(sp)
80002a10:	06812403          	lw	s0,104(sp)
80002a14:	00ec2a23          	sw	a4,20(s8)
80002a18:	06412483          	lw	s1,100(sp)
80002a1c:	06012903          	lw	s2,96(sp)
80002a20:	05c12983          	lw	s3,92(sp)
80002a24:	05812a03          	lw	s4,88(sp)
80002a28:	05412a83          	lw	s5,84(sp)
80002a2c:	05012b03          	lw	s6,80(sp)
80002a30:	04c12b83          	lw	s7,76(sp)
80002a34:	04812c03          	lw	s8,72(sp)
80002a38:	04412c83          	lw	s9,68(sp)
80002a3c:	07010113          	addi	sp,sp,112
80002a40:	00008067          	ret
80002a44:	003c4703          	lbu	a4,3(s8)
80002a48:	00e787b3          	add	a5,a5,a4
80002a4c:	00fc01a3          	sb	a5,3(s8)
80002a50:	f59ff06f          	j	800029a8 <_ZN8N_puzzleILi4EEC1Ev+0xf8>

80002a54 <_ZN8N_puzzleILi4EEC1EPi>:
80002a54:	fe010113          	addi	sp,sp,-32
80002a58:	00100793          	li	a5,1
80002a5c:	00010893          	mv	a7,sp
80002a60:	00f50023          	sb	a5,0(a0)
80002a64:	00812e23          	sw	s0,28(sp)
80002a68:	00912c23          	sw	s1,24(sp)
80002a6c:	01212a23          	sw	s2,20(sp)
80002a70:	000501a3          	sb	zero,3(a0)
80002a74:	01010e13          	addi	t3,sp,16
80002a78:	00088793          	mv	a5,a7
80002a7c:	00078023          	sb	zero,0(a5)
80002a80:	00178793          	addi	a5,a5,1
80002a84:	ffc79ce3          	bne	a5,t3,80002a7c <_ZN8N_puzzleILi4EEC1EPi+0x28>
80002a88:	00050e93          	mv	t4,a0
80002a8c:	00000313          	li	t1,0
80002a90:	00000293          	li	t0,0
80002a94:	00100f93          	li	t6,1
80002a98:	00400f13          	li	t5,4
80002a9c:	01000393          	li	t2,16
80002aa0:	00229813          	slli	a6,t0,0x2
80002aa4:	01058833          	add	a6,a1,a6
80002aa8:	00000693          	li	a3,0
80002aac:	00082603          	lw	a2,0(a6)
80002ab0:	00de8433          	add	s0,t4,a3
80002ab4:	fff60493          	addi	s1,a2,-1
80002ab8:	41f4d793          	srai	a5,s1,0x1f
80002abc:	01e7d913          	srli	s2,a5,0x1e
80002ac0:	01248733          	add	a4,s1,s2
80002ac4:	00377713          	andi	a4,a4,3
80002ac8:	41270733          	sub	a4,a4,s2
80002acc:	0037f793          	andi	a5,a5,3
80002ad0:	009787b3          	add	a5,a5,s1
80002ad4:	40d70733          	sub	a4,a4,a3
80002ad8:	41f75493          	srai	s1,a4,0x1f
80002adc:	4027d793          	srai	a5,a5,0x2
80002ae0:	406787b3          	sub	a5,a5,t1
80002ae4:	00e4c733          	xor	a4,s1,a4
80002ae8:	41f7d913          	srai	s2,a5,0x1f
80002aec:	40970733          	sub	a4,a4,s1
80002af0:	01060493          	addi	s1,a2,16
80002af4:	00f947b3          	xor	a5,s2,a5
80002af8:	002484b3          	add	s1,s1,sp
80002afc:	412787b3          	sub	a5,a5,s2
80002b00:	00c40223          	sb	a2,4(s0)
80002b04:	fff48823          	sb	t6,-16(s1)
80002b08:	00e787b3          	add	a5,a5,a4
80002b0c:	08061263          	bnez	a2,80002b90 <_ZN8N_puzzleILi4EEC1EPi+0x13c>
80002b10:	006500a3          	sb	t1,1(a0)
80002b14:	00d50123          	sb	a3,2(a0)
80002b18:	00168693          	addi	a3,a3,1
80002b1c:	00480813          	addi	a6,a6,4
80002b20:	f9e696e3          	bne	a3,t5,80002aac <_ZN8N_puzzleILi4EEC1EPi+0x58>
80002b24:	00428293          	addi	t0,t0,4
80002b28:	00130313          	addi	t1,t1,1
80002b2c:	004e8e93          	addi	t4,t4,4
80002b30:	f67298e3          	bne	t0,t2,80002aa0 <_ZN8N_puzzleILi4EEC1EPi+0x4c>
80002b34:	0008c783          	lbu	a5,0(a7)
80002b38:	00188893          	addi	a7,a7,1
80002b3c:	06078263          	beqz	a5,80002ba0 <_ZN8N_puzzleILi4EEC1EPi+0x14c>
80002b40:	ffc89ae3          	bne	a7,t3,80002b34 <_ZN8N_puzzleILi4EEC1EPi+0xe0>
80002b44:	00052a23          	sw	zero,20(a0)
80002b48:	00450613          	addi	a2,a0,4
80002b4c:	01450813          	addi	a6,a0,20
80002b50:	00000713          	li	a4,0
80002b54:	7b500593          	li	a1,1973
80002b58:	ffc60793          	addi	a5,a2,-4
80002b5c:	02b70733          	mul	a4,a4,a1
80002b60:	00478683          	lb	a3,4(a5)
80002b64:	00178793          	addi	a5,a5,1
80002b68:	00d70733          	add	a4,a4,a3
80002b6c:	fec798e3          	bne	a5,a2,80002b5c <_ZN8N_puzzleILi4EEC1EPi+0x108>
80002b70:	00478613          	addi	a2,a5,4
80002b74:	fec812e3          	bne	a6,a2,80002b58 <_ZN8N_puzzleILi4EEC1EPi+0x104>
80002b78:	01c12403          	lw	s0,28(sp)
80002b7c:	00e52a23          	sw	a4,20(a0)
80002b80:	01812483          	lw	s1,24(sp)
80002b84:	01412903          	lw	s2,20(sp)
80002b88:	02010113          	addi	sp,sp,32
80002b8c:	00008067          	ret
80002b90:	00354703          	lbu	a4,3(a0)
80002b94:	00e787b3          	add	a5,a5,a4
80002b98:	00f501a3          	sb	a5,3(a0)
80002b9c:	f7dff06f          	j	80002b18 <_ZN8N_puzzleILi4EEC1EPi+0xc4>
80002ba0:	01c12403          	lw	s0,28(sp)
80002ba4:	00050023          	sb	zero,0(a0)
80002ba8:	01812483          	lw	s1,24(sp)
80002bac:	01412903          	lw	s2,20(sp)
80002bb0:	02010113          	addi	sp,sp,32
80002bb4:	00008067          	ret

80002bb8 <_ZNK8N_puzzleILi4EE8solvableEv>:
80002bb8:	00050313          	mv	t1,a0
80002bbc:	00054503          	lbu	a0,0(a0)
80002bc0:	0c050263          	beqz	a0,80002c84 <_ZNK8N_puzzleILi4EE8solvableEv+0xcc>
80002bc4:	fc010113          	addi	sp,sp,-64
80002bc8:	00430613          	addi	a2,t1,4
80002bcc:	00010593          	mv	a1,sp
80002bd0:	01430513          	addi	a0,t1,20
80002bd4:	ffc60793          	addi	a5,a2,-4
80002bd8:	00058693          	mv	a3,a1
80002bdc:	00478703          	lb	a4,4(a5)
80002be0:	00178793          	addi	a5,a5,1
80002be4:	00071463          	bnez	a4,80002bec <_ZNK8N_puzzleILi4EE8solvableEv+0x34>
80002be8:	01000713          	li	a4,16
80002bec:	00e6a023          	sw	a4,0(a3)
80002bf0:	00468693          	addi	a3,a3,4
80002bf4:	fec794e3          	bne	a5,a2,80002bdc <_ZNK8N_puzzleILi4EE8solvableEv+0x24>
80002bf8:	00478613          	addi	a2,a5,4
80002bfc:	01058593          	addi	a1,a1,16
80002c00:	fca61ae3          	bne	a2,a0,80002bd4 <_ZNK8N_puzzleILi4EE8solvableEv+0x1c>
80002c04:	00100893          	li	a7,1
80002c08:	00100793          	li	a5,1
80002c0c:	00000613          	li	a2,0
80002c10:	00000593          	li	a1,0
80002c14:	01000813          	li	a6,16
80002c18:	00279693          	slli	a3,a5,0x2
80002c1c:	04068713          	addi	a4,a3,64
80002c20:	002706b3          	add	a3,a4,sp
80002c24:	04058713          	addi	a4,a1,64
80002c28:	00270733          	add	a4,a4,sp
80002c2c:	fc072703          	lw	a4,-64(a4)
80002c30:	fc06a683          	lw	a3,-64(a3)
80002c34:	00178793          	addi	a5,a5,1
80002c38:	00e6a733          	slt	a4,a3,a4
80002c3c:	00e60633          	add	a2,a2,a4
80002c40:	fd079ce3          	bne	a5,a6,80002c18 <_ZNK8N_puzzleILi4EE8solvableEv+0x60>
80002c44:	00188793          	addi	a5,a7,1
80002c48:	00088593          	mv	a1,a7
80002c4c:	01078863          	beq	a5,a6,80002c5c <_ZNK8N_puzzleILi4EE8solvableEv+0xa4>
80002c50:	00078893          	mv	a7,a5
80002c54:	00259593          	slli	a1,a1,0x2
80002c58:	fc1ff06f          	j	80002c18 <_ZNK8N_puzzleILi4EE8solvableEv+0x60>
80002c5c:	00134703          	lbu	a4,1(t1)
80002c60:	00234783          	lbu	a5,2(t1)
80002c64:	00600513          	li	a0,6
80002c68:	40e50533          	sub	a0,a0,a4
80002c6c:	40f50533          	sub	a0,a0,a5
80002c70:	00c50533          	add	a0,a0,a2
80002c74:	fff54513          	not	a0,a0
80002c78:	00157513          	andi	a0,a0,1
80002c7c:	04010113          	addi	sp,sp,64
80002c80:	00008067          	ret
80002c84:	00008067          	ret

80002c88 <_ZN14Updatable_heapI8N_puzzleILi4EEE12percolate_upEi>:
80002c88:	00100793          	li	a5,1
80002c8c:	06f58263          	beq	a1,a5,80002cf0 <_ZN14Updatable_heapI8N_puzzleILi4EEE12percolate_upEi+0x68>
80002c90:	00852503          	lw	a0,8(a0)
80002c94:	00259793          	slli	a5,a1,0x2
80002c98:	00100e13          	li	t3,1
80002c9c:	00f507b3          	add	a5,a0,a5
80002ca0:	0007a803          	lw	a6,0(a5)
80002ca4:	02482303          	lw	t1,36(a6)
80002ca8:	01c0006f          	j	80002cc4 <_ZN14Updatable_heapI8N_puzzleILi4EEE12percolate_upEi+0x3c>
80002cac:	00c72023          	sw	a2,0(a4)
80002cb0:	0107a023          	sw	a6,0(a5)
80002cb4:	00072783          	lw	a5,0(a4)
80002cb8:	00b82e23          	sw	a1,28(a6)
80002cbc:	00d7ae23          	sw	a3,28(a5)
80002cc0:	03c58863          	beq	a1,t3,80002cf0 <_ZN14Updatable_heapI8N_puzzleILi4EEE12percolate_upEi+0x68>
80002cc4:	01f5d793          	srli	a5,a1,0x1f
80002cc8:	00b787b3          	add	a5,a5,a1
80002ccc:	00058693          	mv	a3,a1
80002cd0:	4017d593          	srai	a1,a5,0x1
80002cd4:	00259793          	slli	a5,a1,0x2
80002cd8:	00f507b3          	add	a5,a0,a5
80002cdc:	0007a603          	lw	a2,0(a5)
80002ce0:	00269713          	slli	a4,a3,0x2
80002ce4:	00e50733          	add	a4,a0,a4
80002ce8:	02462883          	lw	a7,36(a2)
80002cec:	fd1340e3          	blt	t1,a7,80002cac <_ZN14Updatable_heapI8N_puzzleILi4EEE12percolate_upEi+0x24>
80002cf0:	00008067          	ret

80002cf4 <_ZN14Updatable_heapI8N_puzzleILi4EEE4pushERKS1_i>:
80002cf4:	fe010113          	addi	sp,sp,-32
80002cf8:	01312623          	sw	s3,12(sp)
80002cfc:	00052983          	lw	s3,0(a0)
80002d00:	00912a23          	sw	s1,20(sp)
80002d04:	00058493          	mv	s1,a1
80002d08:	00452583          	lw	a1,4(a0)
80002d0c:	00812c23          	sw	s0,24(sp)
80002d10:	01212823          	sw	s2,16(sp)
80002d14:	00050413          	mv	s0,a0
80002d18:	00060913          	mv	s2,a2
80002d1c:	00098513          	mv	a0,s3
80002d20:	00048613          	mv	a2,s1
80002d24:	00112e23          	sw	ra,28(sp)
80002d28:	ae9ff0ef          	jal	ra,80002810 <_ZNK14Updatable_heapI8N_puzzleILi4EEE7pointerERKS1_.isra.0>
80002d2c:	04050263          	beqz	a0,80002d70 <_ZN14Updatable_heapI8N_puzzleILi4EEE4pushERKS1_i+0x7c>
80002d30:	02854783          	lbu	a5,40(a0)
80002d34:	02079063          	bnez	a5,80002d54 <_ZN14Updatable_heapI8N_puzzleILi4EEE4pushERKS1_i+0x60>
80002d38:	00054703          	lbu	a4,0(a0)
80002d3c:	04000793          	li	a5,64
80002d40:	00070463          	beqz	a4,80002d48 <_ZN14Updatable_heapI8N_puzzleILi4EEE4pushERKS1_i+0x54>
80002d44:	00350783          	lb	a5,3(a0)
80002d48:	02452703          	lw	a4,36(a0)
80002d4c:	00f907b3          	add	a5,s2,a5
80002d50:	14e7c263          	blt	a5,a4,80002e94 <_ZN14Updatable_heapI8N_puzzleILi4EEE4pushERKS1_i+0x1a0>
80002d54:	01c12083          	lw	ra,28(sp)
80002d58:	01812403          	lw	s0,24(sp)
80002d5c:	01412483          	lw	s1,20(sp)
80002d60:	01012903          	lw	s2,16(sp)
80002d64:	00c12983          	lw	s3,12(sp)
80002d68:	02010113          	addi	sp,sp,32
80002d6c:	00008067          	ret
80002d70:	00c42783          	lw	a5,12(s0)
80002d74:	14f9ce63          	blt	s3,a5,80002ed0 <_ZN14Updatable_heapI8N_puzzleILi4EEE4pushERKS1_i+0x1dc>
80002d78:	00178793          	addi	a5,a5,1
80002d7c:	00f42623          	sw	a5,12(s0)
80002d80:	03000513          	li	a0,48
80002d84:	a09fd0ef          	jal	ra,8000078c <bench_alloc>
80002d88:	0004c883          	lbu	a7,0(s1)
80002d8c:	00442803          	lw	a6,4(s0)
80002d90:	0144a683          	lw	a3,20(s1)
80002d94:	00000713          	li	a4,0
80002d98:	0e089a63          	bnez	a7,80002e8c <_ZN14Updatable_heapI8N_puzzleILi4EEE4pushERKS1_i+0x198>
80002d9c:	00042603          	lw	a2,0(s0)
80002da0:	00c42983          	lw	s3,12(s0)
80002da4:	00448793          	addi	a5,s1,4
80002da8:	fff60613          	addi	a2,a2,-1
80002dac:	00e67733          	and	a4,a2,a4
80002db0:	00271713          	slli	a4,a4,0x2
80002db4:	00e80733          	add	a4,a6,a4
80002db8:	00072e03          	lw	t3,0(a4)
80002dbc:	01150023          	sb	a7,0(a0)
80002dc0:	0014c303          	lbu	t1,1(s1)
80002dc4:	00450713          	addi	a4,a0,4
80002dc8:	01448593          	addi	a1,s1,20
80002dcc:	006500a3          	sb	t1,1(a0)
80002dd0:	0024c303          	lbu	t1,2(s1)
80002dd4:	00650123          	sb	t1,2(a0)
80002dd8:	00348303          	lb	t1,3(s1)
80002ddc:	00d52a23          	sw	a3,20(a0)
80002de0:	006501a3          	sb	t1,3(a0)
80002de4:	00078683          	lb	a3,0(a5)
80002de8:	00478793          	addi	a5,a5,4
80002dec:	00470713          	addi	a4,a4,4
80002df0:	fed70e23          	sb	a3,-4(a4)
80002df4:	ffd78683          	lb	a3,-3(a5)
80002df8:	fed70ea3          	sb	a3,-3(a4)
80002dfc:	ffe78683          	lb	a3,-2(a5)
80002e00:	fed70f23          	sb	a3,-2(a4)
80002e04:	fff78683          	lb	a3,-1(a5)
80002e08:	fed70fa3          	sb	a3,-1(a4)
80002e0c:	fcb79ce3          	bne	a5,a1,80002de4 <_ZN14Updatable_heapI8N_puzzleILi4EEE4pushERKS1_i+0xf0>
80002e10:	01c52c23          	sw	t3,24(a0)
80002e14:	01352e23          	sw	s3,28(a0)
80002e18:	03252023          	sw	s2,32(a0)
80002e1c:	0a088063          	beqz	a7,80002ebc <_ZN14Updatable_heapI8N_puzzleILi4EEE4pushERKS1_i+0x1c8>
80002e20:	0144a783          	lw	a5,20(s1)
80002e24:	01230333          	add	t1,t1,s2
80002e28:	02652223          	sw	t1,36(a0)
80002e2c:	00f67633          	and	a2,a2,a5
80002e30:	00261613          	slli	a2,a2,0x2
80002e34:	02050423          	sb	zero,40(a0)
80002e38:	02052623          	sw	zero,44(a0)
80002e3c:	00c80833          	add	a6,a6,a2
80002e40:	00842783          	lw	a5,8(s0)
80002e44:	00299713          	slli	a4,s3,0x2
80002e48:	00a82023          	sw	a0,0(a6)
80002e4c:	00e787b3          	add	a5,a5,a4
80002e50:	00a7a023          	sw	a0,0(a5)
80002e54:	00098593          	mv	a1,s3
80002e58:	00040513          	mv	a0,s0
80002e5c:	e2dff0ef          	jal	ra,80002c88 <_ZN14Updatable_heapI8N_puzzleILi4EEE12percolate_upEi>
80002e60:	01042783          	lw	a5,16(s0)
80002e64:	0137d463          	bge	a5,s3,80002e6c <_ZN14Updatable_heapI8N_puzzleILi4EEE4pushERKS1_i+0x178>
80002e68:	00098793          	mv	a5,s3
80002e6c:	01c12083          	lw	ra,28(sp)
80002e70:	00f42823          	sw	a5,16(s0)
80002e74:	01812403          	lw	s0,24(sp)
80002e78:	01412483          	lw	s1,20(sp)
80002e7c:	01012903          	lw	s2,16(sp)
80002e80:	00c12983          	lw	s3,12(sp)
80002e84:	02010113          	addi	sp,sp,32
80002e88:	00008067          	ret
80002e8c:	00068713          	mv	a4,a3
80002e90:	f0dff06f          	j	80002d9c <_ZN14Updatable_heapI8N_puzzleILi4EEE4pushERKS1_i+0xa8>
80002e94:	01c52583          	lw	a1,28(a0)
80002e98:	02f52223          	sw	a5,36(a0)
80002e9c:	00040513          	mv	a0,s0
80002ea0:	01812403          	lw	s0,24(sp)
80002ea4:	01c12083          	lw	ra,28(sp)
80002ea8:	01412483          	lw	s1,20(sp)
80002eac:	01012903          	lw	s2,16(sp)
80002eb0:	00c12983          	lw	s3,12(sp)
80002eb4:	02010113          	addi	sp,sp,32
80002eb8:	dd1ff06f          	j	80002c88 <_ZN14Updatable_heapI8N_puzzleILi4EEE12percolate_upEi>
80002ebc:	04090913          	addi	s2,s2,64
80002ec0:	03252223          	sw	s2,36(a0)
80002ec4:	02050423          	sb	zero,40(a0)
80002ec8:	02052623          	sw	zero,44(a0)
80002ecc:	f75ff06f          	j	80002e40 <_ZN14Updatable_heapI8N_puzzleILi4EEE4pushERKS1_i+0x14c>
80002ed0:	800065b7          	lui	a1,0x80006
80002ed4:	80005537          	lui	a0,0x80005
80002ed8:	09800613          	li	a2,152
80002edc:	ec458593          	addi	a1,a1,-316 # 80005ec4 <_end+0xffff6ec4>
80002ee0:	77850513          	addi	a0,a0,1912 # 80005778 <_end+0xffff6778>
80002ee4:	1f4020ef          	jal	ra,800050d8 <printf>
80002ee8:	00100513          	li	a0,1
80002eec:	629010ef          	jal	ra,80004d14 <halt>

80002ef0 <_ZN14Updatable_heapI8N_puzzleILi4EEE14percolate_downEv>:
80002ef0:	00c52f83          	lw	t6,12(a0)
80002ef4:	00200793          	li	a5,2
80002ef8:	11f7d063          	bge	a5,t6,80002ff8 <_ZN14Updatable_heapI8N_puzzleILi4EEE14percolate_downEv+0x108>
80002efc:	00852803          	lw	a6,8(a0)
80002f00:	00100613          	li	a2,1
80002f04:	00200693          	li	a3,2
80002f08:	02c0006f          	j	80002f34 <_ZN14Updatable_heapI8N_puzzleILi4EEE14percolate_downEv+0x44>
80002f0c:	0eff4463          	blt	t5,a5,80002ff4 <_ZN14Updatable_heapI8N_puzzleILi4EEE14percolate_downEv+0x104>
80002f10:	0005a783          	lw	a5,0(a1)
80002f14:	01c5a023          	sw	t3,0(a1)
80002f18:	00f8a023          	sw	a5,0(a7)
80002f1c:	0005a703          	lw	a4,0(a1)
80002f20:	00c7ae23          	sw	a2,28(a5)
80002f24:	00030613          	mv	a2,t1
80002f28:	00672e23          	sw	t1,28(a4)
80002f2c:	00161693          	slli	a3,a2,0x1
80002f30:	07f6d863          	bge	a3,t6,80002fa0 <_ZN14Updatable_heapI8N_puzzleILi4EEE14percolate_downEv+0xb0>
80002f34:	00261793          	slli	a5,a2,0x2
80002f38:	00f808b3          	add	a7,a6,a5
80002f3c:	00f887b3          	add	a5,a7,a5
80002f40:	0007ae83          	lw	t4,0(a5)
80002f44:	0008ae03          	lw	t3,0(a7)
80002f48:	00361793          	slli	a5,a2,0x3
80002f4c:	00f807b3          	add	a5,a6,a5
80002f50:	0047a783          	lw	a5,4(a5)
80002f54:	024e2f03          	lw	t5,36(t3)
80002f58:	024eae83          	lw	t4,36(t4)
80002f5c:	00168313          	addi	t1,a3,1
80002f60:	00269713          	slli	a4,a3,0x2
80002f64:	00231593          	slli	a1,t1,0x2
80002f68:	0247a783          	lw	a5,36(a5)
80002f6c:	00e80733          	add	a4,a6,a4
80002f70:	00b805b3          	add	a1,a6,a1
80002f74:	f9df4ce3          	blt	t5,t4,80002f0c <_ZN14Updatable_heapI8N_puzzleILi4EEE14percolate_downEv+0x1c>
80002f78:	f8fedce3          	bge	t4,a5,80002f10 <_ZN14Updatable_heapI8N_puzzleILi4EEE14percolate_downEv+0x20>
80002f7c:	00072783          	lw	a5,0(a4)
80002f80:	01c72023          	sw	t3,0(a4)
80002f84:	00f8a023          	sw	a5,0(a7)
80002f88:	00072703          	lw	a4,0(a4)
80002f8c:	00c7ae23          	sw	a2,28(a5)
80002f90:	00068613          	mv	a2,a3
80002f94:	00d72e23          	sw	a3,28(a4)
80002f98:	00161693          	slli	a3,a2,0x1
80002f9c:	f9f6cce3          	blt	a3,t6,80002f34 <_ZN14Updatable_heapI8N_puzzleILi4EEE14percolate_downEv+0x44>
80002fa0:	00df8463          	beq	t6,a3,80002fa8 <_ZN14Updatable_heapI8N_puzzleILi4EEE14percolate_downEv+0xb8>
80002fa4:	00008067          	ret
80002fa8:	00852683          	lw	a3,8(a0)
80002fac:	00261793          	slli	a5,a2,0x2
80002fb0:	00361713          	slli	a4,a2,0x3
80002fb4:	00e68733          	add	a4,a3,a4
80002fb8:	00f687b3          	add	a5,a3,a5
80002fbc:	00072503          	lw	a0,0(a4)
80002fc0:	0007a583          	lw	a1,0(a5)
80002fc4:	02452503          	lw	a0,36(a0)
80002fc8:	0245a703          	lw	a4,36(a1)
80002fcc:	fce55ce3          	bge	a0,a4,80002fa4 <_ZN14Updatable_heapI8N_puzzleILi4EEE14percolate_downEv+0xb4>
80002fd0:	002f9713          	slli	a4,t6,0x2
80002fd4:	00e686b3          	add	a3,a3,a4
80002fd8:	0006a703          	lw	a4,0(a3)
80002fdc:	00b6a023          	sw	a1,0(a3)
80002fe0:	00e7a023          	sw	a4,0(a5)
80002fe4:	0006a783          	lw	a5,0(a3)
80002fe8:	00c72e23          	sw	a2,28(a4)
80002fec:	01f7ae23          	sw	t6,28(a5)
80002ff0:	00008067          	ret
80002ff4:	00008067          	ret
80002ff8:	00200693          	li	a3,2
80002ffc:	00100613          	li	a2,1
80003000:	fadf92e3          	bne	t6,a3,80002fa4 <_ZN14Updatable_heapI8N_puzzleILi4EEE14percolate_downEv+0xb4>
80003004:	fa5ff06f          	j	80002fa8 <_ZN14Updatable_heapI8N_puzzleILi4EEE14percolate_downEv+0xb8>

80003008 <bench_15pz_run>:
80003008:	f1010113          	addi	sp,sp,-240
8000300c:	02810513          	addi	a0,sp,40
80003010:	0e112623          	sw	ra,236(sp)
80003014:	0e812423          	sw	s0,232(sp)
80003018:	0e912223          	sw	s1,228(sp)
8000301c:	0f212023          	sw	s2,224(sp)
80003020:	0d312e23          	sw	s3,220(sp)
80003024:	0d412c23          	sw	s4,216(sp)
80003028:	0d512a23          	sw	s5,212(sp)
8000302c:	0d612823          	sw	s6,208(sp)
80003030:	0d712623          	sw	s7,204(sp)
80003034:	0d812423          	sw	s8,200(sp)
80003038:	0d912223          	sw	s9,196(sp)
8000303c:	0da12023          	sw	s10,192(sp)
80003040:	0bb12e23          	sw	s11,188(sp)
80003044:	86dff0ef          	jal	ra,800028b0 <_ZN8N_puzzleILi4EEC1Ev>
80003048:	800067b7          	lui	a5,0x80006
8000304c:	6887a783          	lw	a5,1672(a5) # 80006688 <_end+0xffff7688>
80003050:	00200713          	li	a4,2
80003054:	0007a783          	lw	a5,0(a5)
80003058:	1ce780e3          	beq	a5,a4,80003a18 <bench_15pz_run+0xa10>
8000305c:	06f74e63          	blt	a4,a5,800030d8 <bench_15pz_run+0xd0>
80003060:	140788e3          	beqz	a5,800039b0 <bench_15pz_run+0x9a8>
80003064:	00100713          	li	a4,1
80003068:	24e794e3          	bne	a5,a4,80003ab0 <bench_15pz_run+0xaa8>
8000306c:	07010413          	addi	s0,sp,112
80003070:	800065b7          	lui	a1,0x80006
80003074:	3d058593          	addi	a1,a1,976 # 800063d0 <_end+0xffff73d0>
80003078:	00040513          	mv	a0,s0
8000307c:	9d9ff0ef          	jal	ra,80002a54 <_ZN8N_puzzleILi4EEC1EPi>
80003080:	07012703          	lw	a4,112(sp)
80003084:	00040793          	mv	a5,s0
80003088:	08010493          	addi	s1,sp,128
8000308c:	02e12423          	sw	a4,40(sp)
80003090:	08412703          	lw	a4,132(sp)
80003094:	02e12e23          	sw	a4,60(sp)
80003098:	02810713          	addi	a4,sp,40
8000309c:	0047c503          	lbu	a0,4(a5)
800030a0:	0057c583          	lbu	a1,5(a5)
800030a4:	0067c603          	lbu	a2,6(a5)
800030a8:	0077c683          	lbu	a3,7(a5)
800030ac:	00a70223          	sb	a0,4(a4)
800030b0:	00b702a3          	sb	a1,5(a4)
800030b4:	00c70323          	sb	a2,6(a4)
800030b8:	00d703a3          	sb	a3,7(a4)
800030bc:	00478793          	addi	a5,a5,4
800030c0:	00470713          	addi	a4,a4,4
800030c4:	fc979ce3          	bne	a5,s1,8000309c <bench_15pz_run+0x94>
800030c8:	000017b7          	lui	a5,0x1
800030cc:	80078793          	addi	a5,a5,-2048 # 800 <_entry_offset+0x800>
800030d0:	00f12823          	sw	a5,16(sp)
800030d4:	0700006f          	j	80003144 <bench_15pz_run+0x13c>
800030d8:	00300713          	li	a4,3
800030dc:	1ce79ae3          	bne	a5,a4,80003ab0 <bench_15pz_run+0xaa8>
800030e0:	07010413          	addi	s0,sp,112
800030e4:	800065b7          	lui	a1,0x80006
800030e8:	35058593          	addi	a1,a1,848 # 80006350 <_end+0xffff7350>
800030ec:	00040513          	mv	a0,s0
800030f0:	965ff0ef          	jal	ra,80002a54 <_ZN8N_puzzleILi4EEC1EPi>
800030f4:	07012703          	lw	a4,112(sp)
800030f8:	00040793          	mv	a5,s0
800030fc:	08010493          	addi	s1,sp,128
80003100:	02e12423          	sw	a4,40(sp)
80003104:	08412703          	lw	a4,132(sp)
80003108:	02e12e23          	sw	a4,60(sp)
8000310c:	02810713          	addi	a4,sp,40
80003110:	0047c503          	lbu	a0,4(a5)
80003114:	0057c583          	lbu	a1,5(a5)
80003118:	0067c603          	lbu	a2,6(a5)
8000311c:	0077c683          	lbu	a3,7(a5)
80003120:	00a70223          	sb	a0,4(a4)
80003124:	00b702a3          	sb	a1,5(a4)
80003128:	00c70323          	sb	a2,6(a4)
8000312c:	00d703a3          	sb	a3,7(a4)
80003130:	00478793          	addi	a5,a5,4
80003134:	00470713          	addi	a4,a4,4
80003138:	fcf49ce3          	bne	s1,a5,80003110 <bench_15pz_run+0x108>
8000313c:	000c07b7          	lui	a5,0xc0
80003140:	00f12823          	sw	a5,16(sp)
80003144:	02810513          	addi	a0,sp,40
80003148:	a71ff0ef          	jal	ra,80002bb8 <_ZNK8N_puzzleILi4EE8solvableEv>
8000314c:	12050ae3          	beqz	a0,80003a80 <bench_15pz_run+0xa78>
80003150:	01400513          	li	a0,20
80003154:	e38fd0ef          	jal	ra,8000078c <bench_alloc>
80003158:	01012783          	lw	a5,16(sp)
8000315c:	00050d13          	mv	s10,a0
80003160:	00f52023          	sw	a5,0(a0)
80003164:	00279513          	slli	a0,a5,0x2
80003168:	e24fd0ef          	jal	ra,8000078c <bench_alloc>
8000316c:	000d2783          	lw	a5,0(s10)
80003170:	00ad2423          	sw	a0,8(s10)
80003174:	00178793          	addi	a5,a5,1 # c0001 <_entry_offset+0xc0001>
80003178:	00279513          	slli	a0,a5,0x2
8000317c:	e10fd0ef          	jal	ra,8000078c <bench_alloc>
80003180:	000d2683          	lw	a3,0(s10)
80003184:	00ad2223          	sw	a0,4(s10)
80003188:	000d2623          	sw	zero,12(s10)
8000318c:	00269713          	slli	a4,a3,0x2
80003190:	000d2823          	sw	zero,16(s10)
80003194:	00050793          	mv	a5,a0
80003198:	00e50733          	add	a4,a0,a4
8000319c:	00d05863          	blez	a3,800031ac <bench_15pz_run+0x1a4>
800031a0:	0007a023          	sw	zero,0(a5)
800031a4:	00478793          	addi	a5,a5,4
800031a8:	fee79ce3          	bne	a5,a4,800031a0 <bench_15pz_run+0x198>
800031ac:	00000613          	li	a2,0
800031b0:	02810593          	addi	a1,sp,40
800031b4:	000d0513          	mv	a0,s10
800031b8:	b3dff0ef          	jal	ra,80002cf4 <_ZN14Updatable_heapI8N_puzzleILi4EEE4pushERKS1_i>
800031bc:	800067b7          	lui	a5,0x80006
800031c0:	70478793          	addi	a5,a5,1796 # 80006704 <_end+0xffff7704>
800031c4:	00cd2603          	lw	a2,12(s10)
800031c8:	00078713          	mv	a4,a5
800031cc:	00f12e23          	sw	a5,28(sp)
800031d0:	fff00793          	li	a5,-1
800031d4:	00f72023          	sw	a5,0(a4)
800031d8:	00000993          	li	s3,0
800031dc:	18060663          	beqz	a2,80003368 <bench_15pz_run+0x360>
800031e0:	01040793          	addi	a5,s0,16
800031e4:	01440d93          	addi	s11,s0,20
800031e8:	00f12623          	sw	a5,12(sp)
800031ec:	05010a13          	addi	s4,sp,80
800031f0:	00400b93          	li	s7,4
800031f4:	008d2e03          	lw	t3,8(s10)
800031f8:	00040713          	mv	a4,s0
800031fc:	00040693          	mv	a3,s0
80003200:	004e2783          	lw	a5,4(t3)
80003204:	00378583          	lb	a1,3(a5)
80003208:	0007cc03          	lbu	s8,0(a5)
8000320c:	0017ca83          	lbu	s5,1(a5)
80003210:	0027cb03          	lbu	s6,2(a5)
80003214:	0007a903          	lw	s2,0(a5)
80003218:	0147ac83          	lw	s9,20(a5)
8000321c:	00b12a23          	sw	a1,20(sp)
80003220:	00478793          	addi	a5,a5,4
80003224:	0007c303          	lbu	t1,0(a5)
80003228:	0017c883          	lbu	a7,1(a5)
8000322c:	0027c503          	lbu	a0,2(a5)
80003230:	0037c583          	lbu	a1,3(a5)
80003234:	00668223          	sb	t1,4(a3)
80003238:	011682a3          	sb	a7,5(a3)
8000323c:	00a68323          	sb	a0,6(a3)
80003240:	00b683a3          	sb	a1,7(a3)
80003244:	00468693          	addi	a3,a3,4
80003248:	00478793          	addi	a5,a5,4
8000324c:	fc969ce3          	bne	a3,s1,80003224 <bench_15pz_run+0x21c>
80003250:	00100793          	li	a5,1
80003254:	5cf60a63          	beq	a2,a5,80003828 <bench_15pz_run+0x820>
80003258:	04c7d4e3          	bge	a5,a2,80003aa0 <bench_15pz_run+0xa98>
8000325c:	00261693          	slli	a3,a2,0x2
80003260:	00de06b3          	add	a3,t3,a3
80003264:	0006a683          	lw	a3,0(a3)
80003268:	fff60613          	addi	a2,a2,-1
8000326c:	000d0513          	mv	a0,s10
80003270:	00de2223          	sw	a3,4(t3)
80003274:	00f6ae23          	sw	a5,28(a3)
80003278:	00cd2623          	sw	a2,12(s10)
8000327c:	00e12c23          	sw	a4,24(sp)
80003280:	c71ff0ef          	jal	ra,80002ef0 <_ZN14Updatable_heapI8N_puzzleILi4EEE14percolate_downEv>
80003284:	01812703          	lw	a4,24(sp)
80003288:	05212023          	sw	s2,64(sp)
8000328c:	04010913          	addi	s2,sp,64
80003290:	05912a23          	sw	s9,84(sp)
80003294:	00090793          	mv	a5,s2
80003298:	00474503          	lbu	a0,4(a4)
8000329c:	00574583          	lbu	a1,5(a4)
800032a0:	00674603          	lbu	a2,6(a4)
800032a4:	00774683          	lbu	a3,7(a4)
800032a8:	00a78223          	sb	a0,4(a5)
800032ac:	00b782a3          	sb	a1,5(a5)
800032b0:	00c78323          	sb	a2,6(a5)
800032b4:	00d783a3          	sb	a3,7(a5)
800032b8:	00470713          	addi	a4,a4,4
800032bc:	00478793          	addi	a5,a5,4
800032c0:	fc971ce3          	bne	a4,s1,80003298 <bench_15pz_run+0x290>
800032c4:	00198993          	addi	s3,s3,1
800032c8:	00040713          	mv	a4,s0
800032cc:	00000793          	li	a5,0
800032d0:	00f00693          	li	a3,15
800032d4:	00178793          	addi	a5,a5,1
800032d8:	00f72023          	sw	a5,0(a4)
800032dc:	00470713          	addi	a4,a4,4
800032e0:	fed79ae3          	bne	a5,a3,800032d4 <bench_15pz_run+0x2cc>
800032e4:	00040593          	mv	a1,s0
800032e8:	05810513          	addi	a0,sp,88
800032ec:	0a012623          	sw	zero,172(sp)
800032f0:	f64ff0ef          	jal	ra,80002a54 <_ZN8N_puzzleILi4EEC1EPi>
800032f4:	0c0c0c63          	beqz	s8,800033cc <bench_15pz_run+0x3c4>
800032f8:	05814783          	lbu	a5,88(sp)
800032fc:	0e078263          	beqz	a5,800033e0 <bench_15pz_run+0x3d8>
80003300:	06c12783          	lw	a5,108(sp)
80003304:	0d979e63          	bne	a5,s9,800033e0 <bench_15pz_run+0x3d8>
80003308:	05810593          	addi	a1,sp,88
8000330c:	04010613          	addi	a2,sp,64
80003310:	00000793          	li	a5,0
80003314:	00f606b3          	add	a3,a2,a5
80003318:	00f58733          	add	a4,a1,a5
8000331c:	00468683          	lb	a3,4(a3)
80003320:	00470703          	lb	a4,4(a4)
80003324:	0ae69e63          	bne	a3,a4,800033e0 <bench_15pz_run+0x3d8>
80003328:	00178793          	addi	a5,a5,1
8000332c:	ff7794e3          	bne	a5,s7,80003314 <bench_15pz_run+0x30c>
80003330:	00460613          	addi	a2,a2,4
80003334:	00458593          	addi	a1,a1,4
80003338:	fcca1ce3          	bne	s4,a2,80003310 <bench_15pz_run+0x308>
8000333c:	004d2583          	lw	a1,4(s10)
80003340:	000d2503          	lw	a0,0(s10)
80003344:	04010613          	addi	a2,sp,64
80003348:	cc8ff0ef          	jal	ra,80002810 <_ZNK14Updatable_heapI8N_puzzleILi4EEE7pointerERKS1_.isra.0>
8000334c:	800007b7          	lui	a5,0x80000
80003350:	fff7c793          	not	a5,a5
80003354:	00050463          	beqz	a0,8000335c <bench_15pz_run+0x354>
80003358:	02052783          	lw	a5,32(a0)
8000335c:	02f987b3          	mul	a5,s3,a5
80003360:	01c12703          	lw	a4,28(sp)
80003364:	00f72023          	sw	a5,0(a4)
80003368:	0ec12083          	lw	ra,236(sp)
8000336c:	0e812403          	lw	s0,232(sp)
80003370:	0e412483          	lw	s1,228(sp)
80003374:	0e012903          	lw	s2,224(sp)
80003378:	0dc12983          	lw	s3,220(sp)
8000337c:	0d812a03          	lw	s4,216(sp)
80003380:	0d412a83          	lw	s5,212(sp)
80003384:	0d012b03          	lw	s6,208(sp)
80003388:	0cc12b83          	lw	s7,204(sp)
8000338c:	0c812c03          	lw	s8,200(sp)
80003390:	0c412c83          	lw	s9,196(sp)
80003394:	0c012d03          	lw	s10,192(sp)
80003398:	0bc12d83          	lw	s11,188(sp)
8000339c:	0f010113          	addi	sp,sp,240
800033a0:	00008067          	ret
800033a4:	004d2583          	lw	a1,4(s10)
800033a8:	000d2503          	lw	a0,0(s10)
800033ac:	04010613          	addi	a2,sp,64
800033b0:	c60ff0ef          	jal	ra,80002810 <_ZNK14Updatable_heapI8N_puzzleILi4EEE7pointerERKS1_.isra.0>
800033b4:	5e050a63          	beqz	a0,800039a8 <bench_15pz_run+0x9a0>
800033b8:	02052603          	lw	a2,32(a0)
800033bc:	00160613          	addi	a2,a2,1
800033c0:	05810593          	addi	a1,sp,88
800033c4:	000d0513          	mv	a0,s10
800033c8:	92dff0ef          	jal	ra,80002cf4 <_ZN14Updatable_heapI8N_puzzleILi4EEE4pushERKS1_i>
800033cc:	00cd2603          	lw	a2,12(s10)
800033d0:	f8060ce3          	beqz	a2,80003368 <bench_15pz_run+0x360>
800033d4:	01012783          	lw	a5,16(sp)
800033d8:	e1379ee3          	bne	a5,s3,800031f4 <bench_15pz_run+0x1ec>
800033dc:	f8dff06f          	j	80003368 <bench_15pz_run+0x360>
800033e0:	00300793          	li	a5,3
800033e4:	002a9c13          	slli	s8,s5,0x2
800033e8:	44fb0463          	beq	s6,a5,80003830 <bench_15pz_run+0x828>
800033ec:	00040593          	mv	a1,s0
800033f0:	00040713          	mv	a4,s0
800033f4:	04010793          	addi	a5,sp,64
800033f8:	0047c883          	lbu	a7,4(a5) # 80000004 <_end+0xffff1004>
800033fc:	0057c503          	lbu	a0,5(a5)
80003400:	0067c603          	lbu	a2,6(a5)
80003404:	0077c683          	lbu	a3,7(a5)
80003408:	01170223          	sb	a7,4(a4)
8000340c:	00a702a3          	sb	a0,5(a4)
80003410:	00c70323          	sb	a2,6(a4)
80003414:	00d703a3          	sb	a3,7(a4)
80003418:	00478793          	addi	a5,a5,4
8000341c:	00470713          	addi	a4,a4,4
80003420:	fd479ce3          	bne	a5,s4,800033f8 <bench_15pz_run+0x3f0>
80003424:	002a9c13          	slli	s8,s5,0x2
80003428:	090c0793          	addi	a5,s8,144
8000342c:	02010713          	addi	a4,sp,32
80003430:	001b0693          	addi	a3,s6,1
80003434:	00e78633          	add	a2,a5,a4
80003438:	00d607b3          	add	a5,a2,a3
8000343c:	f9478503          	lb	a0,-108(a5)
80003440:	01660e33          	add	t3,a2,s6
80003444:	0ff6f893          	zext.b	a7,a3
80003448:	fff50793          	addi	a5,a0,-1
8000344c:	41f7d713          	srai	a4,a5,0x1f
80003450:	01e75713          	srli	a4,a4,0x1e
80003454:	00e787b3          	add	a5,a5,a4
80003458:	0037f793          	andi	a5,a5,3
8000345c:	40e787b3          	sub	a5,a5,a4
80003460:	41678733          	sub	a4,a5,s6
80003464:	40d787b3          	sub	a5,a5,a3
80003468:	41f75f13          	srai	t5,a4,0x1f
8000346c:	41f7de93          	srai	t4,a5,0x1f
80003470:	00ef4333          	xor	t1,t5,a4
80003474:	00fec7b3          	xor	a5,t4,a5
80003478:	41d787b3          	sub	a5,a5,t4
8000347c:	41e30333          	sub	t1,t1,t5
80003480:	40f30333          	sub	t1,t1,a5
80003484:	01412783          	lw	a5,20(sp)
80003488:	fcae0223          	sb	a0,-60(t3)
8000348c:	01160633          	add	a2,a2,a7
80003490:	00f30333          	add	t1,t1,a5
80003494:	00440893          	addi	a7,s0,4
80003498:	01831313          	slli	t1,t1,0x18
8000349c:	0ff6fe13          	zext.b	t3,a3
800034a0:	41835313          	srai	t1,t1,0x18
800034a4:	fc060223          	sb	zero,-60(a2)
800034a8:	00088693          	mv	a3,a7
800034ac:	00000713          	li	a4,0
800034b0:	7b500513          	li	a0,1973
800034b4:	ffc68793          	addi	a5,a3,-4
800034b8:	02a70733          	mul	a4,a4,a0
800034bc:	00478603          	lb	a2,4(a5)
800034c0:	00178793          	addi	a5,a5,1
800034c4:	00c70733          	add	a4,a4,a2
800034c8:	fef698e3          	bne	a3,a5,800034b8 <bench_15pz_run+0x4b0>
800034cc:	00468693          	addi	a3,a3,4
800034d0:	ffb692e3          	bne	a3,s11,800034b4 <bench_15pz_run+0x4ac>
800034d4:	00100793          	li	a5,1
800034d8:	04f10c23          	sb	a5,88(sp)
800034dc:	05510ca3          	sb	s5,89(sp)
800034e0:	05c10d23          	sb	t3,90(sp)
800034e4:	04610da3          	sb	t1,91(sp)
800034e8:	06e12623          	sw	a4,108(sp)
800034ec:	05810793          	addi	a5,sp,88
800034f0:	0075c703          	lbu	a4,7(a1)
800034f4:	0045c503          	lbu	a0,4(a1)
800034f8:	0055c603          	lbu	a2,5(a1)
800034fc:	0065c683          	lbu	a3,6(a1)
80003500:	00e783a3          	sb	a4,7(a5)
80003504:	00c12703          	lw	a4,12(sp)
80003508:	00a78223          	sb	a0,4(a5)
8000350c:	00c782a3          	sb	a2,5(a5)
80003510:	00d78323          	sb	a3,6(a5)
80003514:	00088593          	mv	a1,a7
80003518:	00478793          	addi	a5,a5,4
8000351c:	01170663          	beq	a4,a7,80003528 <bench_15pz_run+0x520>
80003520:	00488893          	addi	a7,a7,4
80003524:	fcdff06f          	j	800034f0 <bench_15pz_run+0x4e8>
80003528:	004d2583          	lw	a1,4(s10)
8000352c:	000d2503          	lw	a0,0(s10)
80003530:	04010613          	addi	a2,sp,64
80003534:	adcff0ef          	jal	ra,80002810 <_ZNK14Updatable_heapI8N_puzzleILi4EEE7pointerERKS1_.isra.0>
80003538:	46050063          	beqz	a0,80003998 <bench_15pz_run+0x990>
8000353c:	02052603          	lw	a2,32(a0)
80003540:	00160613          	addi	a2,a2,1
80003544:	05810593          	addi	a1,sp,88
80003548:	000d0513          	mv	a0,s10
8000354c:	fa8ff0ef          	jal	ra,80002cf4 <_ZN14Updatable_heapI8N_puzzleILi4EEE4pushERKS1_i>
80003550:	2e0b1063          	bnez	s6,80003830 <bench_15pz_run+0x828>
80003554:	00300793          	li	a5,3
80003558:	18fa8263          	beq	s5,a5,800036dc <bench_15pz_run+0x6d4>
8000355c:	00040593          	mv	a1,s0
80003560:	00040713          	mv	a4,s0
80003564:	04010793          	addi	a5,sp,64
80003568:	0047c883          	lbu	a7,4(a5)
8000356c:	0057c503          	lbu	a0,5(a5)
80003570:	0067c603          	lbu	a2,6(a5)
80003574:	0077c683          	lbu	a3,7(a5)
80003578:	01170223          	sb	a7,4(a4)
8000357c:	00a702a3          	sb	a0,5(a4)
80003580:	00c70323          	sb	a2,6(a4)
80003584:	00d703a3          	sb	a3,7(a4)
80003588:	00478793          	addi	a5,a5,4
8000358c:	00470713          	addi	a4,a4,4
80003590:	fcfa1ce3          	bne	s4,a5,80003568 <bench_15pz_run+0x560>
80003594:	001a8693          	addi	a3,s5,1
80003598:	00269793          	slli	a5,a3,0x2
8000359c:	02010713          	addi	a4,sp,32
800035a0:	09078793          	addi	a5,a5,144
800035a4:	00e787b3          	add	a5,a5,a4
800035a8:	016787b3          	add	a5,a5,s6
800035ac:	f9478603          	lb	a2,-108(a5)
800035b0:	0ff6f513          	zext.b	a0,a3
800035b4:	fff60713          	addi	a4,a2,-1
800035b8:	41f75793          	srai	a5,a4,0x1f
800035bc:	0037f793          	andi	a5,a5,3
800035c0:	00e787b3          	add	a5,a5,a4
800035c4:	4027d793          	srai	a5,a5,0x2
800035c8:	41578733          	sub	a4,a5,s5
800035cc:	40d787b3          	sub	a5,a5,a3
800035d0:	41f75e13          	srai	t3,a4,0x1f
800035d4:	41f7d893          	srai	a7,a5,0x1f
800035d8:	00ee4333          	xor	t1,t3,a4
800035dc:	00f8c7b3          	xor	a5,a7,a5
800035e0:	411787b3          	sub	a5,a5,a7
800035e4:	41c30333          	sub	t1,t1,t3
800035e8:	00251713          	slli	a4,a0,0x2
800035ec:	40f30333          	sub	t1,t1,a5
800035f0:	02010513          	addi	a0,sp,32
800035f4:	090c0793          	addi	a5,s8,144
800035f8:	00a78533          	add	a0,a5,a0
800035fc:	09070793          	addi	a5,a4,144
80003600:	02010713          	addi	a4,sp,32
80003604:	00e787b3          	add	a5,a5,a4
80003608:	01412703          	lw	a4,20(sp)
8000360c:	01650533          	add	a0,a0,s6
80003610:	fcc50223          	sb	a2,-60(a0)
80003614:	00e30333          	add	t1,t1,a4
80003618:	016787b3          	add	a5,a5,s6
8000361c:	00440893          	addi	a7,s0,4
80003620:	01831313          	slli	t1,t1,0x18
80003624:	41835313          	srai	t1,t1,0x18
80003628:	0ff6fe13          	zext.b	t3,a3
8000362c:	fc078223          	sb	zero,-60(a5)
80003630:	00088613          	mv	a2,a7
80003634:	00000713          	li	a4,0
80003638:	7b500513          	li	a0,1973
8000363c:	ffc60793          	addi	a5,a2,-4
80003640:	02a70733          	mul	a4,a4,a0
80003644:	00478683          	lb	a3,4(a5)
80003648:	00178793          	addi	a5,a5,1
8000364c:	00d70733          	add	a4,a4,a3
80003650:	fec798e3          	bne	a5,a2,80003640 <bench_15pz_run+0x638>
80003654:	00478613          	addi	a2,a5,4
80003658:	fecd92e3          	bne	s11,a2,8000363c <bench_15pz_run+0x634>
8000365c:	00100793          	li	a5,1
80003660:	04f10c23          	sb	a5,88(sp)
80003664:	05c10ca3          	sb	t3,89(sp)
80003668:	05610d23          	sb	s6,90(sp)
8000366c:	04610da3          	sb	t1,91(sp)
80003670:	06e12623          	sw	a4,108(sp)
80003674:	05810793          	addi	a5,sp,88
80003678:	0075c703          	lbu	a4,7(a1)
8000367c:	0045c503          	lbu	a0,4(a1)
80003680:	0055c603          	lbu	a2,5(a1)
80003684:	0065c683          	lbu	a3,6(a1)
80003688:	00e783a3          	sb	a4,7(a5)
8000368c:	00c12703          	lw	a4,12(sp)
80003690:	00a78223          	sb	a0,4(a5)
80003694:	00c782a3          	sb	a2,5(a5)
80003698:	00d78323          	sb	a3,6(a5)
8000369c:	00088593          	mv	a1,a7
800036a0:	00478793          	addi	a5,a5,4
800036a4:	00e88663          	beq	a7,a4,800036b0 <bench_15pz_run+0x6a8>
800036a8:	00488893          	addi	a7,a7,4
800036ac:	fcdff06f          	j	80003678 <bench_15pz_run+0x670>
800036b0:	004d2583          	lw	a1,4(s10)
800036b4:	000d2503          	lw	a0,0(s10)
800036b8:	04010613          	addi	a2,sp,64
800036bc:	954ff0ef          	jal	ra,80002810 <_ZNK14Updatable_heapI8N_puzzleILi4EEE7pointerERKS1_.isra.0>
800036c0:	2c050863          	beqz	a0,80003990 <bench_15pz_run+0x988>
800036c4:	02052603          	lw	a2,32(a0)
800036c8:	00160613          	addi	a2,a2,1
800036cc:	05810593          	addi	a1,sp,88
800036d0:	000d0513          	mv	a0,s10
800036d4:	e20ff0ef          	jal	ra,80002cf4 <_ZN14Updatable_heapI8N_puzzleILi4EEE4pushERKS1_i>
800036d8:	ce0a8ae3          	beqz	s5,800033cc <bench_15pz_run+0x3c4>
800036dc:	00040593          	mv	a1,s0
800036e0:	00040793          	mv	a5,s0
800036e4:	00494503          	lbu	a0,4(s2)
800036e8:	00594603          	lbu	a2,5(s2)
800036ec:	00694683          	lbu	a3,6(s2)
800036f0:	00794703          	lbu	a4,7(s2)
800036f4:	00a78223          	sb	a0,4(a5)
800036f8:	00c782a3          	sb	a2,5(a5)
800036fc:	00d78323          	sb	a3,6(a5)
80003700:	00e783a3          	sb	a4,7(a5)
80003704:	00490913          	addi	s2,s2,4
80003708:	00478793          	addi	a5,a5,4
8000370c:	fd491ce3          	bne	s2,s4,800036e4 <bench_15pz_run+0x6dc>
80003710:	fffa8613          	addi	a2,s5,-1
80003714:	00261793          	slli	a5,a2,0x2
80003718:	02010713          	addi	a4,sp,32
8000371c:	09078793          	addi	a5,a5,144
80003720:	00e787b3          	add	a5,a5,a4
80003724:	016787b3          	add	a5,a5,s6
80003728:	f9478703          	lb	a4,-108(a5)
8000372c:	02010693          	addi	a3,sp,32
80003730:	090c0793          	addi	a5,s8,144
80003734:	fff70513          	addi	a0,a4,-1
80003738:	00d786b3          	add	a3,a5,a3
8000373c:	41f55793          	srai	a5,a0,0x1f
80003740:	0037f793          	andi	a5,a5,3
80003744:	00a787b3          	add	a5,a5,a0
80003748:	4027d793          	srai	a5,a5,0x2
8000374c:	41578ab3          	sub	s5,a5,s5
80003750:	40c787b3          	sub	a5,a5,a2
80003754:	41fad513          	srai	a0,s5,0x1f
80003758:	0ff67313          	zext.b	t1,a2
8000375c:	41f7d613          	srai	a2,a5,0x1f
80003760:	01554e33          	xor	t3,a0,s5
80003764:	00f647b3          	xor	a5,a2,a5
80003768:	40c787b3          	sub	a5,a5,a2
8000376c:	40ae0e33          	sub	t3,t3,a0
80003770:	00231613          	slli	a2,t1,0x2
80003774:	40fe0e33          	sub	t3,t3,a5
80003778:	09060793          	addi	a5,a2,144
8000377c:	02010613          	addi	a2,sp,32
80003780:	00c787b3          	add	a5,a5,a2
80003784:	01412603          	lw	a2,20(sp)
80003788:	016686b3          	add	a3,a3,s6
8000378c:	fce68223          	sb	a4,-60(a3)
80003790:	00ce0e33          	add	t3,t3,a2
80003794:	016787b3          	add	a5,a5,s6
80003798:	00440893          	addi	a7,s0,4
8000379c:	018e1e13          	slli	t3,t3,0x18
800037a0:	418e5e13          	srai	t3,t3,0x18
800037a4:	fc078223          	sb	zero,-60(a5)
800037a8:	00088613          	mv	a2,a7
800037ac:	00000713          	li	a4,0
800037b0:	7b500513          	li	a0,1973
800037b4:	ffc60793          	addi	a5,a2,-4
800037b8:	02a70733          	mul	a4,a4,a0
800037bc:	00478683          	lb	a3,4(a5)
800037c0:	00178793          	addi	a5,a5,1
800037c4:	00d70733          	add	a4,a4,a3
800037c8:	fec798e3          	bne	a5,a2,800037b8 <bench_15pz_run+0x7b0>
800037cc:	00478613          	addi	a2,a5,4
800037d0:	ffb612e3          	bne	a2,s11,800037b4 <bench_15pz_run+0x7ac>
800037d4:	00100793          	li	a5,1
800037d8:	04f10c23          	sb	a5,88(sp)
800037dc:	04610ca3          	sb	t1,89(sp)
800037e0:	05610d23          	sb	s6,90(sp)
800037e4:	05c10da3          	sb	t3,91(sp)
800037e8:	06e12623          	sw	a4,108(sp)
800037ec:	05810793          	addi	a5,sp,88
800037f0:	0075c703          	lbu	a4,7(a1)
800037f4:	0045c503          	lbu	a0,4(a1)
800037f8:	0055c603          	lbu	a2,5(a1)
800037fc:	0065c683          	lbu	a3,6(a1)
80003800:	00e783a3          	sb	a4,7(a5)
80003804:	00c12703          	lw	a4,12(sp)
80003808:	00a78223          	sb	a0,4(a5)
8000380c:	00c782a3          	sb	a2,5(a5)
80003810:	00d78323          	sb	a3,6(a5)
80003814:	00088593          	mv	a1,a7
80003818:	00478793          	addi	a5,a5,4
8000381c:	b8e884e3          	beq	a7,a4,800033a4 <bench_15pz_run+0x39c>
80003820:	00488893          	addi	a7,a7,4
80003824:	fcdff06f          	j	800037f0 <bench_15pz_run+0x7e8>
80003828:	000d2623          	sw	zero,12(s10)
8000382c:	a5dff06f          	j	80003288 <bench_15pz_run+0x280>
80003830:	00040593          	mv	a1,s0
80003834:	00040713          	mv	a4,s0
80003838:	04010793          	addi	a5,sp,64
8000383c:	0047c883          	lbu	a7,4(a5)
80003840:	0057c503          	lbu	a0,5(a5)
80003844:	0067c603          	lbu	a2,6(a5)
80003848:	0077c683          	lbu	a3,7(a5)
8000384c:	01170223          	sb	a7,4(a4)
80003850:	00a702a3          	sb	a0,5(a4)
80003854:	00c70323          	sb	a2,6(a4)
80003858:	00d703a3          	sb	a3,7(a4)
8000385c:	00478793          	addi	a5,a5,4
80003860:	00470713          	addi	a4,a4,4
80003864:	fd479ce3          	bne	a5,s4,8000383c <bench_15pz_run+0x834>
80003868:	090c0793          	addi	a5,s8,144
8000386c:	02010713          	addi	a4,sp,32
80003870:	fffb0893          	addi	a7,s6,-1
80003874:	00e786b3          	add	a3,a5,a4
80003878:	011687b3          	add	a5,a3,a7
8000387c:	f9478603          	lb	a2,-108(a5)
80003880:	0ff8f313          	zext.b	t1,a7
80003884:	01668533          	add	a0,a3,s6
80003888:	fff60793          	addi	a5,a2,-1
8000388c:	41f7d713          	srai	a4,a5,0x1f
80003890:	01e75713          	srli	a4,a4,0x1e
80003894:	00e787b3          	add	a5,a5,a4
80003898:	0037f793          	andi	a5,a5,3
8000389c:	40e787b3          	sub	a5,a5,a4
800038a0:	41678733          	sub	a4,a5,s6
800038a4:	411787b3          	sub	a5,a5,a7
800038a8:	41f75e93          	srai	t4,a4,0x1f
800038ac:	41f7d893          	srai	a7,a5,0x1f
800038b0:	00eece33          	xor	t3,t4,a4
800038b4:	00f8c7b3          	xor	a5,a7,a5
800038b8:	411787b3          	sub	a5,a5,a7
800038bc:	41de0e33          	sub	t3,t3,t4
800038c0:	40fe0e33          	sub	t3,t3,a5
800038c4:	01412783          	lw	a5,20(sp)
800038c8:	fcc50223          	sb	a2,-60(a0)
800038cc:	006686b3          	add	a3,a3,t1
800038d0:	00fe0e33          	add	t3,t3,a5
800038d4:	00440893          	addi	a7,s0,4
800038d8:	018e1e13          	slli	t3,t3,0x18
800038dc:	fc068223          	sb	zero,-60(a3)
800038e0:	418e5e13          	srai	t3,t3,0x18
800038e4:	00088693          	mv	a3,a7
800038e8:	00000713          	li	a4,0
800038ec:	7b500513          	li	a0,1973
800038f0:	ffc68793          	addi	a5,a3,-4
800038f4:	02a70733          	mul	a4,a4,a0
800038f8:	00478603          	lb	a2,4(a5)
800038fc:	00178793          	addi	a5,a5,1
80003900:	00c70733          	add	a4,a4,a2
80003904:	fef698e3          	bne	a3,a5,800038f4 <bench_15pz_run+0x8ec>
80003908:	00468693          	addi	a3,a3,4
8000390c:	ffb692e3          	bne	a3,s11,800038f0 <bench_15pz_run+0x8e8>
80003910:	00100793          	li	a5,1
80003914:	04f10c23          	sb	a5,88(sp)
80003918:	05510ca3          	sb	s5,89(sp)
8000391c:	04610d23          	sb	t1,90(sp)
80003920:	05c10da3          	sb	t3,91(sp)
80003924:	06e12623          	sw	a4,108(sp)
80003928:	05810793          	addi	a5,sp,88
8000392c:	0075c703          	lbu	a4,7(a1)
80003930:	0045c503          	lbu	a0,4(a1)
80003934:	0055c603          	lbu	a2,5(a1)
80003938:	0065c683          	lbu	a3,6(a1)
8000393c:	00e783a3          	sb	a4,7(a5)
80003940:	00c12703          	lw	a4,12(sp)
80003944:	00a78223          	sb	a0,4(a5)
80003948:	00c782a3          	sb	a2,5(a5)
8000394c:	00d78323          	sb	a3,6(a5)
80003950:	00088593          	mv	a1,a7
80003954:	00478793          	addi	a5,a5,4
80003958:	01170663          	beq	a4,a7,80003964 <bench_15pz_run+0x95c>
8000395c:	00488893          	addi	a7,a7,4
80003960:	fcdff06f          	j	8000392c <bench_15pz_run+0x924>
80003964:	004d2583          	lw	a1,4(s10)
80003968:	000d2503          	lw	a0,0(s10)
8000396c:	04010613          	addi	a2,sp,64
80003970:	ea1fe0ef          	jal	ra,80002810 <_ZNK14Updatable_heapI8N_puzzleILi4EEE7pointerERKS1_.isra.0>
80003974:	02050663          	beqz	a0,800039a0 <bench_15pz_run+0x998>
80003978:	02052603          	lw	a2,32(a0)
8000397c:	00160613          	addi	a2,a2,1
80003980:	05810593          	addi	a1,sp,88
80003984:	000d0513          	mv	a0,s10
80003988:	b6cff0ef          	jal	ra,80002cf4 <_ZN14Updatable_heapI8N_puzzleILi4EEE4pushERKS1_i>
8000398c:	bc9ff06f          	j	80003554 <bench_15pz_run+0x54c>
80003990:	80000637          	lui	a2,0x80000
80003994:	d39ff06f          	j	800036cc <bench_15pz_run+0x6c4>
80003998:	80000637          	lui	a2,0x80000
8000399c:	ba9ff06f          	j	80003544 <bench_15pz_run+0x53c>
800039a0:	80000637          	lui	a2,0x80000
800039a4:	fddff06f          	j	80003980 <bench_15pz_run+0x978>
800039a8:	80000637          	lui	a2,0x80000
800039ac:	a15ff06f          	j	800033c0 <bench_15pz_run+0x3b8>
800039b0:	07010413          	addi	s0,sp,112
800039b4:	800065b7          	lui	a1,0x80006
800039b8:	41058593          	addi	a1,a1,1040 # 80006410 <_end+0xffff7410>
800039bc:	00040513          	mv	a0,s0
800039c0:	894ff0ef          	jal	ra,80002a54 <_ZN8N_puzzleILi4EEC1EPi>
800039c4:	07012703          	lw	a4,112(sp)
800039c8:	00040793          	mv	a5,s0
800039cc:	08010493          	addi	s1,sp,128
800039d0:	02e12423          	sw	a4,40(sp)
800039d4:	08412703          	lw	a4,132(sp)
800039d8:	02e12e23          	sw	a4,60(sp)
800039dc:	02810713          	addi	a4,sp,40
800039e0:	0047c503          	lbu	a0,4(a5)
800039e4:	0057c583          	lbu	a1,5(a5)
800039e8:	0067c603          	lbu	a2,6(a5)
800039ec:	0077c683          	lbu	a3,7(a5)
800039f0:	00a70223          	sb	a0,4(a4)
800039f4:	00b702a3          	sb	a1,5(a4)
800039f8:	00c70323          	sb	a2,6(a4)
800039fc:	00d703a3          	sb	a3,7(a4)
80003a00:	00478793          	addi	a5,a5,4
80003a04:	00470713          	addi	a4,a4,4
80003a08:	fcf49ce3          	bne	s1,a5,800039e0 <bench_15pz_run+0x9d8>
80003a0c:	00a00793          	li	a5,10
80003a10:	00f12823          	sw	a5,16(sp)
80003a14:	f30ff06f          	j	80003144 <bench_15pz_run+0x13c>
80003a18:	07010413          	addi	s0,sp,112
80003a1c:	800065b7          	lui	a1,0x80006
80003a20:	39058593          	addi	a1,a1,912 # 80006390 <_end+0xffff7390>
80003a24:	00040513          	mv	a0,s0
80003a28:	82cff0ef          	jal	ra,80002a54 <_ZN8N_puzzleILi4EEC1EPi>
80003a2c:	07012703          	lw	a4,112(sp)
80003a30:	00040793          	mv	a5,s0
80003a34:	08010493          	addi	s1,sp,128
80003a38:	02e12423          	sw	a4,40(sp)
80003a3c:	08412703          	lw	a4,132(sp)
80003a40:	02e12e23          	sw	a4,60(sp)
80003a44:	02810713          	addi	a4,sp,40
80003a48:	0047c503          	lbu	a0,4(a5)
80003a4c:	0057c583          	lbu	a1,5(a5)
80003a50:	0067c603          	lbu	a2,6(a5)
80003a54:	0077c683          	lbu	a3,7(a5)
80003a58:	00a70223          	sb	a0,4(a4)
80003a5c:	00b702a3          	sb	a1,5(a4)
80003a60:	00c70323          	sb	a2,6(a4)
80003a64:	00d703a3          	sb	a3,7(a4)
80003a68:	00478793          	addi	a5,a5,4
80003a6c:	00470713          	addi	a4,a4,4
80003a70:	fcf49ce3          	bne	s1,a5,80003a48 <bench_15pz_run+0xa40>
80003a74:	000047b7          	lui	a5,0x4
80003a78:	00f12823          	sw	a5,16(sp)
80003a7c:	ec8ff06f          	j	80003144 <bench_15pz_run+0x13c>
80003a80:	03500613          	li	a2,53
80003a84:	800065b7          	lui	a1,0x80006
80003a88:	f1c58593          	addi	a1,a1,-228 # 80005f1c <_end+0xffff6f1c>
80003a8c:	80005537          	lui	a0,0x80005
80003a90:	77850513          	addi	a0,a0,1912 # 80005778 <_end+0xffff6778>
80003a94:	644010ef          	jal	ra,800050d8 <printf>
80003a98:	00100513          	li	a0,1
80003a9c:	278010ef          	jal	ra,80004d14 <halt>
80003aa0:	800065b7          	lui	a1,0x80006
80003aa4:	05600613          	li	a2,86
80003aa8:	ec458593          	addi	a1,a1,-316 # 80005ec4 <_end+0xffff6ec4>
80003aac:	fe1ff06f          	j	80003a8c <bench_15pz_run+0xa84>
80003ab0:	03300613          	li	a2,51
80003ab4:	fd1ff06f          	j	80003a84 <bench_15pz_run+0xa7c>

80003ab8 <_ZN5Dinic3DFSEii>:
80003ab8:	00c52f83          	lw	t6,12(a0)
80003abc:	f2010113          	addi	sp,sp,-224
80003ac0:	0c112e23          	sw	ra,220(sp)
80003ac4:	0c812c23          	sw	s0,216(sp)
80003ac8:	0c912a23          	sw	s1,212(sp)
80003acc:	0d212823          	sw	s2,208(sp)
80003ad0:	0d312623          	sw	s3,204(sp)
80003ad4:	0d412423          	sw	s4,200(sp)
80003ad8:	0d512223          	sw	s5,196(sp)
80003adc:	0d612023          	sw	s6,192(sp)
80003ae0:	0b712e23          	sw	s7,188(sp)
80003ae4:	0b812c23          	sw	s8,184(sp)
80003ae8:	0b912a23          	sw	s9,180(sp)
80003aec:	0ba12823          	sw	s10,176(sp)
80003af0:	0bb12623          	sw	s11,172(sp)
80003af4:	00060313          	mv	t1,a2
80003af8:	04bf8ce3          	beq	t6,a1,80004350 <_ZN5Dinic3DFSEii+0x898>
80003afc:	00012223          	sw	zero,4(sp)
80003b00:	000608e3          	beqz	a2,80004310 <_ZN5Dinic3DFSEii+0x858>
80003b04:	02052683          	lw	a3,32(a0)
80003b08:	00259793          	slli	a5,a1,0x2
80003b0c:	fff00713          	li	a4,-1
80003b10:	00d12a23          	sw	a3,20(sp)
80003b14:	00f686b3          	add	a3,a3,a5
80003b18:	0006a903          	lw	s2,0(a3)
80003b1c:	00050413          	mv	s0,a0
80003b20:	7ee90863          	beq	s2,a4,80004310 <_ZN5Dinic3DFSEii+0x858>
80003b24:	fff00b13          	li	s6,-1
80003b28:	0180006f          	j	80003b40 <_ZN5Dinic3DFSEii+0x88>
80003b2c:	01842703          	lw	a4,24(s0)
80003b30:	00291913          	slli	s2,s2,0x2
80003b34:	01270933          	add	s2,a4,s2
80003b38:	00092903          	lw	s2,0(s2)
80003b3c:	7d690a63          	beq	s2,s6,80004310 <_ZN5Dinic3DFSEii+0x858>
80003b40:	01042a03          	lw	s4,16(s0)
80003b44:	00491493          	slli	s1,s2,0x4
80003b48:	01c42983          	lw	s3,28(s0)
80003b4c:	009a04b3          	add	s1,s4,s1
80003b50:	0044a583          	lw	a1,4(s1)
80003b54:	00f98733          	add	a4,s3,a5
80003b58:	00072683          	lw	a3,0(a4)
80003b5c:	00259613          	slli	a2,a1,0x2
80003b60:	00c98db3          	add	s11,s3,a2
80003b64:	000da703          	lw	a4,0(s11)
80003b68:	00168693          	addi	a3,a3,1
80003b6c:	fce690e3          	bne	a3,a4,80003b2c <_ZN5Dinic3DFSEii+0x74>
80003b70:	0084ae83          	lw	t4,8(s1)
80003b74:	00c4a683          	lw	a3,12(s1)
80003b78:	40de8eb3          	sub	t4,t4,a3
80003b7c:	01d35463          	bge	t1,t4,80003b84 <_ZN5Dinic3DFSEii+0xcc>
80003b80:	00030e93          	mv	t4,t1
80003b84:	00bf80e3          	beq	t6,a1,80004384 <_ZN5Dinic3DFSEii+0x8cc>
80003b88:	fa0e82e3          	beqz	t4,80003b2c <_ZN5Dinic3DFSEii+0x74>
80003b8c:	01412683          	lw	a3,20(sp)
80003b90:	00c68633          	add	a2,a3,a2
80003b94:	00062a83          	lw	s5,0(a2) # 80000000 <_end+0xffff1000>
80003b98:	f96a8ae3          	beq	s5,s6,80003b2c <_ZN5Dinic3DFSEii+0x74>
80003b9c:	00012823          	sw	zero,16(sp)
80003ba0:	01c0006f          	j	80003bbc <_ZN5Dinic3DFSEii+0x104>
80003ba4:	01842703          	lw	a4,24(s0)
80003ba8:	002a9a93          	slli	s5,s5,0x2
80003bac:	01570ab3          	add	s5,a4,s5
80003bb0:	000aaa83          	lw	s5,0(s5)
80003bb4:	716a8a63          	beq	s5,s6,800042c8 <_ZN5Dinic3DFSEii+0x810>
80003bb8:	000da703          	lw	a4,0(s11)
80003bbc:	004a9c13          	slli	s8,s5,0x4
80003bc0:	018a0c33          	add	s8,s4,s8
80003bc4:	004c2583          	lw	a1,4(s8)
80003bc8:	00170713          	addi	a4,a4,1
80003bcc:	00259613          	slli	a2,a1,0x2
80003bd0:	00c98833          	add	a6,s3,a2
80003bd4:	00082683          	lw	a3,0(a6)
80003bd8:	fcd716e3          	bne	a4,a3,80003ba4 <_ZN5Dinic3DFSEii+0xec>
80003bdc:	008c2503          	lw	a0,8(s8)
80003be0:	00cc2703          	lw	a4,12(s8)
80003be4:	40e50733          	sub	a4,a0,a4
80003be8:	00e12623          	sw	a4,12(sp)
80003bec:	00eed463          	bge	t4,a4,80003bf4 <_ZN5Dinic3DFSEii+0x13c>
80003bf0:	01d12623          	sw	t4,12(sp)
80003bf4:	00c12703          	lw	a4,12(sp)
80003bf8:	7abf8463          	beq	t6,a1,800043a0 <_ZN5Dinic3DFSEii+0x8e8>
80003bfc:	fa0704e3          	beqz	a4,80003ba4 <_ZN5Dinic3DFSEii+0xec>
80003c00:	01412703          	lw	a4,20(sp)
80003c04:	00c70633          	add	a2,a4,a2
80003c08:	00062b83          	lw	s7,0(a2)
80003c0c:	f96b8ce3          	beq	s7,s6,80003ba4 <_ZN5Dinic3DFSEii+0xec>
80003c10:	02012423          	sw	zero,40(sp)
80003c14:	01c0006f          	j	80003c30 <_ZN5Dinic3DFSEii+0x178>
80003c18:	01842703          	lw	a4,24(s0)
80003c1c:	002b9b93          	slli	s7,s7,0x2
80003c20:	01770bb3          	add	s7,a4,s7
80003c24:	000bab83          	lw	s7,0(s7)
80003c28:	656b8463          	beq	s7,s6,80004270 <_ZN5Dinic3DFSEii+0x7b8>
80003c2c:	00082683          	lw	a3,0(a6)
80003c30:	004b9d13          	slli	s10,s7,0x4
80003c34:	01aa0d33          	add	s10,s4,s10
80003c38:	004d2603          	lw	a2,4(s10)
80003c3c:	00168693          	addi	a3,a3,1
80003c40:	00261713          	slli	a4,a2,0x2
80003c44:	00e98f33          	add	t5,s3,a4
80003c48:	000f2503          	lw	a0,0(t5)
80003c4c:	fca696e3          	bne	a3,a0,80003c18 <_ZN5Dinic3DFSEii+0x160>
80003c50:	008d2583          	lw	a1,8(s10)
80003c54:	00cd2683          	lw	a3,12(s10)
80003c58:	40d586b3          	sub	a3,a1,a3
80003c5c:	00c12583          	lw	a1,12(sp)
80003c60:	00d12e23          	sw	a3,28(sp)
80003c64:	00d5d463          	bge	a1,a3,80003c6c <_ZN5Dinic3DFSEii+0x1b4>
80003c68:	00b12e23          	sw	a1,28(sp)
80003c6c:	74cf8663          	beq	t6,a2,800043b8 <_ZN5Dinic3DFSEii+0x900>
80003c70:	01c12683          	lw	a3,28(sp)
80003c74:	fa0682e3          	beqz	a3,80003c18 <_ZN5Dinic3DFSEii+0x160>
80003c78:	01412683          	lw	a3,20(sp)
80003c7c:	00e68733          	add	a4,a3,a4
80003c80:	00072c83          	lw	s9,0(a4)
80003c84:	f96c8ae3          	beq	s9,s6,80003c18 <_ZN5Dinic3DFSEii+0x160>
80003c88:	02012e23          	sw	zero,60(sp)
80003c8c:	01c0006f          	j	80003ca8 <_ZN5Dinic3DFSEii+0x1f0>
80003c90:	01842703          	lw	a4,24(s0)
80003c94:	002c9c93          	slli	s9,s9,0x2
80003c98:	01970cb3          	add	s9,a4,s9
80003c9c:	000cac83          	lw	s9,0(s9)
80003ca0:	576c8863          	beq	s9,s6,80004210 <_ZN5Dinic3DFSEii+0x758>
80003ca4:	000f2503          	lw	a0,0(t5)
80003ca8:	004c9693          	slli	a3,s9,0x4
80003cac:	00da06b3          	add	a3,s4,a3
80003cb0:	0046a583          	lw	a1,4(a3)
80003cb4:	00150513          	addi	a0,a0,1
80003cb8:	00259713          	slli	a4,a1,0x2
80003cbc:	00e982b3          	add	t0,s3,a4
80003cc0:	0002a603          	lw	a2,0(t0)
80003cc4:	fcc516e3          	bne	a0,a2,80003c90 <_ZN5Dinic3DFSEii+0x1d8>
80003cc8:	0086a883          	lw	a7,8(a3)
80003ccc:	00c6a503          	lw	a0,12(a3)
80003cd0:	40a88533          	sub	a0,a7,a0
80003cd4:	01c12883          	lw	a7,28(sp)
80003cd8:	02a12823          	sw	a0,48(sp)
80003cdc:	66a8ce63          	blt	a7,a0,80004358 <_ZN5Dinic3DFSEii+0x8a0>
80003ce0:	68bf8063          	beq	t6,a1,80004360 <_ZN5Dinic3DFSEii+0x8a8>
80003ce4:	03012583          	lw	a1,48(sp)
80003ce8:	fa0584e3          	beqz	a1,80003c90 <_ZN5Dinic3DFSEii+0x1d8>
80003cec:	01412583          	lw	a1,20(sp)
80003cf0:	00e58733          	add	a4,a1,a4
80003cf4:	00072703          	lw	a4,0(a4)
80003cf8:	f9670ce3          	beq	a4,s6,80003c90 <_ZN5Dinic3DFSEii+0x1d8>
80003cfc:	04012623          	sw	zero,76(sp)
80003d00:	01c0006f          	j	80003d1c <_ZN5Dinic3DFSEii+0x264>
80003d04:	01842603          	lw	a2,24(s0)
80003d08:	00271713          	slli	a4,a4,0x2
80003d0c:	00e60733          	add	a4,a2,a4
80003d10:	00072703          	lw	a4,0(a4)
80003d14:	65670a63          	beq	a4,s6,80004368 <_ZN5Dinic3DFSEii+0x8b0>
80003d18:	0002a603          	lw	a2,0(t0)
80003d1c:	00471e13          	slli	t3,a4,0x4
80003d20:	01ca05b3          	add	a1,s4,t3
80003d24:	0045a883          	lw	a7,4(a1)
80003d28:	02b12023          	sw	a1,32(sp)
80003d2c:	00160613          	addi	a2,a2,1
80003d30:	00289513          	slli	a0,a7,0x2
80003d34:	00a983b3          	add	t2,s3,a0
80003d38:	0003a583          	lw	a1,0(t2) # 1000 <_entry_offset+0x1000>
80003d3c:	fcb614e3          	bne	a2,a1,80003d04 <_ZN5Dinic3DFSEii+0x24c>
80003d40:	02012e03          	lw	t3,32(sp)
80003d44:	00ce2603          	lw	a2,12(t3)
80003d48:	008e2e03          	lw	t3,8(t3)
80003d4c:	40ce0633          	sub	a2,t3,a2
80003d50:	03012e03          	lw	t3,48(sp)
80003d54:	04c12023          	sw	a2,64(sp)
80003d58:	00ce5463          	bge	t3,a2,80003d60 <_ZN5Dinic3DFSEii+0x2a8>
80003d5c:	05c12023          	sw	t3,64(sp)
80003d60:	04012603          	lw	a2,64(sp)
80003d64:	611f8863          	beq	t6,a7,80004374 <_ZN5Dinic3DFSEii+0x8bc>
80003d68:	f8060ee3          	beqz	a2,80003d04 <_ZN5Dinic3DFSEii+0x24c>
80003d6c:	01412603          	lw	a2,20(sp)
80003d70:	00a60633          	add	a2,a2,a0
80003d74:	00062883          	lw	a7,0(a2)
80003d78:	f96886e3          	beq	a7,s6,80003d04 <_ZN5Dinic3DFSEii+0x24c>
80003d7c:	04012c23          	sw	zero,88(sp)
80003d80:	01c0006f          	j	80003d9c <_ZN5Dinic3DFSEii+0x2e4>
80003d84:	01842603          	lw	a2,24(s0)
80003d88:	00289893          	slli	a7,a7,0x2
80003d8c:	01160633          	add	a2,a2,a7
80003d90:	00062883          	lw	a7,0(a2)
80003d94:	5f688263          	beq	a7,s6,80004378 <_ZN5Dinic3DFSEii+0x8c0>
80003d98:	0003a583          	lw	a1,0(t2)
80003d9c:	00489613          	slli	a2,a7,0x4
80003da0:	00ca0633          	add	a2,s4,a2
80003da4:	00462503          	lw	a0,4(a2)
80003da8:	02c12a23          	sw	a2,52(sp)
80003dac:	00158593          	addi	a1,a1,1
80003db0:	00251613          	slli	a2,a0,0x2
80003db4:	00c12423          	sw	a2,8(sp)
80003db8:	00c98633          	add	a2,s3,a2
80003dbc:	02c12223          	sw	a2,36(sp)
80003dc0:	00062603          	lw	a2,0(a2)
80003dc4:	fcc590e3          	bne	a1,a2,80003d84 <_ZN5Dinic3DFSEii+0x2cc>
80003dc8:	03412583          	lw	a1,52(sp)
80003dcc:	0085ae03          	lw	t3,8(a1)
80003dd0:	00c5a583          	lw	a1,12(a1)
80003dd4:	40be05b3          	sub	a1,t3,a1
80003dd8:	04012e03          	lw	t3,64(sp)
80003ddc:	04b12823          	sw	a1,80(sp)
80003de0:	00be5463          	bge	t3,a1,80003de8 <_ZN5Dinic3DFSEii+0x330>
80003de4:	05c12823          	sw	t3,80(sp)
80003de8:	5aaf8263          	beq	t6,a0,8000438c <_ZN5Dinic3DFSEii+0x8d4>
80003dec:	05012583          	lw	a1,80(sp)
80003df0:	f8058ae3          	beqz	a1,80003d84 <_ZN5Dinic3DFSEii+0x2cc>
80003df4:	00812503          	lw	a0,8(sp)
80003df8:	01412583          	lw	a1,20(sp)
80003dfc:	00a585b3          	add	a1,a1,a0
80003e00:	0005a583          	lw	a1,0(a1)
80003e04:	00b12423          	sw	a1,8(sp)
80003e08:	f7658ee3          	beq	a1,s6,80003d84 <_ZN5Dinic3DFSEii+0x2cc>
80003e0c:	06012223          	sw	zero,100(sp)
80003e10:	0280006f          	j	80003e38 <_ZN5Dinic3DFSEii+0x380>
80003e14:	00812583          	lw	a1,8(sp)
80003e18:	01842603          	lw	a2,24(s0)
80003e1c:	00259593          	slli	a1,a1,0x2
80003e20:	00b60633          	add	a2,a2,a1
80003e24:	00062603          	lw	a2,0(a2)
80003e28:	00c12423          	sw	a2,8(sp)
80003e2c:	57660463          	beq	a2,s6,80004394 <_ZN5Dinic3DFSEii+0x8dc>
80003e30:	02412603          	lw	a2,36(sp)
80003e34:	00062603          	lw	a2,0(a2)
80003e38:	00812583          	lw	a1,8(sp)
80003e3c:	00160613          	addi	a2,a2,1
80003e40:	00459593          	slli	a1,a1,0x4
80003e44:	00ba05b3          	add	a1,s4,a1
80003e48:	0045a503          	lw	a0,4(a1)
80003e4c:	04b12223          	sw	a1,68(sp)
80003e50:	00251593          	slli	a1,a0,0x2
80003e54:	00b12c23          	sw	a1,24(sp)
80003e58:	00b985b3          	add	a1,s3,a1
80003e5c:	02b12c23          	sw	a1,56(sp)
80003e60:	0005a583          	lw	a1,0(a1)
80003e64:	fab618e3          	bne	a2,a1,80003e14 <_ZN5Dinic3DFSEii+0x35c>
80003e68:	04412603          	lw	a2,68(sp)
80003e6c:	00862e03          	lw	t3,8(a2)
80003e70:	00c62603          	lw	a2,12(a2)
80003e74:	40ce0633          	sub	a2,t3,a2
80003e78:	05012e03          	lw	t3,80(sp)
80003e7c:	04c12e23          	sw	a2,92(sp)
80003e80:	00ce5463          	bge	t3,a2,80003e88 <_ZN5Dinic3DFSEii+0x3d0>
80003e84:	05c12e23          	sw	t3,92(sp)
80003e88:	05c12603          	lw	a2,92(sp)
80003e8c:	50af8e63          	beq	t6,a0,800043a8 <_ZN5Dinic3DFSEii+0x8f0>
80003e90:	f80602e3          	beqz	a2,80003e14 <_ZN5Dinic3DFSEii+0x35c>
80003e94:	01812503          	lw	a0,24(sp)
80003e98:	01412603          	lw	a2,20(sp)
80003e9c:	00a60633          	add	a2,a2,a0
80003ea0:	00062603          	lw	a2,0(a2)
80003ea4:	00c12c23          	sw	a2,24(sp)
80003ea8:	f76606e3          	beq	a2,s6,80003e14 <_ZN5Dinic3DFSEii+0x35c>
80003eac:	06012623          	sw	zero,108(sp)
80003eb0:	0280006f          	j	80003ed8 <_ZN5Dinic3DFSEii+0x420>
80003eb4:	01812583          	lw	a1,24(sp)
80003eb8:	01842603          	lw	a2,24(s0)
80003ebc:	00259593          	slli	a1,a1,0x2
80003ec0:	00b60633          	add	a2,a2,a1
80003ec4:	00062603          	lw	a2,0(a2)
80003ec8:	00c12c23          	sw	a2,24(sp)
80003ecc:	4f660063          	beq	a2,s6,800043ac <_ZN5Dinic3DFSEii+0x8f4>
80003ed0:	03812603          	lw	a2,56(sp)
80003ed4:	00062583          	lw	a1,0(a2)
80003ed8:	01812603          	lw	a2,24(sp)
80003edc:	00158593          	addi	a1,a1,1
80003ee0:	00461613          	slli	a2,a2,0x4
80003ee4:	00ca0633          	add	a2,s4,a2
80003ee8:	00462503          	lw	a0,4(a2)
80003eec:	04c12a23          	sw	a2,84(sp)
80003ef0:	00251613          	slli	a2,a0,0x2
80003ef4:	02c12623          	sw	a2,44(sp)
80003ef8:	00c98633          	add	a2,s3,a2
80003efc:	04c12423          	sw	a2,72(sp)
80003f00:	00062603          	lw	a2,0(a2)
80003f04:	fac598e3          	bne	a1,a2,80003eb4 <_ZN5Dinic3DFSEii+0x3fc>
80003f08:	05412583          	lw	a1,84(sp)
80003f0c:	0085ae03          	lw	t3,8(a1)
80003f10:	00c5a583          	lw	a1,12(a1)
80003f14:	40be05b3          	sub	a1,t3,a1
80003f18:	05c12e03          	lw	t3,92(sp)
80003f1c:	06b12423          	sw	a1,104(sp)
80003f20:	00be5463          	bge	t3,a1,80003f28 <_ZN5Dinic3DFSEii+0x470>
80003f24:	07c12423          	sw	t3,104(sp)
80003f28:	48af8e63          	beq	t6,a0,800043c4 <_ZN5Dinic3DFSEii+0x90c>
80003f2c:	06812583          	lw	a1,104(sp)
80003f30:	f80582e3          	beqz	a1,80003eb4 <_ZN5Dinic3DFSEii+0x3fc>
80003f34:	02c12503          	lw	a0,44(sp)
80003f38:	01412583          	lw	a1,20(sp)
80003f3c:	00a585b3          	add	a1,a1,a0
80003f40:	0005a583          	lw	a1,0(a1)
80003f44:	02b12623          	sw	a1,44(sp)
80003f48:	f76586e3          	beq	a1,s6,80003eb4 <_ZN5Dinic3DFSEii+0x3fc>
80003f4c:	06012823          	sw	zero,112(sp)
80003f50:	0280006f          	j	80003f78 <_ZN5Dinic3DFSEii+0x4c0>
80003f54:	02c12583          	lw	a1,44(sp)
80003f58:	01842603          	lw	a2,24(s0)
80003f5c:	00259593          	slli	a1,a1,0x2
80003f60:	00b60633          	add	a2,a2,a1
80003f64:	00062603          	lw	a2,0(a2)
80003f68:	02c12623          	sw	a2,44(sp)
80003f6c:	47660063          	beq	a2,s6,800043cc <_ZN5Dinic3DFSEii+0x914>
80003f70:	04812603          	lw	a2,72(sp)
80003f74:	00062603          	lw	a2,0(a2)
80003f78:	02c12583          	lw	a1,44(sp)
80003f7c:	00160613          	addi	a2,a2,1
80003f80:	00459593          	slli	a1,a1,0x4
80003f84:	00ba05b3          	add	a1,s4,a1
80003f88:	06b12023          	sw	a1,96(sp)
80003f8c:	0045a583          	lw	a1,4(a1)
80003f90:	00259513          	slli	a0,a1,0x2
80003f94:	00a98533          	add	a0,s3,a0
80003f98:	00052503          	lw	a0,0(a0)
80003f9c:	faa61ce3          	bne	a2,a0,80003f54 <_ZN5Dinic3DFSEii+0x49c>
80003fa0:	06012503          	lw	a0,96(sp)
80003fa4:	00852603          	lw	a2,8(a0)
80003fa8:	00c52503          	lw	a0,12(a0)
80003fac:	00050e13          	mv	t3,a0
80003fb0:	41c60633          	sub	a2,a2,t3
80003fb4:	06812e03          	lw	t3,104(sp)
80003fb8:	00040513          	mv	a0,s0
80003fbc:	40ce4e63          	blt	t3,a2,800043d8 <_ZN5Dinic3DFSEii+0x920>
80003fc0:	08612e23          	sw	t1,156(sp)
80003fc4:	08e12c23          	sw	a4,152(sp)
80003fc8:	08712a23          	sw	t2,148(sp)
80003fcc:	09112823          	sw	a7,144(sp)
80003fd0:	08512623          	sw	t0,140(sp)
80003fd4:	08d12423          	sw	a3,136(sp)
80003fd8:	09e12223          	sw	t5,132(sp)
80003fdc:	09d12023          	sw	t4,128(sp)
80003fe0:	07012e23          	sw	a6,124(sp)
80003fe4:	06f12c23          	sw	a5,120(sp)
80003fe8:	07f12a23          	sw	t6,116(sp)
80003fec:	acdff0ef          	jal	ra,80003ab8 <_ZN5Dinic3DFSEii>
80003ff0:	02c12783          	lw	a5,44(sp)
80003ff4:	07412f83          	lw	t6,116(sp)
80003ff8:	07c12803          	lw	a6,124(sp)
80003ffc:	0017c613          	xori	a2,a5,1
80004000:	00461613          	slli	a2,a2,0x4
80004004:	07812783          	lw	a5,120(sp)
80004008:	08012e83          	lw	t4,128(sp)
8000400c:	08412f03          	lw	t5,132(sp)
80004010:	08812683          	lw	a3,136(sp)
80004014:	08c12283          	lw	t0,140(sp)
80004018:	09012883          	lw	a7,144(sp)
8000401c:	09412383          	lw	t2,148(sp)
80004020:	09812703          	lw	a4,152(sp)
80004024:	09c12303          	lw	t1,156(sp)
80004028:	00ca0633          	add	a2,s4,a2
8000402c:	f2a054e3          	blez	a0,80003f54 <_ZN5Dinic3DFSEii+0x49c>
80004030:	06012e03          	lw	t3,96(sp)
80004034:	00ce2583          	lw	a1,12(t3)
80004038:	06b12023          	sw	a1,96(sp)
8000403c:	06812583          	lw	a1,104(sp)
80004040:	40a585b3          	sub	a1,a1,a0
80004044:	06b12423          	sw	a1,104(sp)
80004048:	07012583          	lw	a1,112(sp)
8000404c:	00a585b3          	add	a1,a1,a0
80004050:	06b12823          	sw	a1,112(sp)
80004054:	06012583          	lw	a1,96(sp)
80004058:	00a585b3          	add	a1,a1,a0
8000405c:	00be2623          	sw	a1,12(t3)
80004060:	00c62583          	lw	a1,12(a2)
80004064:	40a585b3          	sub	a1,a1,a0
80004068:	00b62623          	sw	a1,12(a2)
8000406c:	06812583          	lw	a1,104(sp)
80004070:	ee0592e3          	bnez	a1,80003f54 <_ZN5Dinic3DFSEii+0x49c>
80004074:	05412e03          	lw	t3,84(sp)
80004078:	01812603          	lw	a2,24(sp)
8000407c:	07012503          	lw	a0,112(sp)
80004080:	00ce2583          	lw	a1,12(t3)
80004084:	00164613          	xori	a2,a2,1
80004088:	00461613          	slli	a2,a2,0x4
8000408c:	00a585b3          	add	a1,a1,a0
80004090:	00be2623          	sw	a1,12(t3)
80004094:	00ca0633          	add	a2,s4,a2
80004098:	00c62583          	lw	a1,12(a2)
8000409c:	05c12e03          	lw	t3,92(sp)
800040a0:	02b12623          	sw	a1,44(sp)
800040a4:	06c12583          	lw	a1,108(sp)
800040a8:	40ae0e33          	sub	t3,t3,a0
800040ac:	05c12e23          	sw	t3,92(sp)
800040b0:	00a585b3          	add	a1,a1,a0
800040b4:	06b12623          	sw	a1,108(sp)
800040b8:	02c12583          	lw	a1,44(sp)
800040bc:	40a585b3          	sub	a1,a1,a0
800040c0:	00b62623          	sw	a1,12(a2)
800040c4:	de0e18e3          	bnez	t3,80003eb4 <_ZN5Dinic3DFSEii+0x3fc>
800040c8:	04412e03          	lw	t3,68(sp)
800040cc:	00812603          	lw	a2,8(sp)
800040d0:	06c12503          	lw	a0,108(sp)
800040d4:	00ce2583          	lw	a1,12(t3)
800040d8:	00164613          	xori	a2,a2,1
800040dc:	00461613          	slli	a2,a2,0x4
800040e0:	00a585b3          	add	a1,a1,a0
800040e4:	00be2623          	sw	a1,12(t3)
800040e8:	00ca0633          	add	a2,s4,a2
800040ec:	00c62583          	lw	a1,12(a2)
800040f0:	05012e03          	lw	t3,80(sp)
800040f4:	00b12c23          	sw	a1,24(sp)
800040f8:	06412583          	lw	a1,100(sp)
800040fc:	40ae0e33          	sub	t3,t3,a0
80004100:	05c12823          	sw	t3,80(sp)
80004104:	00a585b3          	add	a1,a1,a0
80004108:	06b12223          	sw	a1,100(sp)
8000410c:	01812583          	lw	a1,24(sp)
80004110:	40a585b3          	sub	a1,a1,a0
80004114:	00b62623          	sw	a1,12(a2)
80004118:	ce0e1ee3          	bnez	t3,80003e14 <_ZN5Dinic3DFSEii+0x35c>
8000411c:	03412e03          	lw	t3,52(sp)
80004120:	06412503          	lw	a0,100(sp)
80004124:	0018c613          	xori	a2,a7,1
80004128:	00ce2583          	lw	a1,12(t3)
8000412c:	00461613          	slli	a2,a2,0x4
80004130:	00ca0633          	add	a2,s4,a2
80004134:	00a585b3          	add	a1,a1,a0
80004138:	00be2623          	sw	a1,12(t3)
8000413c:	00c62583          	lw	a1,12(a2)
80004140:	04012e03          	lw	t3,64(sp)
80004144:	00b12423          	sw	a1,8(sp)
80004148:	05812583          	lw	a1,88(sp)
8000414c:	40ae0e33          	sub	t3,t3,a0
80004150:	05c12023          	sw	t3,64(sp)
80004154:	00a585b3          	add	a1,a1,a0
80004158:	04b12c23          	sw	a1,88(sp)
8000415c:	00812583          	lw	a1,8(sp)
80004160:	40a585b3          	sub	a1,a1,a0
80004164:	00b62623          	sw	a1,12(a2)
80004168:	c00e1ee3          	bnez	t3,80003d84 <_ZN5Dinic3DFSEii+0x2cc>
8000416c:	02012883          	lw	a7,32(sp)
80004170:	05812503          	lw	a0,88(sp)
80004174:	00174613          	xori	a2,a4,1
80004178:	00c8a583          	lw	a1,12(a7)
8000417c:	00461613          	slli	a2,a2,0x4
80004180:	00ca0633          	add	a2,s4,a2
80004184:	00a585b3          	add	a1,a1,a0
80004188:	00b8a623          	sw	a1,12(a7)
8000418c:	00c62583          	lw	a1,12(a2)
80004190:	03012883          	lw	a7,48(sp)
80004194:	04c12e03          	lw	t3,76(sp)
80004198:	40a585b3          	sub	a1,a1,a0
8000419c:	40a888b3          	sub	a7,a7,a0
800041a0:	00ae0e33          	add	t3,t3,a0
800041a4:	03112823          	sw	a7,48(sp)
800041a8:	05c12623          	sw	t3,76(sp)
800041ac:	00b62623          	sw	a1,12(a2)
800041b0:	b4089ae3          	bnez	a7,80003d04 <_ZN5Dinic3DFSEii+0x24c>
800041b4:	00c6a603          	lw	a2,12(a3)
800041b8:	04c12583          	lw	a1,76(sp)
800041bc:	01c12503          	lw	a0,28(sp)
800041c0:	001cc713          	xori	a4,s9,1
800041c4:	00b60633          	add	a2,a2,a1
800041c8:	00471713          	slli	a4,a4,0x4
800041cc:	00c6a623          	sw	a2,12(a3)
800041d0:	00ea0733          	add	a4,s4,a4
800041d4:	00058613          	mv	a2,a1
800041d8:	00c72683          	lw	a3,12(a4)
800041dc:	40b505b3          	sub	a1,a0,a1
800041e0:	03c12503          	lw	a0,60(sp)
800041e4:	40c686b3          	sub	a3,a3,a2
800041e8:	00b12e23          	sw	a1,28(sp)
800041ec:	00c50533          	add	a0,a0,a2
800041f0:	02a12e23          	sw	a0,60(sp)
800041f4:	00d72623          	sw	a3,12(a4)
800041f8:	02058063          	beqz	a1,80004218 <_ZN5Dinic3DFSEii+0x760>
800041fc:	01842703          	lw	a4,24(s0)
80004200:	002c9c93          	slli	s9,s9,0x2
80004204:	01970cb3          	add	s9,a4,s9
80004208:	000cac83          	lw	s9,0(s9)
8000420c:	a96c9ce3          	bne	s9,s6,80003ca4 <_ZN5Dinic3DFSEii+0x1ec>
80004210:	03c12703          	lw	a4,60(sp)
80004214:	a0e052e3          	blez	a4,80003c18 <_ZN5Dinic3DFSEii+0x160>
80004218:	03c12603          	lw	a2,60(sp)
8000421c:	00cd2683          	lw	a3,12(s10)
80004220:	001bc713          	xori	a4,s7,1
80004224:	00471713          	slli	a4,a4,0x4
80004228:	00c686b3          	add	a3,a3,a2
8000422c:	00dd2623          	sw	a3,12(s10)
80004230:	00ea0733          	add	a4,s4,a4
80004234:	00c72683          	lw	a3,12(a4)
80004238:	00c12583          	lw	a1,12(sp)
8000423c:	02812503          	lw	a0,40(sp)
80004240:	40c686b3          	sub	a3,a3,a2
80004244:	40c585b3          	sub	a1,a1,a2
80004248:	00c50533          	add	a0,a0,a2
8000424c:	00b12623          	sw	a1,12(sp)
80004250:	02a12423          	sw	a0,40(sp)
80004254:	00d72623          	sw	a3,12(a4)
80004258:	02058063          	beqz	a1,80004278 <_ZN5Dinic3DFSEii+0x7c0>
8000425c:	01842703          	lw	a4,24(s0)
80004260:	002b9b93          	slli	s7,s7,0x2
80004264:	01770bb3          	add	s7,a4,s7
80004268:	000bab83          	lw	s7,0(s7)
8000426c:	9d6b90e3          	bne	s7,s6,80003c2c <_ZN5Dinic3DFSEii+0x174>
80004270:	02812703          	lw	a4,40(sp)
80004274:	92e058e3          	blez	a4,80003ba4 <_ZN5Dinic3DFSEii+0xec>
80004278:	02812603          	lw	a2,40(sp)
8000427c:	00cc2683          	lw	a3,12(s8)
80004280:	001ac713          	xori	a4,s5,1
80004284:	00471713          	slli	a4,a4,0x4
80004288:	00c686b3          	add	a3,a3,a2
8000428c:	00dc2623          	sw	a3,12(s8)
80004290:	00ea0733          	add	a4,s4,a4
80004294:	00c72683          	lw	a3,12(a4)
80004298:	01012583          	lw	a1,16(sp)
8000429c:	40ce8eb3          	sub	t4,t4,a2
800042a0:	40c686b3          	sub	a3,a3,a2
800042a4:	00c585b3          	add	a1,a1,a2
800042a8:	00b12823          	sw	a1,16(sp)
800042ac:	00d72623          	sw	a3,12(a4)
800042b0:	020e8063          	beqz	t4,800042d0 <_ZN5Dinic3DFSEii+0x818>
800042b4:	01842703          	lw	a4,24(s0)
800042b8:	002a9a93          	slli	s5,s5,0x2
800042bc:	01570ab3          	add	s5,a4,s5
800042c0:	000aaa83          	lw	s5,0(s5)
800042c4:	8f6a9ae3          	bne	s5,s6,80003bb8 <_ZN5Dinic3DFSEii+0x100>
800042c8:	01012703          	lw	a4,16(sp)
800042cc:	86e050e3          	blez	a4,80003b2c <_ZN5Dinic3DFSEii+0x74>
800042d0:	01012603          	lw	a2,16(sp)
800042d4:	00c4a683          	lw	a3,12(s1)
800042d8:	00194713          	xori	a4,s2,1
800042dc:	00471713          	slli	a4,a4,0x4
800042e0:	00c686b3          	add	a3,a3,a2
800042e4:	00d4a623          	sw	a3,12(s1)
800042e8:	00ea0a33          	add	s4,s4,a4
800042ec:	00060693          	mv	a3,a2
800042f0:	00ca2703          	lw	a4,12(s4)
800042f4:	40c30333          	sub	t1,t1,a2
800042f8:	00412603          	lw	a2,4(sp)
800042fc:	40d70733          	sub	a4,a4,a3
80004300:	00ea2623          	sw	a4,12(s4)
80004304:	00d60633          	add	a2,a2,a3
80004308:	00c12223          	sw	a2,4(sp)
8000430c:	820310e3          	bnez	t1,80003b2c <_ZN5Dinic3DFSEii+0x74>
80004310:	0dc12083          	lw	ra,220(sp)
80004314:	0d812403          	lw	s0,216(sp)
80004318:	00412503          	lw	a0,4(sp)
8000431c:	0d412483          	lw	s1,212(sp)
80004320:	0d012903          	lw	s2,208(sp)
80004324:	0cc12983          	lw	s3,204(sp)
80004328:	0c812a03          	lw	s4,200(sp)
8000432c:	0c412a83          	lw	s5,196(sp)
80004330:	0c012b03          	lw	s6,192(sp)
80004334:	0bc12b83          	lw	s7,188(sp)
80004338:	0b812c03          	lw	s8,184(sp)
8000433c:	0b412c83          	lw	s9,180(sp)
80004340:	0b012d03          	lw	s10,176(sp)
80004344:	0ac12d83          	lw	s11,172(sp)
80004348:	0e010113          	addi	sp,sp,224
8000434c:	00008067          	ret
80004350:	00c12223          	sw	a2,4(sp)
80004354:	fbdff06f          	j	80004310 <_ZN5Dinic3DFSEii+0x858>
80004358:	03112823          	sw	a7,48(sp)
8000435c:	985ff06f          	j	80003ce0 <_ZN5Dinic3DFSEii+0x228>
80004360:	03012703          	lw	a4,48(sp)
80004364:	04e12623          	sw	a4,76(sp)
80004368:	04c12703          	lw	a4,76(sp)
8000436c:	e4e044e3          	bgtz	a4,800041b4 <_ZN5Dinic3DFSEii+0x6fc>
80004370:	921ff06f          	j	80003c90 <_ZN5Dinic3DFSEii+0x1d8>
80004374:	04c12c23          	sw	a2,88(sp)
80004378:	05812603          	lw	a2,88(sp)
8000437c:	dec048e3          	bgtz	a2,8000416c <_ZN5Dinic3DFSEii+0x6b4>
80004380:	985ff06f          	j	80003d04 <_ZN5Dinic3DFSEii+0x24c>
80004384:	01d12823          	sw	t4,16(sp)
80004388:	f41ff06f          	j	800042c8 <_ZN5Dinic3DFSEii+0x810>
8000438c:	05012603          	lw	a2,80(sp)
80004390:	06c12223          	sw	a2,100(sp)
80004394:	06412603          	lw	a2,100(sp)
80004398:	d8c042e3          	bgtz	a2,8000411c <_ZN5Dinic3DFSEii+0x664>
8000439c:	9e9ff06f          	j	80003d84 <_ZN5Dinic3DFSEii+0x2cc>
800043a0:	02e12423          	sw	a4,40(sp)
800043a4:	ecdff06f          	j	80004270 <_ZN5Dinic3DFSEii+0x7b8>
800043a8:	06c12623          	sw	a2,108(sp)
800043ac:	06c12603          	lw	a2,108(sp)
800043b0:	d0c04ce3          	bgtz	a2,800040c8 <_ZN5Dinic3DFSEii+0x610>
800043b4:	a61ff06f          	j	80003e14 <_ZN5Dinic3DFSEii+0x35c>
800043b8:	01c12703          	lw	a4,28(sp)
800043bc:	02e12e23          	sw	a4,60(sp)
800043c0:	e51ff06f          	j	80004210 <_ZN5Dinic3DFSEii+0x758>
800043c4:	06812603          	lw	a2,104(sp)
800043c8:	06c12823          	sw	a2,112(sp)
800043cc:	07012603          	lw	a2,112(sp)
800043d0:	cac042e3          	bgtz	a2,80004074 <_ZN5Dinic3DFSEii+0x5bc>
800043d4:	ae1ff06f          	j	80003eb4 <_ZN5Dinic3DFSEii+0x3fc>
800043d8:	000e0613          	mv	a2,t3
800043dc:	be5ff06f          	j	80003fc0 <_ZN5Dinic3DFSEii+0x508>

800043e0 <bench_dinic_prepare>:
800043e0:	800067b7          	lui	a5,0x80006
800043e4:	6887a783          	lw	a5,1672(a5) # 80006688 <_end+0xffff7688>
800043e8:	fd010113          	addi	sp,sp,-48
800043ec:	03212023          	sw	s2,32(sp)
800043f0:	0007a783          	lw	a5,0(a5)
800043f4:	80006937          	lui	s2,0x80006
800043f8:	70c90913          	addi	s2,s2,1804 # 8000670c <_end+0xffff770c>
800043fc:	00100513          	li	a0,1
80004400:	02112623          	sw	ra,44(sp)
80004404:	00f92023          	sw	a5,0(s2)
80004408:	02812423          	sw	s0,40(sp)
8000440c:	02912223          	sw	s1,36(sp)
80004410:	01312e23          	sw	s3,28(sp)
80004414:	01412c23          	sw	s4,24(sp)
80004418:	01512a23          	sw	s5,20(sp)
8000441c:	01612823          	sw	s6,16(sp)
80004420:	01712623          	sw	s7,12(sp)
80004424:	01812423          	sw	s8,8(sp)
80004428:	01912223          	sw	s9,4(sp)
8000442c:	01a12023          	sw	s10,0(sp)
80004430:	c04fc0ef          	jal	ra,80000834 <bench_srand>
80004434:	02c00513          	li	a0,44
80004438:	00092b03          	lw	s6,0(s2)
8000443c:	b50fc0ef          	jal	ra,8000078c <bench_alloc>
80004440:	00092703          	lw	a4,0(s2)
80004444:	800069b7          	lui	s3,0x80006
80004448:	70898993          	addi	s3,s3,1800 # 80006708 <_end+0xffff7708>
8000444c:	00170713          	addi	a4,a4,1
80004450:	00171a13          	slli	s4,a4,0x1
80004454:	ffea0793          	addi	a5,s4,-2
80004458:	4017d793          	srai	a5,a5,0x1
8000445c:	02f78ab3          	mul	s5,a5,a5
80004460:	00179793          	slli	a5,a5,0x1
80004464:	00050493          	mv	s1,a0
80004468:	00a9a023          	sw	a0,0(s3)
8000446c:	00371413          	slli	s0,a4,0x3
80004470:	001b1b13          	slli	s6,s6,0x1
80004474:	001b0b93          	addi	s7,s6,1
80004478:	00fa8ab3          	add	s5,s5,a5
8000447c:	005a9513          	slli	a0,s5,0x5
80004480:	b0cfc0ef          	jal	ra,8000078c <bench_alloc>
80004484:	00a4a823          	sw	a0,16(s1)
80004488:	00040513          	mv	a0,s0
8000448c:	b00fc0ef          	jal	ra,8000078c <bench_alloc>
80004490:	00a4aa23          	sw	a0,20(s1)
80004494:	003a9513          	slli	a0,s5,0x3
80004498:	af4fc0ef          	jal	ra,8000078c <bench_alloc>
8000449c:	00a4ac23          	sw	a0,24(s1)
800044a0:	000a0513          	mv	a0,s4
800044a4:	ae8fc0ef          	jal	ra,8000078c <bench_alloc>
800044a8:	02a4a423          	sw	a0,40(s1)
800044ac:	00040513          	mv	a0,s0
800044b0:	adcfc0ef          	jal	ra,8000078c <bench_alloc>
800044b4:	00a4ae23          	sw	a0,28(s1)
800044b8:	00040513          	mv	a0,s0
800044bc:	ad0fc0ef          	jal	ra,8000078c <bench_alloc>
800044c0:	02a4a023          	sw	a0,32(s1)
800044c4:	00040513          	mv	a0,s0
800044c8:	ac4fc0ef          	jal	ra,8000078c <bench_alloc>
800044cc:	02a4a223          	sw	a0,36(s1)
800044d0:	0144a023          	sw	s4,0(s1)
800044d4:	01405e63          	blez	s4,800044f0 <bench_dinic_prepare+0x110>
800044d8:	0144a783          	lw	a5,20(s1)
800044dc:	fff00693          	li	a3,-1
800044e0:	00878733          	add	a4,a5,s0
800044e4:	00d7a023          	sw	a3,0(a5)
800044e8:	00478793          	addi	a5,a5,4
800044ec:	fee79ce3          	bne	a5,a4,800044e4 <bench_dinic_prepare+0x104>
800044f0:	00092c83          	lw	s9,0(s2)
800044f4:	0004a223          	sw	zero,4(s1)
800044f8:	00a00a13          	li	s4,10
800044fc:	00000493          	li	s1,0
80004500:	23905663          	blez	s9,8000472c <bench_dinic_prepare+0x34c>
80004504:	00249a93          	slli	s5,s1,0x2
80004508:	00000c13          	li	s8,0
8000450c:	0009a403          	lw	s0,0(s3)
80004510:	b38fc0ef          	jal	ra,80000848 <bench_rand>
80004514:	03457533          	remu	a0,a0,s4
80004518:	018c85b3          	add	a1,s9,s8
8000451c:	00259893          	slli	a7,a1,0x2
80004520:	00092c83          	lw	s9,0(s2)
80004524:	001c0c13          	addi	s8,s8,1
80004528:	08050863          	beqz	a0,800045b8 <bench_dinic_prepare+0x1d8>
8000452c:	00442703          	lw	a4,4(s0)
80004530:	01042783          	lw	a5,16(s0)
80004534:	01442603          	lw	a2,20(s0)
80004538:	00471693          	slli	a3,a4,0x4
8000453c:	00d786b3          	add	a3,a5,a3
80004540:	0096a023          	sw	s1,0(a3)
80004544:	00a6a423          	sw	a0,8(a3)
80004548:	00b6a223          	sw	a1,4(a3)
8000454c:	0006a623          	sw	zero,12(a3)
80004550:	01560533          	add	a0,a2,s5
80004554:	01842683          	lw	a3,24(s0)
80004558:	00052803          	lw	a6,0(a0)
8000455c:	00271713          	slli	a4,a4,0x2
80004560:	00e68733          	add	a4,a3,a4
80004564:	01072023          	sw	a6,0(a4)
80004568:	00442803          	lw	a6,4(s0)
8000456c:	01160733          	add	a4,a2,a7
80004570:	00180613          	addi	a2,a6,1
80004574:	00c42223          	sw	a2,4(s0)
80004578:	01052023          	sw	a6,0(a0)
8000457c:	00442603          	lw	a2,4(s0)
80004580:	00461513          	slli	a0,a2,0x4
80004584:	00a787b3          	add	a5,a5,a0
80004588:	00b7a023          	sw	a1,0(a5)
8000458c:	0097a223          	sw	s1,4(a5)
80004590:	0007a423          	sw	zero,8(a5)
80004594:	0007a623          	sw	zero,12(a5)
80004598:	00072783          	lw	a5,0(a4)
8000459c:	00261613          	slli	a2,a2,0x2
800045a0:	00c686b3          	add	a3,a3,a2
800045a4:	00f6a023          	sw	a5,0(a3)
800045a8:	00442783          	lw	a5,4(s0)
800045ac:	00178693          	addi	a3,a5,1
800045b0:	00d42223          	sw	a3,4(s0)
800045b4:	00f72023          	sw	a5,0(a4)
800045b8:	f59c4ae3          	blt	s8,s9,8000450c <bench_dinic_prepare+0x12c>
800045bc:	00148493          	addi	s1,s1,1
800045c0:	f594c2e3          	blt	s1,s9,80004504 <bench_dinic_prepare+0x124>
800045c4:	17905463          	blez	s9,8000472c <bench_dinic_prepare+0x34c>
800045c8:	002b1c93          	slli	s9,s6,0x2
800045cc:	002b9c13          	slli	s8,s7,0x2
800045d0:	00000a13          	li	s4,0
800045d4:	3e800a93          	li	s5,1000
800045d8:	0009a483          	lw	s1,0(s3)
800045dc:	a6cfc0ef          	jal	ra,80000848 <bench_rand>
800045e0:	03557533          	remu	a0,a0,s5
800045e4:	0009a403          	lw	s0,0(s3)
800045e8:	00092d03          	lw	s10,0(s2)
800045ec:	002a1813          	slli	a6,s4,0x2
800045f0:	08050863          	beqz	a0,80004680 <bench_dinic_prepare+0x2a0>
800045f4:	0044a703          	lw	a4,4(s1)
800045f8:	0104a783          	lw	a5,16(s1)
800045fc:	0144a603          	lw	a2,20(s1)
80004600:	00471693          	slli	a3,a4,0x4
80004604:	00d786b3          	add	a3,a5,a3
80004608:	0166a023          	sw	s6,0(a3)
8000460c:	0146a223          	sw	s4,4(a3)
80004610:	00a6a423          	sw	a0,8(a3)
80004614:	0006a623          	sw	zero,12(a3)
80004618:	019605b3          	add	a1,a2,s9
8000461c:	0184a683          	lw	a3,24(s1)
80004620:	0005a503          	lw	a0,0(a1)
80004624:	00271713          	slli	a4,a4,0x2
80004628:	00e68733          	add	a4,a3,a4
8000462c:	00a72023          	sw	a0,0(a4)
80004630:	0044a503          	lw	a0,4(s1)
80004634:	01060733          	add	a4,a2,a6
80004638:	00150613          	addi	a2,a0,1
8000463c:	00c4a223          	sw	a2,4(s1)
80004640:	00a5a023          	sw	a0,0(a1)
80004644:	0044a603          	lw	a2,4(s1)
80004648:	00461593          	slli	a1,a2,0x4
8000464c:	00b787b3          	add	a5,a5,a1
80004650:	0147a023          	sw	s4,0(a5)
80004654:	0167a223          	sw	s6,4(a5)
80004658:	0007a423          	sw	zero,8(a5)
8000465c:	0007a623          	sw	zero,12(a5)
80004660:	00072783          	lw	a5,0(a4)
80004664:	00261613          	slli	a2,a2,0x2
80004668:	00c686b3          	add	a3,a3,a2
8000466c:	00f6a023          	sw	a5,0(a3)
80004670:	0044a783          	lw	a5,4(s1)
80004674:	00178693          	addi	a3,a5,1
80004678:	00d4a223          	sw	a3,4(s1)
8000467c:	00f72023          	sw	a5,0(a4)
80004680:	9c8fc0ef          	jal	ra,80000848 <bench_rand>
80004684:	03557533          	remu	a0,a0,s5
80004688:	014d0833          	add	a6,s10,s4
8000468c:	00092883          	lw	a7,0(s2)
80004690:	00281593          	slli	a1,a6,0x2
80004694:	001a0a13          	addi	s4,s4,1
80004698:	08050863          	beqz	a0,80004728 <bench_dinic_prepare+0x348>
8000469c:	00442703          	lw	a4,4(s0)
800046a0:	01042783          	lw	a5,16(s0)
800046a4:	01442603          	lw	a2,20(s0)
800046a8:	00471693          	slli	a3,a4,0x4
800046ac:	00d786b3          	add	a3,a5,a3
800046b0:	0106a023          	sw	a6,0(a3)
800046b4:	00a6a423          	sw	a0,8(a3)
800046b8:	0176a223          	sw	s7,4(a3)
800046bc:	0006a623          	sw	zero,12(a3)
800046c0:	01842503          	lw	a0,24(s0)
800046c4:	00b606b3          	add	a3,a2,a1
800046c8:	0006a583          	lw	a1,0(a3)
800046cc:	00271713          	slli	a4,a4,0x2
800046d0:	00e50733          	add	a4,a0,a4
800046d4:	00b72023          	sw	a1,0(a4)
800046d8:	00442583          	lw	a1,4(s0)
800046dc:	01860733          	add	a4,a2,s8
800046e0:	00158613          	addi	a2,a1,1
800046e4:	00c42223          	sw	a2,4(s0)
800046e8:	00b6a023          	sw	a1,0(a3)
800046ec:	00442683          	lw	a3,4(s0)
800046f0:	00469613          	slli	a2,a3,0x4
800046f4:	00c787b3          	add	a5,a5,a2
800046f8:	0177a023          	sw	s7,0(a5)
800046fc:	0107a223          	sw	a6,4(a5)
80004700:	0007a423          	sw	zero,8(a5)
80004704:	0007a623          	sw	zero,12(a5)
80004708:	00072783          	lw	a5,0(a4)
8000470c:	00269693          	slli	a3,a3,0x2
80004710:	00d50533          	add	a0,a0,a3
80004714:	00f52023          	sw	a5,0(a0)
80004718:	00442783          	lw	a5,4(s0)
8000471c:	00178693          	addi	a3,a5,1
80004720:	00d42223          	sw	a3,4(s0)
80004724:	00f72023          	sw	a5,0(a4)
80004728:	eb1a48e3          	blt	s4,a7,800045d8 <bench_dinic_prepare+0x1f8>
8000472c:	02c12083          	lw	ra,44(sp)
80004730:	02812403          	lw	s0,40(sp)
80004734:	02412483          	lw	s1,36(sp)
80004738:	02012903          	lw	s2,32(sp)
8000473c:	01c12983          	lw	s3,28(sp)
80004740:	01812a03          	lw	s4,24(sp)
80004744:	01412a83          	lw	s5,20(sp)
80004748:	01012b03          	lw	s6,16(sp)
8000474c:	00c12b83          	lw	s7,12(sp)
80004750:	00812c03          	lw	s8,8(sp)
80004754:	00412c83          	lw	s9,4(sp)
80004758:	00012d03          	lw	s10,0(sp)
8000475c:	03010113          	addi	sp,sp,48
80004760:	00008067          	ret

80004764 <bench_dinic_run>:
80004764:	f7010113          	addi	sp,sp,-144
80004768:	80006737          	lui	a4,0x80006
8000476c:	800067b7          	lui	a5,0x80006
80004770:	08812423          	sw	s0,136(sp)
80004774:	70c7a783          	lw	a5,1804(a5) # 8000670c <_end+0xffff770c>
80004778:	70872403          	lw	s0,1800(a4) # 80006708 <_end+0xffff7708>
8000477c:	07412c23          	sw	s4,120(sp)
80004780:	00179693          	slli	a3,a5,0x1
80004784:	02842503          	lw	a0,40(s0)
80004788:	02442883          	lw	a7,36(s0)
8000478c:	01c42a03          	lw	s4,28(s0)
80004790:	01442803          	lw	a6,20(s0)
80004794:	00042603          	lw	a2,0(s0)
80004798:	09212023          	sw	s2,128(sp)
8000479c:	08112623          	sw	ra,140(sp)
800047a0:	08912223          	sw	s1,132(sp)
800047a4:	07312e23          	sw	s3,124(sp)
800047a8:	07512a23          	sw	s5,116(sp)
800047ac:	07612823          	sw	s6,112(sp)
800047b0:	07712623          	sw	s7,108(sp)
800047b4:	07812423          	sw	s8,104(sp)
800047b8:	07912223          	sw	s9,100(sp)
800047bc:	07a12023          	sw	s10,96(sp)
800047c0:	05b12e23          	sw	s11,92(sp)
800047c4:	00168713          	addi	a4,a3,1
800047c8:	00379793          	slli	a5,a5,0x3
800047cc:	00d12e23          	sw	a3,28(sp)
800047d0:	00d42423          	sw	a3,8(s0)
800047d4:	00e42623          	sw	a4,12(s0)
800047d8:	04f12423          	sw	a5,72(sp)
800047dc:	00012a23          	sw	zero,20(sp)
800047e0:	00100393          	li	t2,1
800047e4:	fff00913          	li	s2,-1
800047e8:	00050793          	mv	a5,a0
800047ec:	00c50733          	add	a4,a0,a2
800047f0:	00c05863          	blez	a2,80004800 <bench_dinic_run+0x9c>
800047f4:	00078023          	sb	zero,0(a5)
800047f8:	00178793          	addi	a5,a5,1
800047fc:	fef71ce3          	bne	a4,a5,800047f4 <bench_dinic_run+0x90>
80004800:	00d8a023          	sw	a3,0(a7)
80004804:	00842783          	lw	a5,8(s0)
80004808:	00088313          	mv	t1,a7
8000480c:	00100f13          	li	t5,1
80004810:	00279793          	slli	a5,a5,0x2
80004814:	00fa07b3          	add	a5,s4,a5
80004818:	0007a023          	sw	zero,0(a5)
8000481c:	00842783          	lw	a5,8(s0)
80004820:	00000593          	li	a1,0
80004824:	00f507b3          	add	a5,a0,a5
80004828:	00778023          	sb	t2,0(a5)
8000482c:	00032703          	lw	a4,0(t1)
80004830:	00158593          	addi	a1,a1,1
80004834:	00271713          	slli	a4,a4,0x2
80004838:	00e807b3          	add	a5,a6,a4
8000483c:	0007a783          	lw	a5,0(a5)
80004840:	07278863          	beq	a5,s2,800048b0 <bench_dinic_run+0x14c>
80004844:	01042283          	lw	t0,16(s0)
80004848:	01842f83          	lw	t6,24(s0)
8000484c:	00ea06b3          	add	a3,s4,a4
80004850:	00479713          	slli	a4,a5,0x4
80004854:	00e28733          	add	a4,t0,a4
80004858:	00472603          	lw	a2,4(a4)
8000485c:	00279793          	slli	a5,a5,0x2
80004860:	00ff87b3          	add	a5,t6,a5
80004864:	00c50e33          	add	t3,a0,a2
80004868:	000e4e83          	lbu	t4,0(t3)
8000486c:	020e9e63          	bnez	t4,800048a8 <bench_dinic_run+0x144>
80004870:	00872983          	lw	s3,8(a4)
80004874:	00c72483          	lw	s1,12(a4)
80004878:	00261613          	slli	a2,a2,0x2
8000487c:	002f1e93          	slli	t4,t5,0x2
80004880:	00ca0633          	add	a2,s4,a2
80004884:	01d88eb3          	add	t4,a7,t4
80004888:	0334d063          	bge	s1,s3,800048a8 <bench_dinic_run+0x144>
8000488c:	0006a483          	lw	s1,0(a3)
80004890:	007e0023          	sb	t2,0(t3)
80004894:	001f0f13          	addi	t5,t5,1
80004898:	00148e13          	addi	t3,s1,1
8000489c:	01c62023          	sw	t3,0(a2)
800048a0:	00472703          	lw	a4,4(a4)
800048a4:	00eea023          	sw	a4,0(t4)
800048a8:	0007a783          	lw	a5,0(a5)
800048ac:	fb2792e3          	bne	a5,s2,80004850 <bench_dinic_run+0xec>
800048b0:	00430313          	addi	t1,t1,4
800048b4:	f7e59ce3          	bne	a1,t5,8000482c <bench_dinic_run+0xc8>
800048b8:	00c42303          	lw	t1,12(s0)
800048bc:	006507b3          	add	a5,a0,t1
800048c0:	0007c783          	lbu	a5,0(a5)
800048c4:	3c078e63          	beqz	a5,80004ca0 <bench_dinic_run+0x53c>
800048c8:	00042603          	lw	a2,0(s0)
800048cc:	02c05863          	blez	a2,800048fc <bench_dinic_run+0x198>
800048d0:	02042683          	lw	a3,32(s0)
800048d4:	00080713          	mv	a4,a6
800048d8:	00000793          	li	a5,0
800048dc:	00072603          	lw	a2,0(a4)
800048e0:	00178793          	addi	a5,a5,1
800048e4:	00470713          	addi	a4,a4,4
800048e8:	00c6a023          	sw	a2,0(a3)
800048ec:	00042603          	lw	a2,0(s0)
800048f0:	00468693          	addi	a3,a3,4
800048f4:	fec7c4e3          	blt	a5,a2,800048dc <bench_dinic_run+0x178>
800048f8:	00c42303          	lw	t1,12(s0)
800048fc:	01c12783          	lw	a5,28(sp)
80004900:	38678263          	beq	a5,t1,80004c84 <bench_dinic_run+0x520>
80004904:	02042783          	lw	a5,32(s0)
80004908:	04812703          	lw	a4,72(sp)
8000490c:	00f12823          	sw	a5,16(sp)
80004910:	00e787b3          	add	a5,a5,a4
80004914:	0007a983          	lw	s3,0(a5)
80004918:	31298863          	beq	s3,s2,80004c28 <bench_dinic_run+0x4c4>
8000491c:	003f47b7          	lui	a5,0x3f4
80004920:	00ea0e33          	add	t3,s4,a4
80004924:	00012623          	sw	zero,12(sp)
80004928:	f3f78f93          	addi	t6,a5,-193 # 3f3f3f <_entry_offset+0x3f3f3f>
8000492c:	0180006f          	j	80004944 <bench_dinic_run+0x1e0>
80004930:	01842783          	lw	a5,24(s0)
80004934:	00299993          	slli	s3,s3,0x2
80004938:	013787b3          	add	a5,a5,s3
8000493c:	0007a983          	lw	s3,0(a5)
80004940:	2f298e63          	beq	s3,s2,80004c3c <bench_dinic_run+0x4d8>
80004944:	01042b03          	lw	s6,16(s0)
80004948:	00499493          	slli	s1,s3,0x4
8000494c:	000e2703          	lw	a4,0(t3)
80004950:	009b04b3          	add	s1,s6,s1
80004954:	0044a583          	lw	a1,4(s1)
80004958:	00170713          	addi	a4,a4,1
8000495c:	00259613          	slli	a2,a1,0x2
80004960:	00ca0db3          	add	s11,s4,a2
80004964:	000da783          	lw	a5,0(s11)
80004968:	fcf714e3          	bne	a4,a5,80004930 <bench_dinic_run+0x1cc>
8000496c:	0084a683          	lw	a3,8(s1)
80004970:	00c4a703          	lw	a4,12(s1)
80004974:	40e686b3          	sub	a3,a3,a4
80004978:	00dfd463          	bge	t6,a3,80004980 <bench_dinic_run+0x21c>
8000497c:	000f8693          	mv	a3,t6
80004980:	2a658863          	beq	a1,t1,80004c30 <bench_dinic_run+0x4cc>
80004984:	fa0686e3          	beqz	a3,80004930 <bench_dinic_run+0x1cc>
80004988:	01012703          	lw	a4,16(sp)
8000498c:	00c70633          	add	a2,a4,a2
80004990:	00062a83          	lw	s5,0(a2)
80004994:	f92a8ee3          	beq	s5,s2,80004930 <bench_dinic_run+0x1cc>
80004998:	00000e93          	li	t4,0
8000499c:	01c0006f          	j	800049b8 <bench_dinic_run+0x254>
800049a0:	01842783          	lw	a5,24(s0)
800049a4:	002a9a93          	slli	s5,s5,0x2
800049a8:	015787b3          	add	a5,a5,s5
800049ac:	0007aa83          	lw	s5,0(a5)
800049b0:	292a8263          	beq	s5,s2,80004c34 <bench_dinic_run+0x4d0>
800049b4:	000da783          	lw	a5,0(s11)
800049b8:	004a9c13          	slli	s8,s5,0x4
800049bc:	018b0c33          	add	s8,s6,s8
800049c0:	004c2583          	lw	a1,4(s8)
800049c4:	00178793          	addi	a5,a5,1
800049c8:	00259613          	slli	a2,a1,0x2
800049cc:	00ca0733          	add	a4,s4,a2
800049d0:	00072503          	lw	a0,0(a4)
800049d4:	fca796e3          	bne	a5,a0,800049a0 <bench_dinic_run+0x23c>
800049d8:	008c2883          	lw	a7,8(s8)
800049dc:	00cc2783          	lw	a5,12(s8)
800049e0:	40f888b3          	sub	a7,a7,a5
800049e4:	0116d463          	bge	a3,a7,800049ec <bench_dinic_run+0x288>
800049e8:	00068893          	mv	a7,a3
800049ec:	26658e63          	beq	a1,t1,80004c68 <bench_dinic_run+0x504>
800049f0:	fa0888e3          	beqz	a7,800049a0 <bench_dinic_run+0x23c>
800049f4:	01012783          	lw	a5,16(sp)
800049f8:	00c78633          	add	a2,a5,a2
800049fc:	00062b83          	lw	s7,0(a2)
80004a00:	fb2b80e3          	beq	s7,s2,800049a0 <bench_dinic_run+0x23c>
80004a04:	00000293          	li	t0,0
80004a08:	01c0006f          	j	80004a24 <bench_dinic_run+0x2c0>
80004a0c:	01842783          	lw	a5,24(s0)
80004a10:	002b9b93          	slli	s7,s7,0x2
80004a14:	017787b3          	add	a5,a5,s7
80004a18:	0007ab83          	lw	s7,0(a5)
80004a1c:	252b8863          	beq	s7,s2,80004c6c <bench_dinic_run+0x508>
80004a20:	00072503          	lw	a0,0(a4)
80004a24:	004b9d13          	slli	s10,s7,0x4
80004a28:	01ab0d33          	add	s10,s6,s10
80004a2c:	004d2583          	lw	a1,4(s10)
80004a30:	00150513          	addi	a0,a0,1
80004a34:	00259793          	slli	a5,a1,0x2
80004a38:	00fa0833          	add	a6,s4,a5
80004a3c:	00082603          	lw	a2,0(a6)
80004a40:	fcc516e3          	bne	a0,a2,80004a0c <bench_dinic_run+0x2a8>
80004a44:	008d2f03          	lw	t5,8(s10)
80004a48:	00cd2503          	lw	a0,12(s10)
80004a4c:	40af0f33          	sub	t5,t5,a0
80004a50:	01e8d463          	bge	a7,t5,80004a58 <bench_dinic_run+0x2f4>
80004a54:	00088f13          	mv	t5,a7
80004a58:	20658e63          	beq	a1,t1,80004c74 <bench_dinic_run+0x510>
80004a5c:	fa0f08e3          	beqz	t5,80004a0c <bench_dinic_run+0x2a8>
80004a60:	01012583          	lw	a1,16(sp)
80004a64:	00f587b3          	add	a5,a1,a5
80004a68:	0007ac83          	lw	s9,0(a5)
80004a6c:	fb2c80e3          	beq	s9,s2,80004a0c <bench_dinic_run+0x2a8>
80004a70:	00012c23          	sw	zero,24(sp)
80004a74:	01c0006f          	j	80004a90 <bench_dinic_run+0x32c>
80004a78:	01842783          	lw	a5,24(s0)
80004a7c:	002c9c93          	slli	s9,s9,0x2
80004a80:	019787b3          	add	a5,a5,s9
80004a84:	0007ac83          	lw	s9,0(a5)
80004a88:	1f2c8863          	beq	s9,s2,80004c78 <bench_dinic_run+0x514>
80004a8c:	00082603          	lw	a2,0(a6)
80004a90:	004c9793          	slli	a5,s9,0x4
80004a94:	00fb07b3          	add	a5,s6,a5
80004a98:	0047a583          	lw	a1,4(a5)
80004a9c:	00160613          	addi	a2,a2,1
80004aa0:	00259513          	slli	a0,a1,0x2
80004aa4:	00aa0533          	add	a0,s4,a0
80004aa8:	00052503          	lw	a0,0(a0)
80004aac:	fca616e3          	bne	a2,a0,80004a78 <bench_dinic_run+0x314>
80004ab0:	0087a603          	lw	a2,8(a5)
80004ab4:	00c7a083          	lw	ra,12(a5)
80004ab8:	00040513          	mv	a0,s0
80004abc:	40160633          	sub	a2,a2,ra
80004ac0:	00cf5463          	bge	t5,a2,80004ac8 <bench_dinic_run+0x364>
80004ac4:	000f0613          	mv	a2,t5
80004ac8:	05c12223          	sw	t3,68(sp)
80004acc:	04612023          	sw	t1,64(sp)
80004ad0:	02512e23          	sw	t0,60(sp)
80004ad4:	03112c23          	sw	a7,56(sp)
80004ad8:	03012a23          	sw	a6,52(sp)
80004adc:	03d12823          	sw	t4,48(sp)
80004ae0:	02d12623          	sw	a3,44(sp)
80004ae4:	02e12423          	sw	a4,40(sp)
80004ae8:	03e12223          	sw	t5,36(sp)
80004aec:	03f12023          	sw	t6,32(sp)
80004af0:	04f12623          	sw	a5,76(sp)
80004af4:	fc5fe0ef          	jal	ra,80003ab8 <_ZN5Dinic3DFSEii>
80004af8:	001cc613          	xori	a2,s9,1
80004afc:	00461613          	slli	a2,a2,0x4
80004b00:	02012f83          	lw	t6,32(sp)
80004b04:	02412f03          	lw	t5,36(sp)
80004b08:	02812703          	lw	a4,40(sp)
80004b0c:	02c12683          	lw	a3,44(sp)
80004b10:	03012e83          	lw	t4,48(sp)
80004b14:	03412803          	lw	a6,52(sp)
80004b18:	03812883          	lw	a7,56(sp)
80004b1c:	03c12283          	lw	t0,60(sp)
80004b20:	04012303          	lw	t1,64(sp)
80004b24:	04412e03          	lw	t3,68(sp)
80004b28:	00cb0633          	add	a2,s6,a2
80004b2c:	00100393          	li	t2,1
80004b30:	f4a054e3          	blez	a0,80004a78 <bench_dinic_run+0x314>
80004b34:	04c12783          	lw	a5,76(sp)
80004b38:	40af0f33          	sub	t5,t5,a0
80004b3c:	00c7a583          	lw	a1,12(a5)
80004b40:	02b12023          	sw	a1,32(sp)
80004b44:	01812583          	lw	a1,24(sp)
80004b48:	00a585b3          	add	a1,a1,a0
80004b4c:	00b12c23          	sw	a1,24(sp)
80004b50:	02012583          	lw	a1,32(sp)
80004b54:	00a585b3          	add	a1,a1,a0
80004b58:	00b7a623          	sw	a1,12(a5)
80004b5c:	00c62783          	lw	a5,12(a2)
80004b60:	40a787b3          	sub	a5,a5,a0
80004b64:	00f62623          	sw	a5,12(a2)
80004b68:	f00f18e3          	bnez	t5,80004a78 <bench_dinic_run+0x314>
80004b6c:	01812583          	lw	a1,24(sp)
80004b70:	00cd2603          	lw	a2,12(s10)
80004b74:	001bc793          	xori	a5,s7,1
80004b78:	00479793          	slli	a5,a5,0x4
80004b7c:	00b60633          	add	a2,a2,a1
80004b80:	00cd2623          	sw	a2,12(s10)
80004b84:	00fb07b3          	add	a5,s6,a5
80004b88:	00c7a603          	lw	a2,12(a5)
80004b8c:	40b888b3          	sub	a7,a7,a1
80004b90:	00b282b3          	add	t0,t0,a1
80004b94:	40b60633          	sub	a2,a2,a1
80004b98:	00c7a623          	sw	a2,12(a5)
80004b9c:	e60898e3          	bnez	a7,80004a0c <bench_dinic_run+0x2a8>
80004ba0:	00cc2703          	lw	a4,12(s8)
80004ba4:	001ac793          	xori	a5,s5,1
80004ba8:	00479793          	slli	a5,a5,0x4
80004bac:	00570733          	add	a4,a4,t0
80004bb0:	00ec2623          	sw	a4,12(s8)
80004bb4:	00fb07b3          	add	a5,s6,a5
80004bb8:	00c7a703          	lw	a4,12(a5)
80004bbc:	405686b3          	sub	a3,a3,t0
80004bc0:	005e8eb3          	add	t4,t4,t0
80004bc4:	40570733          	sub	a4,a4,t0
80004bc8:	00e7a623          	sw	a4,12(a5)
80004bcc:	dc069ae3          	bnez	a3,800049a0 <bench_dinic_run+0x23c>
80004bd0:	00c4a703          	lw	a4,12(s1)
80004bd4:	0019c793          	xori	a5,s3,1
80004bd8:	00479793          	slli	a5,a5,0x4
80004bdc:	01d70733          	add	a4,a4,t4
80004be0:	00e4a623          	sw	a4,12(s1)
80004be4:	00fb0b33          	add	s6,s6,a5
80004be8:	00cb2783          	lw	a5,12(s6)
80004bec:	00c12703          	lw	a4,12(sp)
80004bf0:	41df8fb3          	sub	t6,t6,t4
80004bf4:	41d787b3          	sub	a5,a5,t4
80004bf8:	01d70733          	add	a4,a4,t4
80004bfc:	00e12623          	sw	a4,12(sp)
80004c00:	00fb2623          	sw	a5,12(s6)
80004c04:	d20f96e3          	bnez	t6,80004930 <bench_dinic_run+0x1cc>
80004c08:	01412783          	lw	a5,20(sp)
80004c0c:	02442883          	lw	a7,36(s0)
80004c10:	01c42a03          	lw	s4,28(s0)
80004c14:	02842503          	lw	a0,40(s0)
80004c18:	01442803          	lw	a6,20(s0)
80004c1c:	00042603          	lw	a2,0(s0)
80004c20:	00e787b3          	add	a5,a5,a4
80004c24:	00f12a23          	sw	a5,20(sp)
80004c28:	00842683          	lw	a3,8(s0)
80004c2c:	bbdff06f          	j	800047e8 <bench_dinic_run+0x84>
80004c30:	00068e93          	mv	t4,a3
80004c34:	f9d04ee3          	bgtz	t4,80004bd0 <bench_dinic_run+0x46c>
80004c38:	cf9ff06f          	j	80004930 <bench_dinic_run+0x1cc>
80004c3c:	01412783          	lw	a5,20(sp)
80004c40:	00c12703          	lw	a4,12(sp)
80004c44:	02442883          	lw	a7,36(s0)
80004c48:	01c42a03          	lw	s4,28(s0)
80004c4c:	00e787b3          	add	a5,a5,a4
80004c50:	02842503          	lw	a0,40(s0)
80004c54:	01442803          	lw	a6,20(s0)
80004c58:	00042603          	lw	a2,0(s0)
80004c5c:	00842683          	lw	a3,8(s0)
80004c60:	00f12a23          	sw	a5,20(sp)
80004c64:	b85ff06f          	j	800047e8 <bench_dinic_run+0x84>
80004c68:	00088293          	mv	t0,a7
80004c6c:	f2504ae3          	bgtz	t0,80004ba0 <bench_dinic_run+0x43c>
80004c70:	d31ff06f          	j	800049a0 <bench_dinic_run+0x23c>
80004c74:	01e12c23          	sw	t5,24(sp)
80004c78:	01812783          	lw	a5,24(sp)
80004c7c:	eef048e3          	bgtz	a5,80004b6c <bench_dinic_run+0x408>
80004c80:	d8dff06f          	j	80004a0c <bench_dinic_run+0x2a8>
80004c84:	01412703          	lw	a4,20(sp)
80004c88:	003f47b7          	lui	a5,0x3f4
80004c8c:	f3f78793          	addi	a5,a5,-193 # 3f3f3f <_entry_offset+0x3f3f3f>
80004c90:	00f707b3          	add	a5,a4,a5
80004c94:	00842683          	lw	a3,8(s0)
80004c98:	00f12a23          	sw	a5,20(sp)
80004c9c:	b4dff06f          	j	800047e8 <bench_dinic_run+0x84>
80004ca0:	01412703          	lw	a4,20(sp)
80004ca4:	08c12083          	lw	ra,140(sp)
80004ca8:	08812403          	lw	s0,136(sp)
80004cac:	800067b7          	lui	a5,0x80006
80004cb0:	70e7a823          	sw	a4,1808(a5) # 80006710 <_end+0xffff7710>
80004cb4:	08412483          	lw	s1,132(sp)
80004cb8:	08012903          	lw	s2,128(sp)
80004cbc:	07c12983          	lw	s3,124(sp)
80004cc0:	07812a03          	lw	s4,120(sp)
80004cc4:	07412a83          	lw	s5,116(sp)
80004cc8:	07012b03          	lw	s6,112(sp)
80004ccc:	06c12b83          	lw	s7,108(sp)
80004cd0:	06812c03          	lw	s8,104(sp)
80004cd4:	06412c83          	lw	s9,100(sp)
80004cd8:	06012d03          	lw	s10,96(sp)
80004cdc:	05c12d83          	lw	s11,92(sp)
80004ce0:	09010113          	addi	sp,sp,144
80004ce4:	00008067          	ret

80004ce8 <bench_dinic_validate>:
80004ce8:	800067b7          	lui	a5,0x80006
80004cec:	6887a703          	lw	a4,1672(a5) # 80006688 <_end+0xffff7688>
80004cf0:	800067b7          	lui	a5,0x80006
80004cf4:	7107a783          	lw	a5,1808(a5) # 80006710 <_end+0xffff7710>
80004cf8:	00c72503          	lw	a0,12(a4)
80004cfc:	40f50533          	sub	a0,a0,a5
80004d00:	00153513          	seqz	a0,a0
80004d04:	00008067          	ret

80004d08 <putch>:
80004d08:	a00007b7          	lui	a5,0xa0000
80004d0c:	3ea78c23          	sb	a0,1016(a5) # a00003f8 <_end+0x1fff13f8>
80004d10:	00008067          	ret

80004d14 <halt>:
80004d14:	00050513          	mv	a0,a0
80004d18:	00100073          	ebreak
80004d1c:	0000006f          	j	80004d1c <halt+0x8>

80004d20 <_trm_init>:
80004d20:	80006537          	lui	a0,0x80006
80004d24:	ff010113          	addi	sp,sp,-16
80004d28:	00050513          	mv	a0,a0
80004d2c:	00112623          	sw	ra,12(sp)
80004d30:	dfcfb0ef          	jal	ra,8000032c <main>
80004d34:	00050513          	mv	a0,a0
80004d38:	00100073          	ebreak
80004d3c:	0000006f          	j	80004d3c <_trm_init+0x1c>

80004d40 <__am_timer_config>:
80004d40:	00100793          	li	a5,1
80004d44:	00f50023          	sb	a5,0(a0) # 80006000 <_end+0xffff7000>
80004d48:	00f500a3          	sb	a5,1(a0)
80004d4c:	00008067          	ret

80004d50 <__am_input_config>:
80004d50:	00100793          	li	a5,1
80004d54:	00f50023          	sb	a5,0(a0)
80004d58:	00008067          	ret

80004d5c <__am_uart_config>:
80004d5c:	00050023          	sb	zero,0(a0)
80004d60:	00008067          	ret

80004d64 <__am_net_config>:
80004d64:	00050023          	sb	zero,0(a0)
80004d68:	00008067          	ret

80004d6c <fail>:
80004d6c:	ff010113          	addi	sp,sp,-16
80004d70:	00812423          	sw	s0,8(sp)
80004d74:	80006437          	lui	s0,0x80006
80004d78:	00112623          	sw	ra,12(sp)
80004d7c:	f7840413          	addi	s0,s0,-136 # 80005f78 <_end+0xffff6f78>
80004d80:	04100513          	li	a0,65
80004d84:	00140413          	addi	s0,s0,1
80004d88:	f81ff0ef          	jal	ra,80004d08 <putch>
80004d8c:	00044503          	lbu	a0,0(s0)
80004d90:	fe051ae3          	bnez	a0,80004d84 <fail+0x18>
80004d94:	80006437          	lui	s0,0x80006
80004d98:	f8440413          	addi	s0,s0,-124 # 80005f84 <_end+0xffff6f84>
80004d9c:	06100513          	li	a0,97
80004da0:	00140413          	addi	s0,s0,1
80004da4:	f65ff0ef          	jal	ra,80004d08 <putch>
80004da8:	00044503          	lbu	a0,0(s0)
80004dac:	fe051ae3          	bnez	a0,80004da0 <fail+0x34>
80004db0:	80006437          	lui	s0,0x80006
80004db4:	fa040413          	addi	s0,s0,-96 # 80005fa0 <_end+0xffff6fa0>
80004db8:	02000513          	li	a0,32
80004dbc:	00140413          	addi	s0,s0,1
80004dc0:	f49ff0ef          	jal	ra,80004d08 <putch>
80004dc4:	00044503          	lbu	a0,0(s0)
80004dc8:	fe051ae3          	bnez	a0,80004dbc <fail+0x50>
80004dcc:	00100513          	li	a0,1
80004dd0:	f45ff0ef          	jal	ra,80004d14 <halt>

80004dd4 <ioe_init>:
80004dd4:	800067b7          	lui	a5,0x80006
80004dd8:	ff010113          	addi	sp,sp,-16
80004ddc:	45878793          	addi	a5,a5,1112 # 80006458 <_end+0xffff7458>
80004de0:	80005637          	lui	a2,0x80005
80004de4:	00112623          	sw	ra,12(sp)
80004de8:	20078693          	addi	a3,a5,512
80004dec:	d6c60613          	addi	a2,a2,-660 # 80004d6c <_end+0xffff5d6c>
80004df0:	00c0006f          	j	80004dfc <ioe_init+0x28>
80004df4:	00478793          	addi	a5,a5,4
80004df8:	00d78c63          	beq	a5,a3,80004e10 <ioe_init+0x3c>
80004dfc:	0007a703          	lw	a4,0(a5)
80004e00:	fe071ae3          	bnez	a4,80004df4 <ioe_init+0x20>
80004e04:	00c7a023          	sw	a2,0(a5)
80004e08:	00478793          	addi	a5,a5,4
80004e0c:	fed798e3          	bne	a5,a3,80004dfc <ioe_init+0x28>
80004e10:	08c000ef          	jal	ra,80004e9c <__am_gpu_init>
80004e14:	034000ef          	jal	ra,80004e48 <__am_timer_init>
80004e18:	0c4000ef          	jal	ra,80004edc <__am_audio_init>
80004e1c:	00c12083          	lw	ra,12(sp)
80004e20:	00100513          	li	a0,1
80004e24:	01010113          	addi	sp,sp,16
80004e28:	00008067          	ret

80004e2c <ioe_read>:
80004e2c:	800067b7          	lui	a5,0x80006
80004e30:	00251513          	slli	a0,a0,0x2
80004e34:	45878793          	addi	a5,a5,1112 # 80006458 <_end+0xffff7458>
80004e38:	00a787b3          	add	a5,a5,a0
80004e3c:	0007a783          	lw	a5,0(a5)
80004e40:	00058513          	mv	a0,a1
80004e44:	00078067          	jr	a5

80004e48 <__am_timer_init>:
80004e48:	a00007b7          	lui	a5,0xa0000
80004e4c:	0407a423          	sw	zero,72(a5) # a0000048 <_end+0x1fff1048>
80004e50:	0407a623          	sw	zero,76(a5)
80004e54:	00008067          	ret

80004e58 <__am_timer_uptime>:
80004e58:	a00007b7          	lui	a5,0xa0000
80004e5c:	04c7a703          	lw	a4,76(a5) # a000004c <_end+0x1fff104c>
80004e60:	0487a783          	lw	a5,72(a5)
80004e64:	00e52223          	sw	a4,4(a0)
80004e68:	00f52023          	sw	a5,0(a0)
80004e6c:	00008067          	ret

80004e70 <__am_timer_rtc>:
80004e70:	76c00793          	li	a5,1900
80004e74:	00052a23          	sw	zero,20(a0)
80004e78:	00052823          	sw	zero,16(a0)
80004e7c:	00052623          	sw	zero,12(a0)
80004e80:	00052423          	sw	zero,8(a0)
80004e84:	00052223          	sw	zero,4(a0)
80004e88:	00f52023          	sw	a5,0(a0)
80004e8c:	00008067          	ret

80004e90 <__am_input_keybrd>:
80004e90:	00050023          	sb	zero,0(a0)
80004e94:	00052223          	sw	zero,4(a0)
80004e98:	00008067          	ret

80004e9c <__am_gpu_init>:
80004e9c:	00008067          	ret

80004ea0 <__am_gpu_config>:
80004ea0:	00100793          	li	a5,1
80004ea4:	00f51023          	sh	a5,0(a0)
80004ea8:	00052223          	sw	zero,4(a0)
80004eac:	00052423          	sw	zero,8(a0)
80004eb0:	00052623          	sw	zero,12(a0)
80004eb4:	00008067          	ret

80004eb8 <__am_gpu_fbdraw>:
80004eb8:	01454783          	lbu	a5,20(a0)
80004ebc:	00078863          	beqz	a5,80004ecc <__am_gpu_fbdraw+0x14>
80004ec0:	a00007b7          	lui	a5,0xa0000
80004ec4:	00100713          	li	a4,1
80004ec8:	10e7a223          	sw	a4,260(a5) # a0000104 <_end+0x1fff1104>
80004ecc:	00008067          	ret

80004ed0 <__am_gpu_status>:
80004ed0:	00100793          	li	a5,1
80004ed4:	00f50023          	sb	a5,0(a0)
80004ed8:	00008067          	ret

80004edc <__am_audio_init>:
80004edc:	00008067          	ret

80004ee0 <__am_audio_config>:
80004ee0:	00050023          	sb	zero,0(a0)
80004ee4:	00008067          	ret

80004ee8 <__am_audio_ctrl>:
80004ee8:	00008067          	ret

80004eec <__am_audio_status>:
80004eec:	00052023          	sw	zero,0(a0)
80004ef0:	00008067          	ret

80004ef4 <__am_audio_play>:
80004ef4:	00008067          	ret

80004ef8 <__am_disk_config>:
80004ef8:	00050023          	sb	zero,0(a0)
80004efc:	00008067          	ret

80004f00 <__am_disk_status>:
80004f00:	00008067          	ret

80004f04 <__am_disk_blkio>:
80004f04:	00008067          	ret

80004f08 <vsprintf>:
80004f08:	fc010113          	addi	sp,sp,-64
80004f0c:	01812c23          	sw	s8,24(sp)
80004f10:	02112e23          	sw	ra,60(sp)
80004f14:	02812c23          	sw	s0,56(sp)
80004f18:	02912a23          	sw	s1,52(sp)
80004f1c:	03212823          	sw	s2,48(sp)
80004f20:	03312623          	sw	s3,44(sp)
80004f24:	03412423          	sw	s4,40(sp)
80004f28:	03512223          	sw	s5,36(sp)
80004f2c:	03612023          	sw	s6,32(sp)
80004f30:	01712e23          	sw	s7,28(sp)
80004f34:	01912a23          	sw	s9,20(sp)
80004f38:	01a12823          	sw	s10,16(sp)
80004f3c:	01b12623          	sw	s11,12(sp)
80004f40:	0005c783          	lbu	a5,0(a1)
80004f44:	00050c13          	mv	s8,a0
80004f48:	18078263          	beqz	a5,800050cc <vsprintf+0x1c4>
80004f4c:	00058413          	mv	s0,a1
80004f50:	00050493          	mv	s1,a0
80004f54:	02500a93          	li	s5,37
80004f58:	06400b93          	li	s7,100
80004f5c:	00a00b13          	li	s6,10
80004f60:	00100913          	li	s2,1
80004f64:	03000993          	li	s3,48
80004f68:	07300d13          	li	s10,115
80004f6c:	06300c93          	li	s9,99
80004f70:	00140713          	addi	a4,s0,1
80004f74:	07579c63          	bne	a5,s5,80004fec <vsprintf+0xe4>
80004f78:	00144783          	lbu	a5,1(s0)
80004f7c:	0d778463          	beq	a5,s7,80005044 <vsprintf+0x13c>
80004f80:	08fbe263          	bltu	s7,a5,80005004 <vsprintf+0xfc>
80004f84:	07578463          	beq	a5,s5,80004fec <vsprintf+0xe4>
80004f88:	07979863          	bne	a5,s9,80004ff8 <vsprintf+0xf0>
80004f8c:	00062783          	lw	a5,0(a2)
80004f90:	00148493          	addi	s1,s1,1
80004f94:	00460613          	addi	a2,a2,4
80004f98:	fef48fa3          	sb	a5,-1(s1)
80004f9c:	00244783          	lbu	a5,2(s0)
80004fa0:	00240413          	addi	s0,s0,2
80004fa4:	fc0796e3          	bnez	a5,80004f70 <vsprintf+0x68>
80004fa8:	41848533          	sub	a0,s1,s8
80004fac:	00048023          	sb	zero,0(s1)
80004fb0:	03c12083          	lw	ra,60(sp)
80004fb4:	03812403          	lw	s0,56(sp)
80004fb8:	03412483          	lw	s1,52(sp)
80004fbc:	03012903          	lw	s2,48(sp)
80004fc0:	02c12983          	lw	s3,44(sp)
80004fc4:	02812a03          	lw	s4,40(sp)
80004fc8:	02412a83          	lw	s5,36(sp)
80004fcc:	02012b03          	lw	s6,32(sp)
80004fd0:	01c12b83          	lw	s7,28(sp)
80004fd4:	01812c03          	lw	s8,24(sp)
80004fd8:	01412c83          	lw	s9,20(sp)
80004fdc:	01012d03          	lw	s10,16(sp)
80004fe0:	00c12d83          	lw	s11,12(sp)
80004fe4:	04010113          	addi	sp,sp,64
80004fe8:	00008067          	ret
80004fec:	00f48023          	sb	a5,0(s1)
80004ff0:	00144783          	lbu	a5,1(s0)
80004ff4:	00148493          	addi	s1,s1,1
80004ff8:	00070413          	mv	s0,a4
80004ffc:	f6079ae3          	bnez	a5,80004f70 <vsprintf+0x68>
80005000:	fa9ff06f          	j	80004fa8 <vsprintf+0xa0>
80005004:	03a79c63          	bne	a5,s10,8000503c <vsprintf+0x134>
80005008:	00062d83          	lw	s11,0(a2)
8000500c:	00048513          	mv	a0,s1
80005010:	00460a13          	addi	s4,a2,4
80005014:	000d8593          	mv	a1,s11
80005018:	1cc000ef          	jal	ra,800051e4 <strcpy>
8000501c:	000d8513          	mv	a0,s11
80005020:	190000ef          	jal	ra,800051b0 <strlen>
80005024:	00244783          	lbu	a5,2(s0)
80005028:	00a484b3          	add	s1,s1,a0
8000502c:	000a0613          	mv	a2,s4
80005030:	00240413          	addi	s0,s0,2
80005034:	f2079ee3          	bnez	a5,80004f70 <vsprintf+0x68>
80005038:	f71ff06f          	j	80004fa8 <vsprintf+0xa0>
8000503c:	00070413          	mv	s0,a4
80005040:	f31ff06f          	j	80004f70 <vsprintf+0x68>
80005044:	00062683          	lw	a3,0(a2)
80005048:	00460613          	addi	a2,a2,4
8000504c:	06068863          	beqz	a3,800050bc <vsprintf+0x1b4>
80005050:	41f6d793          	srai	a5,a3,0x1f
80005054:	00d7c6b3          	xor	a3,a5,a3
80005058:	40f686b3          	sub	a3,a3,a5
8000505c:	00048593          	mv	a1,s1
80005060:	40990833          	sub	a6,s2,s1
80005064:	0366e733          	rem	a4,a3,s6
80005068:	00058793          	mv	a5,a1
8000506c:	01058533          	add	a0,a1,a6
80005070:	00158593          	addi	a1,a1,1
80005074:	0366c6b3          	div	a3,a3,s6
80005078:	03070713          	addi	a4,a4,48
8000507c:	0ff77713          	zext.b	a4,a4
80005080:	fee58fa3          	sb	a4,-1(a1)
80005084:	fe0690e3          	bnez	a3,80005064 <vsprintf+0x15c>
80005088:	02f4f463          	bgeu	s1,a5,800050b0 <vsprintf+0x1a8>
8000508c:	00048693          	mv	a3,s1
80005090:	0080006f          	j	80005098 <vsprintf+0x190>
80005094:	0007c703          	lbu	a4,0(a5)
80005098:	0006c583          	lbu	a1,0(a3)
8000509c:	fff78793          	addi	a5,a5,-1
800050a0:	00168693          	addi	a3,a3,1
800050a4:	fee68fa3          	sb	a4,-1(a3)
800050a8:	00b780a3          	sb	a1,1(a5)
800050ac:	fef6e4e3          	bltu	a3,a5,80005094 <vsprintf+0x18c>
800050b0:	00a484b3          	add	s1,s1,a0
800050b4:	00048023          	sb	zero,0(s1)
800050b8:	ee5ff06f          	j	80004f9c <vsprintf+0x94>
800050bc:	01348023          	sb	s3,0(s1)
800050c0:	000480a3          	sb	zero,1(s1)
800050c4:	00148493          	addi	s1,s1,1
800050c8:	ed5ff06f          	j	80004f9c <vsprintf+0x94>
800050cc:	00050493          	mv	s1,a0
800050d0:	00000513          	li	a0,0
800050d4:	ed9ff06f          	j	80004fac <vsprintf+0xa4>

800050d8 <printf>:
800050d8:	bc010113          	addi	sp,sp,-1088
800050dc:	40812c23          	sw	s0,1048(sp)
800050e0:	40912a23          	sw	s1,1044(sp)
800050e4:	00050413          	mv	s0,a0
800050e8:	42b12223          	sw	a1,1060(sp)
800050ec:	42c12423          	sw	a2,1064(sp)
800050f0:	42410493          	addi	s1,sp,1060
800050f4:	3fc00613          	li	a2,1020
800050f8:	00000593          	li	a1,0
800050fc:	01410513          	addi	a0,sp,20
80005100:	40112e23          	sw	ra,1052(sp)
80005104:	41212823          	sw	s2,1040(sp)
80005108:	42d12623          	sw	a3,1068(sp)
8000510c:	42e12823          	sw	a4,1072(sp)
80005110:	42f12a23          	sw	a5,1076(sp)
80005114:	43012c23          	sw	a6,1080(sp)
80005118:	43112e23          	sw	a7,1084(sp)
8000511c:	00912623          	sw	s1,12(sp)
80005120:	00012823          	sw	zero,16(sp)
80005124:	1a8000ef          	jal	ra,800052cc <memset>
80005128:	00048613          	mv	a2,s1
8000512c:	00040593          	mv	a1,s0
80005130:	01010513          	addi	a0,sp,16
80005134:	dd5ff0ef          	jal	ra,80004f08 <vsprintf>
80005138:	00050913          	mv	s2,a0
8000513c:	00a05e63          	blez	a0,80005158 <printf+0x80>
80005140:	01010413          	addi	s0,sp,16
80005144:	00a404b3          	add	s1,s0,a0
80005148:	00044503          	lbu	a0,0(s0)
8000514c:	00140413          	addi	s0,s0,1
80005150:	bb9ff0ef          	jal	ra,80004d08 <putch>
80005154:	fe941ae3          	bne	s0,s1,80005148 <printf+0x70>
80005158:	41c12083          	lw	ra,1052(sp)
8000515c:	41812403          	lw	s0,1048(sp)
80005160:	41412483          	lw	s1,1044(sp)
80005164:	00090513          	mv	a0,s2
80005168:	41012903          	lw	s2,1040(sp)
8000516c:	44010113          	addi	sp,sp,1088
80005170:	00008067          	ret

80005174 <sprintf>:
80005174:	fc010113          	addi	sp,sp,-64
80005178:	02810313          	addi	t1,sp,40
8000517c:	02c12423          	sw	a2,40(sp)
80005180:	00030613          	mv	a2,t1
80005184:	00112e23          	sw	ra,28(sp)
80005188:	02d12623          	sw	a3,44(sp)
8000518c:	02e12823          	sw	a4,48(sp)
80005190:	02f12a23          	sw	a5,52(sp)
80005194:	03012c23          	sw	a6,56(sp)
80005198:	03112e23          	sw	a7,60(sp)
8000519c:	00612623          	sw	t1,12(sp)
800051a0:	d69ff0ef          	jal	ra,80004f08 <vsprintf>
800051a4:	01c12083          	lw	ra,28(sp)
800051a8:	04010113          	addi	sp,sp,64
800051ac:	00008067          	ret

800051b0 <strlen>:
800051b0:	00050713          	mv	a4,a0
800051b4:	02050263          	beqz	a0,800051d8 <strlen+0x28>
800051b8:	00054783          	lbu	a5,0(a0)
800051bc:	00000513          	li	a0,0
800051c0:	02078063          	beqz	a5,800051e0 <strlen+0x30>
800051c4:	00150513          	addi	a0,a0,1
800051c8:	00a707b3          	add	a5,a4,a0
800051cc:	0007c783          	lbu	a5,0(a5)
800051d0:	fe079ae3          	bnez	a5,800051c4 <strlen+0x14>
800051d4:	00008067          	ret
800051d8:	00000513          	li	a0,0
800051dc:	00008067          	ret
800051e0:	00008067          	ret

800051e4 <strcpy>:
800051e4:	04058c63          	beqz	a1,8000523c <strcpy+0x58>
800051e8:	0005c683          	lbu	a3,0(a1)
800051ec:	04068263          	beqz	a3,80005230 <strcpy+0x4c>
800051f0:	00000793          	li	a5,0
800051f4:	00178793          	addi	a5,a5,1
800051f8:	00f58733          	add	a4,a1,a5
800051fc:	00074703          	lbu	a4,0(a4)
80005200:	fe071ae3          	bnez	a4,800051f4 <strcpy+0x10>
80005204:	00050713          	mv	a4,a0
80005208:	00158593          	addi	a1,a1,1
8000520c:	00a787b3          	add	a5,a5,a0
80005210:	00c0006f          	j	8000521c <strcpy+0x38>
80005214:	0005c683          	lbu	a3,0(a1)
80005218:	00158593          	addi	a1,a1,1
8000521c:	00d70023          	sb	a3,0(a4)
80005220:	00170713          	addi	a4,a4,1
80005224:	fee798e3          	bne	a5,a4,80005214 <strcpy+0x30>
80005228:	00078023          	sb	zero,0(a5)
8000522c:	00008067          	ret
80005230:	00050793          	mv	a5,a0
80005234:	00078023          	sb	zero,0(a5)
80005238:	00008067          	ret
8000523c:	00000513          	li	a0,0
80005240:	00008067          	ret

80005244 <strcmp>:
80005244:	06050a63          	beqz	a0,800052b8 <strcmp+0x74>
80005248:	06058863          	beqz	a1,800052b8 <strcmp+0x74>
8000524c:	00054603          	lbu	a2,0(a0)
80005250:	0005c683          	lbu	a3,0(a1)
80005254:	00000793          	li	a5,0
80005258:	04060e63          	beqz	a2,800052b4 <strcmp+0x70>
8000525c:	00178793          	addi	a5,a5,1
80005260:	00f50733          	add	a4,a0,a5
80005264:	00074703          	lbu	a4,0(a4)
80005268:	fe071ae3          	bnez	a4,8000525c <strcmp+0x18>
8000526c:	04068c63          	beqz	a3,800052c4 <strcmp+0x80>
80005270:	00000713          	li	a4,0
80005274:	00170713          	addi	a4,a4,1
80005278:	00e586b3          	add	a3,a1,a4
8000527c:	0006c683          	lbu	a3,0(a3)
80005280:	fe069ae3          	bnez	a3,80005274 <strcmp+0x30>
80005284:	02e79e63          	bne	a5,a4,800052c0 <strcmp+0x7c>
80005288:	00150713          	addi	a4,a0,1
8000528c:	00061a63          	bnez	a2,800052a0 <strcmp+0x5c>
80005290:	0280006f          	j	800052b8 <strcmp+0x74>
80005294:	00074603          	lbu	a2,0(a4)
80005298:	00170713          	addi	a4,a4,1
8000529c:	00060e63          	beqz	a2,800052b8 <strcmp+0x74>
800052a0:	0005c783          	lbu	a5,0(a1)
800052a4:	00158593          	addi	a1,a1,1
800052a8:	fec786e3          	beq	a5,a2,80005294 <strcmp+0x50>
800052ac:	40f60533          	sub	a0,a2,a5
800052b0:	00008067          	ret
800052b4:	fa069ee3          	bnez	a3,80005270 <strcmp+0x2c>
800052b8:	00000513          	li	a0,0
800052bc:	00008067          	ret
800052c0:	40e787b3          	sub	a5,a5,a4
800052c4:	00078513          	mv	a0,a5
800052c8:	00008067          	ret

800052cc <memset>:
800052cc:	0ff5f593          	zext.b	a1,a1
800052d0:	00c50733          	add	a4,a0,a2
800052d4:	00050793          	mv	a5,a0
800052d8:	00060863          	beqz	a2,800052e8 <memset+0x1c>
800052dc:	00b78023          	sb	a1,0(a5)
800052e0:	00178793          	addi	a5,a5,1
800052e4:	fee79ce3          	bne	a5,a4,800052dc <memset+0x10>
800052e8:	00008067          	ret

800052ec <__udivmoddi4>:
800052ec:	fe010113          	addi	sp,sp,-32
800052f0:	01212823          	sw	s2,16(sp)
800052f4:	01412423          	sw	s4,8(sp)
800052f8:	01512223          	sw	s5,4(sp)
800052fc:	01612023          	sw	s6,0(sp)
80005300:	00112e23          	sw	ra,28(sp)
80005304:	00812c23          	sw	s0,24(sp)
80005308:	00912a23          	sw	s1,20(sp)
8000530c:	01312623          	sw	s3,12(sp)
80005310:	00068a93          	mv	s5,a3
80005314:	00050913          	mv	s2,a0
80005318:	00060b13          	mv	s6,a2
8000531c:	00070a13          	mv	s4,a4
80005320:	04059463          	bnez	a1,80005368 <__udivmoddi4+0x7c>
80005324:	18069863          	bnez	a3,800054b4 <__udivmoddi4+0x1c8>
80005328:	00070863          	beqz	a4,80005338 <__udivmoddi4+0x4c>
8000532c:	02c577b3          	remu	a5,a0,a2
80005330:	00072223          	sw	zero,4(a4)
80005334:	00f72023          	sw	a5,0(a4)
80005338:	03695533          	divu	a0,s2,s6
8000533c:	00000593          	li	a1,0
80005340:	01c12083          	lw	ra,28(sp)
80005344:	01812403          	lw	s0,24(sp)
80005348:	01412483          	lw	s1,20(sp)
8000534c:	01012903          	lw	s2,16(sp)
80005350:	00c12983          	lw	s3,12(sp)
80005354:	00812a03          	lw	s4,8(sp)
80005358:	00412a83          	lw	s5,4(sp)
8000535c:	00012b03          	lw	s6,0(sp)
80005360:	02010113          	addi	sp,sp,32
80005364:	00008067          	ret
80005368:	00058993          	mv	s3,a1
8000536c:	00058413          	mv	s0,a1
80005370:	0e061863          	bnez	a2,80005460 <__udivmoddi4+0x174>
80005374:	1a068263          	beqz	a3,80005518 <__udivmoddi4+0x22c>
80005378:	20050463          	beqz	a0,80005580 <__udivmoddi4+0x294>
8000537c:	fff68793          	addi	a5,a3,-1
80005380:	00d7f733          	and	a4,a5,a3
80005384:	22070c63          	beqz	a4,800055bc <__udivmoddi4+0x2d0>
80005388:	00068513          	mv	a0,a3
8000538c:	28c000ef          	jal	ra,80005618 <__clzsi2>
80005390:	00050493          	mv	s1,a0
80005394:	00098513          	mv	a0,s3
80005398:	280000ef          	jal	ra,80005618 <__clzsi2>
8000539c:	40a48733          	sub	a4,s1,a0
800053a0:	01e00793          	li	a5,30
800053a4:	16e7ec63          	bltu	a5,a4,8000551c <__udivmoddi4+0x230>
800053a8:	00170713          	addi	a4,a4,1
800053ac:	02000e93          	li	t4,32
800053b0:	40ee8eb3          	sub	t4,t4,a4
800053b4:	01d99633          	sll	a2,s3,t4
800053b8:	00e956b3          	srl	a3,s2,a4
800053bc:	00e9d7b3          	srl	a5,s3,a4
800053c0:	01d91eb3          	sll	t4,s2,t4
800053c4:	00d66433          	or	s0,a2,a3
800053c8:	00000493          	li	s1,0
800053cc:	00000313          	li	t1,0
800053d0:	01fed693          	srli	a3,t4,0x1f
800053d4:	00141813          	slli	a6,s0,0x1
800053d8:	00d86833          	or	a6,a6,a3
800053dc:	01f45413          	srli	s0,s0,0x1f
800053e0:	00179793          	slli	a5,a5,0x1
800053e4:	0087e7b3          	or	a5,a5,s0
800053e8:	410b0e33          	sub	t3,s6,a6
800053ec:	01cb36b3          	sltu	a3,s6,t3
800053f0:	40fa88b3          	sub	a7,s5,a5
800053f4:	40d888b3          	sub	a7,a7,a3
800053f8:	001e3e13          	seqz	t3,t3
800053fc:	41c888b3          	sub	a7,a7,t3
80005400:	41f8de13          	srai	t3,a7,0x1f
80005404:	016e7433          	and	s0,t3,s6
80005408:	40880433          	sub	s0,a6,s0
8000540c:	015e7e33          	and	t3,t3,s5
80005410:	01f4d693          	srli	a3,s1,0x1f
80005414:	001e9e93          	slli	t4,t4,0x1
80005418:	00149493          	slli	s1,s1,0x1
8000541c:	00883833          	sltu	a6,a6,s0
80005420:	41c787b3          	sub	a5,a5,t3
80005424:	fff70713          	addi	a4,a4,-1
80005428:	0064e4b3          	or	s1,s1,t1
8000542c:	00deeeb3          	or	t4,t4,a3
80005430:	01f8d313          	srli	t1,a7,0x1f
80005434:	410787b3          	sub	a5,a5,a6
80005438:	f8071ce3          	bnez	a4,800053d0 <__udivmoddi4+0xe4>
8000543c:	01f4d993          	srli	s3,s1,0x1f
80005440:	001e9e93          	slli	t4,t4,0x1
80005444:	00149493          	slli	s1,s1,0x1
80005448:	0064e533          	or	a0,s1,t1
8000544c:	01d9e5b3          	or	a1,s3,t4
80005450:	ee0a08e3          	beqz	s4,80005340 <__udivmoddi4+0x54>
80005454:	008a2023          	sw	s0,0(s4)
80005458:	00fa2223          	sw	a5,4(s4)
8000545c:	ee5ff06f          	j	80005340 <__udivmoddi4+0x54>
80005460:	06068663          	beqz	a3,800054cc <__udivmoddi4+0x1e0>
80005464:	00068513          	mv	a0,a3
80005468:	1b0000ef          	jal	ra,80005618 <__clzsi2>
8000546c:	00050493          	mv	s1,a0
80005470:	00098513          	mv	a0,s3
80005474:	1a4000ef          	jal	ra,80005618 <__clzsi2>
80005478:	40a48733          	sub	a4,s1,a0
8000547c:	01f00793          	li	a5,31
80005480:	08e7ee63          	bltu	a5,a4,8000551c <__udivmoddi4+0x230>
80005484:	00170713          	addi	a4,a4,1
80005488:	02000793          	li	a5,32
8000548c:	00090e93          	mv	t4,s2
80005490:	14f70863          	beq	a4,a5,800055e0 <__udivmoddi4+0x2f4>
80005494:	40e786b3          	sub	a3,a5,a4
80005498:	00e95633          	srl	a2,s2,a4
8000549c:	00d995b3          	sll	a1,s3,a3
800054a0:	00e9d7b3          	srl	a5,s3,a4
800054a4:	00d91eb3          	sll	t4,s2,a3
800054a8:	00c5e433          	or	s0,a1,a2
800054ac:	00000493          	li	s1,0
800054b0:	f1dff06f          	j	800053cc <__udivmoddi4+0xe0>
800054b4:	06070663          	beqz	a4,80005520 <__udivmoddi4+0x234>
800054b8:	00aa2023          	sw	a0,0(s4)
800054bc:	00072223          	sw	zero,4(a4)
800054c0:	00000513          	li	a0,0
800054c4:	00000593          	li	a1,0
800054c8:	e79ff06f          	j	80005340 <__udivmoddi4+0x54>
800054cc:	fff60793          	addi	a5,a2,-1
800054d0:	00c7f733          	and	a4,a5,a2
800054d4:	04071c63          	bnez	a4,8000552c <__udivmoddi4+0x240>
800054d8:	000a0863          	beqz	s4,800054e8 <__udivmoddi4+0x1fc>
800054dc:	00a7f7b3          	and	a5,a5,a0
800054e0:	00fa2023          	sw	a5,0(s4)
800054e4:	000a2223          	sw	zero,4(s4)
800054e8:	00100793          	li	a5,1
800054ec:	0cfb0263          	beq	s6,a5,800055b0 <__udivmoddi4+0x2c4>
800054f0:	000b0513          	mv	a0,s6
800054f4:	1bc000ef          	jal	ra,800056b0 <__ctzsi2>
800054f8:	02000713          	li	a4,32
800054fc:	40a70733          	sub	a4,a4,a0
80005500:	00050793          	mv	a5,a0
80005504:	00e99733          	sll	a4,s3,a4
80005508:	00a95933          	srl	s2,s2,a0
8000550c:	01276533          	or	a0,a4,s2
80005510:	00f9d5b3          	srl	a1,s3,a5
80005514:	e2dff06f          	j	80005340 <__udivmoddi4+0x54>
80005518:	00100073          	ebreak
8000551c:	080a1063          	bnez	s4,8000559c <__udivmoddi4+0x2b0>
80005520:	00000513          	li	a0,0
80005524:	00000593          	li	a1,0
80005528:	e19ff06f          	j	80005340 <__udivmoddi4+0x54>
8000552c:	00060513          	mv	a0,a2
80005530:	00068493          	mv	s1,a3
80005534:	0e4000ef          	jal	ra,80005618 <__clzsi2>
80005538:	00050993          	mv	s3,a0
8000553c:	00040513          	mv	a0,s0
80005540:	0d8000ef          	jal	ra,80005618 <__clzsi2>
80005544:	40a98533          	sub	a0,s3,a0
80005548:	02150713          	addi	a4,a0,33
8000554c:	02000693          	li	a3,32
80005550:	00090e93          	mv	t4,s2
80005554:	00000793          	li	a5,0
80005558:	e6d70ae3          	beq	a4,a3,800053cc <__udivmoddi4+0xe0>
8000555c:	01f00613          	li	a2,31
80005560:	08e66663          	bltu	a2,a4,800055ec <__udivmoddi4+0x300>
80005564:	40e686b3          	sub	a3,a3,a4
80005568:	00e95633          	srl	a2,s2,a4
8000556c:	00d415b3          	sll	a1,s0,a3
80005570:	00e457b3          	srl	a5,s0,a4
80005574:	00d91eb3          	sll	t4,s2,a3
80005578:	00c5e433          	or	s0,a1,a2
8000557c:	e51ff06f          	j	800053cc <__udivmoddi4+0xe0>
80005580:	00070863          	beqz	a4,80005590 <__udivmoddi4+0x2a4>
80005584:	02d5f7b3          	remu	a5,a1,a3
80005588:	00072023          	sw	zero,0(a4)
8000558c:	00f72223          	sw	a5,4(a4)
80005590:	0359d533          	divu	a0,s3,s5
80005594:	00000593          	li	a1,0
80005598:	da9ff06f          	j	80005340 <__udivmoddi4+0x54>
8000559c:	012a2023          	sw	s2,0(s4)
800055a0:	013a2223          	sw	s3,4(s4)
800055a4:	00000513          	li	a0,0
800055a8:	00000593          	li	a1,0
800055ac:	d95ff06f          	j	80005340 <__udivmoddi4+0x54>
800055b0:	00090513          	mv	a0,s2
800055b4:	00098593          	mv	a1,s3
800055b8:	d89ff06f          	j	80005340 <__udivmoddi4+0x54>
800055bc:	000a0863          	beqz	s4,800055cc <__udivmoddi4+0x2e0>
800055c0:	00b7f7b3          	and	a5,a5,a1
800055c4:	00aa2023          	sw	a0,0(s4)
800055c8:	00fa2223          	sw	a5,4(s4)
800055cc:	000a8513          	mv	a0,s5
800055d0:	0e0000ef          	jal	ra,800056b0 <__ctzsi2>
800055d4:	00a9d533          	srl	a0,s3,a0
800055d8:	00000593          	li	a1,0
800055dc:	d65ff06f          	j	80005340 <__udivmoddi4+0x54>
800055e0:	00000793          	li	a5,0
800055e4:	00000493          	li	s1,0
800055e8:	de5ff06f          	j	800053cc <__udivmoddi4+0xe0>
800055ec:	04000693          	li	a3,64
800055f0:	40e686b3          	sub	a3,a3,a4
800055f4:	00150513          	addi	a0,a0,1
800055f8:	00d914b3          	sll	s1,s2,a3
800055fc:	00a95eb3          	srl	t4,s2,a0
80005600:	00d416b3          	sll	a3,s0,a3
80005604:	01d6eeb3          	or	t4,a3,t4
80005608:	00a45433          	srl	s0,s0,a0
8000560c:	dc1ff06f          	j	800053cc <__udivmoddi4+0xe0>

80005610 <__udivdi3>:
80005610:	00000713          	li	a4,0
80005614:	cd9ff06f          	j	800052ec <__udivmoddi4>

80005618 <__clzsi2>:
80005618:	ffff05b7          	lui	a1,0xffff0
8000561c:	00b575b3          	and	a1,a0,a1
80005620:	0015b593          	seqz	a1,a1
80005624:	00459593          	slli	a1,a1,0x4
80005628:	01000793          	li	a5,16
8000562c:	40b787b3          	sub	a5,a5,a1
80005630:	00010737          	lui	a4,0x10
80005634:	00f557b3          	srl	a5,a0,a5
80005638:	f0070713          	addi	a4,a4,-256 # ff00 <_entry_offset+0xff00>
8000563c:	00e7f733          	and	a4,a5,a4
80005640:	00173713          	seqz	a4,a4
80005644:	00371713          	slli	a4,a4,0x3
80005648:	00800693          	li	a3,8
8000564c:	40e686b3          	sub	a3,a3,a4
80005650:	00d7d7b3          	srl	a5,a5,a3
80005654:	0f07f613          	andi	a2,a5,240
80005658:	00163613          	seqz	a2,a2
8000565c:	00261613          	slli	a2,a2,0x2
80005660:	00400693          	li	a3,4
80005664:	40c686b3          	sub	a3,a3,a2
80005668:	00d7d7b3          	srl	a5,a5,a3
8000566c:	00c7f693          	andi	a3,a5,12
80005670:	0016b693          	seqz	a3,a3
80005674:	00169693          	slli	a3,a3,0x1
80005678:	00200813          	li	a6,2
8000567c:	40d80533          	sub	a0,a6,a3
80005680:	00a7d7b3          	srl	a5,a5,a0
80005684:	0017d513          	srli	a0,a5,0x1
80005688:	00154513          	xori	a0,a0,1
8000568c:	00b70733          	add	a4,a4,a1
80005690:	00157513          	andi	a0,a0,1
80005694:	00e60633          	add	a2,a2,a4
80005698:	40f80833          	sub	a6,a6,a5
8000569c:	40a00733          	neg	a4,a0
800056a0:	01077733          	and	a4,a4,a6
800056a4:	00c68533          	add	a0,a3,a2
800056a8:	00a70533          	add	a0,a4,a0
800056ac:	00008067          	ret

800056b0 <__ctzsi2>:
800056b0:	01051593          	slli	a1,a0,0x10
800056b4:	0105d593          	srli	a1,a1,0x10
800056b8:	0015b593          	seqz	a1,a1
800056bc:	00459593          	slli	a1,a1,0x4
800056c0:	00b557b3          	srl	a5,a0,a1
800056c4:	0ff7f613          	zext.b	a2,a5
800056c8:	00163613          	seqz	a2,a2
800056cc:	00361613          	slli	a2,a2,0x3
800056d0:	00c7d7b3          	srl	a5,a5,a2
800056d4:	00f7f693          	andi	a3,a5,15
800056d8:	0016b693          	seqz	a3,a3
800056dc:	00269693          	slli	a3,a3,0x2
800056e0:	00d7d7b3          	srl	a5,a5,a3
800056e4:	0037f713          	andi	a4,a5,3
800056e8:	00173713          	seqz	a4,a4
800056ec:	00171713          	slli	a4,a4,0x1
800056f0:	00e7d7b3          	srl	a5,a5,a4
800056f4:	0017d513          	srli	a0,a5,0x1
800056f8:	00b60633          	add	a2,a2,a1
800056fc:	0017f793          	andi	a5,a5,1
80005700:	00157593          	andi	a1,a0,1
80005704:	00200513          	li	a0,2
80005708:	00c686b3          	add	a3,a3,a2
8000570c:	40b50533          	sub	a0,a0,a1
80005710:	fff78793          	addi	a5,a5,-1
80005714:	00f57533          	and	a0,a0,a5
80005718:	00d70733          	add	a4,a4,a3
8000571c:	00e50533          	add	a0,a0,a4
80005720:	00008067          	ret
