[1;34m[src/utils/log.c:29 init_log] Log is written to /home/alan/Project/ysyx/ysyx-workbench/am-kernels/tests/am-tests/build/nemu-log.txt[0m
[1;34m[src/utils/log.c:39 init_ftrace_log] Log is written to /home/alan/Project/ysyx/ysyx-workbench/am-kernels/tests/am-tests/build/ftrace-log.txt[0m
[1;34m[src/memory/paddr.c:58 init_mem] physical memory area [0x80000000, 0x87ffffff][0m
[1;34m[src/device/io/mmio.c:50 add_mmio_map] Add mmio map 'serial' at [0xa00003f8, 0xa00003ff][0m
[1;34m[src/device/io/mmio.c:50 add_mmio_map] Add mmio map 'rtc' at [0xa0000048, 0xa000004f][0m
[1;34m[src/device/io/mmio.c:50 add_mmio_map] Add mmio map 'vgactl' at [0xa0000100, 0xa0000107][0m
[1;34m[src/device/io/mmio.c:50 add_mmio_map] Add mmio map 'vmem' at [0xa1000000, 0xa10752ff][0m
[1;34m[src/device/io/mmio.c:50 add_mmio_map] Add mmio map 'keyboard' at [0xa0000060, 0xa0000063][0m
[1;34m[src/device/io/mmio.c:50 add_mmio_map] Add mmio map 'audio' at [0xa0000200, 0xa0000217][0m
[1;34m[src/device/io/mmio.c:50 add_mmio_map] Add mmio map 'audio-sbuf' at [0xa1200000, 0xa120ffff][0m
[1;34m[src/monitor/monitor.c:70 load_img] The image is /home/alan/Project/ysyx/ysyx-workbench/am-kernels/tests/am-tests/build/amtest-riscv32-nemu.bin, size = 609852[0m
[1;34m[src/cpu/difftest/dut.c:84 init_difftest] Differential testing: [1;32mON[0m[0m
[1;34m[src/cpu/difftest/dut.c:85 init_difftest] The result of every instruction will be compared with /home/alan/Project/ysyx/ysyx-workbench/nemu/tools/spike-diff/build/riscv32-spike-so. This will help you a lot for debugging, but also significantly reduce the performance. If it is not necessary, you can turn it off in menuconfig.[0m
[1;34m[src/monitor/monitor.c:30 welcome] Trace: [1;32mON[0m[0m
[1;34m[src/monitor/monitor.c:33 welcome] If trace is enabled, a log file will be generated to record the trace. This may lead to a large log file. If it is not necessary, you can disable it in menuconfig[0m
[1;34m[src/monitor/monitor.c:36 welcome] Build time: 21:26:47, Nov 21 2023[0m
è¯»å–åœ°å€ 0x80000000
0x80000000: 00 00 04 13 addi	s0, zero, 0
è¯»å–åœ°å€ 0x80000004
0x80000004: 00 09 d1 17 auipc	sp, 157
è¯»å–åœ°å€ 0x80000008
0x80000008: ff c1 01 13 addi	sp, sp, -4
è¯»å–åœ°å€ 0x8000000c
0x8000000c: 79 d0 00 ef jal	ra, 0x80000fa8
è¯»å–åœ°å€ 0x80000fa8
0x80000fa8: 80 00 35 37 lui	a0, 524291
è¯»å–åœ°å€ 0x80000fac
0x80000fac: ff 01 01 13 addi	sp, sp, -16
è¯»å–åœ°å€ 0x80000fb0
0x80000fb0: bc 85 05 13 addi	a0, a0, -1080
è¯»å–åœ°å€ 0x80000fb4
å†™å…¥åœ°å€ 0x8009cffc
0x80000fb4: 00 11 26 23 sw	ra, 12(sp)
è¯»å–åœ°å€ 0x80000fb8
0x80000fb8: e1 1f f0 ef jal	ra, 0x80000dc8
è¯»å–åœ°å€ 0x80000dc8
0x80000dc8: fe 01 01 13 addi	sp, sp, -32
è¯»å–åœ°å€ 0x80000dcc
å†™å…¥åœ°å€ 0x8009cfec
0x80000dcc: 00 11 2e 23 sw	ra, 28(sp)
è¯»å–åœ°å€ 0x80000dd0
å†™å…¥åœ°å€ 0x8009cfe8
0x80000dd0: 00 81 2c 23 sw	s0, 24(sp)
è¯»å–åœ°å€ 0x80000dd4
å†™å…¥åœ°å€ 0x8009cfe4
0x80000dd4: 00 91 2a 23 sw	s1, 20(sp)
è¯»å–åœ°å€ 0x80000dd8
å†™å…¥åœ°å€ 0x8009cfe0
0x80000dd8: 01 21 28 23 sw	s2, 16(sp)
è¯»å–åœ°å€ 0x80000ddc
å†™å…¥åœ°å€ 0x8009cfdc
0x80000ddc: 01 31 26 23 sw	s3, 12(sp)
è¯»å–åœ°å€ 0x80000de0
è¯»å–åœ°å€ 0x80002bc8
0x80000de0: 00 05 47 83 lbu	a5, 0(a0)
è¯»å–åœ°å€ 0x80000de4
0x80000de4: 01 50 07 13 addi	a4, zero, 21
è¯»å–åœ°å€ 0x80000de8
0x80000de8: f9 f7 87 93 addi	a5, a5, -97
è¯»å–åœ°å€ 0x80000dec
0x80000dec: 0f f7 f7 93 andi	a5, a5, 255
è¯»å–åœ°å€ 0x80000df0
0x80000df0: 00 f7 6e 63 bltu	a4, a5, 0x80000e0c
è¯»å–åœ°å€ 0x80000df4
0x80000df4: 80 00 27 37 lui	a4, 524290
è¯»å–åœ°å€ 0x80000df8
0x80000df8: 00 27 97 93 slli	a5, a5, 2
è¯»å–åœ°å€ 0x80000dfc
0x80000dfc: 4c 07 07 13 addi	a4, a4, 1216
è¯»å–åœ°å€ 0x80000e00
0x80000e00: 00 e7 87 b3 add	a5, a5, a4
è¯»å–åœ°å€ 0x80000e04
è¯»å–åœ°å€ 0x800024e8
0x80000e04: 00 07 a7 83 lw	a5, 0(a5)
è¯»å–åœ°å€ 0x80000e08
0x80000e08: 00 07 80 67 jalr	zero, 0(a5)
è¯»å–åœ°å€ 0x80000ee4
0x80000ee4: 80 00 17 b7 lui	a5, 524289
è¯»å–åœ°å€ 0x80000ee8
0x80000ee8: 80 09 57 37 lui	a4, 524437
è¯»å–åœ°å€ 0x80000eec
0x80000eec: cd 47 87 93 addi	a5, a5, -812
è¯»å–åœ°å€ 0x80000ef0
å†™å…¥åœ°å€ 0x80094e2c
0x80000ef0: e2 f7 26 23 sw	a5, -468(a4)
è¯»å–åœ°å€ 0x80000ef4
0x80000ef4: 16 80 00 ef jal	ra, 0x8000105c
è¯»å–åœ°å€ 0x8000105c
0x8000105c: 80 01 17 b7 lui	a5, 524305
è¯»å–åœ°å€ 0x80001060
0x80001060: ff 01 01 13 addi	sp, sp, -16
è¯»å–åœ°å€ 0x80001064
0x80001064: 9f 87 87 93 addi	a5, a5, -1544
è¯»å–åœ°å€ 0x80001068
0x80001068: 80 00 16 37 lui	a2, 524289
è¯»å–åœ°å€ 0x8000106c
å†™å…¥åœ°å€ 0x8009cfcc
0x8000106c: 00 11 26 23 sw	ra, 12(sp)
è¯»å–åœ°å€ 0x80001070
0x80001070: 20 07 86 93 addi	a3, a5, 512
è¯»å–åœ°å€ 0x80001074
0x80001074: ff 46 06 13 addi	a2, a2, -12
è¯»å–åœ°å€ 0x80001078
0x80001078: 00 c0 00 6f jal	zero, 0x80001084
è¯»å–åœ°å€ 0x80001084
è¯»å–åœ°å€ 0x800109f8
0x80001084: 00 07 a7 03 lw	a4, 0(a5)
è¯»å–åœ°å€ 0x80001088
0x80001088: fe 07 1a e3 bne	a4, zero, 0x8000107c
è¯»å–åœ°å€ 0x8000108c
å†™å…¥åœ°å€ 0x800109f8
0x8000108c: 00 c7 a0 23 sw	a2, 0(a5)
è¯»å–åœ°å€ 0x80001090
0x80001090: 00 47 87 93 addi	a5, a5, 4
è¯»å–åœ°å€ 0x80001094
0x80001094: fe d7 98 e3 bne	a5, a3, 0x80001084
è¯»å–åœ°å€ 0x80001084
è¯»å–åœ°å€ 0x800109fc
0x80001084: 00 07 a7 03 lw	a4, 0(a5)
è¯»å–åœ°å€ 0x80001088
0x80001088: fe 07 1a e3 bne	a4, zero, 0x8000107c
è¯»å–åœ°å€ 0x8000107c
0x8000107c: 00 47 87 93 addi	a5, a5, 4
è¯»å–åœ°å€ 0x80001080
0x80001080: 00 d7 8c 63 beq	a5, a3, 0x80001098
è¯»å–åœ°å€ 0x80001084
è¯»å–åœ°å€ 0x80010a00
0x80001084: 00 07 a7 03 lw	a4, 0(a5)
è¯»å–åœ°å€ 0x80001088
0x80001088: fe 07 1a e3 bne	a4, zero, 0x8000107c
è¯»å–åœ°å€ 0x8000108c
å†™å…¥åœ°å€ 0x80010a00
0x8000108c: 00 c7 a0 23 sw	a2, 0(a5)
è¯»å–åœ°å€ 0x80001090
0x80001090: 00 47 87 93 addi	a5, a5, 4
è¯»å–åœ°å€ 0x80001094
0x80001094: fe d7 98 e3 bne	a5, a3, 0x80001084
è¯»å–åœ°å€ 0x80001084
è¯»å–åœ°å€ 0x80010a04
0x80001084: 00 07 a7 03 lw	a4, 0(a5)
è¯»å–åœ°å€ 0x80001088
0x80001088: fe 07 1a e3 bne	a4, zero, 0x8000107c
è¯»å–åœ°å€ 0x8000108c
å†™å…¥åœ°å€ 0x80010a04
0x8000108c: 00 c7 a0 23 sw	a2, 0(a5)
è¯»å–åœ°å€ 0x80001090
0x80001090: 00 47 87 93 addi	a5, a5, 4
è¯»å–åœ°å€ 0x80001094
0x80001094: fe d7 98 e3 bne	a5, a3, 0x80001084
è¯»å–åœ°å€ 0x80001084
è¯»å–åœ°å€ 0x80010a08
0x80001084: 00 07 a7 03 lw	a4, 0(a5)
è¯»å–åœ°å€ 0x80001088
0x80001088: fe 07 1a e3 bne	a4, zero, 0x8000107c
è¯»å–åœ°å€ 0x8000107c
0x8000107c: 00 47 87 93 addi	a5, a5, 4
è¯»å–åœ°å€ 0x80001080
0x80001080: 00 d7 8c 63 beq	a5, a3, 0x80001098
è¯»å–åœ°å€ 0x80001084
è¯»å–åœ°å€ 0x80010a0c
0x80001084: 00 07 a7 03 lw	a4, 0(a5)
è¯»å–åœ°å€ 0x80001088
0x80001088: fe 07 1a e3 bne	a4, zero, 0x8000107c
è¯»å–åœ°å€ 0x8000107c
0x8000107c: 00 47 87 93 addi	a5, a5, 4
è¯»å–åœ°å€ 0x80001080
0x80001080: 00 d7 8c 63 beq	a5, a3, 0x80001098
è¯»å–åœ°å€ 0x80001084
è¯»å–åœ°å€ 0x80010a10
0x80001084: 00 07 a7 03 lw	a4, 0(a5)
è¯»å–åœ°å€ 0x80001088
0x80001088: fe 07 1a e3 bne	a4, zero, 0x8000107c
è¯»å–åœ°å€ 0x8000107c
0x8000107c: 00 47 87 93 addi	a5, a5, 4
è¯»å–åœ°å€ 0x80001080
0x80001080: 00 d7 8c 63 beq	a5, a3, 0x80001098
è¯»å–åœ°å€ 0x80001084
è¯»å–åœ°å€ 0x80010a14
0x80001084: 00 07 a7 03 lw	a4, 0(a5)
è¯»å–åœ°å€ 0x80001088
0x80001088: fe 07 1a e3 bne	a4, zero, 0x8000107c
è¯»å–åœ°å€ 0x8000107c
0x8000107c: 00 47 87 93 addi	a5, a5, 4
è¯»å–åœ°å€ 0x80001080
0x80001080: 00 d7 8c 63 beq	a5, a3, 0x80001098
è¯»å–åœ°å€ 0x80001084
è¯»å–åœ°å€ 0x80010a18
0x80001084: 00 07 a7 03 lw	a4, 0(a5)
è¯»å–åœ°å€ 0x80001088
0x80001088: fe 07 1a e3 bne	a4, zero, 0x8000107c
è¯»å–åœ°å€ 0x8000107c
0x8000107c: 00 47 87 93 addi	a5, a5, 4
è¯»å–åœ°å€ 0x80001080
0x80001080: 00 d7 8c 63 beq	a5, a3, 0x80001098
è¯»å–åœ°å€ 0x80001084
è¯»å–åœ°å€ 0x80010a1c
0x80001084: 00 07 a7 03 lw	a4, 0(a5)
è¯»å–åœ°å€ 0x80001088
0x80001088: fe 07 1a e3 bne	a4, zero, 0x8000107c
è¯»å–åœ°å€ 0x8000107c
0x8000107c: 00 47 87 93 addi	a5, a5, 4
è¯»å–åœ°å€ 0x80001080
0x80001080: 00 d7 8c 63 beq	a5, a3, 0x80001098
è¯»å–åœ°å€ 0x80001084
è¯»å–åœ°å€ 0x80010a20
0x80001084: 00 07 a7 03 lw	a4, 0(a5)
è¯»å–åœ°å€ 0x80001088
0x80001088: fe 07 1a e3 bne	a4, zero, 0x8000107c
è¯»å–åœ°å€ 0x8000107c
0x8000107c: 00 47 87 93 addi	a5, a5, 4
è¯»å–åœ°å€ 0x80001080
0x80001080: 00 d7 8c 63 beq	a5, a3, 0x80001098
è¯»å–åœ°å€ 0x80001084
è¯»å–åœ°å€ 0x80010a24
0x80001084: 00 07 a7 03 lw	a4, 0(a5)
è¯»å–åœ°å€ 0x80001088
0x80001088: fe 07 1a e3 bne	a4, zero, 0x8000107c
è¯»å–åœ°å€ 0x8000107c
0x8000107c: 00 47 87 93 addi	a5, a5, 4
è¯»å–åœ°å€ 0x80001080
0x80001080: 00 d7 8c 63 beq	a5, a3, 0x80001098
è¯»å–åœ°å€ 0x80001084
è¯»å–åœ°å€ 0x80010a28
0x80001084: 00 07 a7 03 lw	a4, 0(a5)
è¯»å–åœ°å€ 0x80001088
0x80001088: fe 07 1a e3 bne	a4, zero, 0x8000107c
è¯»å–åœ°å€ 0x8000108c
å†™å…¥åœ°å€ 0x80010a28
0x8000108c: 00 c7 a0 23 sw	a2, 0(a5)
è¯»å–åœ°å€ 0x80001090
0x80001090: 00 47 87 93 addi	a5, a5, 4
è¯»å–åœ°å€ 0x80001094
0x80001094: fe d7 98 e3 bne	a5, a3, 0x80001084
è¯»å–åœ°å€ 0x80001084
è¯»å–åœ°å€ 0x80010a2c
0x80001084: 00 07 a7 03 lw	a4, 0(a5)
è¯»å–åœ°å€ 0x80001088
0x80001088: fe 07 1a e3 bne	a4, zero, 0x8000107c
è¯»å–åœ°å€ 0x8000108c
å†™å…¥åœ°å€ 0x80010a2c
0x8000108c: 00 c7 a0 23 sw	a2, 0(a5)
è¯»å–åœ°å€ 0x80001090
0x80001090: 00 47 87 93 addi	a5, a5, 4
è¯»å–åœ°å€ 0x80001094
0x80001094: fe d7 98 e3 bne	a5, a3, 0x80001084
è¯»å–åœ°å€ 0x80001084
è¯»å–åœ°å€ 0x80010a30
0x80001084: 00 07 a7 03 lw	a4, 0(a5)
è¯»å–åœ°å€ 0x80001088
0x80001088: fe 07 1a e3 bne	a4, zero, 0x8000107c
è¯»å–åœ°å€ 0x8000107c
0x8000107c: 00 47 87 93 addi	a5, a5, 4
è¯»å–åœ°å€ 0x80001080
0x80001080: 00 d7 8c 63 beq	a5, a3, 0x80001098
è¯»å–åœ°å€ 0x80001084
è¯»å–åœ°å€ 0x80010a34
0x80001084: 00 07 a7 03 lw	a4, 0(a5)
è¯»å–åœ°å€ 0x80001088
0x80001088: fe 07 1a e3 bne	a4, zero, 0x8000107c
è¯»å–åœ°å€ 0x8000107c
0x8000107c: 00 47 87 93 addi	a5, a5, 4
è¯»å–åœ°å€ 0x80001080
0x80001080: 00 d7 8c 63 beq	a5, a3, 0x80001098
è¯»å–åœ°å€ 0x80001084
è¯»å–åœ°å€ 0x80010a38
0x80001084: 00 07 a7 03 lw	a4, 0(a5)
è¯»å–åœ°å€ 0x80001088
0x80001088: fe 07 1a e3 bne	a4, zero, 0x8000107c
è¯»å–åœ°å€ 0x8000107c
0x8000107c: 00 47 87 93 addi	a5, a5, 4
è¯»å–åœ°å€ 0x80001080
0x80001080: 00 d7 8c 63 beq	a5, a3, 0x80001098
è¯»å–åœ°å€ 0x80001084
è¯»å–åœ°å€ 0x80010a3c
0x80001084: 00 07 a7 03 lw	a4, 0(a5)
è¯»å–åœ°å€ 0x80001088
0x80001088: fe 07 1a e3 bne	a4, zero, 0x8000107c
è¯»å–åœ°å€ 0x8000107c
0x8000107c: 00 47 87 93 addi	a5, a5, 4
è¯»å–åœ°å€ 0x80001080
0x80001080: 00 d7 8c 63 beq	a5, a3, 0x80001098
è¯»å–åœ°å€ 0x80001084
è¯»å–åœ°å€ 0x80010a40
0x80001084: 00 07 a7 03 lw	a4, 0(a5)
è¯»å–åœ°å€ 0x80001088
0x80001088: fe 07 1a e3 bne	a4, zero, 0x8000107c
è¯»å–åœ°å€ 0x8000107c
0x8000107c: 00 47 87 93 addi	a5, a5, 4
è¯»å–åœ°å€ 0x80001080
0x80001080: 00 d7 8c 63 beq	a5, a3, 0x80001098
è¯»å–åœ°å€ 0x80001084
è¯»å–åœ°å€ 0x80010a44
0x80001084: 00 07 a7 03 lw	a4, 0(a5)
è¯»å–åœ°å€ 0x80001088
0x80001088: fe 07 1a e3 bne	a4, zero, 0x8000107c
è¯»å–åœ°å€ 0x8000107c
0x8000107c: 00 47 87 93 addi	a5, a5, 4
è¯»å–åœ°å€ 0x80001080
0x80001080: 00 d7 8c 63 beq	a5, a3, 0x80001098
è¯»å–åœ°å€ 0x80001084
è¯»å–åœ°å€ 0x80010a48
0x80001084: 00 07 a7 03 lw	a4, 0(a5)
è¯»å–åœ°å€ 0x80001088
0x80001088: fe 07 1a e3 bne	a4, zero, 0x8000107c
è¯»å–åœ°å€ 0x8000107c
0x8000107c: 00 47 87 93 addi	a5, a5, 4
è¯»å–åœ°å€ 0x80001080
0x80001080: 00 d7 8c 63 beq	a5, a3, 0x80001098
è¯»å–åœ°å€ 0x80001084
è¯»å–åœ°å€ 0x80010a4c
0x80001084: 00 07 a7 03 lw	a4, 0(a5)
è¯»å–åœ°å€ 0x80001088
0x80001088: fe 07 1a e3 bne	a4, zero, 0x8000107c
è¯»å–åœ°å€ 0x8000107c
0x8000107c: 00 47 87 93 addi	a5, a5, 4
è¯»å–åœ°å€ 0x80001080
0x80001080: 00 d7 8c 63 beq	a5, a3, 0x80001098
è¯»å–åœ°å€ 0x80001084
è¯»å–åœ°å€ 0x80010a50
0x80001084: 00 07 a7 03 lw	a4, 0(a5)
è¯»å–åœ°å€ 0x80001088
0x80001088: fe 07 1a e3 bne	a4, zero, 0x8000107c
è¯»å–åœ°å€ 0x8000108c
å†™å…¥åœ°å€ 0x80010a50
0x8000108c: 00 c7 a0 23 sw	a2, 0(a5)
è¯»å–åœ°å€ 0x80001090
0x80001090: 00 47 87 93 addi	a5, a5, 4
è¯»å–åœ°å€ 0x80001094
0x80001094: fe d7 98 e3 bne	a5, a3, 0x80001084
è¯»å–åœ°å€ 0x80001084
è¯»å–åœ°å€ 0x80010a54
0x80001084: 00 07 a7 03 lw	a4, 0(a5)
è¯»å–åœ°å€ 0x80001088
0x80001088: fe 07 1a e3 bne	a4, zero, 0x8000107c
è¯»å–åœ°å€ 0x8000108c
å†™å…¥åœ°å€ 0x80010a54
0x8000108c: 00 c7 a0 23 sw	a2, 0(a5)
è¯»å–åœ°å€ 0x80001090
0x80001090: 00 47 87 93 addi	a5, a5, 4
è¯»å–åœ°å€ 0x80001094
0x80001094: fe d7 98 e3 bne	a5, a3, 0x80001084
è¯»å–åœ°å€ 0x80001084
è¯»å–åœ°å€ 0x80010a58
0x80001084: 00 07 a7 03 lw	a4, 0(a5)
è¯»å–åœ°å€ 0x80001088
0x80001088: fe 07 1a e3 bne	a4, zero, 0x8000107c
è¯»å–åœ°å€ 0x8000108c
å†™å…¥åœ°å€ 0x80010a58
0x8000108c: 00 c7 a0 23 sw	a2, 0(a5)
è¯»å–åœ°å€ 0x80001090
0x80001090: 00 47 87 93 addi	a5, a5, 4
è¯»å–åœ°å€ 0x80001094
0x80001094: fe d7 98 e3 bne	a5, a3, 0x80001084
è¯»å–åœ°å€ 0x80001084
è¯»å–åœ°å€ 0x80010a5c
0x80001084: 00 07 a7 03 lw	a4, 0(a5)
è¯»å–åœ°å€ 0x80001088
0x80001088: fe 07 1a e3 bne	a4, zero, 0x8000107c
è¯»å–åœ°å€ 0x8000108c
å†™å…¥åœ°å€ 0x80010a5c
0x8000108c: 00 c7 a0 23 sw	a2, 0(a5)
è¯»å–åœ°å€ 0x80001090
0x80001090: 00 47 87 93 addi	a5, a5, 4
è¯»å–åœ°å€ 0x80001094
0x80001094: fe d7 98 e3 bne	a5, a3, 0x80001084
è¯»å–åœ°å€ 0x80001084
è¯»å–åœ°å€ 0x80010a60
0x80001084: 00 07 a7 03 lw	a4, 0(a5)
è¯»å–åœ°å€ 0x80001088
0x80001088: fe 07 1a e3 bne	a4, zero, 0x8000107c
è¯»å–åœ°å€ 0x8000108c
å†™å…¥åœ°å€ 0x80010a60
0x8000108c: 00 c7 a0 23 sw	a2, 0(a5)
è¯»å–åœ°å€ 0x80001090
0x80001090: 00 47 87 93 addi	a5, a5, 4
è¯»å–åœ°å€ 0x80001094
0x80001094: fe d7 98 e3 bne	a5, a3, 0x80001084
è¯»å–åœ°å€ 0x80001084
è¯»å–åœ°å€ 0x80010a64
0x80001084: 00 07 a7 03 lw	a4, 0(a5)
è¯»å–åœ°å€ 0x80001088
0x80001088: fe 07 1a e3 bne	a4, zero, 0x8000107c
è¯»å–åœ°å€ 0x8000108c
å†™å…¥åœ°å€ 0x80010a64
0x8000108c: 00 c7 a0 23 sw	a2, 0(a5)
è¯»å–åœ°å€ 0x80001090
0x80001090: 00 47 87 93 addi	a5, a5, 4
è¯»å–åœ°å€ 0x80001094
0x80001094: fe d7 98 e3 bne	a5, a3, 0x80001084
è¯»å–åœ°å€ 0x80001084
è¯»å–åœ°å€ 0x80010a68
0x80001084: 00 07 a7 03 lw	a4, 0(a5)
è¯»å–åœ°å€ 0x80001088
0x80001088: fe 07 1a e3 bne	a4, zero, 0x8000107c
è¯»å–åœ°å€ 0x8000108c
å†™å…¥åœ°å€ 0x80010a68
0x8000108c: 00 c7 a0 23 sw	a2, 0(a5)
è¯»å–åœ°å€ 0x80001090
0x80001090: 00 47 87 93 addi	a5, a5, 4
è¯»å–åœ°å€ 0x80001094
0x80001094: fe d7 98 e3 bne	a5, a3, 0x80001084
è¯»å–åœ°å€ 0x80001084
è¯»å–åœ°å€ 0x80010a6c
0x80001084: 00 07 a7 03 lw	a4, 0(a5)
è¯»å–åœ°å€ 0x80001088
0x80001088: fe 07 1a e3 bne	a4, zero, 0x8000107c
è¯»å–åœ°å€ 0x8000108c
å†™å…¥åœ°å€ 0x80010a6c
0x8000108c: 00 c7 a0 23 sw	a2, 0(a5)
è¯»å–åœ°å€ 0x80001090
0x80001090: 00 47 87 93 addi	a5, a5, 4
è¯»å–åœ°å€ 0x80001094
0x80001094: fe d7 98 e3 bne	a5, a3, 0x80001084
è¯»å–åœ°å€ 0x80001084
è¯»å–åœ°å€ 0x80010a70
0x80001084: 00 07 a7 03 lw	a4, 0(a5)
è¯»å–åœ°å€ 0x80001088
0x80001088: fe 07 1a e3 bne	a4, zero, 0x8000107c
è¯»å–åœ°å€ 0x8000108c
å†™å…¥åœ°å€ 0x80010a70
0x8000108c: 00 c7 a0 23 sw	a2, 0(a5)
è¯»å–åœ°å€ 0x80001090
0x80001090: 00 47 87 93 addi	a5, a5, 4
è¯»å–åœ°å€ 0x80001094
0x80001094: fe d7 98 e3 bne	a5, a3, 0x80001084
è¯»å–åœ°å€ 0x80001084
è¯»å–åœ°å€ 0x80010a74
0x80001084: 00 07 a7 03 lw	a4, 0(a5)
è¯»å–åœ°å€ 0x80001088
0x80001088: fe 07 1a e3 bne	a4, zero, 0x8000107c
è¯»å–åœ°å€ 0x8000108c
å†™å…¥åœ°å€ 0x80010a74
0x8000108c: 00 c7 a0 23 sw	a2, 0(a5)
è¯»å–åœ°å€ 0x80001090
0x80001090: 00 47 87 93 addi	a5, a5, 4
è¯»å–åœ°å€ 0x80001094
0x80001094: fe d7 98 e3 bne	a5, a3, 0x80001084
è¯»å–åœ°å€ 0x80001084
è¯»å–åœ°å€ 0x80010a78
0x80001084: 00 07 a7 03 lw	a4, 0(a5)
è¯»å–åœ°å€ 0x80001088
0x80001088: fe 07 1a e3 bne	a4, zero, 0x8000107c
è¯»å–åœ°å€ 0x8000108c
å†™å…¥åœ°å€ 0x80010a78
0x8000108c: 00 c7 a0 23 sw	a2, 0(a5)
è¯»å–åœ°å€ 0x80001090
0x80001090: 00 47 87 93 addi	a5, a5, 4
è¯»å–åœ°å€ 0x80001094
0x80001094: fe d7 98 e3 bne	a5, a3, 0x80001084
è¯»å–åœ°å€ 0x80001084
è¯»å–åœ°å€ 0x80010a7c
0x80001084: 00 07 a7 03 lw	a4, 0(a5)
è¯»å–åœ°å€ 0x80001088
0x80001088: fe 07 1a e3 bne	a4, zero, 0x8000107c
è¯»å–åœ°å€ 0x8000108c
å†™å…¥åœ°å€ 0x80010a7c
0x8000108c: 00 c7 a0 23 sw	a2, 0(a5)
è¯»å–åœ°å€ 0x80001090
0x80001090: 00 47 87 93 addi	a5, a5, 4
è¯»å–åœ°å€ 0x80001094
0x80001094: fe d7 98 e3 bne	a5, a3, 0x80001084
è¯»å–åœ°å€ 0x80001084
è¯»å–åœ°å€ 0x80010a80
0x80001084: 00 07 a7 03 lw	a4, 0(a5)
è¯»å–åœ°å€ 0x80001088
0x80001088: fe 07 1a e3 bne	a4, zero, 0x8000107c
è¯»å–åœ°å€ 0x8000108c
å†™å…¥åœ°å€ 0x80010a80
0x8000108c: 00 c7 a0 23 sw	a2, 0(a5)
è¯»å–åœ°å€ 0x80001090
0x80001090: 00 47 87 93 addi	a5, a5, 4
è¯»å–åœ°å€ 0x80001094
0x80001094: fe d7 98 e3 bne	a5, a3, 0x80001084
è¯»å–åœ°å€ 0x80001084
è¯»å–åœ°å€ 0x80010a84
0x80001084: 00 07 a7 03 lw	a4, 0(a5)
è¯»å–åœ°å€ 0x80001088
0x80001088: fe 07 1a e3 bne	a4, zero, 0x8000107c
è¯»å–åœ°å€ 0x8000108c
å†™å…¥åœ°å€ 0x80010a84
0x8000108c: 00 c7 a0 23 sw	a2, 0(a5)
è¯»å–åœ°å€ 0x80001090
0x80001090: 00 47 87 93 addi	a5, a5, 4
è¯»å–åœ°å€ 0x80001094
0x80001094: fe d7 98 e3 bne	a5, a3, 0x80001084
è¯»å–åœ°å€ 0x80001084
è¯»å–åœ°å€ 0x80010a88
0x80001084: 00 07 a7 03 lw	a4, 0(a5)
è¯»å–åœ°å€ 0x80001088
0x80001088: fe 07 1a e3 bne	a4, zero, 0x8000107c
è¯»å–åœ°å€ 0x8000108c
å†™å…¥åœ°å€ 0x80010a88
0x8000108c: 00 c7 a0 23 sw	a2, 0(a5)
è¯»å–åœ°å€ 0x80001090
0x80001090: 00 47 87 93 addi	a5, a5, 4
è¯»å–åœ°å€ 0x80001094
0x80001094: fe d7 98 e3 bne	a5, a3, 0x80001084
è¯»å–åœ°å€ 0x80001084
è¯»å–åœ°å€ 0x80010a8c
0x80001084: 00 07 a7 03 lw	a4, 0(a5)
è¯»å–åœ°å€ 0x80001088
0x80001088: fe 07 1a e3 bne	a4, zero, 0x8000107c
è¯»å–åœ°å€ 0x8000108c
å†™å…¥åœ°å€ 0x80010a8c
0x8000108c: 00 c7 a0 23 sw	a2, 0(a5)
è¯»å–åœ°å€ 0x80001090
0x80001090: 00 47 87 93 addi	a5, a5, 4
è¯»å–åœ°å€ 0x80001094
0x80001094: fe d7 98 e3 bne	a5, a3, 0x80001084
è¯»å–åœ°å€ 0x80001084
è¯»å–åœ°å€ 0x80010a90
0x80001084: 00 07 a7 03 lw	a4, 0(a5)
è¯»å–åœ°å€ 0x80001088
0x80001088: fe 07 1a e3 bne	a4, zero, 0x8000107c
è¯»å–åœ°å€ 0x8000108c
å†™å…¥åœ°å€ 0x80010a90
0x8000108c: 00 c7 a0 23 sw	a2, 0(a5)
è¯»å–åœ°å€ 0x80001090
0x80001090: 00 47 87 93 addi	a5, a5, 4
è¯»å–åœ°å€ 0x80001094
0x80001094: fe d7 98 e3 bne	a5, a3, 0x80001084
è¯»å–åœ°å€ 0x80001084
è¯»å–åœ°å€ 0x80010a94
0x80001084: 00 07 a7 03 lw	a4, 0(a5)
è¯»å–åœ°å€ 0x80001088
0x80001088: fe 07 1a e3 bne	a4, zero, 0x8000107c
è¯»å–åœ°å€ 0x8000108c
å†™å…¥åœ°å€ 0x80010a94
0x8000108c: 00 c7 a0 23 sw	a2, 0(a5)
è¯»å–åœ°å€ 0x80001090
0x80001090: 00 47 87 93 addi	a5, a5, 4
è¯»å–åœ°å€ 0x80001094
0x80001094: fe d7 98 e3 bne	a5, a3, 0x80001084
è¯»å–åœ°å€ 0x80001084
è¯»å–åœ°å€ 0x80010a98
0x80001084: 00 07 a7 03 lw	a4, 0(a5)
è¯»å–åœ°å€ 0x80001088
0x80001088: fe 07 1a e3 bne	a4, zero, 0x8000107c
è¯»å–åœ°å€ 0x8000108c
å†™å…¥åœ°å€ 0x80010a98
0x8000108c: 00 c7 a0 23 sw	a2, 0(a5)
è¯»å–åœ°å€ 0x80001090
0x80001090: 00 47 87 93 addi	a5, a5, 4
è¯»å–åœ°å€ 0x80001094
0x80001094: fe d7 98 e3 bne	a5, a3, 0x80001084
è¯»å–åœ°å€ 0x80001084
è¯»å–åœ°å€ 0x80010a9c
0x80001084: 00 07 a7 03 lw	a4, 0(a5)
è¯»å–åœ°å€ 0x80001088
0x80001088: fe 07 1a e3 bne	a4, zero, 0x8000107c
è¯»å–åœ°å€ 0x8000108c
å†™å…¥åœ°å€ 0x80010a9c
0x8000108c: 00 c7 a0 23 sw	a2, 0(a5)
è¯»å–åœ°å€ 0x80001090
0x80001090: 00 47 87 93 addi	a5, a5, 4
è¯»å–åœ°å€ 0x80001094
0x80001094: fe d7 98 e3 bne	a5, a3, 0x80001084
è¯»å–åœ°å€ 0x80001084
è¯»å–åœ°å€ 0x80010aa0
0x80001084: 00 07 a7 03 lw	a4, 0(a5)
è¯»å–åœ°å€ 0x80001088
0x80001088: fe 07 1a e3 bne	a4, zero, 0x8000107c
è¯»å–åœ°å€ 0x8000108c
å†™å…¥åœ°å€ 0x80010aa0
0x8000108c: 00 c7 a0 23 sw	a2, 0(a5)
è¯»å–åœ°å€ 0x80001090
0x80001090: 00 47 87 93 addi	a5, a5, 4
è¯»å–åœ°å€ 0x80001094
0x80001094: fe d7 98 e3 bne	a5, a3, 0x80001084
è¯»å–åœ°å€ 0x80001084
è¯»å–åœ°å€ 0x80010aa4
0x80001084: 00 07 a7 03 lw	a4, 0(a5)
è¯»å–åœ°å€ 0x80001088
0x80001088: fe 07 1a e3 bne	a4, zero, 0x8000107c
è¯»å–åœ°å€ 0x8000108c
å†™å…¥åœ°å€ 0x80010aa4
0x8000108c: 00 c7 a0 23 sw	a2, 0(a5)
è¯»å–åœ°å€ 0x80001090
0x80001090: 00 47 87 93 addi	a5, a5, 4
è¯»å–åœ°å€ 0x80001094
0x80001094: fe d7 98 e3 bne	a5, a3, 0x80001084
è¯»å–åœ°å€ 0x80001084
è¯»å–åœ°å€ 0x80010aa8
0x80001084: 00 07 a7 03 lw	a4, 0(a5)
è¯»å–åœ°å€ 0x80001088
0x80001088: fe 07 1a e3 bne	a4, zero, 0x8000107c
è¯»å–åœ°å€ 0x8000108c
å†™å…¥åœ°å€ 0x80010aa8
0x8000108c: 00 c7 a0 23 sw	a2, 0(a5)
è¯»å–åœ°å€ 0x80001090
0x80001090: 00 47 87 93 addi	a5, a5, 4
è¯»å–åœ°å€ 0x80001094
0x80001094: fe d7 98 e3 bne	a5, a3, 0x80001084
è¯»å–åœ°å€ 0x80001084
è¯»å–åœ°å€ 0x80010aac
0x80001084: 00 07 a7 03 lw	a4, 0(a5)
è¯»å–åœ°å€ 0x80001088
0x80001088: fe 07 1a e3 bne	a4, zero, 0x8000107c
è¯»å–åœ°å€ 0x8000108c
å†™å…¥åœ°å€ 0x80010aac
0x8000108c: 00 c7 a0 23 sw	a2, 0(a5)
è¯»å–åœ°å€ 0x80001090
0x80001090: 00 47 87 93 addi	a5, a5, 4
è¯»å–åœ°å€ 0x80001094
0x80001094: fe d7 98 e3 bne	a5, a3, 0x80001084
è¯»å–åœ°å€ 0x80001084
è¯»å–åœ°å€ 0x80010ab0
0x80001084: 00 07 a7 03 lw	a4, 0(a5)
è¯»å–åœ°å€ 0x80001088
0x80001088: fe 07 1a e3 bne	a4, zero, 0x8000107c
è¯»å–åœ°å€ 0x8000108c
å†™å…¥åœ°å€ 0x80010ab0
0x8000108c: 00 c7 a0 23 sw	a2, 0(a5)
è¯»å–åœ°å€ 0x80001090
0x80001090: 00 47 87 93 addi	a5, a5, 4
è¯»å–åœ°å€ 0x80001094
0x80001094: fe d7 98 e3 bne	a5, a3, 0x80001084
è¯»å–åœ°å€ 0x80001084
è¯»å–åœ°å€ 0x80010ab4
0x80001084: 00 07 a7 03 lw	a4, 0(a5)
è¯»å–åœ°å€ 0x80001088
0x80001088: fe 07 1a e3 bne	a4, zero, 0x8000107c
è¯»å–åœ°å€ 0x8000108c
å†™å…¥åœ°å€ 0x80010ab4
0x8000108c: 00 c7 a0 23 sw	a2, 0(a5)
è¯»å–åœ°å€ 0x80001090
0x80001090: 00 47 87 93 addi	a5, a5, 4
è¯»å–åœ°å€ 0x80001094
0x80001094: fe d7 98 e3 bne	a5, a3, 0x80001084
è¯»å–åœ°å€ 0x80001084
è¯»å–åœ°å€ 0x80010ab8
0x80001084: 00 07 a7 03 lw	a4, 0(a5)
è¯»å–åœ°å€ 0x80001088
0x80001088: fe 07 1a e3 bne	a4, zero, 0x8000107c
è¯»å–åœ°å€ 0x8000108c
å†™å…¥åœ°å€ 0x80010ab8
0x8000108c: 00 c7 a0 23 sw	a2, 0(a5)
è¯»å–åœ°å€ 0x80001090
0x80001090: 00 47 87 93 addi	a5, a5, 4
è¯»å–åœ°å€ 0x80001094
0x80001094: fe d7 98 e3 bne	a5, a3, 0x80001084
è¯»å–åœ°å€ 0x80001084
è¯»å–åœ°å€ 0x80010abc
0x80001084: 00 07 a7 03 lw	a4, 0(a5)
è¯»å–åœ°å€ 0x80001088
0x80001088: fe 07 1a e3 bne	a4, zero, 0x8000107c
è¯»å–åœ°å€ 0x8000108c
å†™å…¥åœ°å€ 0x80010abc
0x8000108c: 00 c7 a0 23 sw	a2, 0(a5)
è¯»å–åœ°å€ 0x80001090
0x80001090: 00 47 87 93 addi	a5, a5, 4
è¯»å–åœ°å€ 0x80001094
0x80001094: fe d7 98 e3 bne	a5, a3, 0x80001084
è¯»å–åœ°å€ 0x80001084
è¯»å–åœ°å€ 0x80010ac0
0x80001084: 00 07 a7 03 lw	a4, 0(a5)
è¯»å–åœ°å€ 0x80001088
0x80001088: fe 07 1a e3 bne	a4, zero, 0x8000107c
è¯»å–åœ°å€ 0x8000108c
å†™å…¥åœ°å€ 0x80010ac0
0x8000108c: 00 c7 a0 23 sw	a2, 0(a5)
è¯»å–åœ°å€ 0x80001090
0x80001090: 00 47 87 93 addi	a5, a5, 4
è¯»å–åœ°å€ 0x80001094
0x80001094: fe d7 98 e3 bne	a5, a3, 0x80001084
è¯»å–åœ°å€ 0x80001084
è¯»å–åœ°å€ 0x80010ac4
0x80001084: 00 07 a7 03 lw	a4, 0(a5)
è¯»å–åœ°å€ 0x80001088
0x80001088: fe 07 1a e3 bne	a4, zero, 0x8000107c
è¯»å–åœ°å€ 0x8000108c
å†™å…¥åœ°å€ 0x80010ac4
0x8000108c: 00 c7 a0 23 sw	a2, 0(a5)
è¯»å–åœ°å€ 0x80001090
0x80001090: 00 47 87 93 addi	a5, a5, 4
è¯»å–åœ°å€ 0x80001094
0x80001094: fe d7 98 e3 bne	a5, a3, 0x80001084
è¯»å–åœ°å€ 0x80001084
è¯»å–åœ°å€ 0x80010ac8
0x80001084: 00 07 a7 03 lw	a4, 0(a5)
è¯»å–åœ°å€ 0x80001088
0x80001088: fe 07 1a e3 bne	a4, zero, 0x8000107c
è¯»å–åœ°å€ 0x8000108c
å†™å…¥åœ°å€ 0x80010ac8
0x8000108c: 00 c7 a0 23 sw	a2, 0(a5)
è¯»å–åœ°å€ 0x80001090
0x80001090: 00 47 87 93 addi	a5, a5, 4
è¯»å–åœ°å€ 0x80001094
0x80001094: fe d7 98 e3 bne	a5, a3, 0x80001084
è¯»å–åœ°å€ 0x80001084
è¯»å–åœ°å€ 0x80010acc
0x80001084: 00 07 a7 03 lw	a4, 0(a5)
è¯»å–åœ°å€ 0x80001088
0x80001088: fe 07 1a e3 bne	a4, zero, 0x8000107c
è¯»å–åœ°å€ 0x8000108c
å†™å…¥åœ°å€ 0x80010acc
0x8000108c: 00 c7 a0 23 sw	a2, 0(a5)
è¯»å–åœ°å€ 0x80001090
0x80001090: 00 47 87 93 addi	a5, a5, 4
è¯»å–åœ°å€ 0x80001094
0x80001094: fe d7 98 e3 bne	a5, a3, 0x80001084
è¯»å–åœ°å€ 0x80001084
è¯»å–åœ°å€ 0x80010ad0
0x80001084: 00 07 a7 03 lw	a4, 0(a5)
è¯»å–åœ°å€ 0x80001088
0x80001088: fe 07 1a e3 bne	a4, zero, 0x8000107c
è¯»å–åœ°å€ 0x8000108c
å†™å…¥åœ°å€ 0x80010ad0
0x8000108c: 00 c7 a0 23 sw	a2, 0(a5)
è¯»å–åœ°å€ 0x80001090
0x80001090: 00 47 87 93 addi	a5, a5, 4
è¯»å–åœ°å€ 0x80001094
0x80001094: fe d7 98 e3 bne	a5, a3, 0x80001084
è¯»å–åœ°å€ 0x80001084
è¯»å–åœ°å€ 0x80010ad4
0x80001084: 00 07 a7 03 lw	a4, 0(a5)
è¯»å–åœ°å€ 0x80001088
0x80001088: fe 07 1a e3 bne	a4, zero, 0x8000107c
è¯»å–åœ°å€ 0x8000108c
å†™å…¥åœ°å€ 0x80010ad4
0x8000108c: 00 c7 a0 23 sw	a2, 0(a5)
è¯»å–åœ°å€ 0x80001090
0x80001090: 00 47 87 93 addi	a5, a5, 4
è¯»å–åœ°å€ 0x80001094
0x80001094: fe d7 98 e3 bne	a5, a3, 0x80001084
è¯»å–åœ°å€ 0x80001084
è¯»å–åœ°å€ 0x80010ad8
0x80001084: 00 07 a7 03 lw	a4, 0(a5)
è¯»å–åœ°å€ 0x80001088
0x80001088: fe 07 1a e3 bne	a4, zero, 0x8000107c
è¯»å–åœ°å€ 0x8000108c
å†™å…¥åœ°å€ 0x80010ad8
0x8000108c: 00 c7 a0 23 sw	a2, 0(a5)
è¯»å–åœ°å€ 0x80001090
0x80001090: 00 47 87 93 addi	a5, a5, 4
è¯»å–åœ°å€ 0x80001094
0x80001094: fe d7 98 e3 bne	a5, a3, 0x80001084
è¯»å–åœ°å€ 0x80001084
è¯»å–åœ°å€ 0x80010adc
0x80001084: 00 07 a7 03 lw	a4, 0(a5)
è¯»å–åœ°å€ 0x80001088
0x80001088: fe 07 1a e3 bne	a4, zero, 0x8000107c
è¯»å–åœ°å€ 0x8000108c
å†™å…¥åœ°å€ 0x80010adc
0x8000108c: 00 c7 a0 23 sw	a2, 0(a5)
è¯»å–åœ°å€ 0x80001090
0x80001090: 00 47 87 93 addi	a5, a5, 4
è¯»å–åœ°å€ 0x80001094
0x80001094: fe d7 98 e3 bne	a5, a3, 0x80001084
è¯»å–åœ°å€ 0x80001084
è¯»å–åœ°å€ 0x80010ae0
0x80001084: 00 07 a7 03 lw	a4, 0(a5)
è¯»å–åœ°å€ 0x80001088
0x80001088: fe 07 1a e3 bne	a4, zero, 0x8000107c
è¯»å–åœ°å€ 0x8000108c
å†™å…¥åœ°å€ 0x80010ae0
0x8000108c: 00 c7 a0 23 sw	a2, 0(a5)
è¯»å–åœ°å€ 0x80001090
0x80001090: 00 47 87 93 addi	a5, a5, 4
è¯»å–åœ°å€ 0x80001094
0x80001094: fe d7 98 e3 bne	a5, a3, 0x80001084
è¯»å–åœ°å€ 0x80001084
è¯»å–åœ°å€ 0x80010ae4
0x80001084: 00 07 a7 03 lw	a4, 0(a5)
è¯»å–åœ°å€ 0x80001088
0x80001088: fe 07 1a e3 bne	a4, zero, 0x8000107c
è¯»å–åœ°å€ 0x8000108c
å†™å…¥åœ°å€ 0x80010ae4
0x8000108c: 00 c7 a0 23 sw	a2, 0(a5)
è¯»å–åœ°å€ 0x80001090
0x80001090: 00 47 87 93 addi	a5, a5, 4
è¯»å–åœ°å€ 0x80001094
0x80001094: fe d7 98 e3 bne	a5, a3, 0x80001084
è¯»å–åœ°å€ 0x80001084
è¯»å–åœ°å€ 0x80010ae8
0x80001084: 00 07 a7 03 lw	a4, 0(a5)
è¯»å–åœ°å€ 0x80001088
0x80001088: fe 07 1a e3 bne	a4, zero, 0x8000107c
è¯»å–åœ°å€ 0x8000108c
å†™å…¥åœ°å€ 0x80010ae8
0x8000108c: 00 c7 a0 23 sw	a2, 0(a5)
è¯»å–åœ°å€ 0x80001090
0x80001090: 00 47 87 93 addi	a5, a5, 4
è¯»å–åœ°å€ 0x80001094
0x80001094: fe d7 98 e3 bne	a5, a3, 0x80001084
è¯»å–åœ°å€ 0x80001084
è¯»å–åœ°å€ 0x80010aec
0x80001084: 00 07 a7 03 lw	a4, 0(a5)
è¯»å–åœ°å€ 0x80001088
0x80001088: fe 07 1a e3 bne	a4, zero, 0x8000107c
è¯»å–åœ°å€ 0x8000108c
å†™å…¥åœ°å€ 0x80010aec
0x8000108c: 00 c7 a0 23 sw	a2, 0(a5)
è¯»å–åœ°å€ 0x80001090
0x80001090: 00 47 87 93 addi	a5, a5, 4
è¯»å–åœ°å€ 0x80001094
0x80001094: fe d7 98 e3 bne	a5, a3, 0x80001084
è¯»å–åœ°å€ 0x80001084
è¯»å–åœ°å€ 0x80010af0
0x80001084: 00 07 a7 03 lw	a4, 0(a5)
è¯»å–åœ°å€ 0x80001088
0x80001088: fe 07 1a e3 bne	a4, zero, 0x8000107c
è¯»å–åœ°å€ 0x8000108c
å†™å…¥åœ°å€ 0x80010af0
0x8000108c: 00 c7 a0 23 sw	a2, 0(a5)
è¯»å–åœ°å€ 0x80001090
0x80001090: 00 47 87 93 addi	a5, a5, 4
è¯»å–åœ°å€ 0x80001094
0x80001094: fe d7 98 e3 bne	a5, a3, 0x80001084
è¯»å–åœ°å€ 0x80001084
è¯»å–åœ°å€ 0x80010af4
0x80001084: 00 07 a7 03 lw	a4, 0(a5)
è¯»å–åœ°å€ 0x80001088
0x80001088: fe 07 1a e3 bne	a4, zero, 0x8000107c
è¯»å–åœ°å€ 0x8000108c
å†™å…¥åœ°å€ 0x80010af4
0x8000108c: 00 c7 a0 23 sw	a2, 0(a5)
è¯»å–åœ°å€ 0x80001090
0x80001090: 00 47 87 93 addi	a5, a5, 4
è¯»å–åœ°å€ 0x80001094
0x80001094: fe d7 98 e3 bne	a5, a3, 0x80001084
è¯»å–åœ°å€ 0x80001084
è¯»å–åœ°å€ 0x80010af8
0x80001084: 00 07 a7 03 lw	a4, 0(a5)
è¯»å–åœ°å€ 0x80001088
0x80001088: fe 07 1a e3 bne	a4, zero, 0x8000107c
è¯»å–åœ°å€ 0x8000108c
å†™å…¥åœ°å€ 0x80010af8
0x8000108c: 00 c7 a0 23 sw	a2, 0(a5)
è¯»å–åœ°å€ 0x80001090
0x80001090: 00 47 87 93 addi	a5, a5, 4
è¯»å–åœ°å€ 0x80001094
0x80001094: fe d7 98 e3 bne	a5, a3, 0x80001084
è¯»å–åœ°å€ 0x80001084
è¯»å–åœ°å€ 0x80010afc
0x80001084: 00 07 a7 03 lw	a4, 0(a5)
è¯»å–åœ°å€ 0x80001088
0x80001088: fe 07 1a e3 bne	a4, zero, 0x8000107c
è¯»å–åœ°å€ 0x8000108c
å†™å…¥åœ°å€ 0x80010afc
0x8000108c: 00 c7 a0 23 sw	a2, 0(a5)
è¯»å–åœ°å€ 0x80001090
0x80001090: 00 47 87 93 addi	a5, a5, 4
è¯»å–åœ°å€ 0x80001094
0x80001094: fe d7 98 e3 bne	a5, a3, 0x80001084
è¯»å–åœ°å€ 0x80001084
è¯»å–åœ°å€ 0x80010b00
0x80001084: 00 07 a7 03 lw	a4, 0(a5)
è¯»å–åœ°å€ 0x80001088
0x80001088: fe 07 1a e3 bne	a4, zero, 0x8000107c
è¯»å–åœ°å€ 0x8000108c
å†™å…¥åœ°å€ 0x80010b00
0x8000108c: 00 c7 a0 23 sw	a2, 0(a5)
è¯»å–åœ°å€ 0x80001090
0x80001090: 00 47 87 93 addi	a5, a5, 4
è¯»å–åœ°å€ 0x80001094
0x80001094: fe d7 98 e3 bne	a5, a3, 0x80001084
è¯»å–åœ°å€ 0x80001084
è¯»å–åœ°å€ 0x80010b04
0x80001084: 00 07 a7 03 lw	a4, 0(a5)
è¯»å–åœ°å€ 0x80001088
0x80001088: fe 07 1a e3 bne	a4, zero, 0x8000107c
è¯»å–åœ°å€ 0x8000108c
å†™å…¥åœ°å€ 0x80010b04
0x8000108c: 00 c7 a0 23 sw	a2, 0(a5)
è¯»å–åœ°å€ 0x80001090
0x80001090: 00 47 87 93 addi	a5, a5, 4
è¯»å–åœ°å€ 0x80001094
0x80001094: fe d7 98 e3 bne	a5, a3, 0x80001084
è¯»å–åœ°å€ 0x80001084
è¯»å–åœ°å€ 0x80010b08
0x80001084: 00 07 a7 03 lw	a4, 0(a5)
è¯»å–åœ°å€ 0x80001088
0x80001088: fe 07 1a e3 bne	a4, zero, 0x8000107c
è¯»å–åœ°å€ 0x8000108c
å†™å…¥åœ°å€ 0x80010b08
0x8000108c: 00 c7 a0 23 sw	a2, 0(a5)
è¯»å–åœ°å€ 0x80001090
0x80001090: 00 47 87 93 addi	a5, a5, 4
è¯»å–åœ°å€ 0x80001094
0x80001094: fe d7 98 e3 bne	a5, a3, 0x80001084
è¯»å–åœ°å€ 0x80001084
è¯»å–åœ°å€ 0x80010b0c
0x80001084: 00 07 a7 03 lw	a4, 0(a5)
è¯»å–åœ°å€ 0x80001088
0x80001088: fe 07 1a e3 bne	a4, zero, 0x8000107c
è¯»å–åœ°å€ 0x8000108c
å†™å…¥åœ°å€ 0x80010b0c
0x8000108c: 00 c7 a0 23 sw	a2, 0(a5)
è¯»å–åœ°å€ 0x80001090
0x80001090: 00 47 87 93 addi	a5, a5, 4
è¯»å–åœ°å€ 0x80001094
0x80001094: fe d7 98 e3 bne	a5, a3, 0x80001084
è¯»å–åœ°å€ 0x80001084
è¯»å–åœ°å€ 0x80010b10
0x80001084: 00 07 a7 03 lw	a4, 0(a5)
è¯»å–åœ°å€ 0x80001088
0x80001088: fe 07 1a e3 bne	a4, zero, 0x8000107c
è¯»å–åœ°å€ 0x8000108c
å†™å…¥åœ°å€ 0x80010b10
0x8000108c: 00 c7 a0 23 sw	a2, 0(a5)
è¯»å–åœ°å€ 0x80001090
0x80001090: 00 47 87 93 addi	a5, a5, 4
è¯»å–åœ°å€ 0x80001094
0x80001094: fe d7 98 e3 bne	a5, a3, 0x80001084
è¯»å–åœ°å€ 0x80001084
è¯»å–åœ°å€ 0x80010b14
0x80001084: 00 07 a7 03 lw	a4, 0(a5)
è¯»å–åœ°å€ 0x80001088
0x80001088: fe 07 1a e3 bne	a4, zero, 0x8000107c
è¯»å–åœ°å€ 0x8000108c
å†™å…¥åœ°å€ 0x80010b14
0x8000108c: 00 c7 a0 23 sw	a2, 0(a5)
è¯»å–åœ°å€ 0x80001090
0x80001090: 00 47 87 93 addi	a5, a5, 4
è¯»å–åœ°å€ 0x80001094
0x80001094: fe d7 98 e3 bne	a5, a3, 0x80001084
è¯»å–åœ°å€ 0x80001084
è¯»å–åœ°å€ 0x80010b18
0x80001084: 00 07 a7 03 lw	a4, 0(a5)
è¯»å–åœ°å€ 0x80001088
0x80001088: fe 07 1a e3 bne	a4, zero, 0x8000107c
è¯»å–åœ°å€ 0x8000108c
å†™å…¥åœ°å€ 0x80010b18
0x8000108c: 00 c7 a0 23 sw	a2, 0(a5)
è¯»å–åœ°å€ 0x80001090
0x80001090: 00 47 87 93 addi	a5, a5, 4
è¯»å–åœ°å€ 0x80001094
0x80001094: fe d7 98 e3 bne	a5, a3, 0x80001084
è¯»å–åœ°å€ 0x80001084
è¯»å–åœ°å€ 0x80010b1c
0x80001084: 00 07 a7 03 lw	a4, 0(a5)
è¯»å–åœ°å€ 0x80001088
0x80001088: fe 07 1a e3 bne	a4, zero, 0x8000107c
è¯»å–åœ°å€ 0x8000108c
å†™å…¥åœ°å€ 0x80010b1c
0x8000108c: 00 c7 a0 23 sw	a2, 0(a5)
è¯»å–åœ°å€ 0x80001090
0x80001090: 00 47 87 93 addi	a5, a5, 4
è¯»å–åœ°å€ 0x80001094
0x80001094: fe d7 98 e3 bne	a5, a3, 0x80001084
è¯»å–åœ°å€ 0x80001084
è¯»å–åœ°å€ 0x80010b20
0x80001084: 00 07 a7 03 lw	a4, 0(a5)
è¯»å–åœ°å€ 0x80001088
0x80001088: fe 07 1a e3 bne	a4, zero, 0x8000107c
è¯»å–åœ°å€ 0x8000108c
å†™å…¥åœ°å€ 0x80010b20
0x8000108c: 00 c7 a0 23 sw	a2, 0(a5)
è¯»å–åœ°å€ 0x80001090
0x80001090: 00 47 87 93 addi	a5, a5, 4
è¯»å–åœ°å€ 0x80001094
0x80001094: fe d7 98 e3 bne	a5, a3, 0x80001084
è¯»å–åœ°å€ 0x80001084
è¯»å–åœ°å€ 0x80010b24
0x80001084: 00 07 a7 03 lw	a4, 0(a5)
è¯»å–åœ°å€ 0x80001088
0x80001088: fe 07 1a e3 bne	a4, zero, 0x8000107c
è¯»å–åœ°å€ 0x8000108c
å†™å…¥åœ°å€ 0x80010b24
0x8000108c: 00 c7 a0 23 sw	a2, 0(a5)
è¯»å–åœ°å€ 0x80001090
0x80001090: 00 47 87 93 addi	a5, a5, 4
è¯»å–åœ°å€ 0x80001094
0x80001094: fe d7 98 e3 bne	a5, a3, 0x80001084
è¯»å–åœ°å€ 0x80001084
è¯»å–åœ°å€ 0x80010b28
0x80001084: 00 07 a7 03 lw	a4, 0(a5)
è¯»å–åœ°å€ 0x80001088
0x80001088: fe 07 1a e3 bne	a4, zero, 0x8000107c
è¯»å–åœ°å€ 0x8000108c
å†™å…¥åœ°å€ 0x80010b28
0x8000108c: 00 c7 a0 23 sw	a2, 0(a5)
è¯»å–åœ°å€ 0x80001090
0x80001090: 00 47 87 93 addi	a5, a5, 4
è¯»å–åœ°å€ 0x80001094
0x80001094: fe d7 98 e3 bne	a5, a3, 0x80001084
è¯»å–åœ°å€ 0x80001084
è¯»å–åœ°å€ 0x80010b2c
0x80001084: 00 07 a7 03 lw	a4, 0(a5)
è¯»å–åœ°å€ 0x80001088
0x80001088: fe 07 1a e3 bne	a4, zero, 0x8000107c
è¯»å–åœ°å€ 0x8000108c
å†™å…¥åœ°å€ 0x80010b2c
0x8000108c: 00 c7 a0 23 sw	a2, 0(a5)
è¯»å–åœ°å€ 0x80001090
0x80001090: 00 47 87 93 addi	a5, a5, 4
è¯»å–åœ°å€ 0x80001094
0x80001094: fe d7 98 e3 bne	a5, a3, 0x80001084
è¯»å–åœ°å€ 0x80001084
è¯»å–åœ°å€ 0x80010b30
0x80001084: 00 07 a7 03 lw	a4, 0(a5)
è¯»å–åœ°å€ 0x80001088
0x80001088: fe 07 1a e3 bne	a4, zero, 0x8000107c
è¯»å–åœ°å€ 0x8000108c
å†™å…¥åœ°å€ 0x80010b30
0x8000108c: 00 c7 a0 23 sw	a2, 0(a5)
è¯»å–åœ°å€ 0x80001090
0x80001090: 00 47 87 93 addi	a5, a5, 4
è¯»å–åœ°å€ 0x80001094
0x80001094: fe d7 98 e3 bne	a5, a3, 0x80001084
è¯»å–åœ°å€ 0x80001084
è¯»å–åœ°å€ 0x80010b34
0x80001084: 00 07 a7 03 lw	a4, 0(a5)
è¯»å–åœ°å€ 0x80001088
0x80001088: fe 07 1a e3 bne	a4, zero, 0x8000107c
è¯»å–åœ°å€ 0x8000108c
å†™å…¥åœ°å€ 0x80010b34
0x8000108c: 00 c7 a0 23 sw	a2, 0(a5)
è¯»å–åœ°å€ 0x80001090
0x80001090: 00 47 87 93 addi	a5, a5, 4
è¯»å–åœ°å€ 0x80001094
0x80001094: fe d7 98 e3 bne	a5, a3, 0x80001084
è¯»å–åœ°å€ 0x80001084
è¯»å–åœ°å€ 0x80010b38
0x80001084: 00 07 a7 03 lw	a4, 0(a5)
è¯»å–åœ°å€ 0x80001088
0x80001088: fe 07 1a e3 bne	a4, zero, 0x8000107c
è¯»å–åœ°å€ 0x8000108c
å†™å…¥åœ°å€ 0x80010b38
0x8000108c: 00 c7 a0 23 sw	a2, 0(a5)
è¯»å–åœ°å€ 0x80001090
0x80001090: 00 47 87 93 addi	a5, a5, 4
è¯»å–åœ°å€ 0x80001094
0x80001094: fe d7 98 e3 bne	a5, a3, 0x80001084
è¯»å–åœ°å€ 0x80001084
è¯»å–åœ°å€ 0x80010b3c
0x80001084: 00 07 a7 03 lw	a4, 0(a5)
è¯»å–åœ°å€ 0x80001088
0x80001088: fe 07 1a e3 bne	a4, zero, 0x8000107c
è¯»å–åœ°å€ 0x8000108c
å†™å…¥åœ°å€ 0x80010b3c
0x8000108c: 00 c7 a0 23 sw	a2, 0(a5)
è¯»å–åœ°å€ 0x80001090
0x80001090: 00 47 87 93 addi	a5, a5, 4
è¯»å–åœ°å€ 0x80001094
0x80001094: fe d7 98 e3 bne	a5, a3, 0x80001084
è¯»å–åœ°å€ 0x80001084
è¯»å–åœ°å€ 0x80010b40
0x80001084: 00 07 a7 03 lw	a4, 0(a5)
è¯»å–åœ°å€ 0x80001088
0x80001088: fe 07 1a e3 bne	a4, zero, 0x8000107c
è¯»å–åœ°å€ 0x8000108c
å†™å…¥åœ°å€ 0x80010b40
0x8000108c: 00 c7 a0 23 sw	a2, 0(a5)
è¯»å–åœ°å€ 0x80001090
0x80001090: 00 47 87 93 addi	a5, a5, 4
è¯»å–åœ°å€ 0x80001094
0x80001094: fe d7 98 e3 bne	a5, a3, 0x80001084
è¯»å–åœ°å€ 0x80001084
è¯»å–åœ°å€ 0x80010b44
0x80001084: 00 07 a7 03 lw	a4, 0(a5)
è¯»å–åœ°å€ 0x80001088
0x80001088: fe 07 1a e3 bne	a4, zero, 0x8000107c
è¯»å–åœ°å€ 0x8000108c
å†™å…¥åœ°å€ 0x80010b44
0x8000108c: 00 c7 a0 23 sw	a2, 0(a5)
è¯»å–åœ°å€ 0x80001090
0x80001090: 00 47 87 93 addi	a5, a5, 4
è¯»å–åœ°å€ 0x80001094
0x80001094: fe d7 98 e3 bne	a5, a3, 0x80001084
è¯»å–åœ°å€ 0x80001084
è¯»å–åœ°å€ 0x80010b48
0x80001084: 00 07 a7 03 lw	a4, 0(a5)
è¯»å–åœ°å€ 0x80001088
0x80001088: fe 07 1a e3 bne	a4, zero, 0x8000107c
è¯»å–åœ°å€ 0x8000108c
å†™å…¥åœ°å€ 0x80010b48
0x8000108c: 00 c7 a0 23 sw	a2, 0(a5)
è¯»å–åœ°å€ 0x80001090
0x80001090: 00 47 87 93 addi	a5, a5, 4
è¯»å–åœ°å€ 0x80001094
0x80001094: fe d7 98 e3 bne	a5, a3, 0x80001084
è¯»å–åœ°å€ 0x80001084
è¯»å–åœ°å€ 0x80010b4c
0x80001084: 00 07 a7 03 lw	a4, 0(a5)
è¯»å–åœ°å€ 0x80001088
0x80001088: fe 07 1a e3 bne	a4, zero, 0x8000107c
è¯»å–åœ°å€ 0x8000108c
å†™å…¥åœ°å€ 0x80010b4c
0x8000108c: 00 c7 a0 23 sw	a2, 0(a5)
è¯»å–åœ°å€ 0x80001090
0x80001090: 00 47 87 93 addi	a5, a5, 4
è¯»å–åœ°å€ 0x80001094
0x80001094: fe d7 98 e3 bne	a5, a3, 0x80001084
è¯»å–åœ°å€ 0x80001084
è¯»å–åœ°å€ 0x80010b50
0x80001084: 00 07 a7 03 lw	a4, 0(a5)
è¯»å–åœ°å€ 0x80001088
0x80001088: fe 07 1a e3 bne	a4, zero, 0x8000107c
è¯»å–åœ°å€ 0x8000108c
å†™å…¥åœ°å€ 0x80010b50
0x8000108c: 00 c7 a0 23 sw	a2, 0(a5)
è¯»å–åœ°å€ 0x80001090
0x80001090: 00 47 87 93 addi	a5, a5, 4
è¯»å–åœ°å€ 0x80001094
0x80001094: fe d7 98 e3 bne	a5, a3, 0x80001084
è¯»å–åœ°å€ 0x80001084
è¯»å–åœ°å€ 0x80010b54
0x80001084: 00 07 a7 03 lw	a4, 0(a5)
è¯»å–åœ°å€ 0x80001088
0x80001088: fe 07 1a e3 bne	a4, zero, 0x8000107c
è¯»å–åœ°å€ 0x8000108c
å†™å…¥åœ°å€ 0x80010b54
0x8000108c: 00 c7 a0 23 sw	a2, 0(a5)
è¯»å–åœ°å€ 0x80001090
0x80001090: 00 47 87 93 addi	a5, a5, 4
è¯»å–åœ°å€ 0x80001094
0x80001094: fe d7 98 e3 bne	a5, a3, 0x80001084
è¯»å–åœ°å€ 0x80001084
è¯»å–åœ°å€ 0x80010b58
0x80001084: 00 07 a7 03 lw	a4, 0(a5)
è¯»å–åœ°å€ 0x80001088
0x80001088: fe 07 1a e3 bne	a4, zero, 0x8000107c
è¯»å–åœ°å€ 0x8000108c
å†™å…¥åœ°å€ 0x80010b58
0x8000108c: 00 c7 a0 23 sw	a2, 0(a5)
è¯»å–åœ°å€ 0x80001090
0x80001090: 00 47 87 93 addi	a5, a5, 4
è¯»å–åœ°å€ 0x80001094
0x80001094: fe d7 98 e3 bne	a5, a3, 0x80001084
è¯»å–åœ°å€ 0x80001084
è¯»å–åœ°å€ 0x80010b5c
0x80001084: 00 07 a7 03 lw	a4, 0(a5)
è¯»å–åœ°å€ 0x80001088
0x80001088: fe 07 1a e3 bne	a4, zero, 0x8000107c
è¯»å–åœ°å€ 0x8000108c
å†™å…¥åœ°å€ 0x80010b5c
0x8000108c: 00 c7 a0 23 sw	a2, 0(a5)
è¯»å–åœ°å€ 0x80001090
0x80001090: 00 47 87 93 addi	a5, a5, 4
è¯»å–åœ°å€ 0x80001094
0x80001094: fe d7 98 e3 bne	a5, a3, 0x80001084
è¯»å–åœ°å€ 0x80001084
è¯»å–åœ°å€ 0x80010b60
0x80001084: 00 07 a7 03 lw	a4, 0(a5)
è¯»å–åœ°å€ 0x80001088
0x80001088: fe 07 1a e3 bne	a4, zero, 0x8000107c
è¯»å–åœ°å€ 0x8000108c
å†™å…¥åœ°å€ 0x80010b60
0x8000108c: 00 c7 a0 23 sw	a2, 0(a5)
è¯»å–åœ°å€ 0x80001090
0x80001090: 00 47 87 93 addi	a5, a5, 4
è¯»å–åœ°å€ 0x80001094
0x80001094: fe d7 98 e3 bne	a5, a3, 0x80001084
è¯»å–åœ°å€ 0x80001084
è¯»å–åœ°å€ 0x80010b64
0x80001084: 00 07 a7 03 lw	a4, 0(a5)
è¯»å–åœ°å€ 0x80001088
0x80001088: fe 07 1a e3 bne	a4, zero, 0x8000107c
è¯»å–åœ°å€ 0x8000108c
å†™å…¥åœ°å€ 0x80010b64
0x8000108c: 00 c7 a0 23 sw	a2, 0(a5)
è¯»å–åœ°å€ 0x80001090
0x80001090: 00 47 87 93 addi	a5, a5, 4
è¯»å–åœ°å€ 0x80001094
0x80001094: fe d7 98 e3 bne	a5, a3, 0x80001084
è¯»å–åœ°å€ 0x80001084
è¯»å–åœ°å€ 0x80010b68
0x80001084: 00 07 a7 03 lw	a4, 0(a5)
è¯»å–åœ°å€ 0x80001088
0x80001088: fe 07 1a e3 bne	a4, zero, 0x8000107c
è¯»å–åœ°å€ 0x8000108c
å†™å…¥åœ°å€ 0x80010b68
0x8000108c: 00 c7 a0 23 sw	a2, 0(a5)
è¯»å–åœ°å€ 0x80001090
0x80001090: 00 47 87 93 addi	a5, a5, 4
è¯»å–åœ°å€ 0x80001094
0x80001094: fe d7 98 e3 bne	a5, a3, 0x80001084
è¯»å–åœ°å€ 0x80001084
è¯»å–åœ°å€ 0x80010b6c
0x80001084: 00 07 a7 03 lw	a4, 0(a5)
è¯»å–åœ°å€ 0x80001088
0x80001088: fe 07 1a e3 bne	a4, zero, 0x8000107c
è¯»å–åœ°å€ 0x8000108c
å†™å…¥åœ°å€ 0x80010b6c
0x8000108c: 00 c7 a0 23 sw	a2, 0(a5)
è¯»å–åœ°å€ 0x80001090
0x80001090: 00 47 87 93 addi	a5, a5, 4
è¯»å–åœ°å€ 0x80001094
0x80001094: fe d7 98 e3 bne	a5, a3, 0x80001084
è¯»å–åœ°å€ 0x80001084
è¯»å–åœ°å€ 0x80010b70
0x80001084: 00 07 a7 03 lw	a4, 0(a5)
è¯»å–åœ°å€ 0x80001088
0x80001088: fe 07 1a e3 bne	a4, zero, 0x8000107c
è¯»å–åœ°å€ 0x8000108c
å†™å…¥åœ°å€ 0x80010b70
0x8000108c: 00 c7 a0 23 sw	a2, 0(a5)
è¯»å–åœ°å€ 0x80001090
0x80001090: 00 47 87 93 addi	a5, a5, 4
è¯»å–åœ°å€ 0x80001094
0x80001094: fe d7 98 e3 bne	a5, a3, 0x80001084
è¯»å–åœ°å€ 0x80001084
è¯»å–åœ°å€ 0x80010b74
0x80001084: 00 07 a7 03 lw	a4, 0(a5)
è¯»å–åœ°å€ 0x80001088
0x80001088: fe 07 1a e3 bne	a4, zero, 0x8000107c
è¯»å–åœ°å€ 0x8000108c
å†™å…¥åœ°å€ 0x80010b74
0x8000108c: 00 c7 a0 23 sw	a2, 0(a5)
è¯»å–åœ°å€ 0x80001090
0x80001090: 00 47 87 93 addi	a5, a5, 4
è¯»å–åœ°å€ 0x80001094
0x80001094: fe d7 98 e3 bne	a5, a3, 0x80001084
è¯»å–åœ°å€ 0x80001084
è¯»å–åœ°å€ 0x80010b78
0x80001084: 00 07 a7 03 lw	a4, 0(a5)
è¯»å–åœ°å€ 0x80001088
0x80001088: fe 07 1a e3 bne	a4, zero, 0x8000107c
è¯»å–åœ°å€ 0x8000108c
å†™å…¥åœ°å€ 0x80010b78
0x8000108c: 00 c7 a0 23 sw	a2, 0(a5)
è¯»å–åœ°å€ 0x80001090
0x80001090: 00 47 87 93 addi	a5, a5, 4
è¯»å–åœ°å€ 0x80001094
0x80001094: fe d7 98 e3 bne	a5, a3, 0x80001084
è¯»å–åœ°å€ 0x80001084
è¯»å–åœ°å€ 0x80010b7c
0x80001084: 00 07 a7 03 lw	a4, 0(a5)
è¯»å–åœ°å€ 0x80001088
0x80001088: fe 07 1a e3 bne	a4, zero, 0x8000107c
è¯»å–åœ°å€ 0x8000108c
å†™å…¥åœ°å€ 0x80010b7c
0x8000108c: 00 c7 a0 23 sw	a2, 0(a5)
è¯»å–åœ°å€ 0x80001090
0x80001090: 00 47 87 93 addi	a5, a5, 4
è¯»å–åœ°å€ 0x80001094
0x80001094: fe d7 98 e3 bne	a5, a3, 0x80001084
è¯»å–åœ°å€ 0x80001084
è¯»å–åœ°å€ 0x80010b80
0x80001084: 00 07 a7 03 lw	a4, 0(a5)
è¯»å–åœ°å€ 0x80001088
0x80001088: fe 07 1a e3 bne	a4, zero, 0x8000107c
è¯»å–åœ°å€ 0x8000108c
å†™å…¥åœ°å€ 0x80010b80
0x8000108c: 00 c7 a0 23 sw	a2, 0(a5)
è¯»å–åœ°å€ 0x80001090
0x80001090: 00 47 87 93 addi	a5, a5, 4
è¯»å–åœ°å€ 0x80001094
0x80001094: fe d7 98 e3 bne	a5, a3, 0x80001084
è¯»å–åœ°å€ 0x80001084
è¯»å–åœ°å€ 0x80010b84
0x80001084: 00 07 a7 03 lw	a4, 0(a5)
è¯»å–åœ°å€ 0x80001088
0x80001088: fe 07 1a e3 bne	a4, zero, 0x8000107c
è¯»å–åœ°å€ 0x8000108c
å†™å…¥åœ°å€ 0x80010b84
0x8000108c: 00 c7 a0 23 sw	a2, 0(a5)
è¯»å–åœ°å€ 0x80001090
0x80001090: 00 47 87 93 addi	a5, a5, 4
è¯»å–åœ°å€ 0x80001094
0x80001094: fe d7 98 e3 bne	a5, a3, 0x80001084
è¯»å–åœ°å€ 0x80001084
è¯»å–åœ°å€ 0x80010b88
0x80001084: 00 07 a7 03 lw	a4, 0(a5)
è¯»å–åœ°å€ 0x80001088
0x80001088: fe 07 1a e3 bne	a4, zero, 0x8000107c
è¯»å–åœ°å€ 0x8000108c
å†™å…¥åœ°å€ 0x80010b88
0x8000108c: 00 c7 a0 23 sw	a2, 0(a5)
è¯»å–åœ°å€ 0x80001090
0x80001090: 00 47 87 93 addi	a5, a5, 4
è¯»å–åœ°å€ 0x80001094
0x80001094: fe d7 98 e3 bne	a5, a3, 0x80001084
è¯»å–åœ°å€ 0x80001084
è¯»å–åœ°å€ 0x80010b8c
0x80001084: 00 07 a7 03 lw	a4, 0(a5)
è¯»å–åœ°å€ 0x80001088
0x80001088: fe 07 1a e3 bne	a4, zero, 0x8000107c
è¯»å–åœ°å€ 0x8000108c
å†™å…¥åœ°å€ 0x80010b8c
0x8000108c: 00 c7 a0 23 sw	a2, 0(a5)
è¯»å–åœ°å€ 0x80001090
0x80001090: 00 47 87 93 addi	a5, a5, 4
è¯»å–åœ°å€ 0x80001094
0x80001094: fe d7 98 e3 bne	a5, a3, 0x80001084
è¯»å–åœ°å€ 0x80001084
è¯»å–åœ°å€ 0x80010b90
0x80001084: 00 07 a7 03 lw	a4, 0(a5)
è¯»å–åœ°å€ 0x80001088
0x80001088: fe 07 1a e3 bne	a4, zero, 0x8000107c
è¯»å–åœ°å€ 0x8000108c
å†™å…¥åœ°å€ 0x80010b90
0x8000108c: 00 c7 a0 23 sw	a2, 0(a5)
è¯»å–åœ°å€ 0x80001090
0x80001090: 00 47 87 93 addi	a5, a5, 4
è¯»å–åœ°å€ 0x80001094
0x80001094: fe d7 98 e3 bne	a5, a3, 0x80001084
è¯»å–åœ°å€ 0x80001084
è¯»å–åœ°å€ 0x80010b94
0x80001084: 00 07 a7 03 lw	a4, 0(a5)
è¯»å–åœ°å€ 0x80001088
0x80001088: fe 07 1a e3 bne	a4, zero, 0x8000107c
è¯»å–åœ°å€ 0x8000108c
å†™å…¥åœ°å€ 0x80010b94
0x8000108c: 00 c7 a0 23 sw	a2, 0(a5)
è¯»å–åœ°å€ 0x80001090
0x80001090: 00 47 87 93 addi	a5, a5, 4
è¯»å–åœ°å€ 0x80001094
0x80001094: fe d7 98 e3 bne	a5, a3, 0x80001084
è¯»å–åœ°å€ 0x80001084
è¯»å–åœ°å€ 0x80010b98
0x80001084: 00 07 a7 03 lw	a4, 0(a5)
è¯»å–åœ°å€ 0x80001088
0x80001088: fe 07 1a e3 bne	a4, zero, 0x8000107c
è¯»å–åœ°å€ 0x8000108c
å†™å…¥åœ°å€ 0x80010b98
0x8000108c: 00 c7 a0 23 sw	a2, 0(a5)
è¯»å–åœ°å€ 0x80001090
0x80001090: 00 47 87 93 addi	a5, a5, 4
è¯»å–åœ°å€ 0x80001094
0x80001094: fe d7 98 e3 bne	a5, a3, 0x80001084
è¯»å–åœ°å€ 0x80001084
è¯»å–åœ°å€ 0x80010b9c
0x80001084: 00 07 a7 03 lw	a4, 0(a5)
è¯»å–åœ°å€ 0x80001088
0x80001088: fe 07 1a e3 bne	a4, zero, 0x8000107c
è¯»å–åœ°å€ 0x8000108c
å†™å…¥åœ°å€ 0x80010b9c
0x8000108c: 00 c7 a0 23 sw	a2, 0(a5)
è¯»å–åœ°å€ 0x80001090
0x80001090: 00 47 87 93 addi	a5, a5, 4
è¯»å–åœ°å€ 0x80001094
0x80001094: fe d7 98 e3 bne	a5, a3, 0x80001084
è¯»å–åœ°å€ 0x80001084
è¯»å–åœ°å€ 0x80010ba0
0x80001084: 00 07 a7 03 lw	a4, 0(a5)
è¯»å–åœ°å€ 0x80001088
0x80001088: fe 07 1a e3 bne	a4, zero, 0x8000107c
è¯»å–åœ°å€ 0x8000108c
å†™å…¥åœ°å€ 0x80010ba0
0x8000108c: 00 c7 a0 23 sw	a2, 0(a5)
è¯»å–åœ°å€ 0x80001090
0x80001090: 00 47 87 93 addi	a5, a5, 4
è¯»å–åœ°å€ 0x80001094
0x80001094: fe d7 98 e3 bne	a5, a3, 0x80001084
è¯»å–åœ°å€ 0x80001084
è¯»å–åœ°å€ 0x80010ba4
0x80001084: 00 07 a7 03 lw	a4, 0(a5)
è¯»å–åœ°å€ 0x80001088
0x80001088: fe 07 1a e3 bne	a4, zero, 0x8000107c
è¯»å–åœ°å€ 0x8000108c
å†™å…¥åœ°å€ 0x80010ba4
0x8000108c: 00 c7 a0 23 sw	a2, 0(a5)
è¯»å–åœ°å€ 0x80001090
0x80001090: 00 47 87 93 addi	a5, a5, 4
è¯»å–åœ°å€ 0x80001094
0x80001094: fe d7 98 e3 bne	a5, a3, 0x80001084
è¯»å–åœ°å€ 0x80001084
è¯»å–åœ°å€ 0x80010ba8
0x80001084: 00 07 a7 03 lw	a4, 0(a5)
è¯»å–åœ°å€ 0x80001088
0x80001088: fe 07 1a e3 bne	a4, zero, 0x8000107c
è¯»å–åœ°å€ 0x8000108c
å†™å…¥åœ°å€ 0x80010ba8
0x8000108c: 00 c7 a0 23 sw	a2, 0(a5)
è¯»å–åœ°å€ 0x80001090
0x80001090: 00 47 87 93 addi	a5, a5, 4
è¯»å–åœ°å€ 0x80001094
0x80001094: fe d7 98 e3 bne	a5, a3, 0x80001084
è¯»å–åœ°å€ 0x80001084
è¯»å–åœ°å€ 0x80010bac
0x80001084: 00 07 a7 03 lw	a4, 0(a5)
è¯»å–åœ°å€ 0x80001088
0x80001088: fe 07 1a e3 bne	a4, zero, 0x8000107c
è¯»å–åœ°å€ 0x8000108c
å†™å…¥åœ°å€ 0x80010bac
0x8000108c: 00 c7 a0 23 sw	a2, 0(a5)
è¯»å–åœ°å€ 0x80001090
0x80001090: 00 47 87 93 addi	a5, a5, 4
è¯»å–åœ°å€ 0x80001094
0x80001094: fe d7 98 e3 bne	a5, a3, 0x80001084
è¯»å–åœ°å€ 0x80001084
è¯»å–åœ°å€ 0x80010bb0
0x80001084: 00 07 a7 03 lw	a4, 0(a5)
è¯»å–åœ°å€ 0x80001088
0x80001088: fe 07 1a e3 bne	a4, zero, 0x8000107c
è¯»å–åœ°å€ 0x8000108c
å†™å…¥åœ°å€ 0x80010bb0
0x8000108c: 00 c7 a0 23 sw	a2, 0(a5)
è¯»å–åœ°å€ 0x80001090
0x80001090: 00 47 87 93 addi	a5, a5, 4
è¯»å–åœ°å€ 0x80001094
0x80001094: fe d7 98 e3 bne	a5, a3, 0x80001084
è¯»å–åœ°å€ 0x80001084
è¯»å–åœ°å€ 0x80010bb4
0x80001084: 00 07 a7 03 lw	a4, 0(a5)
è¯»å–åœ°å€ 0x80001088
0x80001088: fe 07 1a e3 bne	a4, zero, 0x8000107c
è¯»å–åœ°å€ 0x8000108c
å†™å…¥åœ°å€ 0x80010bb4
0x8000108c: 00 c7 a0 23 sw	a2, 0(a5)
è¯»å–åœ°å€ 0x80001090
0x80001090: 00 47 87 93 addi	a5, a5, 4
è¯»å–åœ°å€ 0x80001094
0x80001094: fe d7 98 e3 bne	a5, a3, 0x80001084
è¯»å–åœ°å€ 0x80001084
è¯»å–åœ°å€ 0x80010bb8
0x80001084: 00 07 a7 03 lw	a4, 0(a5)
è¯»å–åœ°å€ 0x80001088
0x80001088: fe 07 1a e3 bne	a4, zero, 0x8000107c
è¯»å–åœ°å€ 0x8000108c
å†™å…¥åœ°å€ 0x80010bb8
0x8000108c: 00 c7 a0 23 sw	a2, 0(a5)
è¯»å–åœ°å€ 0x80001090
0x80001090: 00 47 87 93 addi	a5, a5, 4
è¯»å–åœ°å€ 0x80001094
0x80001094: fe d7 98 e3 bne	a5, a3, 0x80001084
è¯»å–åœ°å€ 0x80001084
è¯»å–åœ°å€ 0x80010bbc
0x80001084: 00 07 a7 03 lw	a4, 0(a5)
è¯»å–åœ°å€ 0x80001088
0x80001088: fe 07 1a e3 bne	a4, zero, 0x8000107c
è¯»å–åœ°å€ 0x8000108c
å†™å…¥åœ°å€ 0x80010bbc
0x8000108c: 00 c7 a0 23 sw	a2, 0(a5)
è¯»å–åœ°å€ 0x80001090
0x80001090: 00 47 87 93 addi	a5, a5, 4
è¯»å–åœ°å€ 0x80001094
0x80001094: fe d7 98 e3 bne	a5, a3, 0x80001084
è¯»å–åœ°å€ 0x80001084
è¯»å–åœ°å€ 0x80010bc0
0x80001084: 00 07 a7 03 lw	a4, 0(a5)
è¯»å–åœ°å€ 0x80001088
0x80001088: fe 07 1a e3 bne	a4, zero, 0x8000107c
è¯»å–åœ°å€ 0x8000108c
å†™å…¥åœ°å€ 0x80010bc0
0x8000108c: 00 c7 a0 23 sw	a2, 0(a5)
è¯»å–åœ°å€ 0x80001090
0x80001090: 00 47 87 93 addi	a5, a5, 4
è¯»å–åœ°å€ 0x80001094
0x80001094: fe d7 98 e3 bne	a5, a3, 0x80001084
è¯»å–åœ°å€ 0x80001084
è¯»å–åœ°å€ 0x80010bc4
0x80001084: 00 07 a7 03 lw	a4, 0(a5)
è¯»å–åœ°å€ 0x80001088
0x80001088: fe 07 1a e3 bne	a4, zero, 0x8000107c
è¯»å–åœ°å€ 0x8000108c
å†™å…¥åœ°å€ 0x80010bc4
0x8000108c: 00 c7 a0 23 sw	a2, 0(a5)
è¯»å–åœ°å€ 0x80001090
0x80001090: 00 47 87 93 addi	a5, a5, 4
è¯»å–åœ°å€ 0x80001094
0x80001094: fe d7 98 e3 bne	a5, a3, 0x80001084
è¯»å–åœ°å€ 0x80001084
è¯»å–åœ°å€ 0x80010bc8
0x80001084: 00 07 a7 03 lw	a4, 0(a5)
è¯»å–åœ°å€ 0x80001088
0x80001088: fe 07 1a e3 bne	a4, zero, 0x8000107c
è¯»å–åœ°å€ 0x8000108c
å†™å…¥åœ°å€ 0x80010bc8
0x8000108c: 00 c7 a0 23 sw	a2, 0(a5)
è¯»å–åœ°å€ 0x80001090
0x80001090: 00 47 87 93 addi	a5, a5, 4
è¯»å–åœ°å€ 0x80001094
0x80001094: fe d7 98 e3 bne	a5, a3, 0x80001084
è¯»å–åœ°å€ 0x80001084
è¯»å–åœ°å€ 0x80010bcc
0x80001084: 00 07 a7 03 lw	a4, 0(a5)
è¯»å–åœ°å€ 0x80001088
0x80001088: fe 07 1a e3 bne	a4, zero, 0x8000107c
è¯»å–åœ°å€ 0x8000108c
å†™å…¥åœ°å€ 0x80010bcc
0x8000108c: 00 c7 a0 23 sw	a2, 0(a5)
è¯»å–åœ°å€ 0x80001090
0x80001090: 00 47 87 93 addi	a5, a5, 4
è¯»å–åœ°å€ 0x80001094
0x80001094: fe d7 98 e3 bne	a5, a3, 0x80001084
è¯»å–åœ°å€ 0x80001084
è¯»å–åœ°å€ 0x80010bd0
0x80001084: 00 07 a7 03 lw	a4, 0(a5)
è¯»å–åœ°å€ 0x80001088
0x80001088: fe 07 1a e3 bne	a4, zero, 0x8000107c
è¯»å–åœ°å€ 0x8000108c
å†™å…¥åœ°å€ 0x80010bd0
0x8000108c: 00 c7 a0 23 sw	a2, 0(a5)
è¯»å–åœ°å€ 0x80001090
0x80001090: 00 47 87 93 addi	a5, a5, 4
è¯»å–åœ°å€ 0x80001094
0x80001094: fe d7 98 e3 bne	a5, a3, 0x80001084
è¯»å–åœ°å€ 0x80001084
è¯»å–åœ°å€ 0x80010bd4
0x80001084: 00 07 a7 03 lw	a4, 0(a5)
è¯»å–åœ°å€ 0x80001088
0x80001088: fe 07 1a e3 bne	a4, zero, 0x8000107c
è¯»å–åœ°å€ 0x8000108c
å†™å…¥åœ°å€ 0x80010bd4
0x8000108c: 00 c7 a0 23 sw	a2, 0(a5)
è¯»å–åœ°å€ 0x80001090
0x80001090: 00 47 87 93 addi	a5, a5, 4
è¯»å–åœ°å€ 0x80001094
0x80001094: fe d7 98 e3 bne	a5, a3, 0x80001084
è¯»å–åœ°å€ 0x80001084
è¯»å–åœ°å€ 0x80010bd8
0x80001084: 00 07 a7 03 lw	a4, 0(a5)
è¯»å–åœ°å€ 0x80001088
0x80001088: fe 07 1a e3 bne	a4, zero, 0x8000107c
è¯»å–åœ°å€ 0x8000108c
å†™å…¥åœ°å€ 0x80010bd8
0x8000108c: 00 c7 a0 23 sw	a2, 0(a5)
è¯»å–åœ°å€ 0x80001090
0x80001090: 00 47 87 93 addi	a5, a5, 4
è¯»å–åœ°å€ 0x80001094
0x80001094: fe d7 98 e3 bne	a5, a3, 0x80001084
è¯»å–åœ°å€ 0x80001084
è¯»å–åœ°å€ 0x80010bdc
0x80001084: 00 07 a7 03 lw	a4, 0(a5)
è¯»å–åœ°å€ 0x80001088
0x80001088: fe 07 1a e3 bne	a4, zero, 0x8000107c
è¯»å–åœ°å€ 0x8000108c
å†™å…¥åœ°å€ 0x80010bdc
0x8000108c: 00 c7 a0 23 sw	a2, 0(a5)
è¯»å–åœ°å€ 0x80001090
0x80001090: 00 47 87 93 addi	a5, a5, 4
è¯»å–åœ°å€ 0x80001094
0x80001094: fe d7 98 e3 bne	a5, a3, 0x80001084
è¯»å–åœ°å€ 0x80001084
è¯»å–åœ°å€ 0x80010be0
0x80001084: 00 07 a7 03 lw	a4, 0(a5)
è¯»å–åœ°å€ 0x80001088
0x80001088: fe 07 1a e3 bne	a4, zero, 0x8000107c
è¯»å–åœ°å€ 0x8000108c
å†™å…¥åœ°å€ 0x80010be0
0x8000108c: 00 c7 a0 23 sw	a2, 0(a5)
è¯»å–åœ°å€ 0x80001090
0x80001090: 00 47 87 93 addi	a5, a5, 4
è¯»å–åœ°å€ 0x80001094
0x80001094: fe d7 98 e3 bne	a5, a3, 0x80001084
è¯»å–åœ°å€ 0x80001084
è¯»å–åœ°å€ 0x80010be4
0x80001084: 00 07 a7 03 lw	a4, 0(a5)
è¯»å–åœ°å€ 0x80001088
0x80001088: fe 07 1a e3 bne	a4, zero, 0x8000107c
è¯»å–åœ°å€ 0x8000108c
å†™å…¥åœ°å€ 0x80010be4
0x8000108c: 00 c7 a0 23 sw	a2, 0(a5)
è¯»å–åœ°å€ 0x80001090
0x80001090: 00 47 87 93 addi	a5, a5, 4
è¯»å–åœ°å€ 0x80001094
0x80001094: fe d7 98 e3 bne	a5, a3, 0x80001084
è¯»å–åœ°å€ 0x80001084
è¯»å–åœ°å€ 0x80010be8
0x80001084: 00 07 a7 03 lw	a4, 0(a5)
è¯»å–åœ°å€ 0x80001088
0x80001088: fe 07 1a e3 bne	a4, zero, 0x8000107c
è¯»å–åœ°å€ 0x8000108c
å†™å…¥åœ°å€ 0x80010be8
0x8000108c: 00 c7 a0 23 sw	a2, 0(a5)
è¯»å–åœ°å€ 0x80001090
0x80001090: 00 47 87 93 addi	a5, a5, 4
è¯»å–åœ°å€ 0x80001094
0x80001094: fe d7 98 e3 bne	a5, a3, 0x80001084
è¯»å–åœ°å€ 0x80001084
è¯»å–åœ°å€ 0x80010bec
0x80001084: 00 07 a7 03 lw	a4, 0(a5)
è¯»å–åœ°å€ 0x80001088
0x80001088: fe 07 1a e3 bne	a4, zero, 0x8000107c
è¯»å–åœ°å€ 0x8000108c
å†™å…¥åœ°å€ 0x80010bec
0x8000108c: 00 c7 a0 23 sw	a2, 0(a5)
è¯»å–åœ°å€ 0x80001090
0x80001090: 00 47 87 93 addi	a5, a5, 4
è¯»å–åœ°å€ 0x80001094
0x80001094: fe d7 98 e3 bne	a5, a3, 0x80001084
è¯»å–åœ°å€ 0x80001084
è¯»å–åœ°å€ 0x80010bf0
0x80001084: 00 07 a7 03 lw	a4, 0(a5)
è¯»å–åœ°å€ 0x80001088
0x80001088: fe 07 1a e3 bne	a4, zero, 0x8000107c
è¯»å–åœ°å€ 0x8000108c
å†™å…¥åœ°å€ 0x80010bf0
0x8000108c: 00 c7 a0 23 sw	a2, 0(a5)
è¯»å–åœ°å€ 0x80001090
0x80001090: 00 47 87 93 addi	a5, a5, 4
è¯»å–åœ°å€ 0x80001094
0x80001094: fe d7 98 e3 bne	a5, a3, 0x80001084
è¯»å–åœ°å€ 0x80001084
è¯»å–åœ°å€ 0x80010bf4
0x80001084: 00 07 a7 03 lw	a4, 0(a5)
è¯»å–åœ°å€ 0x80001088
0x80001088: fe 07 1a e3 bne	a4, zero, 0x8000107c
è¯»å–åœ°å€ 0x8000108c
å†™å…¥åœ°å€ 0x80010bf4
0x8000108c: 00 c7 a0 23 sw	a2, 0(a5)
è¯»å–åœ°å€ 0x80001090
0x80001090: 00 47 87 93 addi	a5, a5, 4
è¯»å–åœ°å€ 0x80001094
0x80001094: fe d7 98 e3 bne	a5, a3, 0x80001084
è¯»å–åœ°å€ 0x80001098
0x80001098: 0d 00 00 ef jal	ra, 0x80001168
è¯»å–åœ°å€ 0x80001168
0x80001168: 00 00 80 67 jalr	zero, 0(ra)
è¯»å–åœ°å€ 0x8000109c
0x8000109c: 05 00 00 ef jal	ra, 0x800010ec
è¯»å–åœ°å€ 0x800010ec
0x800010ec: a0 00 07 b7 lui	a5, 655360
è¯»å–åœ°å€ 0x800010f0
write device name = rtc 	 addr = 0xa0000048 
0x800010f0: 04 07 a4 23 sw	zero, 72(a5)
è¯»å–åœ°å€ 0x800010f4
write device name = rtc 	 addr = 0xa000004c 
0x800010f4: 04 07 a6 23 sw	zero, 76(a5)
è¯»å–åœ°å€ 0x800010f8
0x800010f8: 00 00 80 67 jalr	zero, 0(ra)
è¯»å–åœ°å€ 0x800010a0
0x800010a0: 10 80 00 ef jal	ra, 0x800011a8
è¯»å–åœ°å€ 0x800011a8
0x800011a8: 00 00 80 67 jalr	zero, 0(ra)
è¯»å–åœ°å€ 0x800010a4
è¯»å–åœ°å€ 0x8009cfcc
0x800010a4: 00 c1 20 83 lw	ra, 12(sp)
è¯»å–åœ°å€ 0x800010a8
0x800010a8: 00 10 05 13 addi	a0, zero, 1
è¯»å–åœ°å€ 0x800010ac
0x800010ac: 01 01 01 13 addi	sp, sp, 16
è¯»å–åœ°å€ 0x800010b0
0x800010b0: 00 00 80 67 jalr	zero, 0(ra)
è¯»å–åœ°å€ 0x80000ef8
0x80000ef8: dd df f0 ef jal	ra, 0x80000cd4
è¯»å–åœ°å€ 0x80000cd4
0x80000cd4: 80 00 25 37 lui	a0, 524290
è¯»å–åœ°å€ 0x80000cd8
0x80000cd8: fd 01 01 13 addi	sp, sp, -48
è¯»å–åœ°å€ 0x80000cdc
0x80000cdc: 13 c5 05 13 addi	a0, a0, 316
è¯»å–åœ°å€ 0x80000ce0
å†™å…¥åœ°å€ 0x8009cfcc
0x80000ce0: 02 11 26 23 sw	ra, 44(sp)
è¯»å–åœ°å€ 0x80000ce4
å†™å…¥åœ°å€ 0x8009cfc8
0x80000ce4: 02 81 24 23 sw	s0, 40(sp)
è¯»å–åœ°å€ 0x80000ce8
å†™å…¥åœ°å€ 0x8009cfc4
0x80000ce8: 02 91 22 23 sw	s1, 36(sp)
è¯»å–åœ°å€ 0x80000cec
å†™å…¥åœ°å€ 0x8009cfc0
0x80000cec: 03 21 20 23 sw	s2, 32(sp)
è¯»å–åœ°å€ 0x80000cf0
å†™å…¥åœ°å€ 0x8009cfbc
0x80000cf0: 01 31 2e 23 sw	s3, 28(sp)
è¯»å–åœ°å€ 0x80000cf4
å†™å…¥åœ°å€ 0x8009cfb8
0x80000cf4: 01 41 2c 23 sw	s4, 24(sp)
è¯»å–åœ°å€ 0x80000cf8
å†™å…¥åœ°å€ 0x8009cfb4
0x80000cf8: 01 51 2a 23 sw	s5, 20(sp)
è¯»å–åœ°å€ 0x80000cfc
0x80000cfc: 1e 10 00 ef jal	ra, 0x800016dc
è¯»å–åœ°å€ 0x800016dc
0x800016dc: bc 01 01 13 addi	sp, sp, -1088
è¯»å–åœ°å€ 0x800016e0
å†™å…¥åœ°å€ 0x8009cf78
0x800016e0: 40 81 2c 23 sw	s0, 1048(sp)
è¯»å–åœ°å€ 0x800016e4
å†™å…¥åœ°å€ 0x8009cf74
0x800016e4: 40 91 2a 23 sw	s1, 1044(sp)
è¯»å–åœ°å€ 0x800016e8
0x800016e8: 00 05 04 13 addi	s0, a0, 0
è¯»å–åœ°å€ 0x800016ec
å†™å…¥åœ°å€ 0x8009cf84
0x800016ec: 42 b1 22 23 sw	a1, 1060(sp)
è¯»å–åœ°å€ 0x800016f0
å†™å…¥åœ°å€ 0x8009cf88
0x800016f0: 42 c1 24 23 sw	a2, 1064(sp)
è¯»å–åœ°å€ 0x800016f4
0x800016f4: 42 41 04 93 addi	s1, sp, 1060
è¯»å–åœ°å€ 0x800016f8
0x800016f8: 3f c0 06 13 addi	a2, zero, 1020
è¯»å–åœ°å€ 0x800016fc
0x800016fc: 00 00 05 93 addi	a1, zero, 0
è¯»å–åœ°å€ 0x80001700
0x80001700: 01 41 05 13 addi	a0, sp, 20
è¯»å–åœ°å€ 0x80001704
å†™å…¥åœ°å€ 0x8009cf7c
0x80001704: 40 11 2e 23 sw	ra, 1052(sp)
è¯»å–åœ°å€ 0x80001708
å†™å…¥åœ°å€ 0x8009cf70
0x80001708: 41 21 28 23 sw	s2, 1040(sp)
è¯»å–åœ°å€ 0x8000170c
å†™å…¥åœ°å€ 0x8009cf8c
0x8000170c: 42 d1 26 23 sw	a3, 1068(sp)
è¯»å–åœ°å€ 0x80001710
å†™å…¥åœ°å€ 0x8009cf90
0x80001710: 42 e1 28 23 sw	a4, 1072(sp)
è¯»å–åœ°å€ 0x80001714
å†™å…¥åœ°å€ 0x8009cf94
0x80001714: 42 f1 2a 23 sw	a5, 1076(sp)
è¯»å–åœ°å€ 0x80001718
å†™å…¥åœ°å€ 0x8009cf98
0x80001718: 43 01 2c 23 sw	a6, 1080(sp)
è¯»å–åœ°å€ 0x8000171c
å†™å…¥åœ°å€ 0x8009cf9c
0x8000171c: 43 11 2e 23 sw	a7, 1084(sp)
è¯»å–åœ°å€ 0x80001720
å†™å…¥åœ°å€ 0x8009cb6c
0x80001720: 00 91 26 23 sw	s1, 12(sp)
è¯»å–åœ°å€ 0x80001724
å†™å…¥åœ°å€ 0x8009cb70
0x80001724: 00 01 28 23 sw	zero, 16(sp)
è¯»å–åœ°å€ 0x80001728
0x80001728: 1d 40 00 ef jal	ra, 0x800018fc
è¯»å–åœ°å€ 0x800018fc
0x800018fc: 0f f5 f5 93 andi	a1, a1, 255
è¯»å–åœ°å€ 0x80001900
0x80001900: 00 c5 07 33 add	a4, a0, a2
è¯»å–åœ°å€ 0x80001904
0x80001904: 00 05 07 93 addi	a5, a0, 0
è¯»å–åœ°å€ 0x80001908
0x80001908: 00 06 08 63 beq	a2, zero, 0x80001918
è¯»å–åœ°å€ 0x8000190c
å†™å…¥åœ°å€ 0x8009cb74
0x8000190c: 00 b7 80 23 sb	a1, 0(a5)
è¯»å–åœ°å€ 0x80001910
0x80001910: 00 17 87 93 addi	a5, a5, 1
è¯»å–åœ°å€ 0x80001914
0x80001914: fe e7 9c e3 bne	a5, a4, 0x8000190c
è¯»å–åœ°å€ 0x8000190c
å†™å…¥åœ°å€ 0x8009cb75
0x8000190c: 00 b7 80 23 sb	a1, 0(a5)
è¯»å–åœ°å€ 0x80001910
0x80001910: 00 17 87 93 addi	a5, a5, 1
è¯»å–åœ°å€ 0x80001914
0x80001914: fe e7 9c e3 bne	a5, a4, 0x8000190c
è¯»å–åœ°å€ 0x8000190c
å†™å…¥åœ°å€ 0x8009cb76
0x8000190c: 00 b7 80 23 sb	a1, 0(a5)
è¯»å–åœ°å€ 0x80001910
0x80001910: 00 17 87 93 addi	a5, a5, 1
è¯»å–åœ°å€ 0x80001914
0x80001914: fe e7 9c e3 bne	a5, a4, 0x8000190c
è¯»å–åœ°å€ 0x8000190c
å†™å…¥åœ°å€ 0x8009cb77
0x8000190c: 00 b7 80 23 sb	a1, 0(a5)
è¯»å–åœ°å€ 0x80001910
0x80001910: 00 17 87 93 addi	a5, a5, 1
è¯»å–åœ°å€ 0x80001914
0x80001914: fe e7 9c e3 bne	a5, a4, 0x8000190c
è¯»å–åœ°å€ 0x8000190c
å†™å…¥åœ°å€ 0x8009cb78
0x8000190c: 00 b7 80 23 sb	a1, 0(a5)
è¯»å–åœ°å€ 0x80001910
0x80001910: 00 17 87 93 addi	a5, a5, 1
è¯»å–åœ°å€ 0x80001914
0x80001914: fe e7 9c e3 bne	a5, a4, 0x8000190c
è¯»å–åœ°å€ 0x8000190c
å†™å…¥åœ°å€ 0x8009cb79
0x8000190c: 00 b7 80 23 sb	a1, 0(a5)
è¯»å–åœ°å€ 0x80001910
0x80001910: 00 17 87 93 addi	a5, a5, 1
è¯»å–åœ°å€ 0x80001914
0x80001914: fe e7 9c e3 bne	a5, a4, 0x8000190c
è¯»å–åœ°å€ 0x8000190c
å†™å…¥åœ°å€ 0x8009cb7a
0x8000190c: 00 b7 80 23 sb	a1, 0(a5)
è¯»å–åœ°å€ 0x80001910
0x80001910: 00 17 87 93 addi	a5, a5, 1
è¯»å–åœ°å€ 0x80001914
0x80001914: fe e7 9c e3 bne	a5, a4, 0x8000190c
è¯»å–åœ°å€ 0x8000190c
å†™å…¥åœ°å€ 0x8009cb7b
0x8000190c: 00 b7 80 23 sb	a1, 0(a5)
è¯»å–åœ°å€ 0x80001910
0x80001910: 00 17 87 93 addi	a5, a5, 1
è¯»å–åœ°å€ 0x80001914
0x80001914: fe e7 9c e3 bne	a5, a4, 0x8000190c
è¯»å–åœ°å€ 0x8000190c
å†™å…¥åœ°å€ 0x8009cb7c
0x8000190c: 00 b7 80 23 sb	a1, 0(a5)
è¯»å–åœ°å€ 0x80001910
0x80001910: 00 17 87 93 addi	a5, a5, 1
è¯»å–åœ°å€ 0x80001914
0x80001914: fe e7 9c e3 bne	a5, a4, 0x8000190c
è¯»å–åœ°å€ 0x8000190c
å†™å…¥åœ°å€ 0x8009cb7d
0x8000190c: 00 b7 80 23 sb	a1, 0(a5)
è¯»å–åœ°å€ 0x80001910
0x80001910: 00 17 87 93 addi	a5, a5, 1
è¯»å–åœ°å€ 0x80001914
0x80001914: fe e7 9c e3 bne	a5, a4, 0x8000190c
è¯»å–åœ°å€ 0x8000190c
å†™å…¥åœ°å€ 0x8009cb7e
0x8000190c: 00 b7 80 23 sb	a1, 0(a5)
è¯»å–åœ°å€ 0x80001910
0x80001910: 00 17 87 93 addi	a5, a5, 1
è¯»å–åœ°å€ 0x80001914
0x80001914: fe e7 9c e3 bne	a5, a4, 0x8000190c
è¯»å–åœ°å€ 0x8000190c
å†™å…¥åœ°å€ 0x8009cb7f
0x8000190c: 00 b7 80 23 sb	a1, 0(a5)
è¯»å–åœ°å€ 0x80001910
0x80001910: 00 17 87 93 addi	a5, a5, 1
è¯»å–åœ°å€ 0x80001914
0x80001914: fe e7 9c e3 bne	a5, a4, 0x8000190c
è¯»å–åœ°å€ 0x8000190c
å†™å…¥åœ°å€ 0x8009cb80
0x8000190c: 00 b7 80 23 sb	a1, 0(a5)
è¯»å–åœ°å€ 0x80001910
0x80001910: 00 17 87 93 addi	a5, a5, 1
è¯»å–åœ°å€ 0x80001914
0x80001914: fe e7 9c e3 bne	a5, a4, 0x8000190c
è¯»å–åœ°å€ 0x8000190c
å†™å…¥åœ°å€ 0x8009cb81
0x8000190c: 00 b7 80 23 sb	a1, 0(a5)
è¯»å–åœ°å€ 0x80001910
0x80001910: 00 17 87 93 addi	a5, a5, 1
è¯»å–åœ°å€ 0x80001914
0x80001914: fe e7 9c e3 bne	a5, a4, 0x8000190c
è¯»å–åœ°å€ 0x8000190c
å†™å…¥åœ°å€ 0x8009cb82
0x8000190c: 00 b7 80 23 sb	a1, 0(a5)
è¯»å–åœ°å€ 0x80001910
0x80001910: 00 17 87 93 addi	a5, a5, 1
è¯»å–åœ°å€ 0x80001914
0x80001914: fe e7 9c e3 bne	a5, a4, 0x8000190c
è¯»å–åœ°å€ 0x8000190c
å†™å…¥åœ°å€ 0x8009cb83
0x8000190c: 00 b7 80 23 sb	a1, 0(a5)
è¯»å–åœ°å€ 0x80001910
0x80001910: 00 17 87 93 addi	a5, a5, 1
è¯»å–åœ°å€ 0x80001914
0x80001914: fe e7 9c e3 bne	a5, a4, 0x8000190c
è¯»å–åœ°å€ 0x8000190c
å†™å…¥åœ°å€ 0x8009cb84
0x8000190c: 00 b7 80 23 sb	a1, 0(a5)
è¯»å–åœ°å€ 0x80001910
0x80001910: 00 17 87 93 addi	a5, a5, 1
è¯»å–åœ°å€ 0x80001914
0x80001914: fe e7 9c e3 bne	a5, a4, 0x8000190c
è¯»å–åœ°å€ 0x8000190c
å†™å…¥åœ°å€ 0x8009cb85
0x8000190c: 00 b7 80 23 sb	a1, 0(a5)
è¯»å–åœ°å€ 0x80001910
0x80001910: 00 17 87 93 addi	a5, a5, 1
è¯»å–åœ°å€ 0x80001914
0x80001914: fe e7 9c e3 bne	a5, a4, 0x8000190c
è¯»å–åœ°å€ 0x8000190c
å†™å…¥åœ°å€ 0x8009cb86
0x8000190c: 00 b7 80 23 sb	a1, 0(a5)
è¯»å–åœ°å€ 0x80001910
0x80001910: 00 17 87 93 addi	a5, a5, 1
è¯»å–åœ°å€ 0x80001914
0x80001914: fe e7 9c e3 bne	a5, a4, 0x8000190c
è¯»å–åœ°å€ 0x8000190c
å†™å…¥åœ°å€ 0x8009cb87
0x8000190c: 00 b7 80 23 sb	a1, 0(a5)
è¯»å–åœ°å€ 0x80001910
0x80001910: 00 17 87 93 addi	a5, a5, 1
è¯»å–åœ°å€ 0x80001914
0x80001914: fe e7 9c e3 bne	a5, a4, 0x8000190c
è¯»å–åœ°å€ 0x8000190c
å†™å…¥åœ°å€ 0x8009cb88
0x8000190c: 00 b7 80 23 sb	a1, 0(a5)
è¯»å–åœ°å€ 0x80001910
0x80001910: 00 17 87 93 addi	a5, a5, 1
è¯»å–åœ°å€ 0x80001914
0x80001914: fe e7 9c e3 bne	a5, a4, 0x8000190c
è¯»å–åœ°å€ 0x8000190c
å†™å…¥åœ°å€ 0x8009cb89
0x8000190c: 00 b7 80 23 sb	a1, 0(a5)
è¯»å–åœ°å€ 0x80001910
0x80001910: 00 17 87 93 addi	a5, a5, 1
è¯»å–åœ°å€ 0x80001914
0x80001914: fe e7 9c e3 bne	a5, a4, 0x8000190c
è¯»å–åœ°å€ 0x8000190c
å†™å…¥åœ°å€ 0x8009cb8a
0x8000190c: 00 b7 80 23 sb	a1, 0(a5)
è¯»å–åœ°å€ 0x80001910
0x80001910: 00 17 87 93 addi	a5, a5, 1
è¯»å–åœ°å€ 0x80001914
0x80001914: fe e7 9c e3 bne	a5, a4, 0x8000190c
è¯»å–åœ°å€ 0x8000190c
å†™å…¥åœ°å€ 0x8009cb8b
0x8000190c: 00 b7 80 23 sb	a1, 0(a5)
è¯»å–åœ°å€ 0x80001910
0x80001910: 00 17 87 93 addi	a5, a5, 1
è¯»å–åœ°å€ 0x80001914
0x80001914: fe e7 9c e3 bne	a5, a4, 0x8000190c
è¯»å–åœ°å€ 0x8000190c
å†™å…¥åœ°å€ 0x8009cb8c
0x8000190c: 00 b7 80 23 sb	a1, 0(a5)
è¯»å–åœ°å€ 0x80001910
0x80001910: 00 17 87 93 addi	a5, a5, 1
è¯»å–åœ°å€ 0x80001914
0x80001914: fe e7 9c e3 bne	a5, a4, 0x8000190c
è¯»å–åœ°å€ 0x8000190c
å†™å…¥åœ°å€ 0x8009cb8d
0x8000190c: 00 b7 80 23 sb	a1, 0(a5)
è¯»å–åœ°å€ 0x80001910
0x80001910: 00 17 87 93 addi	a5, a5, 1
è¯»å–åœ°å€ 0x80001914
0x80001914: fe e7 9c e3 bne	a5, a4, 0x8000190c
è¯»å–åœ°å€ 0x8000190c
å†™å…¥åœ°å€ 0x8009cb8e
0x8000190c: 00 b7 80 23 sb	a1, 0(a5)
è¯»å–åœ°å€ 0x80001910
0x80001910: 00 17 87 93 addi	a5, a5, 1
è¯»å–åœ°å€ 0x80001914
0x80001914: fe e7 9c e3 bne	a5, a4, 0x8000190c
è¯»å–åœ°å€ 0x8000190c
å†™å…¥åœ°å€ 0x8009cb8f
0x8000190c: 00 b7 80 23 sb	a1, 0(a5)
è¯»å–åœ°å€ 0x80001910
0x80001910: 00 17 87 93 addi	a5, a5, 1
è¯»å–åœ°å€ 0x80001914
0x80001914: fe e7 9c e3 bne	a5, a4, 0x8000190c
è¯»å–åœ°å€ 0x8000190c
å†™å…¥åœ°å€ 0x8009cb90
0x8000190c: 00 b7 80 23 sb	a1, 0(a5)
è¯»å–åœ°å€ 0x80001910
0x80001910: 00 17 87 93 addi	a5, a5, 1
è¯»å–åœ°å€ 0x80001914
0x80001914: fe e7 9c e3 bne	a5, a4, 0x8000190c
è¯»å–åœ°å€ 0x8000190c
å†™å…¥åœ°å€ 0x8009cb91
0x8000190c: 00 b7 80 23 sb	a1, 0(a5)
è¯»å–åœ°å€ 0x80001910
0x80001910: 00 17 87 93 addi	a5, a5, 1
è¯»å–åœ°å€ 0x80001914
0x80001914: fe e7 9c e3 bne	a5, a4, 0x8000190c
è¯»å–åœ°å€ 0x8000190c
å†™å…¥åœ°å€ 0x8009cb92
0x8000190c: 00 b7 80 23 sb	a1, 0(a5)
è¯»å–åœ°å€ 0x80001910
0x80001910: 00 17 87 93 addi	a5, a5, 1
è¯»å–åœ°å€ 0x80001914
0x80001914: fe e7 9c e3 bne	a5, a4, 0x8000190c
è¯»å–åœ°å€ 0x8000190c
å†™å…¥åœ°å€ 0x8009cb93
0x8000190c: 00 b7 80 23 sb	a1, 0(a5)
è¯»å–åœ°å€ 0x80001910
0x80001910: 00 17 87 93 addi	a5, a5, 1
è¯»å–åœ°å€ 0x80001914
0x80001914: fe e7 9c e3 bne	a5, a4, 0x8000190c
è¯»å–åœ°å€ 0x8000190c
å†™å…¥åœ°å€ 0x8009cb94
0x8000190c: 00 b7 80 23 sb	a1, 0(a5)
è¯»å–åœ°å€ 0x80001910
0x80001910: 00 17 87 93 addi	a5, a5, 1
è¯»å–åœ°å€ 0x80001914
0x80001914: fe e7 9c e3 bne	a5, a4, 0x8000190c
è¯»å–åœ°å€ 0x8000190c
å†™å…¥åœ°å€ 0x8009cb95
0x8000190c: 00 b7 80 23 sb	a1, 0(a5)
è¯»å–åœ°å€ 0x80001910
0x80001910: 00 17 87 93 addi	a5, a5, 1
è¯»å–åœ°å€ 0x80001914
0x80001914: fe e7 9c e3 bne	a5, a4, 0x8000190c
è¯»å–åœ°å€ 0x8000190c
å†™å…¥åœ°å€ 0x8009cb96
0x8000190c: 00 b7 80 23 sb	a1, 0(a5)
è¯»å–åœ°å€ 0x80001910
0x80001910: 00 17 87 93 addi	a5, a5, 1
è¯»å–åœ°å€ 0x80001914
0x80001914: fe e7 9c e3 bne	a5, a4, 0x8000190c
è¯»å–åœ°å€ 0x8000190c
å†™å…¥åœ°å€ 0x8009cb97
0x8000190c: 00 b7 80 23 sb	a1, 0(a5)
è¯»å–åœ°å€ 0x80001910
0x80001910: 00 17 87 93 addi	a5, a5, 1
è¯»å–åœ°å€ 0x80001914
0x80001914: fe e7 9c e3 bne	a5, a4, 0x8000190c
è¯»å–åœ°å€ 0x8000190c
å†™å…¥åœ°å€ 0x8009cb98
0x8000190c: 00 b7 80 23 sb	a1, 0(a5)
è¯»å–åœ°å€ 0x80001910
0x80001910: 00 17 87 93 addi	a5, a5, 1
è¯»å–åœ°å€ 0x80001914
0x80001914: fe e7 9c e3 bne	a5, a4, 0x8000190c
è¯»å–åœ°å€ 0x8000190c
å†™å…¥åœ°å€ 0x8009cb99
0x8000190c: 00 b7 80 23 sb	a1, 0(a5)
è¯»å–åœ°å€ 0x80001910
0x80001910: 00 17 87 93 addi	a5, a5, 1
è¯»å–åœ°å€ 0x80001914
0x80001914: fe e7 9c e3 bne	a5, a4, 0x8000190c
è¯»å–åœ°å€ 0x8000190c
å†™å…¥åœ°å€ 0x8009cb9a
0x8000190c: 00 b7 80 23 sb	a1, 0(a5)
è¯»å–åœ°å€ 0x80001910
0x80001910: 00 17 87 93 addi	a5, a5, 1
è¯»å–åœ°å€ 0x80001914
0x80001914: fe e7 9c e3 bne	a5, a4, 0x8000190c
è¯»å–åœ°å€ 0x8000190c
å†™å…¥åœ°å€ 0x8009cb9b
0x8000190c: 00 b7 80 23 sb	a1, 0(a5)
è¯»å–åœ°å€ 0x80001910
0x80001910: 00 17 87 93 addi	a5, a5, 1
è¯»å–åœ°å€ 0x80001914
0x80001914: fe e7 9c e3 bne	a5, a4, 0x8000190c
è¯»å–åœ°å€ 0x8000190c
å†™å…¥åœ°å€ 0x8009cb9c
0x8000190c: 00 b7 80 23 sb	a1, 0(a5)
è¯»å–åœ°å€ 0x80001910
0x80001910: 00 17 87 93 addi	a5, a5, 1
è¯»å–åœ°å€ 0x80001914
0x80001914: fe e7 9c e3 bne	a5, a4, 0x8000190c
è¯»å–åœ°å€ 0x8000190c
å†™å…¥åœ°å€ 0x8009cb9d
0x8000190c: 00 b7 80 23 sb	a1, 0(a5)
è¯»å–åœ°å€ 0x80001910
0x80001910: 00 17 87 93 addi	a5, a5, 1
è¯»å–åœ°å€ 0x80001914
0x80001914: fe e7 9c e3 bne	a5, a4, 0x8000190c
è¯»å–åœ°å€ 0x8000190c
å†™å…¥åœ°å€ 0x8009cb9e
0x8000190c: 00 b7 80 23 sb	a1, 0(a5)
è¯»å–åœ°å€ 0x80001910
0x80001910: 00 17 87 93 addi	a5, a5, 1
è¯»å–åœ°å€ 0x80001914
0x80001914: fe e7 9c e3 bne	a5, a4, 0x8000190c
è¯»å–åœ°å€ 0x8000190c
å†™å…¥åœ°å€ 0x8009cb9f
0x8000190c: 00 b7 80 23 sb	a1, 0(a5)
è¯»å–åœ°å€ 0x80001910
0x80001910: 00 17 87 93 addi	a5, a5, 1
è¯»å–åœ°å€ 0x80001914
0x80001914: fe e7 9c e3 bne	a5, a4, 0x8000190c
è¯»å–åœ°å€ 0x8000190c
å†™å…¥åœ°å€ 0x8009cba0
0x8000190c: 00 b7 80 23 sb	a1, 0(a5)
è¯»å–åœ°å€ 0x80001910
0x80001910: 00 17 87 93 addi	a5, a5, 1
è¯»å–åœ°å€ 0x80001914
0x80001914: fe e7 9c e3 bne	a5, a4, 0x8000190c
è¯»å–åœ°å€ 0x8000190c
å†™å…¥åœ°å€ 0x8009cba1
0x8000190c: 00 b7 80 23 sb	a1, 0(a5)
è¯»å–åœ°å€ 0x80001910
0x80001910: 00 17 87 93 addi	a5, a5, 1
è¯»å–åœ°å€ 0x80001914
0x80001914: fe e7 9c e3 bne	a5, a4, 0x8000190c
è¯»å–åœ°å€ 0x8000190c
å†™å…¥åœ°å€ 0x8009cba2
0x8000190c: 00 b7 80 23 sb	a1, 0(a5)
è¯»å–åœ°å€ 0x80001910
0x80001910: 00 17 87 93 addi	a5, a5, 1
è¯»å–åœ°å€ 0x80001914
0x80001914: fe e7 9c e3 bne	a5, a4, 0x8000190c
è¯»å–åœ°å€ 0x8000190c
å†™å…¥åœ°å€ 0x8009cba3
0x8000190c: 00 b7 80 23 sb	a1, 0(a5)
è¯»å–åœ°å€ 0x80001910
0x80001910: 00 17 87 93 addi	a5, a5, 1
è¯»å–åœ°å€ 0x80001914
0x80001914: fe e7 9c e3 bne	a5, a4, 0x8000190c
è¯»å–åœ°å€ 0x8000190c
å†™å…¥åœ°å€ 0x8009cba4
0x8000190c: 00 b7 80 23 sb	a1, 0(a5)
è¯»å–åœ°å€ 0x80001910
0x80001910: 00 17 87 93 addi	a5, a5, 1
è¯»å–åœ°å€ 0x80001914
0x80001914: fe e7 9c e3 bne	a5, a4, 0x8000190c
è¯»å–åœ°å€ 0x8000190c
å†™å…¥åœ°å€ 0x8009cba5
0x8000190c: 00 b7 80 23 sb	a1, 0(a5)
è¯»å–åœ°å€ 0x80001910
0x80001910: 00 17 87 93 addi	a5, a5, 1
è¯»å–åœ°å€ 0x80001914
0x80001914: fe e7 9c e3 bne	a5, a4, 0x8000190c
è¯»å–åœ°å€ 0x8000190c
å†™å…¥åœ°å€ 0x8009cba6
0x8000190c: 00 b7 80 23 sb	a1, 0(a5)
è¯»å–åœ°å€ 0x80001910
0x80001910: 00 17 87 93 addi	a5, a5, 1
è¯»å–åœ°å€ 0x80001914
0x80001914: fe e7 9c e3 bne	a5, a4, 0x8000190c
è¯»å–åœ°å€ 0x8000190c
å†™å…¥åœ°å€ 0x8009cba7
0x8000190c: 00 b7 80 23 sb	a1, 0(a5)
è¯»å–åœ°å€ 0x80001910
0x80001910: 00 17 87 93 addi	a5, a5, 1
è¯»å–åœ°å€ 0x80001914
0x80001914: fe e7 9c e3 bne	a5, a4, 0x8000190c
è¯»å–åœ°å€ 0x8000190c
å†™å…¥åœ°å€ 0x8009cba8
0x8000190c: 00 b7 80 23 sb	a1, 0(a5)
è¯»å–åœ°å€ 0x80001910
0x80001910: 00 17 87 93 addi	a5, a5, 1
è¯»å–åœ°å€ 0x80001914
0x80001914: fe e7 9c e3 bne	a5, a4, 0x8000190c
è¯»å–åœ°å€ 0x8000190c
å†™å…¥åœ°å€ 0x8009cba9
0x8000190c: 00 b7 80 23 sb	a1, 0(a5)
è¯»å–åœ°å€ 0x80001910
0x80001910: 00 17 87 93 addi	a5, a5, 1
è¯»å–åœ°å€ 0x80001914
0x80001914: fe e7 9c e3 bne	a5, a4, 0x8000190c
è¯»å–åœ°å€ 0x8000190c
å†™å…¥åœ°å€ 0x8009cbaa
0x8000190c: 00 b7 80 23 sb	a1, 0(a5)
è¯»å–åœ°å€ 0x80001910
0x80001910: 00 17 87 93 addi	a5, a5, 1
è¯»å–åœ°å€ 0x80001914
0x80001914: fe e7 9c e3 bne	a5, a4, 0x8000190c
è¯»å–åœ°å€ 0x8000190c
å†™å…¥åœ°å€ 0x8009cbab
0x8000190c: 00 b7 80 23 sb	a1, 0(a5)
è¯»å–åœ°å€ 0x80001910
0x80001910: 00 17 87 93 addi	a5, a5, 1
è¯»å–åœ°å€ 0x80001914
0x80001914: fe e7 9c e3 bne	a5, a4, 0x8000190c
è¯»å–åœ°å€ 0x8000190c
å†™å…¥åœ°å€ 0x8009cbac
0x8000190c: 00 b7 80 23 sb	a1, 0(a5)
è¯»å–åœ°å€ 0x80001910
0x80001910: 00 17 87 93 addi	a5, a5, 1
è¯»å–åœ°å€ 0x80001914
0x80001914: fe e7 9c e3 bne	a5, a4, 0x8000190c
è¯»å–åœ°å€ 0x8000190c
å†™å…¥åœ°å€ 0x8009cbad
0x8000190c: 00 b7 80 23 sb	a1, 0(a5)
è¯»å–åœ°å€ 0x80001910
0x80001910: 00 17 87 93 addi	a5, a5, 1
è¯»å–åœ°å€ 0x80001914
0x80001914: fe e7 9c e3 bne	a5, a4, 0x8000190c
è¯»å–åœ°å€ 0x8000190c
å†™å…¥åœ°å€ 0x8009cbae
0x8000190c: 00 b7 80 23 sb	a1, 0(a5)
è¯»å–åœ°å€ 0x80001910
0x80001910: 00 17 87 93 addi	a5, a5, 1
è¯»å–åœ°å€ 0x80001914
0x80001914: fe e7 9c e3 bne	a5, a4, 0x8000190c
è¯»å–åœ°å€ 0x8000190c
å†™å…¥åœ°å€ 0x8009cbaf
0x8000190c: 00 b7 80 23 sb	a1, 0(a5)
è¯»å–åœ°å€ 0x80001910
0x80001910: 00 17 87 93 addi	a5, a5, 1
è¯»å–åœ°å€ 0x80001914
0x80001914: fe e7 9c e3 bne	a5, a4, 0x8000190c
è¯»å–åœ°å€ 0x8000190c
å†™å…¥åœ°å€ 0x8009cbb0
0x8000190c: 00 b7 80 23 sb	a1, 0(a5)
è¯»å–åœ°å€ 0x80001910
0x80001910: 00 17 87 93 addi	a5, a5, 1
è¯»å–åœ°å€ 0x80001914
0x80001914: fe e7 9c e3 bne	a5, a4, 0x8000190c
è¯»å–åœ°å€ 0x8000190c
å†™å…¥åœ°å€ 0x8009cbb1
0x8000190c: 00 b7 80 23 sb	a1, 0(a5)
è¯»å–åœ°å€ 0x80001910
0x80001910: 00 17 87 93 addi	a5, a5, 1
è¯»å–åœ°å€ 0x80001914
0x80001914: fe e7 9c e3 bne	a5, a4, 0x8000190c
è¯»å–åœ°å€ 0x8000190c
å†™å…¥åœ°å€ 0x8009cbb2
0x8000190c: 00 b7 80 23 sb	a1, 0(a5)
è¯»å–åœ°å€ 0x80001910
0x80001910: 00 17 87 93 addi	a5, a5, 1
è¯»å–åœ°å€ 0x80001914
0x80001914: fe e7 9c e3 bne	a5, a4, 0x8000190c
è¯»å–åœ°å€ 0x8000190c
å†™å…¥åœ°å€ 0x8009cbb3
0x8000190c: 00 b7 80 23 sb	a1, 0(a5)
è¯»å–åœ°å€ 0x80001910
0x80001910: 00 17 87 93 addi	a5, a5, 1
è¯»å–åœ°å€ 0x80001914
0x80001914: fe e7 9c e3 bne	a5, a4, 0x8000190c
è¯»å–åœ°å€ 0x8000190c
å†™å…¥åœ°å€ 0x8009cbb4
0x8000190c: 00 b7 80 23 sb	a1, 0(a5)
è¯»å–åœ°å€ 0x80001910
0x80001910: 00 17 87 93 addi	a5, a5, 1
è¯»å–åœ°å€ 0x80001914
0x80001914: fe e7 9c e3 bne	a5, a4, 0x8000190c
è¯»å–åœ°å€ 0x8000190c
å†™å…¥åœ°å€ 0x8009cbb5
0x8000190c: 00 b7 80 23 sb	a1, 0(a5)
è¯»å–åœ°å€ 0x80001910
0x80001910: 00 17 87 93 addi	a5, a5, 1
è¯»å–åœ°å€ 0x80001914
0x80001914: fe e7 9c e3 bne	a5, a4, 0x8000190c
è¯»å–åœ°å€ 0x8000190c
å†™å…¥åœ°å€ 0x8009cbb6
0x8000190c: 00 b7 80 23 sb	a1, 0(a5)
è¯»å–åœ°å€ 0x80001910
0x80001910: 00 17 87 93 addi	a5, a5, 1
è¯»å–åœ°å€ 0x80001914
0x80001914: fe e7 9c e3 bne	a5, a4, 0x8000190c
è¯»å–åœ°å€ 0x8000190c
å†™å…¥åœ°å€ 0x8009cbb7
0x8000190c: 00 b7 80 23 sb	a1, 0(a5)
è¯»å–åœ°å€ 0x80001910
0x80001910: 00 17 87 93 addi	a5, a5, 1
è¯»å–åœ°å€ 0x80001914
0x80001914: fe e7 9c e3 bne	a5, a4, 0x8000190c
è¯»å–åœ°å€ 0x8000190c
å†™å…¥åœ°å€ 0x8009cbb8
0x8000190c: 00 b7 80 23 sb	a1, 0(a5)
è¯»å–åœ°å€ 0x80001910
0x80001910: 00 17 87 93 addi	a5, a5, 1
è¯»å–åœ°å€ 0x80001914
0x80001914: fe e7 9c e3 bne	a5, a4, 0x8000190c
è¯»å–åœ°å€ 0x8000190c
å†™å…¥åœ°å€ 0x8009cbb9
0x8000190c: 00 b7 80 23 sb	a1, 0(a5)
è¯»å–åœ°å€ 0x80001910
0x80001910: 00 17 87 93 addi	a5, a5, 1
è¯»å–åœ°å€ 0x80001914
0x80001914: fe e7 9c e3 bne	a5, a4, 0x8000190c
è¯»å–åœ°å€ 0x8000190c
å†™å…¥åœ°å€ 0x8009cbba
0x8000190c: 00 b7 80 23 sb	a1, 0(a5)
è¯»å–åœ°å€ 0x80001910
0x80001910: 00 17 87 93 addi	a5, a5, 1
è¯»å–åœ°å€ 0x80001914
0x80001914: fe e7 9c e3 bne	a5, a4, 0x8000190c
è¯»å–åœ°å€ 0x8000190c
å†™å…¥åœ°å€ 0x8009cbbb
0x8000190c: 00 b7 80 23 sb	a1, 0(a5)
è¯»å–åœ°å€ 0x80001910
0x80001910: 00 17 87 93 addi	a5, a5, 1
è¯»å–åœ°å€ 0x80001914
0x80001914: fe e7 9c e3 bne	a5, a4, 0x8000190c
è¯»å–åœ°å€ 0x8000190c
å†™å…¥åœ°å€ 0x8009cbbc
0x8000190c: 00 b7 80 23 sb	a1, 0(a5)
è¯»å–åœ°å€ 0x80001910
0x80001910: 00 17 87 93 addi	a5, a5, 1
è¯»å–åœ°å€ 0x80001914
0x80001914: fe e7 9c e3 bne	a5, a4, 0x8000190c
è¯»å–åœ°å€ 0x8000190c
å†™å…¥åœ°å€ 0x8009cbbd
0x8000190c: 00 b7 80 23 sb	a1, 0(a5)
è¯»å–åœ°å€ 0x80001910
0x80001910: 00 17 87 93 addi	a5, a5, 1
è¯»å–åœ°å€ 0x80001914
0x80001914: fe e7 9c e3 bne	a5, a4, 0x8000190c
è¯»å–åœ°å€ 0x8000190c
å†™å…¥åœ°å€ 0x8009cbbe
0x8000190c: 00 b7 80 23 sb	a1, 0(a5)
è¯»å–åœ°å€ 0x80001910
0x80001910: 00 17 87 93 addi	a5, a5, 1
è¯»å–åœ°å€ 0x80001914
0x80001914: fe e7 9c e3 bne	a5, a4, 0x8000190c
è¯»å–åœ°å€ 0x8000190c
å†™å…¥åœ°å€ 0x8009cbbf
0x8000190c: 00 b7 80 23 sb	a1, 0(a5)
è¯»å–åœ°å€ 0x80001910
0x80001910: 00 17 87 93 addi	a5, a5, 1
è¯»å–åœ°å€ 0x80001914
0x80001914: fe e7 9c e3 bne	a5, a4, 0x8000190c
è¯»å–åœ°å€ 0x8000190c
å†™å…¥åœ°å€ 0x8009cbc0
0x8000190c: 00 b7 80 23 sb	a1, 0(a5)
è¯»å–åœ°å€ 0x80001910
0x80001910: 00 17 87 93 addi	a5, a5, 1
è¯»å–åœ°å€ 0x80001914
0x80001914: fe e7 9c e3 bne	a5, a4, 0x8000190c
è¯»å–åœ°å€ 0x8000190c
å†™å…¥åœ°å€ 0x8009cbc1
0x8000190c: 00 b7 80 23 sb	a1, 0(a5)
è¯»å–åœ°å€ 0x80001910
0x80001910: 00 17 87 93 addi	a5, a5, 1
è¯»å–åœ°å€ 0x80001914
0x80001914: fe e7 9c e3 bne	a5, a4, 0x8000190c
è¯»å–åœ°å€ 0x8000190c
å†™å…¥åœ°å€ 0x8009cbc2
0x8000190c: 00 b7 80 23 sb	a1, 0(a5)
è¯»å–åœ°å€ 0x80001910
0x80001910: 00 17 87 93 addi	a5, a5, 1
è¯»å–åœ°å€ 0x80001914
0x80001914: fe e7 9c e3 bne	a5, a4, 0x8000190c
è¯»å–åœ°å€ 0x8000190c
å†™å…¥åœ°å€ 0x8009cbc3
0x8000190c: 00 b7 80 23 sb	a1, 0(a5)
è¯»å–åœ°å€ 0x80001910
0x80001910: 00 17 87 93 addi	a5, a5, 1
è¯»å–åœ°å€ 0x80001914
0x80001914: fe e7 9c e3 bne	a5, a4, 0x8000190c
è¯»å–åœ°å€ 0x8000190c
å†™å…¥åœ°å€ 0x8009cbc4
0x8000190c: 00 b7 80 23 sb	a1, 0(a5)
è¯»å–åœ°å€ 0x80001910
0x80001910: 00 17 87 93 addi	a5, a5, 1
è¯»å–åœ°å€ 0x80001914
0x80001914: fe e7 9c e3 bne	a5, a4, 0x8000190c
è¯»å–åœ°å€ 0x8000190c
å†™å…¥åœ°å€ 0x8009cbc5
0x8000190c: 00 b7 80 23 sb	a1, 0(a5)
è¯»å–åœ°å€ 0x80001910
0x80001910: 00 17 87 93 addi	a5, a5, 1
è¯»å–åœ°å€ 0x80001914
0x80001914: fe e7 9c e3 bne	a5, a4, 0x8000190c
è¯»å–åœ°å€ 0x8000190c
å†™å…¥åœ°å€ 0x8009cbc6
0x8000190c: 00 b7 80 23 sb	a1, 0(a5)
è¯»å–åœ°å€ 0x80001910
0x80001910: 00 17 87 93 addi	a5, a5, 1
è¯»å–åœ°å€ 0x80001914
0x80001914: fe e7 9c e3 bne	a5, a4, 0x8000190c
è¯»å–åœ°å€ 0x8000190c
å†™å…¥åœ°å€ 0x8009cbc7
0x8000190c: 00 b7 80 23 sb	a1, 0(a5)
è¯»å–åœ°å€ 0x80001910
0x80001910: 00 17 87 93 addi	a5, a5, 1
è¯»å–åœ°å€ 0x80001914
0x80001914: fe e7 9c e3 bne	a5, a4, 0x8000190c
è¯»å–åœ°å€ 0x8000190c
å†™å…¥åœ°å€ 0x8009cbc8
0x8000190c: 00 b7 80 23 sb	a1, 0(a5)
è¯»å–åœ°å€ 0x80001910
0x80001910: 00 17 87 93 addi	a5, a5, 1
è¯»å–åœ°å€ 0x80001914
0x80001914: fe e7 9c e3 bne	a5, a4, 0x8000190c
è¯»å–åœ°å€ 0x8000190c
å†™å…¥åœ°å€ 0x8009cbc9
0x8000190c: 00 b7 80 23 sb	a1, 0(a5)
è¯»å–åœ°å€ 0x80001910
0x80001910: 00 17 87 93 addi	a5, a5, 1
è¯»å–åœ°å€ 0x80001914
0x80001914: fe e7 9c e3 bne	a5, a4, 0x8000190c
è¯»å–åœ°å€ 0x8000190c
å†™å…¥åœ°å€ 0x8009cbca
0x8000190c: 00 b7 80 23 sb	a1, 0(a5)
è¯»å–åœ°å€ 0x80001910
0x80001910: 00 17 87 93 addi	a5, a5, 1
è¯»å–åœ°å€ 0x80001914
0x80001914: fe e7 9c e3 bne	a5, a4, 0x8000190c
è¯»å–åœ°å€ 0x8000190c
å†™å…¥åœ°å€ 0x8009cbcb
0x8000190c: 00 b7 80 23 sb	a1, 0(a5)
è¯»å–åœ°å€ 0x80001910
0x80001910: 00 17 87 93 addi	a5, a5, 1
è¯»å–åœ°å€ 0x80001914
0x80001914: fe e7 9c e3 bne	a5, a4, 0x8000190c
è¯»å–åœ°å€ 0x8000190c
å†™å…¥åœ°å€ 0x8009cbcc
0x8000190c: 00 b7 80 23 sb	a1, 0(a5)
è¯»å–åœ°å€ 0x80001910
0x80001910: 00 17 87 93 addi	a5, a5, 1
è¯»å–åœ°å€ 0x80001914
0x80001914: fe e7 9c e3 bne	a5, a4, 0x8000190c
è¯»å–åœ°å€ 0x8000190c
å†™å…¥åœ°å€ 0x8009cbcd
0x8000190c: 00 b7 80 23 sb	a1, 0(a5)
è¯»å–åœ°å€ 0x80001910
0x80001910: 00 17 87 93 addi	a5, a5, 1
è¯»å–åœ°å€ 0x80001914
0x80001914: fe e7 9c e3 bne	a5, a4, 0x8000190c
è¯»å–åœ°å€ 0x8000190c
å†™å…¥åœ°å€ 0x8009cbce
0x8000190c: 00 b7 80 23 sb	a1, 0(a5)
è¯»å–åœ°å€ 0x80001910
0x80001910: 00 17 87 93 addi	a5, a5, 1
è¯»å–åœ°å€ 0x80001914
0x80001914: fe e7 9c e3 bne	a5, a4, 0x8000190c
è¯»å–åœ°å€ 0x8000190c
å†™å…¥åœ°å€ 0x8009cbcf
0x8000190c: 00 b7 80 23 sb	a1, 0(a5)
è¯»å–åœ°å€ 0x80001910
0x80001910: 00 17 87 93 addi	a5, a5, 1
è¯»å–åœ°å€ 0x80001914
0x80001914: fe e7 9c e3 bne	a5, a4, 0x8000190c
è¯»å–åœ°å€ 0x8000190c
å†™å…¥åœ°å€ 0x8009cbd0
0x8000190c: 00 b7 80 23 sb	a1, 0(a5)
è¯»å–åœ°å€ 0x80001910
0x80001910: 00 17 87 93 addi	a5, a5, 1
è¯»å–åœ°å€ 0x80001914
0x80001914: fe e7 9c e3 bne	a5, a4, 0x8000190c
è¯»å–åœ°å€ 0x8000190c
å†™å…¥åœ°å€ 0x8009cbd1
0x8000190c: 00 b7 80 23 sb	a1, 0(a5)
è¯»å–åœ°å€ 0x80001910
0x80001910: 00 17 87 93 addi	a5, a5, 1
è¯»å–åœ°å€ 0x80001914
0x80001914: fe e7 9c e3 bne	a5, a4, 0x8000190c
è¯»å–åœ°å€ 0x8000190c
å†™å…¥åœ°å€ 0x8009cbd2
0x8000190c: 00 b7 80 23 sb	a1, 0(a5)
è¯»å–åœ°å€ 0x80001910
0x80001910: 00 17 87 93 addi	a5, a5, 1
è¯»å–åœ°å€ 0x80001914
0x80001914: fe e7 9c e3 bne	a5, a4, 0x8000190c
è¯»å–åœ°å€ 0x8000190c
å†™å…¥åœ°å€ 0x8009cbd3
0x8000190c: 00 b7 80 23 sb	a1, 0(a5)
è¯»å–åœ°å€ 0x80001910
0x80001910: 00 17 87 93 addi	a5, a5, 1
è¯»å–åœ°å€ 0x80001914
0x80001914: fe e7 9c e3 bne	a5, a4, 0x8000190c
è¯»å–åœ°å€ 0x8000190c
å†™å…¥åœ°å€ 0x8009cbd4
0x8000190c: 00 b7 80 23 sb	a1, 0(a5)
è¯»å–åœ°å€ 0x80001910
0x80001910: 00 17 87 93 addi	a5, a5, 1
è¯»å–åœ°å€ 0x80001914
0x80001914: fe e7 9c e3 bne	a5, a4, 0x8000190c
è¯»å–åœ°å€ 0x8000190c
å†™å…¥åœ°å€ 0x8009cbd5
0x8000190c: 00 b7 80 23 sb	a1, 0(a5)
è¯»å–åœ°å€ 0x80001910
0x80001910: 00 17 87 93 addi	a5, a5, 1
è¯»å–åœ°å€ 0x80001914
0x80001914: fe e7 9c e3 bne	a5, a4, 0x8000190c
è¯»å–åœ°å€ 0x8000190c
å†™å…¥åœ°å€ 0x8009cbd6
0x8000190c: 00 b7 80 23 sb	a1, 0(a5)
è¯»å–åœ°å€ 0x80001910
0x80001910: 00 17 87 93 addi	a5, a5, 1
è¯»å–åœ°å€ 0x80001914
0x80001914: fe e7 9c e3 bne	a5, a4, 0x8000190c
è¯»å–åœ°å€ 0x8000190c
å†™å…¥åœ°å€ 0x8009cbd7
0x8000190c: 00 b7 80 23 sb	a1, 0(a5)
è¯»å–åœ°å€ 0x80001910
0x80001910: 00 17 87 93 addi	a5, a5, 1
è¯»å–åœ°å€ 0x80001914
0x80001914: fe e7 9c e3 bne	a5, a4, 0x8000190c
è¯»å–åœ°å€ 0x8000190c
å†™å…¥åœ°å€ 0x8009cbd8
0x8000190c: 00 b7 80 23 sb	a1, 0(a5)
è¯»å–åœ°å€ 0x80001910
0x80001910: 00 17 87 93 addi	a5, a5, 1
è¯»å–åœ°å€ 0x80001914
0x80001914: fe e7 9c e3 bne	a5, a4, 0x8000190c
è¯»å–åœ°å€ 0x8000190c
å†™å…¥åœ°å€ 0x8009cbd9
0x8000190c: 00 b7 80 23 sb	a1, 0(a5)
è¯»å–åœ°å€ 0x80001910
0x80001910: 00 17 87 93 addi	a5, a5, 1
è¯»å–åœ°å€ 0x80001914
0x80001914: fe e7 9c e3 bne	a5, a4, 0x8000190c
è¯»å–åœ°å€ 0x8000190c
å†™å…¥åœ°å€ 0x8009cbda
0x8000190c: 00 b7 80 23 sb	a1, 0(a5)
è¯»å–åœ°å€ 0x80001910
0x80001910: 00 17 87 93 addi	a5, a5, 1
è¯»å–åœ°å€ 0x80001914
0x80001914: fe e7 9c e3 bne	a5, a4, 0x8000190c
è¯»å–åœ°å€ 0x8000190c
å†™å…¥åœ°å€ 0x8009cbdb
0x8000190c: 00 b7 80 23 sb	a1, 0(a5)
è¯»å–åœ°å€ 0x80001910
0x80001910: 00 17 87 93 addi	a5, a5, 1
è¯»å–åœ°å€ 0x80001914
0x80001914: fe e7 9c e3 bne	a5, a4, 0x8000190c
è¯»å–åœ°å€ 0x8000190c
å†™å…¥åœ°å€ 0x8009cbdc
0x8000190c: 00 b7 80 23 sb	a1, 0(a5)
è¯»å–åœ°å€ 0x80001910
0x80001910: 00 17 87 93 addi	a5, a5, 1
è¯»å–åœ°å€ 0x80001914
0x80001914: fe e7 9c e3 bne	a5, a4, 0x8000190c
è¯»å–åœ°å€ 0x8000190c
å†™å…¥åœ°å€ 0x8009cbdd
0x8000190c: 00 b7 80 23 sb	a1, 0(a5)
è¯»å–åœ°å€ 0x80001910
0x80001910: 00 17 87 93 addi	a5, a5, 1
è¯»å–åœ°å€ 0x80001914
0x80001914: fe e7 9c e3 bne	a5, a4, 0x8000190c
è¯»å–åœ°å€ 0x8000190c
å†™å…¥åœ°å€ 0x8009cbde
0x8000190c: 00 b7 80 23 sb	a1, 0(a5)
è¯»å–åœ°å€ 0x80001910
0x80001910: 00 17 87 93 addi	a5, a5, 1
è¯»å–åœ°å€ 0x80001914
0x80001914: fe e7 9c e3 bne	a5, a4, 0x8000190c
è¯»å–åœ°å€ 0x8000190c
å†™å…¥åœ°å€ 0x8009cbdf
0x8000190c: 00 b7 80 23 sb	a1, 0(a5)
è¯»å–åœ°å€ 0x80001910
0x80001910: 00 17 87 93 addi	a5, a5, 1
è¯»å–åœ°å€ 0x80001914
0x80001914: fe e7 9c e3 bne	a5, a4, 0x8000190c
è¯»å–åœ°å€ 0x8000190c
å†™å…¥åœ°å€ 0x8009cbe0
0x8000190c: 00 b7 80 23 sb	a1, 0(a5)
è¯»å–åœ°å€ 0x80001910
0x80001910: 00 17 87 93 addi	a5, a5, 1
è¯»å–åœ°å€ 0x80001914
0x80001914: fe e7 9c e3 bne	a5, a4, 0x8000190c
è¯»å–åœ°å€ 0x8000190c
å†™å…¥åœ°å€ 0x8009cbe1
0x8000190c: 00 b7 80 23 sb	a1, 0(a5)
è¯»å–åœ°å€ 0x80001910
0x80001910: 00 17 87 93 addi	a5, a5, 1
è¯»å–åœ°å€ 0x80001914
0x80001914: fe e7 9c e3 bne	a5, a4, 0x8000190c
è¯»å–åœ°å€ 0x8000190c
å†™å…¥åœ°å€ 0x8009cbe2
0x8000190c: 00 b7 80 23 sb	a1, 0(a5)
è¯»å–åœ°å€ 0x80001910
0x80001910: 00 17 87 93 addi	a5, a5, 1
è¯»å–åœ°å€ 0x80001914
0x80001914: fe e7 9c e3 bne	a5, a4, 0x8000190c
è¯»å–åœ°å€ 0x8000190c
å†™å…¥åœ°å€ 0x8009cbe3
0x8000190c: 00 b7 80 23 sb	a1, 0(a5)
è¯»å–åœ°å€ 0x80001910
0x80001910: 00 17 87 93 addi	a5, a5, 1
è¯»å–åœ°å€ 0x80001914
0x80001914: fe e7 9c e3 bne	a5, a4, 0x8000190c
è¯»å–åœ°å€ 0x8000190c
å†™å…¥åœ°å€ 0x8009cbe4
0x8000190c: 00 b7 80 23 sb	a1, 0(a5)
è¯»å–åœ°å€ 0x80001910
0x80001910: 00 17 87 93 addi	a5, a5, 1
è¯»å–åœ°å€ 0x80001914
0x80001914: fe e7 9c e3 bne	a5, a4, 0x8000190c
è¯»å–åœ°å€ 0x8000190c
å†™å…¥åœ°å€ 0x8009cbe5
0x8000190c: 00 b7 80 23 sb	a1, 0(a5)
è¯»å–åœ°å€ 0x80001910
0x80001910: 00 17 87 93 addi	a5, a5, 1
è¯»å–åœ°å€ 0x80001914
0x80001914: fe e7 9c e3 bne	a5, a4, 0x8000190c
è¯»å–åœ°å€ 0x8000190c
å†™å…¥åœ°å€ 0x8009cbe6
0x8000190c: 00 b7 80 23 sb	a1, 0(a5)
è¯»å–åœ°å€ 0x80001910
0x80001910: 00 17 87 93 addi	a5, a5, 1
è¯»å–åœ°å€ 0x80001914
0x80001914: fe e7 9c e3 bne	a5, a4, 0x8000190c
è¯»å–åœ°å€ 0x8000190c
å†™å…¥åœ°å€ 0x8009cbe7
0x8000190c: 00 b7 80 23 sb	a1, 0(a5)
è¯»å–åœ°å€ 0x80001910
0x80001910: 00 17 87 93 addi	a5, a5, 1
è¯»å–åœ°å€ 0x80001914
0x80001914: fe e7 9c e3 bne	a5, a4, 0x8000190c
è¯»å–åœ°å€ 0x8000190c
å†™å…¥åœ°å€ 0x8009cbe8
0x8000190c: 00 b7 80 23 sb	a1, 0(a5)
è¯»å–åœ°å€ 0x80001910
0x80001910: 00 17 87 93 addi	a5, a5, 1
è¯»å–åœ°å€ 0x80001914
0x80001914: fe e7 9c e3 bne	a5, a4, 0x8000190c
è¯»å–åœ°å€ 0x8000190c
å†™å…¥åœ°å€ 0x8009cbe9
0x8000190c: 00 b7 80 23 sb	a1, 0(a5)
è¯»å–åœ°å€ 0x80001910
0x80001910: 00 17 87 93 addi	a5, a5, 1
è¯»å–åœ°å€ 0x80001914
0x80001914: fe e7 9c e3 bne	a5, a4, 0x8000190c
è¯»å–åœ°å€ 0x8000190c
å†™å…¥åœ°å€ 0x8009cbea
0x8000190c: 00 b7 80 23 sb	a1, 0(a5)
è¯»å–åœ°å€ 0x80001910
0x80001910: 00 17 87 93 addi	a5, a5, 1
è¯»å–åœ°å€ 0x80001914
0x80001914: fe e7 9c e3 bne	a5, a4, 0x8000190c
è¯»å–åœ°å€ 0x8000190c
å†™å…¥åœ°å€ 0x8009cbeb
0x8000190c: 00 b7 80 23 sb	a1, 0(a5)
è¯»å–åœ°å€ 0x80001910
0x80001910: 00 17 87 93 addi	a5, a5, 1
è¯»å–åœ°å€ 0x80001914
0x80001914: fe e7 9c e3 bne	a5, a4, 0x8000190c
è¯»å–åœ°å€ 0x8000190c
å†™å…¥åœ°å€ 0x8009cbec
0x8000190c: 00 b7 80 23 sb	a1, 0(a5)
è¯»å–åœ°å€ 0x80001910
0x80001910: 00 17 87 93 addi	a5, a5, 1
è¯»å–åœ°å€ 0x80001914
0x80001914: fe e7 9c e3 bne	a5, a4, 0x8000190c
è¯»å–åœ°å€ 0x8000190c
å†™å…¥åœ°å€ 0x8009cbed
0x8000190c: 00 b7 80 23 sb	a1, 0(a5)
è¯»å–åœ°å€ 0x80001910
0x80001910: 00 17 87 93 addi	a5, a5, 1
è¯»å–åœ°å€ 0x80001914
0x80001914: fe e7 9c e3 bne	a5, a4, 0x8000190c
è¯»å–åœ°å€ 0x8000190c
å†™å…¥åœ°å€ 0x8009cbee
0x8000190c: 00 b7 80 23 sb	a1, 0(a5)
è¯»å–åœ°å€ 0x80001910
0x80001910: 00 17 87 93 addi	a5, a5, 1
è¯»å–åœ°å€ 0x80001914
0x80001914: fe e7 9c e3 bne	a5, a4, 0x8000190c
è¯»å–åœ°å€ 0x8000190c
å†™å…¥åœ°å€ 0x8009cbef
0x8000190c: 00 b7 80 23 sb	a1, 0(a5)
è¯»å–åœ°å€ 0x80001910
0x80001910: 00 17 87 93 addi	a5, a5, 1
è¯»å–åœ°å€ 0x80001914
0x80001914: fe e7 9c e3 bne	a5, a4, 0x8000190c
è¯»å–åœ°å€ 0x8000190c
å†™å…¥åœ°å€ 0x8009cbf0
0x8000190c: 00 b7 80 23 sb	a1, 0(a5)
è¯»å–åœ°å€ 0x80001910
0x80001910: 00 17 87 93 addi	a5, a5, 1
è¯»å–åœ°å€ 0x80001914
0x80001914: fe e7 9c e3 bne	a5, a4, 0x8000190c
è¯»å–åœ°å€ 0x8000190c
å†™å…¥åœ°å€ 0x8009cbf1
0x8000190c: 00 b7 80 23 sb	a1, 0(a5)
è¯»å–åœ°å€ 0x80001910
0x80001910: 00 17 87 93 addi	a5, a5, 1
è¯»å–åœ°å€ 0x80001914
0x80001914: fe e7 9c e3 bne	a5, a4, 0x8000190c
è¯»å–åœ°å€ 0x8000190c
å†™å…¥åœ°å€ 0x8009cbf2
0x8000190c: 00 b7 80 23 sb	a1, 0(a5)
è¯»å–åœ°å€ 0x80001910
0x80001910: 00 17 87 93 addi	a5, a5, 1
è¯»å–åœ°å€ 0x80001914
0x80001914: fe e7 9c e3 bne	a5, a4, 0x8000190c
è¯»å–åœ°å€ 0x8000190c
å†™å…¥åœ°å€ 0x8009cbf3
0x8000190c: 00 b7 80 23 sb	a1, 0(a5)
è¯»å–åœ°å€ 0x80001910
0x80001910: 00 17 87 93 addi	a5, a5, 1
è¯»å–åœ°å€ 0x80001914
0x80001914: fe e7 9c e3 bne	a5, a4, 0x8000190c
è¯»å–åœ°å€ 0x8000190c
å†™å…¥åœ°å€ 0x8009cbf4
0x8000190c: 00 b7 80 23 sb	a1, 0(a5)
è¯»å–åœ°å€ 0x80001910
0x80001910: 00 17 87 93 addi	a5, a5, 1
è¯»å–åœ°å€ 0x80001914
0x80001914: fe e7 9c e3 bne	a5, a4, 0x8000190c
è¯»å–åœ°å€ 0x8000190c
å†™å…¥åœ°å€ 0x8009cbf5
0x8000190c: 00 b7 80 23 sb	a1, 0(a5)
è¯»å–åœ°å€ 0x80001910
0x80001910: 00 17 87 93 addi	a5, a5, 1
è¯»å–åœ°å€ 0x80001914
0x80001914: fe e7 9c e3 bne	a5, a4, 0x8000190c
è¯»å–åœ°å€ 0x8000190c
å†™å…¥åœ°å€ 0x8009cbf6
0x8000190c: 00 b7 80 23 sb	a1, 0(a5)
è¯»å–åœ°å€ 0x80001910
0x80001910: 00 17 87 93 addi	a5, a5, 1
è¯»å–åœ°å€ 0x80001914
0x80001914: fe e7 9c e3 bne	a5, a4, 0x8000190c
è¯»å–åœ°å€ 0x8000190c
å†™å…¥åœ°å€ 0x8009cbf7
0x8000190c: 00 b7 80 23 sb	a1, 0(a5)
è¯»å–åœ°å€ 0x80001910
0x80001910: 00 17 87 93 addi	a5, a5, 1
è¯»å–åœ°å€ 0x80001914
0x80001914: fe e7 9c e3 bne	a5, a4, 0x8000190c
è¯»å–åœ°å€ 0x8000190c
å†™å…¥åœ°å€ 0x8009cbf8
0x8000190c: 00 b7 80 23 sb	a1, 0(a5)
è¯»å–åœ°å€ 0x80001910
0x80001910: 00 17 87 93 addi	a5, a5, 1
è¯»å–åœ°å€ 0x80001914
0x80001914: fe e7 9c e3 bne	a5, a4, 0x8000190c
è¯»å–åœ°å€ 0x8000190c
å†™å…¥åœ°å€ 0x8009cbf9
0x8000190c: 00 b7 80 23 sb	a1, 0(a5)
è¯»å–åœ°å€ 0x80001910
0x80001910: 00 17 87 93 addi	a5, a5, 1
è¯»å–åœ°å€ 0x80001914
0x80001914: fe e7 9c e3 bne	a5, a4, 0x8000190c
è¯»å–åœ°å€ 0x8000190c
å†™å…¥åœ°å€ 0x8009cbfa
0x8000190c: 00 b7 80 23 sb	a1, 0(a5)
è¯»å–åœ°å€ 0x80001910
0x80001910: 00 17 87 93 addi	a5, a5, 1
è¯»å–åœ°å€ 0x80001914
0x80001914: fe e7 9c e3 bne	a5, a4, 0x8000190c
è¯»å–åœ°å€ 0x8000190c
å†™å…¥åœ°å€ 0x8009cbfb
0x8000190c: 00 b7 80 23 sb	a1, 0(a5)
è¯»å–åœ°å€ 0x80001910
0x80001910: 00 17 87 93 addi	a5, a5, 1
è¯»å–åœ°å€ 0x80001914
0x80001914: fe e7 9c e3 bne	a5, a4, 0x8000190c
è¯»å–åœ°å€ 0x8000190c
å†™å…¥åœ°å€ 0x8009cbfc
0x8000190c: 00 b7 80 23 sb	a1, 0(a5)
è¯»å–åœ°å€ 0x80001910
0x80001910: 00 17 87 93 addi	a5, a5, 1
è¯»å–åœ°å€ 0x80001914
0x80001914: fe e7 9c e3 bne	a5, a4, 0x8000190c
è¯»å–åœ°å€ 0x8000190c
å†™å…¥åœ°å€ 0x8009cbfd
0x8000190c: 00 b7 80 23 sb	a1, 0(a5)
è¯»å–åœ°å€ 0x80001910
0x80001910: 00 17 87 93 addi	a5, a5, 1
è¯»å–åœ°å€ 0x80001914
0x80001914: fe e7 9c e3 bne	a5, a4, 0x8000190c
è¯»å–åœ°å€ 0x8000190c
å†™å…¥åœ°å€ 0x8009cbfe
0x8000190c: 00 b7 80 23 sb	a1, 0(a5)
è¯»å–åœ°å€ 0x80001910
0x80001910: 00 17 87 93 addi	a5, a5, 1
è¯»å–åœ°å€ 0x80001914
0x80001914: fe e7 9c e3 bne	a5, a4, 0x8000190c
è¯»å–åœ°å€ 0x8000190c
å†™å…¥åœ°å€ 0x8009cbff
0x8000190c: 00 b7 80 23 sb	a1, 0(a5)
è¯»å–åœ°å€ 0x80001910
0x80001910: 00 17 87 93 addi	a5, a5, 1
è¯»å–åœ°å€ 0x80001914
0x80001914: fe e7 9c e3 bne	a5, a4, 0x8000190c
è¯»å–åœ°å€ 0x8000190c
å†™å…¥åœ°å€ 0x8009cc00
0x8000190c: 00 b7 80 23 sb	a1, 0(a5)
è¯»å–åœ°å€ 0x80001910
0x80001910: 00 17 87 93 addi	a5, a5, 1
è¯»å–åœ°å€ 0x80001914
0x80001914: fe e7 9c e3 bne	a5, a4, 0x8000190c
è¯»å–åœ°å€ 0x8000190c
å†™å…¥åœ°å€ 0x8009cc01
0x8000190c: 00 b7 80 23 sb	a1, 0(a5)
è¯»å–åœ°å€ 0x80001910
0x80001910: 00 17 87 93 addi	a5, a5, 1
è¯»å–åœ°å€ 0x80001914
0x80001914: fe e7 9c e3 bne	a5, a4, 0x8000190c
è¯»å–åœ°å€ 0x8000190c
å†™å…¥åœ°å€ 0x8009cc02
0x8000190c: 00 b7 80 23 sb	a1, 0(a5)
è¯»å–åœ°å€ 0x80001910
0x80001910: 00 17 87 93 addi	a5, a5, 1
è¯»å–åœ°å€ 0x80001914
0x80001914: fe e7 9c e3 bne	a5, a4, 0x8000190c
è¯»å–åœ°å€ 0x8000190c
å†™å…¥åœ°å€ 0x8009cc03
0x8000190c: 00 b7 80 23 sb	a1, 0(a5)
è¯»å–åœ°å€ 0x80001910
0x80001910: 00 17 87 93 addi	a5, a5, 1
è¯»å–åœ°å€ 0x80001914
0x80001914: fe e7 9c e3 bne	a5, a4, 0x8000190c
è¯»å–åœ°å€ 0x8000190c
å†™å…¥åœ°å€ 0x8009cc04
0x8000190c: 00 b7 80 23 sb	a1, 0(a5)
è¯»å–åœ°å€ 0x80001910
0x80001910: 00 17 87 93 addi	a5, a5, 1
è¯»å–åœ°å€ 0x80001914
0x80001914: fe e7 9c e3 bne	a5, a4, 0x8000190c
è¯»å–åœ°å€ 0x8000190c
å†™å…¥åœ°å€ 0x8009cc05
0x8000190c: 00 b7 80 23 sb	a1, 0(a5)
è¯»å–åœ°å€ 0x80001910
0x80001910: 00 17 87 93 addi	a5, a5, 1
è¯»å–åœ°å€ 0x80001914
0x80001914: fe e7 9c e3 bne	a5, a4, 0x8000190c
è¯»å–åœ°å€ 0x8000190c
å†™å…¥åœ°å€ 0x8009cc06
0x8000190c: 00 b7 80 23 sb	a1, 0(a5)
è¯»å–åœ°å€ 0x80001910
0x80001910: 00 17 87 93 addi	a5, a5, 1
è¯»å–åœ°å€ 0x80001914
0x80001914: fe e7 9c e3 bne	a5, a4, 0x8000190c
è¯»å–åœ°å€ 0x8000190c
å†™å…¥åœ°å€ 0x8009cc07
0x8000190c: 00 b7 80 23 sb	a1, 0(a5)
è¯»å–åœ°å€ 0x80001910
0x80001910: 00 17 87 93 addi	a5, a5, 1
è¯»å–åœ°å€ 0x80001914
0x80001914: fe e7 9c e3 bne	a5, a4, 0x8000190c
è¯»å–åœ°å€ 0x8000190c
å†™å…¥åœ°å€ 0x8009cc08
0x8000190c: 00 b7 80 23 sb	a1, 0(a5)
è¯»å–åœ°å€ 0x80001910
0x80001910: 00 17 87 93 addi	a5, a5, 1
è¯»å–åœ°å€ 0x80001914
0x80001914: fe e7 9c e3 bne	a5, a4, 0x8000190c
è¯»å–åœ°å€ 0x8000190c
å†™å…¥åœ°å€ 0x8009cc09
0x8000190c: 00 b7 80 23 sb	a1, 0(a5)
è¯»å–åœ°å€ 0x80001910
0x80001910: 00 17 87 93 addi	a5, a5, 1
è¯»å–åœ°å€ 0x80001914
0x80001914: fe e7 9c e3 bne	a5, a4, 0x8000190c
è¯»å–åœ°å€ 0x8000190c
å†™å…¥åœ°å€ 0x8009cc0a
0x8000190c: 00 b7 80 23 sb	a1, 0(a5)
è¯»å–åœ°å€ 0x80001910
0x80001910: 00 17 87 93 addi	a5, a5, 1
è¯»å–åœ°å€ 0x80001914
0x80001914: fe e7 9c e3 bne	a5, a4, 0x8000190c
è¯»å–åœ°å€ 0x8000190c
å†™å…¥åœ°å€ 0x8009cc0b
0x8000190c: 00 b7 80 23 sb	a1, 0(a5)
è¯»å–åœ°å€ 0x80001910
0x80001910: 00 17 87 93 addi	a5, a5, 1
è¯»å–åœ°å€ 0x80001914
0x80001914: fe e7 9c e3 bne	a5, a4, 0x8000190c
è¯»å–åœ°å€ 0x8000190c
å†™å…¥åœ°å€ 0x8009cc0c
0x8000190c: 00 b7 80 23 sb	a1, 0(a5)
è¯»å–åœ°å€ 0x80001910
0x80001910: 00 17 87 93 addi	a5, a5, 1
è¯»å–åœ°å€ 0x80001914
0x80001914: fe e7 9c e3 bne	a5, a4, 0x8000190c
è¯»å–åœ°å€ 0x8000190c
å†™å…¥åœ°å€ 0x8009cc0d
0x8000190c: 00 b7 80 23 sb	a1, 0(a5)
è¯»å–åœ°å€ 0x80001910
0x80001910: 00 17 87 93 addi	a5, a5, 1
è¯»å–åœ°å€ 0x80001914
0x80001914: fe e7 9c e3 bne	a5, a4, 0x8000190c
è¯»å–åœ°å€ 0x8000190c
å†™å…¥åœ°å€ 0x8009cc0e
0x8000190c: 00 b7 80 23 sb	a1, 0(a5)
è¯»å–åœ°å€ 0x80001910
0x80001910: 00 17 87 93 addi	a5, a5, 1
è¯»å–åœ°å€ 0x80001914
0x80001914: fe e7 9c e3 bne	a5, a4, 0x8000190c
è¯»å–åœ°å€ 0x8000190c
å†™å…¥åœ°å€ 0x8009cc0f
0x8000190c: 00 b7 80 23 sb	a1, 0(a5)
è¯»å–åœ°å€ 0x80001910
0x80001910: 00 17 87 93 addi	a5, a5, 1
è¯»å–åœ°å€ 0x80001914
0x80001914: fe e7 9c e3 bne	a5, a4, 0x8000190c
è¯»å–åœ°å€ 0x8000190c
å†™å…¥åœ°å€ 0x8009cc10
0x8000190c: 00 b7 80 23 sb	a1, 0(a5)
è¯»å–åœ°å€ 0x80001910
0x80001910: 00 17 87 93 addi	a5, a5, 1
è¯»å–åœ°å€ 0x80001914
0x80001914: fe e7 9c e3 bne	a5, a4, 0x8000190c
è¯»å–åœ°å€ 0x8000190c
å†™å…¥åœ°å€ 0x8009cc11
0x8000190c: 00 b7 80 23 sb	a1, 0(a5)
è¯»å–åœ°å€ 0x80001910
0x80001910: 00 17 87 93 addi	a5, a5, 1
è¯»å–åœ°å€ 0x80001914
0x80001914: fe e7 9c e3 bne	a5, a4, 0x8000190c
è¯»å–åœ°å€ 0x8000190c
å†™å…¥åœ°å€ 0x8009cc12
0x8000190c: 00 b7 80 23 sb	a1, 0(a5)
è¯»å–åœ°å€ 0x80001910
0x80001910: 00 17 87 93 addi	a5, a5, 1
è¯»å–åœ°å€ 0x80001914
0x80001914: fe e7 9c e3 bne	a5, a4, 0x8000190c
è¯»å–åœ°å€ 0x8000190c
å†™å…¥åœ°å€ 0x8009cc13
0x8000190c: 00 b7 80 23 sb	a1, 0(a5)
è¯»å–åœ°å€ 0x80001910
0x80001910: 00 17 87 93 addi	a5, a5, 1
è¯»å–åœ°å€ 0x80001914
0x80001914: fe e7 9c e3 bne	a5, a4, 0x8000190c
è¯»å–åœ°å€ 0x8000190c
å†™å…¥åœ°å€ 0x8009cc14
0x8000190c: 00 b7 80 23 sb	a1, 0(a5)
è¯»å–åœ°å€ 0x80001910
0x80001910: 00 17 87 93 addi	a5, a5, 1
è¯»å–åœ°å€ 0x80001914
0x80001914: fe e7 9c e3 bne	a5, a4, 0x8000190c
è¯»å–åœ°å€ 0x8000190c
å†™å…¥åœ°å€ 0x8009cc15
0x8000190c: 00 b7 80 23 sb	a1, 0(a5)
è¯»å–åœ°å€ 0x80001910
0x80001910: 00 17 87 93 addi	a5, a5, 1
è¯»å–åœ°å€ 0x80001914
0x80001914: fe e7 9c e3 bne	a5, a4, 0x8000190c
è¯»å–åœ°å€ 0x8000190c
å†™å…¥åœ°å€ 0x8009cc16
0x8000190c: 00 b7 80 23 sb	a1, 0(a5)
è¯»å–åœ°å€ 0x80001910
0x80001910: 00 17 87 93 addi	a5, a5, 1
è¯»å–åœ°å€ 0x80001914
0x80001914: fe e7 9c e3 bne	a5, a4, 0x8000190c
è¯»å–åœ°å€ 0x8000190c
å†™å…¥åœ°å€ 0x8009cc17
0x8000190c: 00 b7 80 23 sb	a1, 0(a5)
è¯»å–åœ°å€ 0x80001910
0x80001910: 00 17 87 93 addi	a5, a5, 1
è¯»å–åœ°å€ 0x80001914
0x80001914: fe e7 9c e3 bne	a5, a4, 0x8000190c
è¯»å–åœ°å€ 0x8000190c
å†™å…¥åœ°å€ 0x8009cc18
0x8000190c: 00 b7 80 23 sb	a1, 0(a5)
è¯»å–åœ°å€ 0x80001910
0x80001910: 00 17 87 93 addi	a5, a5, 1
è¯»å–åœ°å€ 0x80001914
0x80001914: fe e7 9c e3 bne	a5, a4, 0x8000190c
è¯»å–åœ°å€ 0x8000190c
å†™å…¥åœ°å€ 0x8009cc19
0x8000190c: 00 b7 80 23 sb	a1, 0(a5)
è¯»å–åœ°å€ 0x80001910
0x80001910: 00 17 87 93 addi	a5, a5, 1
è¯»å–åœ°å€ 0x80001914
0x80001914: fe e7 9c e3 bne	a5, a4, 0x8000190c
è¯»å–åœ°å€ 0x8000190c
å†™å…¥åœ°å€ 0x8009cc1a
0x8000190c: 00 b7 80 23 sb	a1, 0(a5)
è¯»å–åœ°å€ 0x80001910
0x80001910: 00 17 87 93 addi	a5, a5, 1
è¯»å–åœ°å€ 0x80001914
0x80001914: fe e7 9c e3 bne	a5, a4, 0x8000190c
è¯»å–åœ°å€ 0x8000190c
å†™å…¥åœ°å€ 0x8009cc1b
0x8000190c: 00 b7 80 23 sb	a1, 0(a5)
è¯»å–åœ°å€ 0x80001910
0x80001910: 00 17 87 93 addi	a5, a5, 1
è¯»å–åœ°å€ 0x80001914
0x80001914: fe e7 9c e3 bne	a5, a4, 0x8000190c
è¯»å–åœ°å€ 0x8000190c
å†™å…¥åœ°å€ 0x8009cc1c
0x8000190c: 00 b7 80 23 sb	a1, 0(a5)
è¯»å–åœ°å€ 0x80001910
0x80001910: 00 17 87 93 addi	a5, a5, 1
è¯»å–åœ°å€ 0x80001914
0x80001914: fe e7 9c e3 bne	a5, a4, 0x8000190c
è¯»å–åœ°å€ 0x8000190c
å†™å…¥åœ°å€ 0x8009cc1d
0x8000190c: 00 b7 80 23 sb	a1, 0(a5)
è¯»å–åœ°å€ 0x80001910
0x80001910: 00 17 87 93 addi	a5, a5, 1
è¯»å–åœ°å€ 0x80001914
0x80001914: fe e7 9c e3 bne	a5, a4, 0x8000190c
è¯»å–åœ°å€ 0x8000190c
å†™å…¥åœ°å€ 0x8009cc1e
0x8000190c: 00 b7 80 23 sb	a1, 0(a5)
è¯»å–åœ°å€ 0x80001910
0x80001910: 00 17 87 93 addi	a5, a5, 1
è¯»å–åœ°å€ 0x80001914
0x80001914: fe e7 9c e3 bne	a5, a4, 0x8000190c
è¯»å–åœ°å€ 0x8000190c
å†™å…¥åœ°å€ 0x8009cc1f
0x8000190c: 00 b7 80 23 sb	a1, 0(a5)
è¯»å–åœ°å€ 0x80001910
0x80001910: 00 17 87 93 addi	a5, a5, 1
è¯»å–åœ°å€ 0x80001914
0x80001914: fe e7 9c e3 bne	a5, a4, 0x8000190c
è¯»å–åœ°å€ 0x8000190c
å†™å…¥åœ°å€ 0x8009cc20
0x8000190c: 00 b7 80 23 sb	a1, 0(a5)
è¯»å–åœ°å€ 0x80001910
0x80001910: 00 17 87 93 addi	a5, a5, 1
è¯»å–åœ°å€ 0x80001914
0x80001914: fe e7 9c e3 bne	a5, a4, 0x8000190c
è¯»å–åœ°å€ 0x8000190c
å†™å…¥åœ°å€ 0x8009cc21
0x8000190c: 00 b7 80 23 sb	a1, 0(a5)
è¯»å–åœ°å€ 0x80001910
0x80001910: 00 17 87 93 addi	a5, a5, 1
è¯»å–åœ°å€ 0x80001914
0x80001914: fe e7 9c e3 bne	a5, a4, 0x8000190c
è¯»å–åœ°å€ 0x8000190c
å†™å…¥åœ°å€ 0x8009cc22
0x8000190c: 00 b7 80 23 sb	a1, 0(a5)
è¯»å–åœ°å€ 0x80001910
0x80001910: 00 17 87 93 addi	a5, a5, 1
è¯»å–åœ°å€ 0x80001914
0x80001914: fe e7 9c e3 bne	a5, a4, 0x8000190c
è¯»å–åœ°å€ 0x8000190c
å†™å…¥åœ°å€ 0x8009cc23
0x8000190c: 00 b7 80 23 sb	a1, 0(a5)
è¯»å–åœ°å€ 0x80001910
0x80001910: 00 17 87 93 addi	a5, a5, 1
è¯»å–åœ°å€ 0x80001914
0x80001914: fe e7 9c e3 bne	a5, a4, 0x8000190c
è¯»å–åœ°å€ 0x8000190c
å†™å…¥åœ°å€ 0x8009cc24
0x8000190c: 00 b7 80 23 sb	a1, 0(a5)
è¯»å–åœ°å€ 0x80001910
0x80001910: 00 17 87 93 addi	a5, a5, 1
è¯»å–åœ°å€ 0x80001914
0x80001914: fe e7 9c e3 bne	a5, a4, 0x8000190c
è¯»å–åœ°å€ 0x8000190c
å†™å…¥åœ°å€ 0x8009cc25
0x8000190c: 00 b7 80 23 sb	a1, 0(a5)
è¯»å–åœ°å€ 0x80001910
0x80001910: 00 17 87 93 addi	a5, a5, 1
è¯»å–åœ°å€ 0x80001914
0x80001914: fe e7 9c e3 bne	a5, a4, 0x8000190c
è¯»å–åœ°å€ 0x8000190c
å†™å…¥åœ°å€ 0x8009cc26
0x8000190c: 00 b7 80 23 sb	a1, 0(a5)
è¯»å–åœ°å€ 0x80001910
0x80001910: 00 17 87 93 addi	a5, a5, 1
è¯»å–åœ°å€ 0x80001914
0x80001914: fe e7 9c e3 bne	a5, a4, 0x8000190c
è¯»å–åœ°å€ 0x8000190c
å†™å…¥åœ°å€ 0x8009cc27
0x8000190c: 00 b7 80 23 sb	a1, 0(a5)
è¯»å–åœ°å€ 0x80001910
0x80001910: 00 17 87 93 addi	a5, a5, 1
è¯»å–åœ°å€ 0x80001914
0x80001914: fe e7 9c e3 bne	a5, a4, 0x8000190c
è¯»å–åœ°å€ 0x8000190c
å†™å…¥åœ°å€ 0x8009cc28
0x8000190c: 00 b7 80 23 sb	a1, 0(a5)
è¯»å–åœ°å€ 0x80001910
0x80001910: 00 17 87 93 addi	a5, a5, 1
è¯»å–åœ°å€ 0x80001914
0x80001914: fe e7 9c e3 bne	a5, a4, 0x8000190c
è¯»å–åœ°å€ 0x8000190c
å†™å…¥åœ°å€ 0x8009cc29
0x8000190c: 00 b7 80 23 sb	a1, 0(a5)
è¯»å–åœ°å€ 0x80001910
0x80001910: 00 17 87 93 addi	a5, a5, 1
è¯»å–åœ°å€ 0x80001914
0x80001914: fe e7 9c e3 bne	a5, a4, 0x8000190c
è¯»å–åœ°å€ 0x8000190c
å†™å…¥åœ°å€ 0x8009cc2a
0x8000190c: 00 b7 80 23 sb	a1, 0(a5)
è¯»å–åœ°å€ 0x80001910
0x80001910: 00 17 87 93 addi	a5, a5, 1
è¯»å–åœ°å€ 0x80001914
0x80001914: fe e7 9c e3 bne	a5, a4, 0x8000190c
è¯»å–åœ°å€ 0x8000190c
å†™å…¥åœ°å€ 0x8009cc2b
0x8000190c: 00 b7 80 23 sb	a1, 0(a5)
è¯»å–åœ°å€ 0x80001910
0x80001910: 00 17 87 93 addi	a5, a5, 1
è¯»å–åœ°å€ 0x80001914
0x80001914: fe e7 9c e3 bne	a5, a4, 0x8000190c
è¯»å–åœ°å€ 0x8000190c
å†™å…¥åœ°å€ 0x8009cc2c
0x8000190c: 00 b7 80 23 sb	a1, 0(a5)
è¯»å–åœ°å€ 0x80001910
0x80001910: 00 17 87 93 addi	a5, a5, 1
è¯»å–åœ°å€ 0x80001914
0x80001914: fe e7 9c e3 bne	a5, a4, 0x8000190c
è¯»å–åœ°å€ 0x8000190c
å†™å…¥åœ°å€ 0x8009cc2d
0x8000190c: 00 b7 80 23 sb	a1, 0(a5)
è¯»å–åœ°å€ 0x80001910
0x80001910: 00 17 87 93 addi	a5, a5, 1
è¯»å–åœ°å€ 0x80001914
0x80001914: fe e7 9c e3 bne	a5, a4, 0x8000190c
è¯»å–åœ°å€ 0x8000190c
å†™å…¥åœ°å€ 0x8009cc2e
0x8000190c: 00 b7 80 23 sb	a1, 0(a5)
è¯»å–åœ°å€ 0x80001910
0x80001910: 00 17 87 93 addi	a5, a5, 1
è¯»å–åœ°å€ 0x80001914
0x80001914: fe e7 9c e3 bne	a5, a4, 0x8000190c
è¯»å–åœ°å€ 0x8000190c
å†™å…¥åœ°å€ 0x8009cc2f
0x8000190c: 00 b7 80 23 sb	a1, 0(a5)
è¯»å–åœ°å€ 0x80001910
0x80001910: 00 17 87 93 addi	a5, a5, 1
è¯»å–åœ°å€ 0x80001914
0x80001914: fe e7 9c e3 bne	a5, a4, 0x8000190c
è¯»å–åœ°å€ 0x8000190c
å†™å…¥åœ°å€ 0x8009cc30
0x8000190c: 00 b7 80 23 sb	a1, 0(a5)
è¯»å–åœ°å€ 0x80001910
0x80001910: 00 17 87 93 addi	a5, a5, 1
è¯»å–åœ°å€ 0x80001914
0x80001914: fe e7 9c e3 bne	a5, a4, 0x8000190c
è¯»å–åœ°å€ 0x8000190c
å†™å…¥åœ°å€ 0x8009cc31
0x8000190c: 00 b7 80 23 sb	a1, 0(a5)
è¯»å–åœ°å€ 0x80001910
0x80001910: 00 17 87 93 addi	a5, a5, 1
è¯»å–åœ°å€ 0x80001914
0x80001914: fe e7 9c e3 bne	a5, a4, 0x8000190c
è¯»å–åœ°å€ 0x8000190c
å†™å…¥åœ°å€ 0x8009cc32
0x8000190c: 00 b7 80 23 sb	a1, 0(a5)
è¯»å–åœ°å€ 0x80001910
0x80001910: 00 17 87 93 addi	a5, a5, 1
è¯»å–åœ°å€ 0x80001914
0x80001914: fe e7 9c e3 bne	a5, a4, 0x8000190c
è¯»å–åœ°å€ 0x8000190c
å†™å…¥åœ°å€ 0x8009cc33
0x8000190c: 00 b7 80 23 sb	a1, 0(a5)
è¯»å–åœ°å€ 0x80001910
0x80001910: 00 17 87 93 addi	a5, a5, 1
è¯»å–åœ°å€ 0x80001914
0x80001914: fe e7 9c e3 bne	a5, a4, 0x8000190c
è¯»å–åœ°å€ 0x8000190c
å†™å…¥åœ°å€ 0x8009cc34
0x8000190c: 00 b7 80 23 sb	a1, 0(a5)
è¯»å–åœ°å€ 0x80001910
0x80001910: 00 17 87 93 addi	a5, a5, 1
è¯»å–åœ°å€ 0x80001914
0x80001914: fe e7 9c e3 bne	a5, a4, 0x8000190c
è¯»å–åœ°å€ 0x8000190c
å†™å…¥åœ°å€ 0x8009cc35
0x8000190c: 00 b7 80 23 sb	a1, 0(a5)
è¯»å–åœ°å€ 0x80001910
0x80001910: 00 17 87 93 addi	a5, a5, 1
è¯»å–åœ°å€ 0x80001914
0x80001914: fe e7 9c e3 bne	a5, a4, 0x8000190c
è¯»å–åœ°å€ 0x8000190c
å†™å…¥åœ°å€ 0x8009cc36
0x8000190c: 00 b7 80 23 sb	a1, 0(a5)
è¯»å–åœ°å€ 0x80001910
0x80001910: 00 17 87 93 addi	a5, a5, 1
è¯»å–åœ°å€ 0x80001914
0x80001914: fe e7 9c e3 bne	a5, a4, 0x8000190c
è¯»å–åœ°å€ 0x8000190c
å†™å…¥åœ°å€ 0x8009cc37
0x8000190c: 00 b7 80 23 sb	a1, 0(a5)
è¯»å–åœ°å€ 0x80001910
0x80001910: 00 17 87 93 addi	a5, a5, 1
è¯»å–åœ°å€ 0x80001914
0x80001914: fe e7 9c e3 bne	a5, a4, 0x8000190c
è¯»å–åœ°å€ 0x8000190c
å†™å…¥åœ°å€ 0x8009cc38
0x8000190c: 00 b7 80 23 sb	a1, 0(a5)
è¯»å–åœ°å€ 0x80001910
0x80001910: 00 17 87 93 addi	a5, a5, 1
è¯»å–åœ°å€ 0x80001914
0x80001914: fe e7 9c e3 bne	a5, a4, 0x8000190c
è¯»å–åœ°å€ 0x8000190c
å†™å…¥åœ°å€ 0x8009cc39
0x8000190c: 00 b7 80 23 sb	a1, 0(a5)
è¯»å–åœ°å€ 0x80001910
0x80001910: 00 17 87 93 addi	a5, a5, 1
è¯»å–åœ°å€ 0x80001914
0x80001914: fe e7 9c e3 bne	a5, a4, 0x8000190c
è¯»å–åœ°å€ 0x8000190c
å†™å…¥åœ°å€ 0x8009cc3a
0x8000190c: 00 b7 80 23 sb	a1, 0(a5)
è¯»å–åœ°å€ 0x80001910
0x80001910: 00 17 87 93 addi	a5, a5, 1
è¯»å–åœ°å€ 0x80001914
0x80001914: fe e7 9c e3 bne	a5, a4, 0x8000190c
è¯»å–åœ°å€ 0x8000190c
å†™å…¥åœ°å€ 0x8009cc3b
0x8000190c: 00 b7 80 23 sb	a1, 0(a5)
è¯»å–åœ°å€ 0x80001910
0x80001910: 00 17 87 93 addi	a5, a5, 1
è¯»å–åœ°å€ 0x80001914
0x80001914: fe e7 9c e3 bne	a5, a4, 0x8000190c
è¯»å–åœ°å€ 0x8000190c
å†™å…¥åœ°å€ 0x8009cc3c
0x8000190c: 00 b7 80 23 sb	a1, 0(a5)
è¯»å–åœ°å€ 0x80001910
0x80001910: 00 17 87 93 addi	a5, a5, 1
è¯»å–åœ°å€ 0x80001914
0x80001914: fe e7 9c e3 bne	a5, a4, 0x8000190c
è¯»å–åœ°å€ 0x8000190c
å†™å…¥åœ°å€ 0x8009cc3d
0x8000190c: 00 b7 80 23 sb	a1, 0(a5)
è¯»å–åœ°å€ 0x80001910
0x80001910: 00 17 87 93 addi	a5, a5, 1
è¯»å–åœ°å€ 0x80001914
0x80001914: fe e7 9c e3 bne	a5, a4, 0x8000190c
è¯»å–åœ°å€ 0x8000190c
å†™å…¥åœ°å€ 0x8009cc3e
0x8000190c: 00 b7 80 23 sb	a1, 0(a5)
è¯»å–åœ°å€ 0x80001910
0x80001910: 00 17 87 93 addi	a5, a5, 1
è¯»å–åœ°å€ 0x80001914
0x80001914: fe e7 9c e3 bne	a5, a4, 0x8000190c
è¯»å–åœ°å€ 0x8000190c
å†™å…¥åœ°å€ 0x8009cc3f
0x8000190c: 00 b7 80 23 sb	a1, 0(a5)
è¯»å–åœ°å€ 0x80001910
0x80001910: 00 17 87 93 addi	a5, a5, 1
è¯»å–åœ°å€ 0x80001914
0x80001914: fe e7 9c e3 bne	a5, a4, 0x8000190c
è¯»å–åœ°å€ 0x8000190c
å†™å…¥åœ°å€ 0x8009cc40
0x8000190c: 00 b7 80 23 sb	a1, 0(a5)
è¯»å–åœ°å€ 0x80001910
0x80001910: 00 17 87 93 addi	a5, a5, 1
è¯»å–åœ°å€ 0x80001914
0x80001914: fe e7 9c e3 bne	a5, a4, 0x8000190c
è¯»å–åœ°å€ 0x8000190c
å†™å…¥åœ°å€ 0x8009cc41
0x8000190c: 00 b7 80 23 sb	a1, 0(a5)
è¯»å–åœ°å€ 0x80001910
0x80001910: 00 17 87 93 addi	a5, a5, 1
è¯»å–åœ°å€ 0x80001914
0x80001914: fe e7 9c e3 bne	a5, a4, 0x8000190c
è¯»å–åœ°å€ 0x8000190c
å†™å…¥åœ°å€ 0x8009cc42
0x8000190c: 00 b7 80 23 sb	a1, 0(a5)
è¯»å–åœ°å€ 0x80001910
0x80001910: 00 17 87 93 addi	a5, a5, 1
è¯»å–åœ°å€ 0x80001914
0x80001914: fe e7 9c e3 bne	a5, a4, 0x8000190c
è¯»å–åœ°å€ 0x8000190c
å†™å…¥åœ°å€ 0x8009cc43
0x8000190c: 00 b7 80 23 sb	a1, 0(a5)
è¯»å–åœ°å€ 0x80001910
0x80001910: 00 17 87 93 addi	a5, a5, 1
è¯»å–åœ°å€ 0x80001914
0x80001914: fe e7 9c e3 bne	a5, a4, 0x8000190c
è¯»å–åœ°å€ 0x8000190c
å†™å…¥åœ°å€ 0x8009cc44
0x8000190c: 00 b7 80 23 sb	a1, 0(a5)
è¯»å–åœ°å€ 0x80001910
0x80001910: 00 17 87 93 addi	a5, a5, 1
è¯»å–åœ°å€ 0x80001914
0x80001914: fe e7 9c e3 bne	a5, a4, 0x8000190c
è¯»å–åœ°å€ 0x8000190c
å†™å…¥åœ°å€ 0x8009cc45
0x8000190c: 00 b7 80 23 sb	a1, 0(a5)
è¯»å–åœ°å€ 0x80001910
0x80001910: 00 17 87 93 addi	a5, a5, 1
è¯»å–åœ°å€ 0x80001914
0x80001914: fe e7 9c e3 bne	a5, a4, 0x8000190c
è¯»å–åœ°å€ 0x8000190c
å†™å…¥åœ°å€ 0x8009cc46
0x8000190c: 00 b7 80 23 sb	a1, 0(a5)
è¯»å–åœ°å€ 0x80001910
0x80001910: 00 17 87 93 addi	a5, a5, 1
è¯»å–åœ°å€ 0x80001914
0x80001914: fe e7 9c e3 bne	a5, a4, 0x8000190c
è¯»å–åœ°å€ 0x8000190c
å†™å…¥åœ°å€ 0x8009cc47
0x8000190c: 00 b7 80 23 sb	a1, 0(a5)
è¯»å–åœ°å€ 0x80001910
0x80001910: 00 17 87 93 addi	a5, a5, 1
è¯»å–åœ°å€ 0x80001914
0x80001914: fe e7 9c e3 bne	a5, a4, 0x8000190c
è¯»å–åœ°å€ 0x8000190c
å†™å…¥åœ°å€ 0x8009cc48
0x8000190c: 00 b7 80 23 sb	a1, 0(a5)
è¯»å–åœ°å€ 0x80001910
0x80001910: 00 17 87 93 addi	a5, a5, 1
è¯»å–åœ°å€ 0x80001914
0x80001914: fe e7 9c e3 bne	a5, a4, 0x8000190c
è¯»å–åœ°å€ 0x8000190c
å†™å…¥åœ°å€ 0x8009cc49
0x8000190c: 00 b7 80 23 sb	a1, 0(a5)
è¯»å–åœ°å€ 0x80001910
0x80001910: 00 17 87 93 addi	a5, a5, 1
è¯»å–åœ°å€ 0x80001914
0x80001914: fe e7 9c e3 bne	a5, a4, 0x8000190c
è¯»å–åœ°å€ 0x8000190c
å†™å…¥åœ°å€ 0x8009cc4a
0x8000190c: 00 b7 80 23 sb	a1, 0(a5)
è¯»å–åœ°å€ 0x80001910
0x80001910: 00 17 87 93 addi	a5, a5, 1
è¯»å–åœ°å€ 0x80001914
0x80001914: fe e7 9c e3 bne	a5, a4, 0x8000190c
è¯»å–åœ°å€ 0x8000190c
å†™å…¥åœ°å€ 0x8009cc4b
0x8000190c: 00 b7 80 23 sb	a1, 0(a5)
è¯»å–åœ°å€ 0x80001910
0x80001910: 00 17 87 93 addi	a5, a5, 1
è¯»å–åœ°å€ 0x80001914
0x80001914: fe e7 9c e3 bne	a5, a4, 0x8000190c
è¯»å–åœ°å€ 0x8000190c
å†™å…¥åœ°å€ 0x8009cc4c
0x8000190c: 00 b7 80 23 sb	a1, 0(a5)
è¯»å–åœ°å€ 0x80001910
0x80001910: 00 17 87 93 addi	a5, a5, 1
è¯»å–åœ°å€ 0x80001914
0x80001914: fe e7 9c e3 bne	a5, a4, 0x8000190c
è¯»å–åœ°å€ 0x8000190c
å†™å…¥åœ°å€ 0x8009cc4d
0x8000190c: 00 b7 80 23 sb	a1, 0(a5)
è¯»å–åœ°å€ 0x80001910
0x80001910: 00 17 87 93 addi	a5, a5, 1
è¯»å–åœ°å€ 0x80001914
0x80001914: fe e7 9c e3 bne	a5, a4, 0x8000190c
è¯»å–åœ°å€ 0x8000190c
å†™å…¥åœ°å€ 0x8009cc4e
0x8000190c: 00 b7 80 23 sb	a1, 0(a5)
è¯»å–åœ°å€ 0x80001910
0x80001910: 00 17 87 93 addi	a5, a5, 1
è¯»å–åœ°å€ 0x80001914
0x80001914: fe e7 9c e3 bne	a5, a4, 0x8000190c
è¯»å–åœ°å€ 0x8000190c
å†™å…¥åœ°å€ 0x8009cc4f
0x8000190c: 00 b7 80 23 sb	a1, 0(a5)
è¯»å–åœ°å€ 0x80001910
0x80001910: 00 17 87 93 addi	a5, a5, 1
è¯»å–åœ°å€ 0x80001914
0x80001914: fe e7 9c e3 bne	a5, a4, 0x8000190c
è¯»å–åœ°å€ 0x8000190c
å†™å…¥åœ°å€ 0x8009cc50
0x8000190c: 00 b7 80 23 sb	a1, 0(a5)
è¯»å–åœ°å€ 0x80001910
0x80001910: 00 17 87 93 addi	a5, a5, 1
è¯»å–åœ°å€ 0x80001914
0x80001914: fe e7 9c e3 bne	a5, a4, 0x8000190c
è¯»å–åœ°å€ 0x8000190c
å†™å…¥åœ°å€ 0x8009cc51
0x8000190c: 00 b7 80 23 sb	a1, 0(a5)
è¯»å–åœ°å€ 0x80001910
0x80001910: 00 17 87 93 addi	a5, a5, 1
è¯»å–åœ°å€ 0x80001914
0x80001914: fe e7 9c e3 bne	a5, a4, 0x8000190c
è¯»å–åœ°å€ 0x8000190c
å†™å…¥åœ°å€ 0x8009cc52
0x8000190c: 00 b7 80 23 sb	a1, 0(a5)
è¯»å–åœ°å€ 0x80001910
0x80001910: 00 17 87 93 addi	a5, a5, 1
è¯»å–åœ°å€ 0x80001914
0x80001914: fe e7 9c e3 bne	a5, a4, 0x8000190c
è¯»å–åœ°å€ 0x8000190c
å†™å…¥åœ°å€ 0x8009cc53
0x8000190c: 00 b7 80 23 sb	a1, 0(a5)
è¯»å–åœ°å€ 0x80001910
0x80001910: 00 17 87 93 addi	a5, a5, 1
è¯»å–åœ°å€ 0x80001914
0x80001914: fe e7 9c e3 bne	a5, a4, 0x8000190c
è¯»å–åœ°å€ 0x8000190c
å†™å…¥åœ°å€ 0x8009cc54
0x8000190c: 00 b7 80 23 sb	a1, 0(a5)
è¯»å–åœ°å€ 0x80001910
0x80001910: 00 17 87 93 addi	a5, a5, 1
è¯»å–åœ°å€ 0x80001914
0x80001914: fe e7 9c e3 bne	a5, a4, 0x8000190c
è¯»å–åœ°å€ 0x8000190c
å†™å…¥åœ°å€ 0x8009cc55
0x8000190c: 00 b7 80 23 sb	a1, 0(a5)
è¯»å–åœ°å€ 0x80001910
0x80001910: 00 17 87 93 addi	a5, a5, 1
è¯»å–åœ°å€ 0x80001914
0x80001914: fe e7 9c e3 bne	a5, a4, 0x8000190c
è¯»å–åœ°å€ 0x8000190c
å†™å…¥åœ°å€ 0x8009cc56
0x8000190c: 00 b7 80 23 sb	a1, 0(a5)
è¯»å–åœ°å€ 0x80001910
0x80001910: 00 17 87 93 addi	a5, a5, 1
è¯»å–åœ°å€ 0x80001914
0x80001914: fe e7 9c e3 bne	a5, a4, 0x8000190c
è¯»å–åœ°å€ 0x8000190c
å†™å…¥åœ°å€ 0x8009cc57
0x8000190c: 00 b7 80 23 sb	a1, 0(a5)
è¯»å–åœ°å€ 0x80001910
0x80001910: 00 17 87 93 addi	a5, a5, 1
è¯»å–åœ°å€ 0x80001914
0x80001914: fe e7 9c e3 bne	a5, a4, 0x8000190c
è¯»å–åœ°å€ 0x8000190c
å†™å…¥åœ°å€ 0x8009cc58
0x8000190c: 00 b7 80 23 sb	a1, 0(a5)
è¯»å–åœ°å€ 0x80001910
0x80001910: 00 17 87 93 addi	a5, a5, 1
è¯»å–åœ°å€ 0x80001914
0x80001914: fe e7 9c e3 bne	a5, a4, 0x8000190c
è¯»å–åœ°å€ 0x8000190c
å†™å…¥åœ°å€ 0x8009cc59
0x8000190c: 00 b7 80 23 sb	a1, 0(a5)
è¯»å–åœ°å€ 0x80001910
0x80001910: 00 17 87 93 addi	a5, a5, 1
è¯»å–åœ°å€ 0x80001914
0x80001914: fe e7 9c e3 bne	a5, a4, 0x8000190c
è¯»å–åœ°å€ 0x8000190c
å†™å…¥åœ°å€ 0x8009cc5a
0x8000190c: 00 b7 80 23 sb	a1, 0(a5)
è¯»å–åœ°å€ 0x80001910
0x80001910: 00 17 87 93 addi	a5, a5, 1
è¯»å–åœ°å€ 0x80001914
0x80001914: fe e7 9c e3 bne	a5, a4, 0x8000190c
è¯»å–åœ°å€ 0x8000190c
å†™å…¥åœ°å€ 0x8009cc5b
0x8000190c: 00 b7 80 23 sb	a1, 0(a5)
è¯»å–åœ°å€ 0x80001910
0x80001910: 00 17 87 93 addi	a5, a5, 1
è¯»å–åœ°å€ 0x80001914
0x80001914: fe e7 9c e3 bne	a5, a4, 0x8000190c
è¯»å–åœ°å€ 0x8000190c
å†™å…¥åœ°å€ 0x8009cc5c
0x8000190c: 00 b7 80 23 sb	a1, 0(a5)
è¯»å–åœ°å€ 0x80001910
0x80001910: 00 17 87 93 addi	a5, a5, 1
è¯»å–åœ°å€ 0x80001914
0x80001914: fe e7 9c e3 bne	a5, a4, 0x8000190c
è¯»å–åœ°å€ 0x8000190c
å†™å…¥åœ°å€ 0x8009cc5d
0x8000190c: 00 b7 80 23 sb	a1, 0(a5)
è¯»å–åœ°å€ 0x80001910
0x80001910: 00 17 87 93 addi	a5, a5, 1
è¯»å–åœ°å€ 0x80001914
0x80001914: fe e7 9c e3 bne	a5, a4, 0x8000190c
è¯»å–åœ°å€ 0x8000190c
å†™å…¥åœ°å€ 0x8009cc5e
0x8000190c: 00 b7 80 23 sb	a1, 0(a5)
è¯»å–åœ°å€ 0x80001910
0x80001910: 00 17 87 93 addi	a5, a5, 1
è¯»å–åœ°å€ 0x80001914
0x80001914: fe e7 9c e3 bne	a5, a4, 0x8000190c
è¯»å–åœ°å€ 0x8000190c
å†™å…¥åœ°å€ 0x8009cc5f
0x8000190c: 00 b7 80 23 sb	a1, 0(a5)
è¯»å–åœ°å€ 0x80001910
0x80001910: 00 17 87 93 addi	a5, a5, 1
è¯»å–åœ°å€ 0x80001914
0x80001914: fe e7 9c e3 bne	a5, a4, 0x8000190c
è¯»å–åœ°å€ 0x8000190c
å†™å…¥åœ°å€ 0x8009cc60
0x8000190c: 00 b7 80 23 sb	a1, 0(a5)
è¯»å–åœ°å€ 0x80001910
0x80001910: 00 17 87 93 addi	a5, a5, 1
è¯»å–åœ°å€ 0x80001914
0x80001914: fe e7 9c e3 bne	a5, a4, 0x8000190c
è¯»å–åœ°å€ 0x8000190c
å†™å…¥åœ°å€ 0x8009cc61
0x8000190c: 00 b7 80 23 sb	a1, 0(a5)
è¯»å–åœ°å€ 0x80001910
0x80001910: 00 17 87 93 addi	a5, a5, 1
è¯»å–åœ°å€ 0x80001914
0x80001914: fe e7 9c e3 bne	a5, a4, 0x8000190c
è¯»å–åœ°å€ 0x8000190c
å†™å…¥åœ°å€ 0x8009cc62
0x8000190c: 00 b7 80 23 sb	a1, 0(a5)
è¯»å–åœ°å€ 0x80001910
0x80001910: 00 17 87 93 addi	a5, a5, 1
è¯»å–åœ°å€ 0x80001914
0x80001914: fe e7 9c e3 bne	a5, a4, 0x8000190c
è¯»å–åœ°å€ 0x8000190c
å†™å…¥åœ°å€ 0x8009cc63
0x8000190c: 00 b7 80 23 sb	a1, 0(a5)
è¯»å–åœ°å€ 0x80001910
0x80001910: 00 17 87 93 addi	a5, a5, 1
è¯»å–åœ°å€ 0x80001914
0x80001914: fe e7 9c e3 bne	a5, a4, 0x8000190c
è¯»å–åœ°å€ 0x8000190c
å†™å…¥åœ°å€ 0x8009cc64
0x8000190c: 00 b7 80 23 sb	a1, 0(a5)
è¯»å–åœ°å€ 0x80001910
0x80001910: 00 17 87 93 addi	a5, a5, 1
è¯»å–åœ°å€ 0x80001914
0x80001914: fe e7 9c e3 bne	a5, a4, 0x8000190c
è¯»å–åœ°å€ 0x8000190c
å†™å…¥åœ°å€ 0x8009cc65
0x8000190c: 00 b7 80 23 sb	a1, 0(a5)
è¯»å–åœ°å€ 0x80001910
0x80001910: 00 17 87 93 addi	a5, a5, 1
è¯»å–åœ°å€ 0x80001914
0x80001914: fe e7 9c e3 bne	a5, a4, 0x8000190c
è¯»å–åœ°å€ 0x8000190c
å†™å…¥åœ°å€ 0x8009cc66
0x8000190c: 00 b7 80 23 sb	a1, 0(a5)
è¯»å–åœ°å€ 0x80001910
0x80001910: 00 17 87 93 addi	a5, a5, 1
è¯»å–åœ°å€ 0x80001914
0x80001914: fe e7 9c e3 bne	a5, a4, 0x8000190c
è¯»å–åœ°å€ 0x8000190c
å†™å…¥åœ°å€ 0x8009cc67
0x8000190c: 00 b7 80 23 sb	a1, 0(a5)
è¯»å–åœ°å€ 0x80001910
0x80001910: 00 17 87 93 addi	a5, a5, 1
è¯»å–åœ°å€ 0x80001914
0x80001914: fe e7 9c e3 bne	a5, a4, 0x8000190c
è¯»å–åœ°å€ 0x8000190c
å†™å…¥åœ°å€ 0x8009cc68
0x8000190c: 00 b7 80 23 sb	a1, 0(a5)
è¯»å–åœ°å€ 0x80001910
0x80001910: 00 17 87 93 addi	a5, a5, 1
è¯»å–åœ°å€ 0x80001914
0x80001914: fe e7 9c e3 bne	a5, a4, 0x8000190c
è¯»å–åœ°å€ 0x8000190c
å†™å…¥åœ°å€ 0x8009cc69
0x8000190c: 00 b7 80 23 sb	a1, 0(a5)
è¯»å–åœ°å€ 0x80001910
0x80001910: 00 17 87 93 addi	a5, a5, 1
è¯»å–åœ°å€ 0x80001914
0x80001914: fe e7 9c e3 bne	a5, a4, 0x8000190c
è¯»å–åœ°å€ 0x8000190c
å†™å…¥åœ°å€ 0x8009cc6a
0x8000190c: 00 b7 80 23 sb	a1, 0(a5)
è¯»å–åœ°å€ 0x80001910
0x80001910: 00 17 87 93 addi	a5, a5, 1
è¯»å–åœ°å€ 0x80001914
0x80001914: fe e7 9c e3 bne	a5, a4, 0x8000190c
è¯»å–åœ°å€ 0x8000190c
å†™å…¥åœ°å€ 0x8009cc6b
0x8000190c: 00 b7 80 23 sb	a1, 0(a5)
è¯»å–åœ°å€ 0x80001910
0x80001910: 00 17 87 93 addi	a5, a5, 1
è¯»å–åœ°å€ 0x80001914
0x80001914: fe e7 9c e3 bne	a5, a4, 0x8000190c
è¯»å–åœ°å€ 0x8000190c
å†™å…¥åœ°å€ 0x8009cc6c
0x8000190c: 00 b7 80 23 sb	a1, 0(a5)
è¯»å–åœ°å€ 0x80001910
0x80001910: 00 17 87 93 addi	a5, a5, 1
è¯»å–åœ°å€ 0x80001914
0x80001914: fe e7 9c e3 bne	a5, a4, 0x8000190c
è¯»å–åœ°å€ 0x8000190c
å†™å…¥åœ°å€ 0x8009cc6d
0x8000190c: 00 b7 80 23 sb	a1, 0(a5)
è¯»å–åœ°å€ 0x80001910
0x80001910: 00 17 87 93 addi	a5, a5, 1
è¯»å–åœ°å€ 0x80001914
0x80001914: fe e7 9c e3 bne	a5, a4, 0x8000190c
è¯»å–åœ°å€ 0x8000190c
å†™å…¥åœ°å€ 0x8009cc6e
0x8000190c: 00 b7 80 23 sb	a1, 0(a5)
è¯»å–åœ°å€ 0x80001910
0x80001910: 00 17 87 93 addi	a5, a5, 1
è¯»å–åœ°å€ 0x80001914
0x80001914: fe e7 9c e3 bne	a5, a4, 0x8000190c
è¯»å–åœ°å€ 0x8000190c
å†™å…¥åœ°å€ 0x8009cc6f
0x8000190c: 00 b7 80 23 sb	a1, 0(a5)
è¯»å–åœ°å€ 0x80001910
0x80001910: 00 17 87 93 addi	a5, a5, 1
è¯»å–åœ°å€ 0x80001914
0x80001914: fe e7 9c e3 bne	a5, a4, 0x8000190c
è¯»å–åœ°å€ 0x8000190c
å†™å…¥åœ°å€ 0x8009cc70
0x8000190c: 00 b7 80 23 sb	a1, 0(a5)
è¯»å–åœ°å€ 0x80001910
0x80001910: 00 17 87 93 addi	a5, a5, 1
è¯»å–åœ°å€ 0x80001914
0x80001914: fe e7 9c e3 bne	a5, a4, 0x8000190c
è¯»å–åœ°å€ 0x8000190c
å†™å…¥åœ°å€ 0x8009cc71
0x8000190c: 00 b7 80 23 sb	a1, 0(a5)
è¯»å–åœ°å€ 0x80001910
0x80001910: 00 17 87 93 addi	a5, a5, 1
è¯»å–åœ°å€ 0x80001914
0x80001914: fe e7 9c e3 bne	a5, a4, 0x8000190c
è¯»å–åœ°å€ 0x8000190c
å†™å…¥åœ°å€ 0x8009cc72
0x8000190c: 00 b7 80 23 sb	a1, 0(a5)
è¯»å–åœ°å€ 0x80001910
0x80001910: 00 17 87 93 addi	a5, a5, 1
è¯»å–åœ°å€ 0x80001914
0x80001914: fe e7 9c e3 bne	a5, a4, 0x8000190c
è¯»å–åœ°å€ 0x8000190c
å†™å…¥åœ°å€ 0x8009cc73
0x8000190c: 00 b7 80 23 sb	a1, 0(a5)
è¯»å–åœ°å€ 0x80001910
0x80001910: 00 17 87 93 addi	a5, a5, 1
è¯»å–åœ°å€ 0x80001914
0x80001914: fe e7 9c e3 bne	a5, a4, 0x8000190c
è¯»å–åœ°å€ 0x8000190c
å†™å…¥åœ°å€ 0x8009cc74
0x8000190c: 00 b7 80 23 sb	a1, 0(a5)
è¯»å–åœ°å€ 0x80001910
0x80001910: 00 17 87 93 addi	a5, a5, 1
è¯»å–åœ°å€ 0x80001914
0x80001914: fe e7 9c e3 bne	a5, a4, 0x8000190c
è¯»å–åœ°å€ 0x8000190c
å†™å…¥åœ°å€ 0x8009cc75
0x8000190c: 00 b7 80 23 sb	a1, 0(a5)
è¯»å–åœ°å€ 0x80001910
0x80001910: 00 17 87 93 addi	a5, a5, 1
è¯»å–åœ°å€ 0x80001914
0x80001914: fe e7 9c e3 bne	a5, a4, 0x8000190c
è¯»å–åœ°å€ 0x8000190c
å†™å…¥åœ°å€ 0x8009cc76
0x8000190c: 00 b7 80 23 sb	a1, 0(a5)
è¯»å–åœ°å€ 0x80001910
0x80001910: 00 17 87 93 addi	a5, a5, 1
è¯»å–åœ°å€ 0x80001914
0x80001914: fe e7 9c e3 bne	a5, a4, 0x8000190c
è¯»å–åœ°å€ 0x8000190c
å†™å…¥åœ°å€ 0x8009cc77
0x8000190c: 00 b7 80 23 sb	a1, 0(a5)
è¯»å–åœ°å€ 0x80001910
0x80001910: 00 17 87 93 addi	a5, a5, 1
è¯»å–åœ°å€ 0x80001914
0x80001914: fe e7 9c e3 bne	a5, a4, 0x8000190c
è¯»å–åœ°å€ 0x8000190c
å†™å…¥åœ°å€ 0x8009cc78
0x8000190c: 00 b7 80 23 sb	a1, 0(a5)
è¯»å–åœ°å€ 0x80001910
0x80001910: 00 17 87 93 addi	a5, a5, 1
è¯»å–åœ°å€ 0x80001914
0x80001914: fe e7 9c e3 bne	a5, a4, 0x8000190c
è¯»å–åœ°å€ 0x8000190c
å†™å…¥åœ°å€ 0x8009cc79
0x8000190c: 00 b7 80 23 sb	a1, 0(a5)
è¯»å–åœ°å€ 0x80001910
0x80001910: 00 17 87 93 addi	a5, a5, 1
è¯»å–åœ°å€ 0x80001914
0x80001914: fe e7 9c e3 bne	a5, a4, 0x8000190c
è¯»å–åœ°å€ 0x8000190c
å†™å…¥åœ°å€ 0x8009cc7a
0x8000190c: 00 b7 80 23 sb	a1, 0(a5)
è¯»å–åœ°å€ 0x80001910
0x80001910: 00 17 87 93 addi	a5, a5, 1
è¯»å–åœ°å€ 0x80001914
0x80001914: fe e7 9c e3 bne	a5, a4, 0x8000190c
è¯»å–åœ°å€ 0x8000190c
å†™å…¥åœ°å€ 0x8009cc7b
0x8000190c: 00 b7 80 23 sb	a1, 0(a5)
è¯»å–åœ°å€ 0x80001910
0x80001910: 00 17 87 93 addi	a5, a5, 1
è¯»å–åœ°å€ 0x80001914
0x80001914: fe e7 9c e3 bne	a5, a4, 0x8000190c
è¯»å–åœ°å€ 0x8000190c
å†™å…¥åœ°å€ 0x8009cc7c
0x8000190c: 00 b7 80 23 sb	a1, 0(a5)
è¯»å–åœ°å€ 0x80001910
0x80001910: 00 17 87 93 addi	a5, a5, 1
è¯»å–åœ°å€ 0x80001914
0x80001914: fe e7 9c e3 bne	a5, a4, 0x8000190c
è¯»å–åœ°å€ 0x8000190c
å†™å…¥åœ°å€ 0x8009cc7d
0x8000190c: 00 b7 80 23 sb	a1, 0(a5)
è¯»å–åœ°å€ 0x80001910
0x80001910: 00 17 87 93 addi	a5, a5, 1
è¯»å–åœ°å€ 0x80001914
0x80001914: fe e7 9c e3 bne	a5, a4, 0x8000190c
è¯»å–åœ°å€ 0x8000190c
å†™å…¥åœ°å€ 0x8009cc7e
0x8000190c: 00 b7 80 23 sb	a1, 0(a5)
è¯»å–åœ°å€ 0x80001910
0x80001910: 00 17 87 93 addi	a5, a5, 1
è¯»å–åœ°å€ 0x80001914
0x80001914: fe e7 9c e3 bne	a5, a4, 0x8000190c
è¯»å–åœ°å€ 0x8000190c
å†™å…¥åœ°å€ 0x8009cc7f
0x8000190c: 00 b7 80 23 sb	a1, 0(a5)
è¯»å–åœ°å€ 0x80001910
0x80001910: 00 17 87 93 addi	a5, a5, 1
è¯»å–åœ°å€ 0x80001914
0x80001914: fe e7 9c e3 bne	a5, a4, 0x8000190c
è¯»å–åœ°å€ 0x8000190c
å†™å…¥åœ°å€ 0x8009cc80
0x8000190c: 00 b7 80 23 sb	a1, 0(a5)
è¯»å–åœ°å€ 0x80001910
0x80001910: 00 17 87 93 addi	a5, a5, 1
è¯»å–åœ°å€ 0x80001914
0x80001914: fe e7 9c e3 bne	a5, a4, 0x8000190c
è¯»å–åœ°å€ 0x8000190c
å†™å…¥åœ°å€ 0x8009cc81
0x8000190c: 00 b7 80 23 sb	a1, 0(a5)
è¯»å–åœ°å€ 0x80001910
0x80001910: 00 17 87 93 addi	a5, a5, 1
è¯»å–åœ°å€ 0x80001914
0x80001914: fe e7 9c e3 bne	a5, a4, 0x8000190c
è¯»å–åœ°å€ 0x8000190c
å†™å…¥åœ°å€ 0x8009cc82
0x8000190c: 00 b7 80 23 sb	a1, 0(a5)
è¯»å–åœ°å€ 0x80001910
0x80001910: 00 17 87 93 addi	a5, a5, 1
è¯»å–åœ°å€ 0x80001914
0x80001914: fe e7 9c e3 bne	a5, a4, 0x8000190c
è¯»å–åœ°å€ 0x8000190c
å†™å…¥åœ°å€ 0x8009cc83
0x8000190c: 00 b7 80 23 sb	a1, 0(a5)
è¯»å–åœ°å€ 0x80001910
0x80001910: 00 17 87 93 addi	a5, a5, 1
è¯»å–åœ°å€ 0x80001914
0x80001914: fe e7 9c e3 bne	a5, a4, 0x8000190c
è¯»å–åœ°å€ 0x8000190c
å†™å…¥åœ°å€ 0x8009cc84
0x8000190c: 00 b7 80 23 sb	a1, 0(a5)
è¯»å–åœ°å€ 0x80001910
0x80001910: 00 17 87 93 addi	a5, a5, 1
è¯»å–åœ°å€ 0x80001914
0x80001914: fe e7 9c e3 bne	a5, a4, 0x8000190c
è¯»å–åœ°å€ 0x8000190c
å†™å…¥åœ°å€ 0x8009cc85
0x8000190c: 00 b7 80 23 sb	a1, 0(a5)
è¯»å–åœ°å€ 0x80001910
0x80001910: 00 17 87 93 addi	a5, a5, 1
è¯»å–åœ°å€ 0x80001914
0x80001914: fe e7 9c e3 bne	a5, a4, 0x8000190c
è¯»å–åœ°å€ 0x8000190c
å†™å…¥åœ°å€ 0x8009cc86
0x8000190c: 00 b7 80 23 sb	a1, 0(a5)
è¯»å–åœ°å€ 0x80001910
0x80001910: 00 17 87 93 addi	a5, a5, 1
è¯»å–åœ°å€ 0x80001914
0x80001914: fe e7 9c e3 bne	a5, a4, 0x8000190c
è¯»å–åœ°å€ 0x8000190c
å†™å…¥åœ°å€ 0x8009cc87
0x8000190c: 00 b7 80 23 sb	a1, 0(a5)
è¯»å–åœ°å€ 0x80001910
0x80001910: 00 17 87 93 addi	a5, a5, 1
è¯»å–åœ°å€ 0x80001914
0x80001914: fe e7 9c e3 bne	a5, a4, 0x8000190c
è¯»å–åœ°å€ 0x8000190c
å†™å…¥åœ°å€ 0x8009cc88
0x8000190c: 00 b7 80 23 sb	a1, 0(a5)
è¯»å–åœ°å€ 0x80001910
0x80001910: 00 17 87 93 addi	a5, a5, 1
è¯»å–åœ°å€ 0x80001914
0x80001914: fe e7 9c e3 bne	a5, a4, 0x8000190c
è¯»å–åœ°å€ 0x8000190c
å†™å…¥åœ°å€ 0x8009cc89
0x8000190c: 00 b7 80 23 sb	a1, 0(a5)
è¯»å–åœ°å€ 0x80001910
0x80001910: 00 17 87 93 addi	a5, a5, 1
è¯»å–åœ°å€ 0x80001914
0x80001914: fe e7 9c e3 bne	a5, a4, 0x8000190c
è¯»å–åœ°å€ 0x8000190c
å†™å…¥åœ°å€ 0x8009cc8a
0x8000190c: 00 b7 80 23 sb	a1, 0(a5)
è¯»å–åœ°å€ 0x80001910
0x80001910: 00 17 87 93 addi	a5, a5, 1
è¯»å–åœ°å€ 0x80001914
0x80001914: fe e7 9c e3 bne	a5, a4, 0x8000190c
è¯»å–åœ°å€ 0x8000190c
å†™å…¥åœ°å€ 0x8009cc8b
0x8000190c: 00 b7 80 23 sb	a1, 0(a5)
è¯»å–åœ°å€ 0x80001910
0x80001910: 00 17 87 93 addi	a5, a5, 1
è¯»å–åœ°å€ 0x80001914
0x80001914: fe e7 9c e3 bne	a5, a4, 0x8000190c
è¯»å–åœ°å€ 0x8000190c
å†™å…¥åœ°å€ 0x8009cc8c
0x8000190c: 00 b7 80 23 sb	a1, 0(a5)
è¯»å–åœ°å€ 0x80001910
0x80001910: 00 17 87 93 addi	a5, a5, 1
è¯»å–åœ°å€ 0x80001914
0x80001914: fe e7 9c e3 bne	a5, a4, 0x8000190c
è¯»å–åœ°å€ 0x8000190c
å†™å…¥åœ°å€ 0x8009cc8d
0x8000190c: 00 b7 80 23 sb	a1, 0(a5)
è¯»å–åœ°å€ 0x80001910
0x80001910: 00 17 87 93 addi	a5, a5, 1
è¯»å–åœ°å€ 0x80001914
0x80001914: fe e7 9c e3 bne	a5, a4, 0x8000190c
è¯»å–åœ°å€ 0x8000190c
å†™å…¥åœ°å€ 0x8009cc8e
0x8000190c: 00 b7 80 23 sb	a1, 0(a5)
è¯»å–åœ°å€ 0x80001910
0x80001910: 00 17 87 93 addi	a5, a5, 1
è¯»å–åœ°å€ 0x80001914
0x80001914: fe e7 9c e3 bne	a5, a4, 0x8000190c
è¯»å–åœ°å€ 0x8000190c
å†™å…¥åœ°å€ 0x8009cc8f
0x8000190c: 00 b7 80 23 sb	a1, 0(a5)
è¯»å–åœ°å€ 0x80001910
0x80001910: 00 17 87 93 addi	a5, a5, 1
è¯»å–åœ°å€ 0x80001914
0x80001914: fe e7 9c e3 bne	a5, a4, 0x8000190c
è¯»å–åœ°å€ 0x8000190c
å†™å…¥åœ°å€ 0x8009cc90
0x8000190c: 00 b7 80 23 sb	a1, 0(a5)
è¯»å–åœ°å€ 0x80001910
0x80001910: 00 17 87 93 addi	a5, a5, 1
è¯»å–åœ°å€ 0x80001914
0x80001914: fe e7 9c e3 bne	a5, a4, 0x8000190c
è¯»å–åœ°å€ 0x8000190c
å†™å…¥åœ°å€ 0x8009cc91
0x8000190c: 00 b7 80 23 sb	a1, 0(a5)
è¯»å–åœ°å€ 0x80001910
0x80001910: 00 17 87 93 addi	a5, a5, 1
è¯»å–åœ°å€ 0x80001914
0x80001914: fe e7 9c e3 bne	a5, a4, 0x8000190c
è¯»å–åœ°å€ 0x8000190c
å†™å…¥åœ°å€ 0x8009cc92
0x8000190c: 00 b7 80 23 sb	a1, 0(a5)
è¯»å–åœ°å€ 0x80001910
0x80001910: 00 17 87 93 addi	a5, a5, 1
è¯»å–åœ°å€ 0x80001914
0x80001914: fe e7 9c e3 bne	a5, a4, 0x8000190c
è¯»å–åœ°å€ 0x8000190c
å†™å…¥åœ°å€ 0x8009cc93
0x8000190c: 00 b7 80 23 sb	a1, 0(a5)
è¯»å–åœ°å€ 0x80001910
0x80001910: 00 17 87 93 addi	a5, a5, 1
è¯»å–åœ°å€ 0x80001914
0x80001914: fe e7 9c e3 bne	a5, a4, 0x8000190c
è¯»å–åœ°å€ 0x8000190c
å†™å…¥åœ°å€ 0x8009cc94
0x8000190c: 00 b7 80 23 sb	a1, 0(a5)
è¯»å–åœ°å€ 0x80001910
0x80001910: 00 17 87 93 addi	a5, a5, 1
è¯»å–åœ°å€ 0x80001914
0x80001914: fe e7 9c e3 bne	a5, a4, 0x8000190c
è¯»å–åœ°å€ 0x8000190c
å†™å…¥åœ°å€ 0x8009cc95
0x8000190c: 00 b7 80 23 sb	a1, 0(a5)
è¯»å–åœ°å€ 0x80001910
0x80001910: 00 17 87 93 addi	a5, a5, 1
è¯»å–åœ°å€ 0x80001914
0x80001914: fe e7 9c e3 bne	a5, a4, 0x8000190c
è¯»å–åœ°å€ 0x8000190c
å†™å…¥åœ°å€ 0x8009cc96
0x8000190c: 00 b7 80 23 sb	a1, 0(a5)
è¯»å–åœ°å€ 0x80001910
0x80001910: 00 17 87 93 addi	a5, a5, 1
è¯»å–åœ°å€ 0x80001914
0x80001914: fe e7 9c e3 bne	a5, a4, 0x8000190c
è¯»å–åœ°å€ 0x8000190c
å†™å…¥åœ°å€ 0x8009cc97
0x8000190c: 00 b7 80 23 sb	a1, 0(a5)
è¯»å–åœ°å€ 0x80001910
0x80001910: 00 17 87 93 addi	a5, a5, 1
è¯»å–åœ°å€ 0x80001914
0x80001914: fe e7 9c e3 bne	a5, a4, 0x8000190c
è¯»å–åœ°å€ 0x8000190c
å†™å…¥åœ°å€ 0x8009cc98
0x8000190c: 00 b7 80 23 sb	a1, 0(a5)
è¯»å–åœ°å€ 0x80001910
0x80001910: 00 17 87 93 addi	a5, a5, 1
è¯»å–åœ°å€ 0x80001914
0x80001914: fe e7 9c e3 bne	a5, a4, 0x8000190c
è¯»å–åœ°å€ 0x8000190c
å†™å…¥åœ°å€ 0x8009cc99
0x8000190c: 00 b7 80 23 sb	a1, 0(a5)
è¯»å–åœ°å€ 0x80001910
0x80001910: 00 17 87 93 addi	a5, a5, 1
è¯»å–åœ°å€ 0x80001914
0x80001914: fe e7 9c e3 bne	a5, a4, 0x8000190c
è¯»å–åœ°å€ 0x8000190c
å†™å…¥åœ°å€ 0x8009cc9a
0x8000190c: 00 b7 80 23 sb	a1, 0(a5)
è¯»å–åœ°å€ 0x80001910
0x80001910: 00 17 87 93 addi	a5, a5, 1
è¯»å–åœ°å€ 0x80001914
0x80001914: fe e7 9c e3 bne	a5, a4, 0x8000190c
è¯»å–åœ°å€ 0x8000190c
å†™å…¥åœ°å€ 0x8009cc9b
0x8000190c: 00 b7 80 23 sb	a1, 0(a5)
è¯»å–åœ°å€ 0x80001910
0x80001910: 00 17 87 93 addi	a5, a5, 1
è¯»å–åœ°å€ 0x80001914
0x80001914: fe e7 9c e3 bne	a5, a4, 0x8000190c
è¯»å–åœ°å€ 0x8000190c
å†™å…¥åœ°å€ 0x8009cc9c
0x8000190c: 00 b7 80 23 sb	a1, 0(a5)
è¯»å–åœ°å€ 0x80001910
0x80001910: 00 17 87 93 addi	a5, a5, 1
è¯»å–åœ°å€ 0x80001914
0x80001914: fe e7 9c e3 bne	a5, a4, 0x8000190c
è¯»å–åœ°å€ 0x8000190c
å†™å…¥åœ°å€ 0x8009cc9d
0x8000190c: 00 b7 80 23 sb	a1, 0(a5)
è¯»å–åœ°å€ 0x80001910
0x80001910: 00 17 87 93 addi	a5, a5, 1
è¯»å–åœ°å€ 0x80001914
0x80001914: fe e7 9c e3 bne	a5, a4, 0x8000190c
è¯»å–åœ°å€ 0x8000190c
å†™å…¥åœ°å€ 0x8009cc9e
0x8000190c: 00 b7 80 23 sb	a1, 0(a5)
è¯»å–åœ°å€ 0x80001910
0x80001910: 00 17 87 93 addi	a5, a5, 1
è¯»å–åœ°å€ 0x80001914
0x80001914: fe e7 9c e3 bne	a5, a4, 0x8000190c
è¯»å–åœ°å€ 0x8000190c
å†™å…¥åœ°å€ 0x8009cc9f
0x8000190c: 00 b7 80 23 sb	a1, 0(a5)
è¯»å–åœ°å€ 0x80001910
0x80001910: 00 17 87 93 addi	a5, a5, 1
è¯»å–åœ°å€ 0x80001914
0x80001914: fe e7 9c e3 bne	a5, a4, 0x8000190c
è¯»å–åœ°å€ 0x8000190c
å†™å…¥åœ°å€ 0x8009cca0
0x8000190c: 00 b7 80 23 sb	a1, 0(a5)
è¯»å–åœ°å€ 0x80001910
0x80001910: 00 17 87 93 addi	a5, a5, 1
è¯»å–åœ°å€ 0x80001914
0x80001914: fe e7 9c e3 bne	a5, a4, 0x8000190c
è¯»å–åœ°å€ 0x8000190c
å†™å…¥åœ°å€ 0x8009cca1
0x8000190c: 00 b7 80 23 sb	a1, 0(a5)
è¯»å–åœ°å€ 0x80001910
0x80001910: 00 17 87 93 addi	a5, a5, 1
è¯»å–åœ°å€ 0x80001914
0x80001914: fe e7 9c e3 bne	a5, a4, 0x8000190c
è¯»å–åœ°å€ 0x8000190c
å†™å…¥åœ°å€ 0x8009cca2
0x8000190c: 00 b7 80 23 sb	a1, 0(a5)
è¯»å–åœ°å€ 0x80001910
0x80001910: 00 17 87 93 addi	a5, a5, 1
è¯»å–åœ°å€ 0x80001914
0x80001914: fe e7 9c e3 bne	a5, a4, 0x8000190c
è¯»å–åœ°å€ 0x8000190c
å†™å…¥åœ°å€ 0x8009cca3
0x8000190c: 00 b7 80 23 sb	a1, 0(a5)
è¯»å–åœ°å€ 0x80001910
0x80001910: 00 17 87 93 addi	a5, a5, 1
è¯»å–åœ°å€ 0x80001914
0x80001914: fe e7 9c e3 bne	a5, a4, 0x8000190c
è¯»å–åœ°å€ 0x8000190c
å†™å…¥åœ°å€ 0x8009cca4
0x8000190c: 00 b7 80 23 sb	a1, 0(a5)
è¯»å–åœ°å€ 0x80001910
0x80001910: 00 17 87 93 addi	a5, a5, 1
è¯»å–åœ°å€ 0x80001914
0x80001914: fe e7 9c e3 bne	a5, a4, 0x8000190c
è¯»å–åœ°å€ 0x8000190c
å†™å…¥åœ°å€ 0x8009cca5
0x8000190c: 00 b7 80 23 sb	a1, 0(a5)
è¯»å–åœ°å€ 0x80001910
0x80001910: 00 17 87 93 addi	a5, a5, 1
è¯»å–åœ°å€ 0x80001914
0x80001914: fe e7 9c e3 bne	a5, a4, 0x8000190c
è¯»å–åœ°å€ 0x8000190c
å†™å…¥åœ°å€ 0x8009cca6
0x8000190c: 00 b7 80 23 sb	a1, 0(a5)
è¯»å–åœ°å€ 0x80001910
0x80001910: 00 17 87 93 addi	a5, a5, 1
è¯»å–åœ°å€ 0x80001914
0x80001914: fe e7 9c e3 bne	a5, a4, 0x8000190c
è¯»å–åœ°å€ 0x8000190c
å†™å…¥åœ°å€ 0x8009cca7
0x8000190c: 00 b7 80 23 sb	a1, 0(a5)
è¯»å–åœ°å€ 0x80001910
0x80001910: 00 17 87 93 addi	a5, a5, 1
è¯»å–åœ°å€ 0x80001914
0x80001914: fe e7 9c e3 bne	a5, a4, 0x8000190c
è¯»å–åœ°å€ 0x8000190c
å†™å…¥åœ°å€ 0x8009cca8
0x8000190c: 00 b7 80 23 sb	a1, 0(a5)
è¯»å–åœ°å€ 0x80001910
0x80001910: 00 17 87 93 addi	a5, a5, 1
è¯»å–åœ°å€ 0x80001914
0x80001914: fe e7 9c e3 bne	a5, a4, 0x8000190c
è¯»å–åœ°å€ 0x8000190c
å†™å…¥åœ°å€ 0x8009cca9
0x8000190c: 00 b7 80 23 sb	a1, 0(a5)
è¯»å–åœ°å€ 0x80001910
0x80001910: 00 17 87 93 addi	a5, a5, 1
è¯»å–åœ°å€ 0x80001914
0x80001914: fe e7 9c e3 bne	a5, a4, 0x8000190c
è¯»å–åœ°å€ 0x8000190c
å†™å…¥åœ°å€ 0x8009ccaa
0x8000190c: 00 b7 80 23 sb	a1, 0(a5)
è¯»å–åœ°å€ 0x80001910
0x80001910: 00 17 87 93 addi	a5, a5, 1
è¯»å–åœ°å€ 0x80001914
0x80001914: fe e7 9c e3 bne	a5, a4, 0x8000190c
è¯»å–åœ°å€ 0x8000190c
å†™å…¥åœ°å€ 0x8009ccab
0x8000190c: 00 b7 80 23 sb	a1, 0(a5)
è¯»å–åœ°å€ 0x80001910
0x80001910: 00 17 87 93 addi	a5, a5, 1
è¯»å–åœ°å€ 0x80001914
0x80001914: fe e7 9c e3 bne	a5, a4, 0x8000190c
è¯»å–åœ°å€ 0x8000190c
å†™å…¥åœ°å€ 0x8009ccac
0x8000190c: 00 b7 80 23 sb	a1, 0(a5)
è¯»å–åœ°å€ 0x80001910
0x80001910: 00 17 87 93 addi	a5, a5, 1
è¯»å–åœ°å€ 0x80001914
0x80001914: fe e7 9c e3 bne	a5, a4, 0x8000190c
è¯»å–åœ°å€ 0x8000190c
å†™å…¥åœ°å€ 0x8009ccad
0x8000190c: 00 b7 80 23 sb	a1, 0(a5)
è¯»å–åœ°å€ 0x80001910
0x80001910: 00 17 87 93 addi	a5, a5, 1
è¯»å–åœ°å€ 0x80001914
0x80001914: fe e7 9c e3 bne	a5, a4, 0x8000190c
è¯»å–åœ°å€ 0x8000190c
å†™å…¥åœ°å€ 0x8009ccae
0x8000190c: 00 b7 80 23 sb	a1, 0(a5)
è¯»å–åœ°å€ 0x80001910
0x80001910: 00 17 87 93 addi	a5, a5, 1
è¯»å–åœ°å€ 0x80001914
0x80001914: fe e7 9c e3 bne	a5, a4, 0x8000190c
è¯»å–åœ°å€ 0x8000190c
å†™å…¥åœ°å€ 0x8009ccaf
0x8000190c: 00 b7 80 23 sb	a1, 0(a5)
è¯»å–åœ°å€ 0x80001910
0x80001910: 00 17 87 93 addi	a5, a5, 1
è¯»å–åœ°å€ 0x80001914
0x80001914: fe e7 9c e3 bne	a5, a4, 0x8000190c
è¯»å–åœ°å€ 0x8000190c
å†™å…¥åœ°å€ 0x8009ccb0
0x8000190c: 00 b7 80 23 sb	a1, 0(a5)
è¯»å–åœ°å€ 0x80001910
0x80001910: 00 17 87 93 addi	a5, a5, 1
è¯»å–åœ°å€ 0x80001914
0x80001914: fe e7 9c e3 bne	a5, a4, 0x8000190c
è¯»å–åœ°å€ 0x8000190c
å†™å…¥åœ°å€ 0x8009ccb1
0x8000190c: 00 b7 80 23 sb	a1, 0(a5)
è¯»å–åœ°å€ 0x80001910
0x80001910: 00 17 87 93 addi	a5, a5, 1
è¯»å–åœ°å€ 0x80001914
0x80001914: fe e7 9c e3 bne	a5, a4, 0x8000190c
è¯»å–åœ°å€ 0x8000190c
å†™å…¥åœ°å€ 0x8009ccb2
0x8000190c: 00 b7 80 23 sb	a1, 0(a5)
è¯»å–åœ°å€ 0x80001910
0x80001910: 00 17 87 93 addi	a5, a5, 1
è¯»å–åœ°å€ 0x80001914
0x80001914: fe e7 9c e3 bne	a5, a4, 0x8000190c
è¯»å–åœ°å€ 0x8000190c
å†™å…¥åœ°å€ 0x8009ccb3
0x8000190c: 00 b7 80 23 sb	a1, 0(a5)
è¯»å–åœ°å€ 0x80001910
0x80001910: 00 17 87 93 addi	a5, a5, 1
è¯»å–åœ°å€ 0x80001914
0x80001914: fe e7 9c e3 bne	a5, a4, 0x8000190c
è¯»å–åœ°å€ 0x8000190c
å†™å…¥åœ°å€ 0x8009ccb4
0x8000190c: 00 b7 80 23 sb	a1, 0(a5)
è¯»å–åœ°å€ 0x80001910
0x80001910: 00 17 87 93 addi	a5, a5, 1
è¯»å–åœ°å€ 0x80001914
0x80001914: fe e7 9c e3 bne	a5, a4, 0x8000190c
è¯»å–åœ°å€ 0x8000190c
å†™å…¥åœ°å€ 0x8009ccb5
0x8000190c: 00 b7 80 23 sb	a1, 0(a5)
è¯»å–åœ°å€ 0x80001910
0x80001910: 00 17 87 93 addi	a5, a5, 1
è¯»å–åœ°å€ 0x80001914
0x80001914: fe e7 9c e3 bne	a5, a4, 0x8000190c
è¯»å–åœ°å€ 0x8000190c
å†™å…¥åœ°å€ 0x8009ccb6
0x8000190c: 00 b7 80 23 sb	a1, 0(a5)
è¯»å–åœ°å€ 0x80001910
0x80001910: 00 17 87 93 addi	a5, a5, 1
è¯»å–åœ°å€ 0x80001914
0x80001914: fe e7 9c e3 bne	a5, a4, 0x8000190c
è¯»å–åœ°å€ 0x8000190c
å†™å…¥åœ°å€ 0x8009ccb7
0x8000190c: 00 b7 80 23 sb	a1, 0(a5)
è¯»å–åœ°å€ 0x80001910
0x80001910: 00 17 87 93 addi	a5, a5, 1
è¯»å–åœ°å€ 0x80001914
0x80001914: fe e7 9c e3 bne	a5, a4, 0x8000190c
è¯»å–åœ°å€ 0x8000190c
å†™å…¥åœ°å€ 0x8009ccb8
0x8000190c: 00 b7 80 23 sb	a1, 0(a5)
è¯»å–åœ°å€ 0x80001910
0x80001910: 00 17 87 93 addi	a5, a5, 1
è¯»å–åœ°å€ 0x80001914
0x80001914: fe e7 9c e3 bne	a5, a4, 0x8000190c
è¯»å–åœ°å€ 0x8000190c
å†™å…¥åœ°å€ 0x8009ccb9
0x8000190c: 00 b7 80 23 sb	a1, 0(a5)
è¯»å–åœ°å€ 0x80001910
0x80001910: 00 17 87 93 addi	a5, a5, 1
è¯»å–åœ°å€ 0x80001914
0x80001914: fe e7 9c e3 bne	a5, a4, 0x8000190c
è¯»å–åœ°å€ 0x8000190c
å†™å…¥åœ°å€ 0x8009ccba
0x8000190c: 00 b7 80 23 sb	a1, 0(a5)
è¯»å–åœ°å€ 0x80001910
0x80001910: 00 17 87 93 addi	a5, a5, 1
è¯»å–åœ°å€ 0x80001914
0x80001914: fe e7 9c e3 bne	a5, a4, 0x8000190c
è¯»å–åœ°å€ 0x8000190c
å†™å…¥åœ°å€ 0x8009ccbb
0x8000190c: 00 b7 80 23 sb	a1, 0(a5)
è¯»å–åœ°å€ 0x80001910
0x80001910: 00 17 87 93 addi	a5, a5, 1
è¯»å–åœ°å€ 0x80001914
0x80001914: fe e7 9c e3 bne	a5, a4, 0x8000190c
è¯»å–åœ°å€ 0x8000190c
å†™å…¥åœ°å€ 0x8009ccbc
0x8000190c: 00 b7 80 23 sb	a1, 0(a5)
è¯»å–åœ°å€ 0x80001910
0x80001910: 00 17 87 93 addi	a5, a5, 1
è¯»å–åœ°å€ 0x80001914
0x80001914: fe e7 9c e3 bne	a5, a4, 0x8000190c
è¯»å–åœ°å€ 0x8000190c
å†™å…¥åœ°å€ 0x8009ccbd
0x8000190c: 00 b7 80 23 sb	a1, 0(a5)
è¯»å–åœ°å€ 0x80001910
0x80001910: 00 17 87 93 addi	a5, a5, 1
è¯»å–åœ°å€ 0x80001914
0x80001914: fe e7 9c e3 bne	a5, a4, 0x8000190c
è¯»å–åœ°å€ 0x8000190c
å†™å…¥åœ°å€ 0x8009ccbe
0x8000190c: 00 b7 80 23 sb	a1, 0(a5)
è¯»å–åœ°å€ 0x80001910
0x80001910: 00 17 87 93 addi	a5, a5, 1
è¯»å–åœ°å€ 0x80001914
0x80001914: fe e7 9c e3 bne	a5, a4, 0x8000190c
è¯»å–åœ°å€ 0x8000190c
å†™å…¥åœ°å€ 0x8009ccbf
0x8000190c: 00 b7 80 23 sb	a1, 0(a5)
è¯»å–åœ°å€ 0x80001910
0x80001910: 00 17 87 93 addi	a5, a5, 1
è¯»å–åœ°å€ 0x80001914
0x80001914: fe e7 9c e3 bne	a5, a4, 0x8000190c
è¯»å–åœ°å€ 0x8000190c
å†™å…¥åœ°å€ 0x8009ccc0
0x8000190c: 00 b7 80 23 sb	a1, 0(a5)
è¯»å–åœ°å€ 0x80001910
0x80001910: 00 17 87 93 addi	a5, a5, 1
è¯»å–åœ°å€ 0x80001914
0x80001914: fe e7 9c e3 bne	a5, a4, 0x8000190c
è¯»å–åœ°å€ 0x8000190c
å†™å…¥åœ°å€ 0x8009ccc1
0x8000190c: 00 b7 80 23 sb	a1, 0(a5)
è¯»å–åœ°å€ 0x80001910
0x80001910: 00 17 87 93 addi	a5, a5, 1
è¯»å–åœ°å€ 0x80001914
0x80001914: fe e7 9c e3 bne	a5, a4, 0x8000190c
è¯»å–åœ°å€ 0x8000190c
å†™å…¥åœ°å€ 0x8009ccc2
0x8000190c: 00 b7 80 23 sb	a1, 0(a5)
è¯»å–åœ°å€ 0x80001910
0x80001910: 00 17 87 93 addi	a5, a5, 1
è¯»å–åœ°å€ 0x80001914
0x80001914: fe e7 9c e3 bne	a5, a4, 0x8000190c
è¯»å–åœ°å€ 0x8000190c
å†™å…¥åœ°å€ 0x8009ccc3
0x8000190c: 00 b7 80 23 sb	a1, 0(a5)
è¯»å–åœ°å€ 0x80001910
0x80001910: 00 17 87 93 addi	a5, a5, 1
è¯»å–åœ°å€ 0x80001914
0x80001914: fe e7 9c e3 bne	a5, a4, 0x8000190c
è¯»å–åœ°å€ 0x8000190c
å†™å…¥åœ°å€ 0x8009ccc4
0x8000190c: 00 b7 80 23 sb	a1, 0(a5)
è¯»å–åœ°å€ 0x80001910
0x80001910: 00 17 87 93 addi	a5, a5, 1
è¯»å–åœ°å€ 0x80001914
0x80001914: fe e7 9c e3 bne	a5, a4, 0x8000190c
è¯»å–åœ°å€ 0x8000190c
å†™å…¥åœ°å€ 0x8009ccc5
0x8000190c: 00 b7 80 23 sb	a1, 0(a5)
è¯»å–åœ°å€ 0x80001910
0x80001910: 00 17 87 93 addi	a5, a5, 1
è¯»å–åœ°å€ 0x80001914
0x80001914: fe e7 9c e3 bne	a5, a4, 0x8000190c
è¯»å–åœ°å€ 0x8000190c
å†™å…¥åœ°å€ 0x8009ccc6
0x8000190c: 00 b7 80 23 sb	a1, 0(a5)
è¯»å–åœ°å€ 0x80001910
0x80001910: 00 17 87 93 addi	a5, a5, 1
è¯»å–åœ°å€ 0x80001914
0x80001914: fe e7 9c e3 bne	a5, a4, 0x8000190c
è¯»å–åœ°å€ 0x8000190c
å†™å…¥åœ°å€ 0x8009ccc7
0x8000190c: 00 b7 80 23 sb	a1, 0(a5)
è¯»å–åœ°å€ 0x80001910
0x80001910: 00 17 87 93 addi	a5, a5, 1
è¯»å–åœ°å€ 0x80001914
0x80001914: fe e7 9c e3 bne	a5, a4, 0x8000190c
è¯»å–åœ°å€ 0x8000190c
å†™å…¥åœ°å€ 0x8009ccc8
0x8000190c: 00 b7 80 23 sb	a1, 0(a5)
è¯»å–åœ°å€ 0x80001910
0x80001910: 00 17 87 93 addi	a5, a5, 1
è¯»å–åœ°å€ 0x80001914
0x80001914: fe e7 9c e3 bne	a5, a4, 0x8000190c
è¯»å–åœ°å€ 0x8000190c
å†™å…¥åœ°å€ 0x8009ccc9
0x8000190c: 00 b7 80 23 sb	a1, 0(a5)
è¯»å–åœ°å€ 0x80001910
0x80001910: 00 17 87 93 addi	a5, a5, 1
è¯»å–åœ°å€ 0x80001914
0x80001914: fe e7 9c e3 bne	a5, a4, 0x8000190c
è¯»å–åœ°å€ 0x8000190c
å†™å…¥åœ°å€ 0x8009ccca
0x8000190c: 00 b7 80 23 sb	a1, 0(a5)
è¯»å–åœ°å€ 0x80001910
0x80001910: 00 17 87 93 addi	a5, a5, 1
è¯»å–åœ°å€ 0x80001914
0x80001914: fe e7 9c e3 bne	a5, a4, 0x8000190c
è¯»å–åœ°å€ 0x8000190c
å†™å…¥åœ°å€ 0x8009cccb
0x8000190c: 00 b7 80 23 sb	a1, 0(a5)
è¯»å–åœ°å€ 0x80001910
0x80001910: 00 17 87 93 addi	a5, a5, 1
è¯»å–åœ°å€ 0x80001914
0x80001914: fe e7 9c e3 bne	a5, a4, 0x8000190c
è¯»å–åœ°å€ 0x8000190c
å†™å…¥åœ°å€ 0x8009cccc
0x8000190c: 00 b7 80 23 sb	a1, 0(a5)
è¯»å–åœ°å€ 0x80001910
0x80001910: 00 17 87 93 addi	a5, a5, 1
è¯»å–åœ°å€ 0x80001914
0x80001914: fe e7 9c e3 bne	a5, a4, 0x8000190c
è¯»å–åœ°å€ 0x8000190c
å†™å…¥åœ°å€ 0x8009cccd
0x8000190c: 00 b7 80 23 sb	a1, 0(a5)
è¯»å–åœ°å€ 0x80001910
0x80001910: 00 17 87 93 addi	a5, a5, 1
è¯»å–åœ°å€ 0x80001914
0x80001914: fe e7 9c e3 bne	a5, a4, 0x8000190c
è¯»å–åœ°å€ 0x8000190c
å†™å…¥åœ°å€ 0x8009ccce
0x8000190c: 00 b7 80 23 sb	a1, 0(a5)
è¯»å–åœ°å€ 0x80001910
0x80001910: 00 17 87 93 addi	a5, a5, 1
è¯»å–åœ°å€ 0x80001914
0x80001914: fe e7 9c e3 bne	a5, a4, 0x8000190c
è¯»å–åœ°å€ 0x8000190c
å†™å…¥åœ°å€ 0x8009cccf
0x8000190c: 00 b7 80 23 sb	a1, 0(a5)
è¯»å–åœ°å€ 0x80001910
0x80001910: 00 17 87 93 addi	a5, a5, 1
è¯»å–åœ°å€ 0x80001914
0x80001914: fe e7 9c e3 bne	a5, a4, 0x8000190c
è¯»å–åœ°å€ 0x8000190c
å†™å…¥åœ°å€ 0x8009ccd0
0x8000190c: 00 b7 80 23 sb	a1, 0(a5)
è¯»å–åœ°å€ 0x80001910
0x80001910: 00 17 87 93 addi	a5, a5, 1
è¯»å–åœ°å€ 0x80001914
0x80001914: fe e7 9c e3 bne	a5, a4, 0x8000190c
è¯»å–åœ°å€ 0x8000190c
å†™å…¥åœ°å€ 0x8009ccd1
0x8000190c: 00 b7 80 23 sb	a1, 0(a5)
è¯»å–åœ°å€ 0x80001910
0x80001910: 00 17 87 93 addi	a5, a5, 1
è¯»å–åœ°å€ 0x80001914
0x80001914: fe e7 9c e3 bne	a5, a4, 0x8000190c
è¯»å–åœ°å€ 0x8000190c
å†™å…¥åœ°å€ 0x8009ccd2
0x8000190c: 00 b7 80 23 sb	a1, 0(a5)
è¯»å–åœ°å€ 0x80001910
0x80001910: 00 17 87 93 addi	a5, a5, 1
è¯»å–åœ°å€ 0x80001914
0x80001914: fe e7 9c e3 bne	a5, a4, 0x8000190c
è¯»å–åœ°å€ 0x8000190c
å†™å…¥åœ°å€ 0x8009ccd3
0x8000190c: 00 b7 80 23 sb	a1, 0(a5)
è¯»å–åœ°å€ 0x80001910
0x80001910: 00 17 87 93 addi	a5, a5, 1
è¯»å–åœ°å€ 0x80001914
0x80001914: fe e7 9c e3 bne	a5, a4, 0x8000190c
è¯»å–åœ°å€ 0x8000190c
å†™å…¥åœ°å€ 0x8009ccd4
0x8000190c: 00 b7 80 23 sb	a1, 0(a5)
è¯»å–åœ°å€ 0x80001910
0x80001910: 00 17 87 93 addi	a5, a5, 1
è¯»å–åœ°å€ 0x80001914
0x80001914: fe e7 9c e3 bne	a5, a4, 0x8000190c
è¯»å–åœ°å€ 0x8000190c
å†™å…¥åœ°å€ 0x8009ccd5
0x8000190c: 00 b7 80 23 sb	a1, 0(a5)
è¯»å–åœ°å€ 0x80001910
0x80001910: 00 17 87 93 addi	a5, a5, 1
è¯»å–åœ°å€ 0x80001914
0x80001914: fe e7 9c e3 bne	a5, a4, 0x8000190c
è¯»å–åœ°å€ 0x8000190c
å†™å…¥åœ°å€ 0x8009ccd6
0x8000190c: 00 b7 80 23 sb	a1, 0(a5)
è¯»å–åœ°å€ 0x80001910
0x80001910: 00 17 87 93 addi	a5, a5, 1
è¯»å–åœ°å€ 0x80001914
0x80001914: fe e7 9c e3 bne	a5, a4, 0x8000190c
è¯»å–åœ°å€ 0x8000190c
å†™å…¥åœ°å€ 0x8009ccd7
0x8000190c: 00 b7 80 23 sb	a1, 0(a5)
è¯»å–åœ°å€ 0x80001910
0x80001910: 00 17 87 93 addi	a5, a5, 1
è¯»å–åœ°å€ 0x80001914
0x80001914: fe e7 9c e3 bne	a5, a4, 0x8000190c
è¯»å–åœ°å€ 0x8000190c
å†™å…¥åœ°å€ 0x8009ccd8
0x8000190c: 00 b7 80 23 sb	a1, 0(a5)
è¯»å–åœ°å€ 0x80001910
0x80001910: 00 17 87 93 addi	a5, a5, 1
è¯»å–åœ°å€ 0x80001914
0x80001914: fe e7 9c e3 bne	a5, a4, 0x8000190c
è¯»å–åœ°å€ 0x8000190c
å†™å…¥åœ°å€ 0x8009ccd9
0x8000190c: 00 b7 80 23 sb	a1, 0(a5)
è¯»å–åœ°å€ 0x80001910
0x80001910: 00 17 87 93 addi	a5, a5, 1
è¯»å–åœ°å€ 0x80001914
0x80001914: fe e7 9c e3 bne	a5, a4, 0x8000190c
è¯»å–åœ°å€ 0x8000190c
å†™å…¥åœ°å€ 0x8009ccda
0x8000190c: 00 b7 80 23 sb	a1, 0(a5)
è¯»å–åœ°å€ 0x80001910
0x80001910: 00 17 87 93 addi	a5, a5, 1
è¯»å–åœ°å€ 0x80001914
0x80001914: fe e7 9c e3 bne	a5, a4, 0x8000190c
è¯»å–åœ°å€ 0x8000190c
å†™å…¥åœ°å€ 0x8009ccdb
0x8000190c: 00 b7 80 23 sb	a1, 0(a5)
è¯»å–åœ°å€ 0x80001910
0x80001910: 00 17 87 93 addi	a5, a5, 1
è¯»å–åœ°å€ 0x80001914
0x80001914: fe e7 9c e3 bne	a5, a4, 0x8000190c
è¯»å–åœ°å€ 0x8000190c
å†™å…¥åœ°å€ 0x8009ccdc
0x8000190c: 00 b7 80 23 sb	a1, 0(a5)
è¯»å–åœ°å€ 0x80001910
0x80001910: 00 17 87 93 addi	a5, a5, 1
è¯»å–åœ°å€ 0x80001914
0x80001914: fe e7 9c e3 bne	a5, a4, 0x8000190c
è¯»å–åœ°å€ 0x8000190c
å†™å…¥åœ°å€ 0x8009ccdd
0x8000190c: 00 b7 80 23 sb	a1, 0(a5)
è¯»å–åœ°å€ 0x80001910
0x80001910: 00 17 87 93 addi	a5, a5, 1
è¯»å–åœ°å€ 0x80001914
0x80001914: fe e7 9c e3 bne	a5, a4, 0x8000190c
è¯»å–åœ°å€ 0x8000190c
å†™å…¥åœ°å€ 0x8009ccde
0x8000190c: 00 b7 80 23 sb	a1, 0(a5)
è¯»å–åœ°å€ 0x80001910
0x80001910: 00 17 87 93 addi	a5, a5, 1
è¯»å–åœ°å€ 0x80001914
0x80001914: fe e7 9c e3 bne	a5, a4, 0x8000190c
è¯»å–åœ°å€ 0x8000190c
å†™å…¥åœ°å€ 0x8009ccdf
0x8000190c: 00 b7 80 23 sb	a1, 0(a5)
è¯»å–åœ°å€ 0x80001910
0x80001910: 00 17 87 93 addi	a5, a5, 1
è¯»å–åœ°å€ 0x80001914
0x80001914: fe e7 9c e3 bne	a5, a4, 0x8000190c
è¯»å–åœ°å€ 0x8000190c
å†™å…¥åœ°å€ 0x8009cce0
0x8000190c: 00 b7 80 23 sb	a1, 0(a5)
è¯»å–åœ°å€ 0x80001910
0x80001910: 00 17 87 93 addi	a5, a5, 1
è¯»å–åœ°å€ 0x80001914
0x80001914: fe e7 9c e3 bne	a5, a4, 0x8000190c
è¯»å–åœ°å€ 0x8000190c
å†™å…¥åœ°å€ 0x8009cce1
0x8000190c: 00 b7 80 23 sb	a1, 0(a5)
è¯»å–åœ°å€ 0x80001910
0x80001910: 00 17 87 93 addi	a5, a5, 1
è¯»å–åœ°å€ 0x80001914
0x80001914: fe e7 9c e3 bne	a5, a4, 0x8000190c
è¯»å–åœ°å€ 0x8000190c
å†™å…¥åœ°å€ 0x8009cce2
0x8000190c: 00 b7 80 23 sb	a1, 0(a5)
è¯»å–åœ°å€ 0x80001910
0x80001910: 00 17 87 93 addi	a5, a5, 1
è¯»å–åœ°å€ 0x80001914
0x80001914: fe e7 9c e3 bne	a5, a4, 0x8000190c
è¯»å–åœ°å€ 0x8000190c
å†™å…¥åœ°å€ 0x8009cce3
0x8000190c: 00 b7 80 23 sb	a1, 0(a5)
è¯»å–åœ°å€ 0x80001910
0x80001910: 00 17 87 93 addi	a5, a5, 1
è¯»å–åœ°å€ 0x80001914
0x80001914: fe e7 9c e3 bne	a5, a4, 0x8000190c
è¯»å–åœ°å€ 0x8000190c
å†™å…¥åœ°å€ 0x8009cce4
0x8000190c: 00 b7 80 23 sb	a1, 0(a5)
è¯»å–åœ°å€ 0x80001910
0x80001910: 00 17 87 93 addi	a5, a5, 1
è¯»å–åœ°å€ 0x80001914
0x80001914: fe e7 9c e3 bne	a5, a4, 0x8000190c
è¯»å–åœ°å€ 0x8000190c
å†™å…¥åœ°å€ 0x8009cce5
0x8000190c: 00 b7 80 23 sb	a1, 0(a5)
è¯»å–åœ°å€ 0x80001910
0x80001910: 00 17 87 93 addi	a5, a5, 1
è¯»å–åœ°å€ 0x80001914
0x80001914: fe e7 9c e3 bne	a5, a4, 0x8000190c
è¯»å–åœ°å€ 0x8000190c
å†™å…¥åœ°å€ 0x8009cce6
0x8000190c: 00 b7 80 23 sb	a1, 0(a5)
è¯»å–åœ°å€ 0x80001910
0x80001910: 00 17 87 93 addi	a5, a5, 1
è¯»å–åœ°å€ 0x80001914
0x80001914: fe e7 9c e3 bne	a5, a4, 0x8000190c
è¯»å–åœ°å€ 0x8000190c
å†™å…¥åœ°å€ 0x8009cce7
0x8000190c: 00 b7 80 23 sb	a1, 0(a5)
è¯»å–åœ°å€ 0x80001910
0x80001910: 00 17 87 93 addi	a5, a5, 1
è¯»å–åœ°å€ 0x80001914
0x80001914: fe e7 9c e3 bne	a5, a4, 0x8000190c
è¯»å–åœ°å€ 0x8000190c
å†™å…¥åœ°å€ 0x8009cce8
0x8000190c: 00 b7 80 23 sb	a1, 0(a5)
è¯»å–åœ°å€ 0x80001910
0x80001910: 00 17 87 93 addi	a5, a5, 1
è¯»å–åœ°å€ 0x80001914
0x80001914: fe e7 9c e3 bne	a5, a4, 0x8000190c
è¯»å–åœ°å€ 0x8000190c
å†™å…¥åœ°å€ 0x8009cce9
0x8000190c: 00 b7 80 23 sb	a1, 0(a5)
è¯»å–åœ°å€ 0x80001910
0x80001910: 00 17 87 93 addi	a5, a5, 1
è¯»å–åœ°å€ 0x80001914
0x80001914: fe e7 9c e3 bne	a5, a4, 0x8000190c
è¯»å–åœ°å€ 0x8000190c
å†™å…¥åœ°å€ 0x8009ccea
0x8000190c: 00 b7 80 23 sb	a1, 0(a5)
è¯»å–åœ°å€ 0x80001910
0x80001910: 00 17 87 93 addi	a5, a5, 1
è¯»å–åœ°å€ 0x80001914
0x80001914: fe e7 9c e3 bne	a5, a4, 0x8000190c
è¯»å–åœ°å€ 0x8000190c
å†™å…¥åœ°å€ 0x8009cceb
0x8000190c: 00 b7 80 23 sb	a1, 0(a5)
è¯»å–åœ°å€ 0x80001910
0x80001910: 00 17 87 93 addi	a5, a5, 1
è¯»å–åœ°å€ 0x80001914
0x80001914: fe e7 9c e3 bne	a5, a4, 0x8000190c
è¯»å–åœ°å€ 0x8000190c
å†™å…¥åœ°å€ 0x8009ccec
0x8000190c: 00 b7 80 23 sb	a1, 0(a5)
è¯»å–åœ°å€ 0x80001910
0x80001910: 00 17 87 93 addi	a5, a5, 1
è¯»å–åœ°å€ 0x80001914
0x80001914: fe e7 9c e3 bne	a5, a4, 0x8000190c
è¯»å–åœ°å€ 0x8000190c
å†™å…¥åœ°å€ 0x8009cced
0x8000190c: 00 b7 80 23 sb	a1, 0(a5)
è¯»å–åœ°å€ 0x80001910
0x80001910: 00 17 87 93 addi	a5, a5, 1
è¯»å–åœ°å€ 0x80001914
0x80001914: fe e7 9c e3 bne	a5, a4, 0x8000190c
è¯»å–åœ°å€ 0x8000190c
å†™å…¥åœ°å€ 0x8009ccee
0x8000190c: 00 b7 80 23 sb	a1, 0(a5)
è¯»å–åœ°å€ 0x80001910
0x80001910: 00 17 87 93 addi	a5, a5, 1
è¯»å–åœ°å€ 0x80001914
0x80001914: fe e7 9c e3 bne	a5, a4, 0x8000190c
è¯»å–åœ°å€ 0x8000190c
å†™å…¥åœ°å€ 0x8009ccef
0x8000190c: 00 b7 80 23 sb	a1, 0(a5)
è¯»å–åœ°å€ 0x80001910
0x80001910: 00 17 87 93 addi	a5, a5, 1
è¯»å–åœ°å€ 0x80001914
0x80001914: fe e7 9c e3 bne	a5, a4, 0x8000190c
è¯»å–åœ°å€ 0x8000190c
å†™å…¥åœ°å€ 0x8009ccf0
0x8000190c: 00 b7 80 23 sb	a1, 0(a5)
è¯»å–åœ°å€ 0x80001910
0x80001910: 00 17 87 93 addi	a5, a5, 1
è¯»å–åœ°å€ 0x80001914
0x80001914: fe e7 9c e3 bne	a5, a4, 0x8000190c
è¯»å–åœ°å€ 0x8000190c
å†™å…¥åœ°å€ 0x8009ccf1
0x8000190c: 00 b7 80 23 sb	a1, 0(a5)
è¯»å–åœ°å€ 0x80001910
0x80001910: 00 17 87 93 addi	a5, a5, 1
è¯»å–åœ°å€ 0x80001914
0x80001914: fe e7 9c e3 bne	a5, a4, 0x8000190c
è¯»å–åœ°å€ 0x8000190c
å†™å…¥åœ°å€ 0x8009ccf2
0x8000190c: 00 b7 80 23 sb	a1, 0(a5)
è¯»å–åœ°å€ 0x80001910
0x80001910: 00 17 87 93 addi	a5, a5, 1
è¯»å–åœ°å€ 0x80001914
0x80001914: fe e7 9c e3 bne	a5, a4, 0x8000190c
è¯»å–åœ°å€ 0x8000190c
å†™å…¥åœ°å€ 0x8009ccf3
0x8000190c: 00 b7 80 23 sb	a1, 0(a5)
è¯»å–åœ°å€ 0x80001910
0x80001910: 00 17 87 93 addi	a5, a5, 1
è¯»å–åœ°å€ 0x80001914
0x80001914: fe e7 9c e3 bne	a5, a4, 0x8000190c
è¯»å–åœ°å€ 0x8000190c
å†™å…¥åœ°å€ 0x8009ccf4
0x8000190c: 00 b7 80 23 sb	a1, 0(a5)
è¯»å–åœ°å€ 0x80001910
0x80001910: 00 17 87 93 addi	a5, a5, 1
è¯»å–åœ°å€ 0x80001914
0x80001914: fe e7 9c e3 bne	a5, a4, 0x8000190c
è¯»å–åœ°å€ 0x8000190c
å†™å…¥åœ°å€ 0x8009ccf5
0x8000190c: 00 b7 80 23 sb	a1, 0(a5)
è¯»å–åœ°å€ 0x80001910
0x80001910: 00 17 87 93 addi	a5, a5, 1
è¯»å–åœ°å€ 0x80001914
0x80001914: fe e7 9c e3 bne	a5, a4, 0x8000190c
è¯»å–åœ°å€ 0x8000190c
å†™å…¥åœ°å€ 0x8009ccf6
0x8000190c: 00 b7 80 23 sb	a1, 0(a5)
è¯»å–åœ°å€ 0x80001910
0x80001910: 00 17 87 93 addi	a5, a5, 1
è¯»å–åœ°å€ 0x80001914
0x80001914: fe e7 9c e3 bne	a5, a4, 0x8000190c
è¯»å–åœ°å€ 0x8000190c
å†™å…¥åœ°å€ 0x8009ccf7
0x8000190c: 00 b7 80 23 sb	a1, 0(a5)
è¯»å–åœ°å€ 0x80001910
0x80001910: 00 17 87 93 addi	a5, a5, 1
è¯»å–åœ°å€ 0x80001914
0x80001914: fe e7 9c e3 bne	a5, a4, 0x8000190c
è¯»å–åœ°å€ 0x8000190c
å†™å…¥åœ°å€ 0x8009ccf8
0x8000190c: 00 b7 80 23 sb	a1, 0(a5)
è¯»å–åœ°å€ 0x80001910
0x80001910: 00 17 87 93 addi	a5, a5, 1
è¯»å–åœ°å€ 0x80001914
0x80001914: fe e7 9c e3 bne	a5, a4, 0x8000190c
è¯»å–åœ°å€ 0x8000190c
å†™å…¥åœ°å€ 0x8009ccf9
0x8000190c: 00 b7 80 23 sb	a1, 0(a5)
è¯»å–åœ°å€ 0x80001910
0x80001910: 00 17 87 93 addi	a5, a5, 1
è¯»å–åœ°å€ 0x80001914
0x80001914: fe e7 9c e3 bne	a5, a4, 0x8000190c
è¯»å–åœ°å€ 0x8000190c
å†™å…¥åœ°å€ 0x8009ccfa
0x8000190c: 00 b7 80 23 sb	a1, 0(a5)
è¯»å–åœ°å€ 0x80001910
0x80001910: 00 17 87 93 addi	a5, a5, 1
è¯»å–åœ°å€ 0x80001914
0x80001914: fe e7 9c e3 bne	a5, a4, 0x8000190c
è¯»å–åœ°å€ 0x8000190c
å†™å…¥åœ°å€ 0x8009ccfb
0x8000190c: 00 b7 80 23 sb	a1, 0(a5)
è¯»å–åœ°å€ 0x80001910
0x80001910: 00 17 87 93 addi	a5, a5, 1
è¯»å–åœ°å€ 0x80001914
0x80001914: fe e7 9c e3 bne	a5, a4, 0x8000190c
è¯»å–åœ°å€ 0x8000190c
å†™å…¥åœ°å€ 0x8009ccfc
0x8000190c: 00 b7 80 23 sb	a1, 0(a5)
è¯»å–åœ°å€ 0x80001910
0x80001910: 00 17 87 93 addi	a5, a5, 1
è¯»å–åœ°å€ 0x80001914
0x80001914: fe e7 9c e3 bne	a5, a4, 0x8000190c
è¯»å–åœ°å€ 0x8000190c
å†™å…¥åœ°å€ 0x8009ccfd
0x8000190c: 00 b7 80 23 sb	a1, 0(a5)
è¯»å–åœ°å€ 0x80001910
0x80001910: 00 17 87 93 addi	a5, a5, 1
è¯»å–åœ°å€ 0x80001914
0x80001914: fe e7 9c e3 bne	a5, a4, 0x8000190c
è¯»å–åœ°å€ 0x8000190c
å†™å…¥åœ°å€ 0x8009ccfe
0x8000190c: 00 b7 80 23 sb	a1, 0(a5)
è¯»å–åœ°å€ 0x80001910
0x80001910: 00 17 87 93 addi	a5, a5, 1
è¯»å–åœ°å€ 0x80001914
0x80001914: fe e7 9c e3 bne	a5, a4, 0x8000190c
è¯»å–åœ°å€ 0x8000190c
å†™å…¥åœ°å€ 0x8009ccff
0x8000190c: 00 b7 80 23 sb	a1, 0(a5)
è¯»å–åœ°å€ 0x80001910
0x80001910: 00 17 87 93 addi	a5, a5, 1
è¯»å–åœ°å€ 0x80001914
0x80001914: fe e7 9c e3 bne	a5, a4, 0x8000190c
è¯»å–åœ°å€ 0x8000190c
å†™å…¥åœ°å€ 0x8009cd00
0x8000190c: 00 b7 80 23 sb	a1, 0(a5)
è¯»å–åœ°å€ 0x80001910
0x80001910: 00 17 87 93 addi	a5, a5, 1
è¯»å–åœ°å€ 0x80001914
0x80001914: fe e7 9c e3 bne	a5, a4, 0x8000190c
è¯»å–åœ°å€ 0x8000190c
å†™å…¥åœ°å€ 0x8009cd01
0x8000190c: 00 b7 80 23 sb	a1, 0(a5)
è¯»å–åœ°å€ 0x80001910
0x80001910: 00 17 87 93 addi	a5, a5, 1
è¯»å–åœ°å€ 0x80001914
0x80001914: fe e7 9c e3 bne	a5, a4, 0x8000190c
è¯»å–åœ°å€ 0x8000190c
å†™å…¥åœ°å€ 0x8009cd02
0x8000190c: 00 b7 80 23 sb	a1, 0(a5)
è¯»å–åœ°å€ 0x80001910
0x80001910: 00 17 87 93 addi	a5, a5, 1
è¯»å–åœ°å€ 0x80001914
0x80001914: fe e7 9c e3 bne	a5, a4, 0x8000190c
è¯»å–åœ°å€ 0x8000190c
å†™å…¥åœ°å€ 0x8009cd03
0x8000190c: 00 b7 80 23 sb	a1, 0(a5)
è¯»å–åœ°å€ 0x80001910
0x80001910: 00 17 87 93 addi	a5, a5, 1
è¯»å–åœ°å€ 0x80001914
0x80001914: fe e7 9c e3 bne	a5, a4, 0x8000190c
è¯»å–åœ°å€ 0x8000190c
å†™å…¥åœ°å€ 0x8009cd04
0x8000190c: 00 b7 80 23 sb	a1, 0(a5)
è¯»å–åœ°å€ 0x80001910
0x80001910: 00 17 87 93 addi	a5, a5, 1
è¯»å–åœ°å€ 0x80001914
0x80001914: fe e7 9c e3 bne	a5, a4, 0x8000190c
è¯»å–åœ°å€ 0x8000190c
å†™å…¥åœ°å€ 0x8009cd05
0x8000190c: 00 b7 80 23 sb	a1, 0(a5)
è¯»å–åœ°å€ 0x80001910
0x80001910: 00 17 87 93 addi	a5, a5, 1
è¯»å–åœ°å€ 0x80001914
0x80001914: fe e7 9c e3 bne	a5, a4, 0x8000190c
è¯»å–åœ°å€ 0x8000190c
å†™å…¥åœ°å€ 0x8009cd06
0x8000190c: 00 b7 80 23 sb	a1, 0(a5)
è¯»å–åœ°å€ 0x80001910
0x80001910: 00 17 87 93 addi	a5, a5, 1
è¯»å–åœ°å€ 0x80001914
0x80001914: fe e7 9c e3 bne	a5, a4, 0x8000190c
è¯»å–åœ°å€ 0x8000190c
å†™å…¥åœ°å€ 0x8009cd07
0x8000190c: 00 b7 80 23 sb	a1, 0(a5)
è¯»å–åœ°å€ 0x80001910
0x80001910: 00 17 87 93 addi	a5, a5, 1
è¯»å–åœ°å€ 0x80001914
0x80001914: fe e7 9c e3 bne	a5, a4, 0x8000190c
è¯»å–åœ°å€ 0x8000190c
å†™å…¥åœ°å€ 0x8009cd08
0x8000190c: 00 b7 80 23 sb	a1, 0(a5)
è¯»å–åœ°å€ 0x80001910
0x80001910: 00 17 87 93 addi	a5, a5, 1
è¯»å–åœ°å€ 0x80001914
0x80001914: fe e7 9c e3 bne	a5, a4, 0x8000190c
è¯»å–åœ°å€ 0x8000190c
å†™å…¥åœ°å€ 0x8009cd09
0x8000190c: 00 b7 80 23 sb	a1, 0(a5)
è¯»å–åœ°å€ 0x80001910
0x80001910: 00 17 87 93 addi	a5, a5, 1
è¯»å–åœ°å€ 0x80001914
0x80001914: fe e7 9c e3 bne	a5, a4, 0x8000190c
è¯»å–åœ°å€ 0x8000190c
å†™å…¥åœ°å€ 0x8009cd0a
0x8000190c: 00 b7 80 23 sb	a1, 0(a5)
è¯»å–åœ°å€ 0x80001910
0x80001910: 00 17 87 93 addi	a5, a5, 1
è¯»å–åœ°å€ 0x80001914
0x80001914: fe e7 9c e3 bne	a5, a4, 0x8000190c
è¯»å–åœ°å€ 0x8000190c
å†™å…¥åœ°å€ 0x8009cd0b
0x8000190c: 00 b7 80 23 sb	a1, 0(a5)
è¯»å–åœ°å€ 0x80001910
0x80001910: 00 17 87 93 addi	a5, a5, 1
è¯»å–åœ°å€ 0x80001914
0x80001914: fe e7 9c e3 bne	a5, a4, 0x8000190c
è¯»å–åœ°å€ 0x8000190c
å†™å…¥åœ°å€ 0x8009cd0c
0x8000190c: 00 b7 80 23 sb	a1, 0(a5)
è¯»å–åœ°å€ 0x80001910
0x80001910: 00 17 87 93 addi	a5, a5, 1
è¯»å–åœ°å€ 0x80001914
0x80001914: fe e7 9c e3 bne	a5, a4, 0x8000190c
è¯»å–åœ°å€ 0x8000190c
å†™å…¥åœ°å€ 0x8009cd0d
0x8000190c: 00 b7 80 23 sb	a1, 0(a5)
è¯»å–åœ°å€ 0x80001910
0x80001910: 00 17 87 93 addi	a5, a5, 1
è¯»å–åœ°å€ 0x80001914
0x80001914: fe e7 9c e3 bne	a5, a4, 0x8000190c
è¯»å–åœ°å€ 0x8000190c
å†™å…¥åœ°å€ 0x8009cd0e
0x8000190c: 00 b7 80 23 sb	a1, 0(a5)
è¯»å–åœ°å€ 0x80001910
0x80001910: 00 17 87 93 addi	a5, a5, 1
è¯»å–åœ°å€ 0x80001914
0x80001914: fe e7 9c e3 bne	a5, a4, 0x8000190c
è¯»å–åœ°å€ 0x8000190c
å†™å…¥åœ°å€ 0x8009cd0f
0x8000190c: 00 b7 80 23 sb	a1, 0(a5)
è¯»å–åœ°å€ 0x80001910
0x80001910: 00 17 87 93 addi	a5, a5, 1
è¯»å–åœ°å€ 0x80001914
0x80001914: fe e7 9c e3 bne	a5, a4, 0x8000190c
è¯»å–åœ°å€ 0x8000190c
å†™å…¥åœ°å€ 0x8009cd10
0x8000190c: 00 b7 80 23 sb	a1, 0(a5)
è¯»å–åœ°å€ 0x80001910
0x80001910: 00 17 87 93 addi	a5, a5, 1
è¯»å–åœ°å€ 0x80001914
0x80001914: fe e7 9c e3 bne	a5, a4, 0x8000190c
è¯»å–åœ°å€ 0x8000190c
å†™å…¥åœ°å€ 0x8009cd11
0x8000190c: 00 b7 80 23 sb	a1, 0(a5)
è¯»å–åœ°å€ 0x80001910
0x80001910: 00 17 87 93 addi	a5, a5, 1
è¯»å–åœ°å€ 0x80001914
0x80001914: fe e7 9c e3 bne	a5, a4, 0x8000190c
è¯»å–åœ°å€ 0x8000190c
å†™å…¥åœ°å€ 0x8009cd12
0x8000190c: 00 b7 80 23 sb	a1, 0(a5)
è¯»å–åœ°å€ 0x80001910
0x80001910: 00 17 87 93 addi	a5, a5, 1
è¯»å–åœ°å€ 0x80001914
0x80001914: fe e7 9c e3 bne	a5, a4, 0x8000190c
è¯»å–åœ°å€ 0x8000190c
å†™å…¥åœ°å€ 0x8009cd13
0x8000190c: 00 b7 80 23 sb	a1, 0(a5)
è¯»å–åœ°å€ 0x80001910
0x80001910: 00 17 87 93 addi	a5, a5, 1
è¯»å–åœ°å€ 0x80001914
0x80001914: fe e7 9c e3 bne	a5, a4, 0x8000190c
è¯»å–åœ°å€ 0x8000190c
å†™å…¥åœ°å€ 0x8009cd14
0x8000190c: 00 b7 80 23 sb	a1, 0(a5)
è¯»å–åœ°å€ 0x80001910
0x80001910: 00 17 87 93 addi	a5, a5, 1
è¯»å–åœ°å€ 0x80001914
0x80001914: fe e7 9c e3 bne	a5, a4, 0x8000190c
è¯»å–åœ°å€ 0x8000190c
å†™å…¥åœ°å€ 0x8009cd15
0x8000190c: 00 b7 80 23 sb	a1, 0(a5)
è¯»å–åœ°å€ 0x80001910
0x80001910: 00 17 87 93 addi	a5, a5, 1
è¯»å–åœ°å€ 0x80001914
0x80001914: fe e7 9c e3 bne	a5, a4, 0x8000190c
è¯»å–åœ°å€ 0x8000190c
å†™å…¥åœ°å€ 0x8009cd16
0x8000190c: 00 b7 80 23 sb	a1, 0(a5)
è¯»å–åœ°å€ 0x80001910
0x80001910: 00 17 87 93 addi	a5, a5, 1
è¯»å–åœ°å€ 0x80001914
0x80001914: fe e7 9c e3 bne	a5, a4, 0x8000190c
è¯»å–åœ°å€ 0x8000190c
å†™å…¥åœ°å€ 0x8009cd17
0x8000190c: 00 b7 80 23 sb	a1, 0(a5)
è¯»å–åœ°å€ 0x80001910
0x80001910: 00 17 87 93 addi	a5, a5, 1
è¯»å–åœ°å€ 0x80001914
0x80001914: fe e7 9c e3 bne	a5, a4, 0x8000190c
è¯»å–åœ°å€ 0x8000190c
å†™å…¥åœ°å€ 0x8009cd18
0x8000190c: 00 b7 80 23 sb	a1, 0(a5)
è¯»å–åœ°å€ 0x80001910
0x80001910: 00 17 87 93 addi	a5, a5, 1
è¯»å–åœ°å€ 0x80001914
0x80001914: fe e7 9c e3 bne	a5, a4, 0x8000190c
è¯»å–åœ°å€ 0x8000190c
å†™å…¥åœ°å€ 0x8009cd19
0x8000190c: 00 b7 80 23 sb	a1, 0(a5)
è¯»å–åœ°å€ 0x80001910
0x80001910: 00 17 87 93 addi	a5, a5, 1
è¯»å–åœ°å€ 0x80001914
0x80001914: fe e7 9c e3 bne	a5, a4, 0x8000190c
è¯»å–åœ°å€ 0x8000190c
å†™å…¥åœ°å€ 0x8009cd1a
0x8000190c: 00 b7 80 23 sb	a1, 0(a5)
è¯»å–åœ°å€ 0x80001910
0x80001910: 00 17 87 93 addi	a5, a5, 1
è¯»å–åœ°å€ 0x80001914
0x80001914: fe e7 9c e3 bne	a5, a4, 0x8000190c
è¯»å–åœ°å€ 0x8000190c
å†™å…¥åœ°å€ 0x8009cd1b
0x8000190c: 00 b7 80 23 sb	a1, 0(a5)
è¯»å–åœ°å€ 0x80001910
0x80001910: 00 17 87 93 addi	a5, a5, 1
è¯»å–åœ°å€ 0x80001914
0x80001914: fe e7 9c e3 bne	a5, a4, 0x8000190c
è¯»å–åœ°å€ 0x8000190c
å†™å…¥åœ°å€ 0x8009cd1c
0x8000190c: 00 b7 80 23 sb	a1, 0(a5)
è¯»å–åœ°å€ 0x80001910
0x80001910: 00 17 87 93 addi	a5, a5, 1
è¯»å–åœ°å€ 0x80001914
0x80001914: fe e7 9c e3 bne	a5, a4, 0x8000190c
è¯»å–åœ°å€ 0x8000190c
å†™å…¥åœ°å€ 0x8009cd1d
0x8000190c: 00 b7 80 23 sb	a1, 0(a5)
è¯»å–åœ°å€ 0x80001910
0x80001910: 00 17 87 93 addi	a5, a5, 1
è¯»å–åœ°å€ 0x80001914
0x80001914: fe e7 9c e3 bne	a5, a4, 0x8000190c
è¯»å–åœ°å€ 0x8000190c
å†™å…¥åœ°å€ 0x8009cd1e
0x8000190c: 00 b7 80 23 sb	a1, 0(a5)
è¯»å–åœ°å€ 0x80001910
0x80001910: 00 17 87 93 addi	a5, a5, 1
è¯»å–åœ°å€ 0x80001914
0x80001914: fe e7 9c e3 bne	a5, a4, 0x8000190c
è¯»å–åœ°å€ 0x8000190c
å†™å…¥åœ°å€ 0x8009cd1f
0x8000190c: 00 b7 80 23 sb	a1, 0(a5)
è¯»å–åœ°å€ 0x80001910
0x80001910: 00 17 87 93 addi	a5, a5, 1
è¯»å–åœ°å€ 0x80001914
0x80001914: fe e7 9c e3 bne	a5, a4, 0x8000190c
è¯»å–åœ°å€ 0x8000190c
å†™å…¥åœ°å€ 0x8009cd20
0x8000190c: 00 b7 80 23 sb	a1, 0(a5)
è¯»å–åœ°å€ 0x80001910
0x80001910: 00 17 87 93 addi	a5, a5, 1
è¯»å–åœ°å€ 0x80001914
0x80001914: fe e7 9c e3 bne	a5, a4, 0x8000190c
è¯»å–åœ°å€ 0x8000190c
å†™å…¥åœ°å€ 0x8009cd21
0x8000190c: 00 b7 80 23 sb	a1, 0(a5)
è¯»å–åœ°å€ 0x80001910
0x80001910: 00 17 87 93 addi	a5, a5, 1
è¯»å–åœ°å€ 0x80001914
0x80001914: fe e7 9c e3 bne	a5, a4, 0x8000190c
è¯»å–åœ°å€ 0x8000190c
å†™å…¥åœ°å€ 0x8009cd22
0x8000190c: 00 b7 80 23 sb	a1, 0(a5)
è¯»å–åœ°å€ 0x80001910
0x80001910: 00 17 87 93 addi	a5, a5, 1
è¯»å–åœ°å€ 0x80001914
0x80001914: fe e7 9c e3 bne	a5, a4, 0x8000190c
è¯»å–åœ°å€ 0x8000190c
å†™å…¥åœ°å€ 0x8009cd23
0x8000190c: 00 b7 80 23 sb	a1, 0(a5)
è¯»å–åœ°å€ 0x80001910
0x80001910: 00 17 87 93 addi	a5, a5, 1
è¯»å–åœ°å€ 0x80001914
0x80001914: fe e7 9c e3 bne	a5, a4, 0x8000190c
è¯»å–åœ°å€ 0x8000190c
å†™å…¥åœ°å€ 0x8009cd24
0x8000190c: 00 b7 80 23 sb	a1, 0(a5)
è¯»å–åœ°å€ 0x80001910
0x80001910: 00 17 87 93 addi	a5, a5, 1
è¯»å–åœ°å€ 0x80001914
0x80001914: fe e7 9c e3 bne	a5, a4, 0x8000190c
è¯»å–åœ°å€ 0x8000190c
å†™å…¥åœ°å€ 0x8009cd25
0x8000190c: 00 b7 80 23 sb	a1, 0(a5)
è¯»å–åœ°å€ 0x80001910
0x80001910: 00 17 87 93 addi	a5, a5, 1
è¯»å–åœ°å€ 0x80001914
0x80001914: fe e7 9c e3 bne	a5, a4, 0x8000190c
è¯»å–åœ°å€ 0x8000190c
å†™å…¥åœ°å€ 0x8009cd26
0x8000190c: 00 b7 80 23 sb	a1, 0(a5)
è¯»å–åœ°å€ 0x80001910
0x80001910: 00 17 87 93 addi	a5, a5, 1
è¯»å–åœ°å€ 0x80001914
0x80001914: fe e7 9c e3 bne	a5, a4, 0x8000190c
è¯»å–åœ°å€ 0x8000190c
å†™å…¥åœ°å€ 0x8009cd27
0x8000190c: 00 b7 80 23 sb	a1, 0(a5)
è¯»å–åœ°å€ 0x80001910
0x80001910: 00 17 87 93 addi	a5, a5, 1
è¯»å–åœ°å€ 0x80001914
0x80001914: fe e7 9c e3 bne	a5, a4, 0x8000190c
è¯»å–åœ°å€ 0x8000190c
å†™å…¥åœ°å€ 0x8009cd28
0x8000190c: 00 b7 80 23 sb	a1, 0(a5)
è¯»å–åœ°å€ 0x80001910
0x80001910: 00 17 87 93 addi	a5, a5, 1
è¯»å–åœ°å€ 0x80001914
0x80001914: fe e7 9c e3 bne	a5, a4, 0x8000190c
è¯»å–åœ°å€ 0x8000190c
å†™å…¥åœ°å€ 0x8009cd29
0x8000190c: 00 b7 80 23 sb	a1, 0(a5)
è¯»å–åœ°å€ 0x80001910
0x80001910: 00 17 87 93 addi	a5, a5, 1
è¯»å–åœ°å€ 0x80001914
0x80001914: fe e7 9c e3 bne	a5, a4, 0x8000190c
è¯»å–åœ°å€ 0x8000190c
å†™å…¥åœ°å€ 0x8009cd2a
0x8000190c: 00 b7 80 23 sb	a1, 0(a5)
è¯»å–åœ°å€ 0x80001910
0x80001910: 00 17 87 93 addi	a5, a5, 1
è¯»å–åœ°å€ 0x80001914
0x80001914: fe e7 9c e3 bne	a5, a4, 0x8000190c
è¯»å–åœ°å€ 0x8000190c
å†™å…¥åœ°å€ 0x8009cd2b
0x8000190c: 00 b7 80 23 sb	a1, 0(a5)
è¯»å–åœ°å€ 0x80001910
0x80001910: 00 17 87 93 addi	a5, a5, 1
è¯»å–åœ°å€ 0x80001914
0x80001914: fe e7 9c e3 bne	a5, a4, 0x8000190c
è¯»å–åœ°å€ 0x8000190c
å†™å…¥åœ°å€ 0x8009cd2c
0x8000190c: 00 b7 80 23 sb	a1, 0(a5)
è¯»å–åœ°å€ 0x80001910
0x80001910: 00 17 87 93 addi	a5, a5, 1
è¯»å–åœ°å€ 0x80001914
0x80001914: fe e7 9c e3 bne	a5, a4, 0x8000190c
è¯»å–åœ°å€ 0x8000190c
å†™å…¥åœ°å€ 0x8009cd2d
0x8000190c: 00 b7 80 23 sb	a1, 0(a5)
è¯»å–åœ°å€ 0x80001910
0x80001910: 00 17 87 93 addi	a5, a5, 1
è¯»å–åœ°å€ 0x80001914
0x80001914: fe e7 9c e3 bne	a5, a4, 0x8000190c
è¯»å–åœ°å€ 0x8000190c
å†™å…¥åœ°å€ 0x8009cd2e
0x8000190c: 00 b7 80 23 sb	a1, 0(a5)
è¯»å–åœ°å€ 0x80001910
0x80001910: 00 17 87 93 addi	a5, a5, 1
è¯»å–åœ°å€ 0x80001914
0x80001914: fe e7 9c e3 bne	a5, a4, 0x8000190c
è¯»å–åœ°å€ 0x8000190c
å†™å…¥åœ°å€ 0x8009cd2f
0x8000190c: 00 b7 80 23 sb	a1, 0(a5)
è¯»å–åœ°å€ 0x80001910
0x80001910: 00 17 87 93 addi	a5, a5, 1
è¯»å–åœ°å€ 0x80001914
0x80001914: fe e7 9c e3 bne	a5, a4, 0x8000190c
è¯»å–åœ°å€ 0x8000190c
å†™å…¥åœ°å€ 0x8009cd30
0x8000190c: 00 b7 80 23 sb	a1, 0(a5)
è¯»å–åœ°å€ 0x80001910
0x80001910: 00 17 87 93 addi	a5, a5, 1
è¯»å–åœ°å€ 0x80001914
0x80001914: fe e7 9c e3 bne	a5, a4, 0x8000190c
è¯»å–åœ°å€ 0x8000190c
å†™å…¥åœ°å€ 0x8009cd31
0x8000190c: 00 b7 80 23 sb	a1, 0(a5)
è¯»å–åœ°å€ 0x80001910
0x80001910: 00 17 87 93 addi	a5, a5, 1
è¯»å–åœ°å€ 0x80001914
0x80001914: fe e7 9c e3 bne	a5, a4, 0x8000190c
è¯»å–åœ°å€ 0x8000190c
å†™å…¥åœ°å€ 0x8009cd32
0x8000190c: 00 b7 80 23 sb	a1, 0(a5)
è¯»å–åœ°å€ 0x80001910
0x80001910: 00 17 87 93 addi	a5, a5, 1
è¯»å–åœ°å€ 0x80001914
0x80001914: fe e7 9c e3 bne	a5, a4, 0x8000190c
è¯»å–åœ°å€ 0x8000190c
å†™å…¥åœ°å€ 0x8009cd33
0x8000190c: 00 b7 80 23 sb	a1, 0(a5)
è¯»å–åœ°å€ 0x80001910
0x80001910: 00 17 87 93 addi	a5, a5, 1
è¯»å–åœ°å€ 0x80001914
0x80001914: fe e7 9c e3 bne	a5, a4, 0x8000190c
è¯»å–åœ°å€ 0x8000190c
å†™å…¥åœ°å€ 0x8009cd34
0x8000190c: 00 b7 80 23 sb	a1, 0(a5)
è¯»å–åœ°å€ 0x80001910
0x80001910: 00 17 87 93 addi	a5, a5, 1
è¯»å–åœ°å€ 0x80001914
0x80001914: fe e7 9c e3 bne	a5, a4, 0x8000190c
è¯»å–åœ°å€ 0x8000190c
å†™å…¥åœ°å€ 0x8009cd35
0x8000190c: 00 b7 80 23 sb	a1, 0(a5)
è¯»å–åœ°å€ 0x80001910
0x80001910: 00 17 87 93 addi	a5, a5, 1
è¯»å–åœ°å€ 0x80001914
0x80001914: fe e7 9c e3 bne	a5, a4, 0x8000190c
è¯»å–åœ°å€ 0x8000190c
å†™å…¥åœ°å€ 0x8009cd36
0x8000190c: 00 b7 80 23 sb	a1, 0(a5)
è¯»å–åœ°å€ 0x80001910
0x80001910: 00 17 87 93 addi	a5, a5, 1
è¯»å–åœ°å€ 0x80001914
0x80001914: fe e7 9c e3 bne	a5, a4, 0x8000190c
è¯»å–åœ°å€ 0x8000190c
å†™å…¥åœ°å€ 0x8009cd37
0x8000190c: 00 b7 80 23 sb	a1, 0(a5)
è¯»å–åœ°å€ 0x80001910
0x80001910: 00 17 87 93 addi	a5, a5, 1
è¯»å–åœ°å€ 0x80001914
0x80001914: fe e7 9c e3 bne	a5, a4, 0x8000190c
è¯»å–åœ°å€ 0x8000190c
å†™å…¥åœ°å€ 0x8009cd38
0x8000190c: 00 b7 80 23 sb	a1, 0(a5)
è¯»å–åœ°å€ 0x80001910
0x80001910: 00 17 87 93 addi	a5, a5, 1
è¯»å–åœ°å€ 0x80001914
0x80001914: fe e7 9c e3 bne	a5, a4, 0x8000190c
è¯»å–åœ°å€ 0x8000190c
å†™å…¥åœ°å€ 0x8009cd39
0x8000190c: 00 b7 80 23 sb	a1, 0(a5)
è¯»å–åœ°å€ 0x80001910
0x80001910: 00 17 87 93 addi	a5, a5, 1
è¯»å–åœ°å€ 0x80001914
0x80001914: fe e7 9c e3 bne	a5, a4, 0x8000190c
è¯»å–åœ°å€ 0x8000190c
å†™å…¥åœ°å€ 0x8009cd3a
0x8000190c: 00 b7 80 23 sb	a1, 0(a5)
è¯»å–åœ°å€ 0x80001910
0x80001910: 00 17 87 93 addi	a5, a5, 1
è¯»å–åœ°å€ 0x80001914
0x80001914: fe e7 9c e3 bne	a5, a4, 0x8000190c
è¯»å–åœ°å€ 0x8000190c
å†™å…¥åœ°å€ 0x8009cd3b
0x8000190c: 00 b7 80 23 sb	a1, 0(a5)
è¯»å–åœ°å€ 0x80001910
0x80001910: 00 17 87 93 addi	a5, a5, 1
è¯»å–åœ°å€ 0x80001914
0x80001914: fe e7 9c e3 bne	a5, a4, 0x8000190c
è¯»å–åœ°å€ 0x8000190c
å†™å…¥åœ°å€ 0x8009cd3c
0x8000190c: 00 b7 80 23 sb	a1, 0(a5)
è¯»å–åœ°å€ 0x80001910
0x80001910: 00 17 87 93 addi	a5, a5, 1
è¯»å–åœ°å€ 0x80001914
0x80001914: fe e7 9c e3 bne	a5, a4, 0x8000190c
è¯»å–åœ°å€ 0x8000190c
å†™å…¥åœ°å€ 0x8009cd3d
0x8000190c: 00 b7 80 23 sb	a1, 0(a5)
è¯»å–åœ°å€ 0x80001910
0x80001910: 00 17 87 93 addi	a5, a5, 1
è¯»å–åœ°å€ 0x80001914
0x80001914: fe e7 9c e3 bne	a5, a4, 0x8000190c
è¯»å–åœ°å€ 0x8000190c
å†™å…¥åœ°å€ 0x8009cd3e
0x8000190c: 00 b7 80 23 sb	a1, 0(a5)
è¯»å–åœ°å€ 0x80001910
0x80001910: 00 17 87 93 addi	a5, a5, 1
è¯»å–åœ°å€ 0x80001914
0x80001914: fe e7 9c e3 bne	a5, a4, 0x8000190c
è¯»å–åœ°å€ 0x8000190c
å†™å…¥åœ°å€ 0x8009cd3f
0x8000190c: 00 b7 80 23 sb	a1, 0(a5)
è¯»å–åœ°å€ 0x80001910
0x80001910: 00 17 87 93 addi	a5, a5, 1
è¯»å–åœ°å€ 0x80001914
0x80001914: fe e7 9c e3 bne	a5, a4, 0x8000190c
è¯»å–åœ°å€ 0x8000190c
å†™å…¥åœ°å€ 0x8009cd40
0x8000190c: 00 b7 80 23 sb	a1, 0(a5)
è¯»å–åœ°å€ 0x80001910
0x80001910: 00 17 87 93 addi	a5, a5, 1
è¯»å–åœ°å€ 0x80001914
0x80001914: fe e7 9c e3 bne	a5, a4, 0x8000190c
è¯»å–åœ°å€ 0x8000190c
å†™å…¥åœ°å€ 0x8009cd41
0x8000190c: 00 b7 80 23 sb	a1, 0(a5)
è¯»å–åœ°å€ 0x80001910
0x80001910: 00 17 87 93 addi	a5, a5, 1
è¯»å–åœ°å€ 0x80001914
0x80001914: fe e7 9c e3 bne	a5, a4, 0x8000190c
è¯»å–åœ°å€ 0x8000190c
å†™å…¥åœ°å€ 0x8009cd42
0x8000190c: 00 b7 80 23 sb	a1, 0(a5)
è¯»å–åœ°å€ 0x80001910
0x80001910: 00 17 87 93 addi	a5, a5, 1
è¯»å–åœ°å€ 0x80001914
0x80001914: fe e7 9c e3 bne	a5, a4, 0x8000190c
è¯»å–åœ°å€ 0x8000190c
å†™å…¥åœ°å€ 0x8009cd43
0x8000190c: 00 b7 80 23 sb	a1, 0(a5)
è¯»å–åœ°å€ 0x80001910
0x80001910: 00 17 87 93 addi	a5, a5, 1
è¯»å–åœ°å€ 0x80001914
0x80001914: fe e7 9c e3 bne	a5, a4, 0x8000190c
è¯»å–åœ°å€ 0x8000190c
å†™å…¥åœ°å€ 0x8009cd44
0x8000190c: 00 b7 80 23 sb	a1, 0(a5)
è¯»å–åœ°å€ 0x80001910
0x80001910: 00 17 87 93 addi	a5, a5, 1
è¯»å–åœ°å€ 0x80001914
0x80001914: fe e7 9c e3 bne	a5, a4, 0x8000190c
è¯»å–åœ°å€ 0x8000190c
å†™å…¥åœ°å€ 0x8009cd45
0x8000190c: 00 b7 80 23 sb	a1, 0(a5)
è¯»å–åœ°å€ 0x80001910
0x80001910: 00 17 87 93 addi	a5, a5, 1
è¯»å–åœ°å€ 0x80001914
0x80001914: fe e7 9c e3 bne	a5, a4, 0x8000190c
è¯»å–åœ°å€ 0x8000190c
å†™å…¥åœ°å€ 0x8009cd46
0x8000190c: 00 b7 80 23 sb	a1, 0(a5)
è¯»å–åœ°å€ 0x80001910
0x80001910: 00 17 87 93 addi	a5, a5, 1
è¯»å–åœ°å€ 0x80001914
0x80001914: fe e7 9c e3 bne	a5, a4, 0x8000190c
è¯»å–åœ°å€ 0x8000190c
å†™å…¥åœ°å€ 0x8009cd47
0x8000190c: 00 b7 80 23 sb	a1, 0(a5)
è¯»å–åœ°å€ 0x80001910
0x80001910: 00 17 87 93 addi	a5, a5, 1
è¯»å–åœ°å€ 0x80001914
0x80001914: fe e7 9c e3 bne	a5, a4, 0x8000190c
è¯»å–åœ°å€ 0x8000190c
å†™å…¥åœ°å€ 0x8009cd48
0x8000190c: 00 b7 80 23 sb	a1, 0(a5)
è¯»å–åœ°å€ 0x80001910
0x80001910: 00 17 87 93 addi	a5, a5, 1
è¯»å–åœ°å€ 0x80001914
0x80001914: fe e7 9c e3 bne	a5, a4, 0x8000190c
è¯»å–åœ°å€ 0x8000190c
å†™å…¥åœ°å€ 0x8009cd49
0x8000190c: 00 b7 80 23 sb	a1, 0(a5)
è¯»å–åœ°å€ 0x80001910
0x80001910: 00 17 87 93 addi	a5, a5, 1
è¯»å–åœ°å€ 0x80001914
0x80001914: fe e7 9c e3 bne	a5, a4, 0x8000190c
è¯»å–åœ°å€ 0x8000190c
å†™å…¥åœ°å€ 0x8009cd4a
0x8000190c: 00 b7 80 23 sb	a1, 0(a5)
è¯»å–åœ°å€ 0x80001910
0x80001910: 00 17 87 93 addi	a5, a5, 1
è¯»å–åœ°å€ 0x80001914
0x80001914: fe e7 9c e3 bne	a5, a4, 0x8000190c
è¯»å–åœ°å€ 0x8000190c
å†™å…¥åœ°å€ 0x8009cd4b
0x8000190c: 00 b7 80 23 sb	a1, 0(a5)
è¯»å–åœ°å€ 0x80001910
0x80001910: 00 17 87 93 addi	a5, a5, 1
è¯»å–åœ°å€ 0x80001914
0x80001914: fe e7 9c e3 bne	a5, a4, 0x8000190c
è¯»å–åœ°å€ 0x8000190c
å†™å…¥åœ°å€ 0x8009cd4c
0x8000190c: 00 b7 80 23 sb	a1, 0(a5)
è¯»å–åœ°å€ 0x80001910
0x80001910: 00 17 87 93 addi	a5, a5, 1
è¯»å–åœ°å€ 0x80001914
0x80001914: fe e7 9c e3 bne	a5, a4, 0x8000190c
è¯»å–åœ°å€ 0x8000190c
å†™å…¥åœ°å€ 0x8009cd4d
0x8000190c: 00 b7 80 23 sb	a1, 0(a5)
è¯»å–åœ°å€ 0x80001910
0x80001910: 00 17 87 93 addi	a5, a5, 1
è¯»å–åœ°å€ 0x80001914
0x80001914: fe e7 9c e3 bne	a5, a4, 0x8000190c
è¯»å–åœ°å€ 0x8000190c
å†™å…¥åœ°å€ 0x8009cd4e
0x8000190c: 00 b7 80 23 sb	a1, 0(a5)
è¯»å–åœ°å€ 0x80001910
0x80001910: 00 17 87 93 addi	a5, a5, 1
è¯»å–åœ°å€ 0x80001914
0x80001914: fe e7 9c e3 bne	a5, a4, 0x8000190c
è¯»å–åœ°å€ 0x8000190c
å†™å…¥åœ°å€ 0x8009cd4f
0x8000190c: 00 b7 80 23 sb	a1, 0(a5)
è¯»å–åœ°å€ 0x80001910
0x80001910: 00 17 87 93 addi	a5, a5, 1
è¯»å–åœ°å€ 0x80001914
0x80001914: fe e7 9c e3 bne	a5, a4, 0x8000190c
è¯»å–åœ°å€ 0x8000190c
å†™å…¥åœ°å€ 0x8009cd50
0x8000190c: 00 b7 80 23 sb	a1, 0(a5)
è¯»å–åœ°å€ 0x80001910
0x80001910: 00 17 87 93 addi	a5, a5, 1
è¯»å–åœ°å€ 0x80001914
0x80001914: fe e7 9c e3 bne	a5, a4, 0x8000190c
è¯»å–åœ°å€ 0x8000190c
å†™å…¥åœ°å€ 0x8009cd51
0x8000190c: 00 b7 80 23 sb	a1, 0(a5)
è¯»å–åœ°å€ 0x80001910
0x80001910: 00 17 87 93 addi	a5, a5, 1
è¯»å–åœ°å€ 0x80001914
0x80001914: fe e7 9c e3 bne	a5, a4, 0x8000190c
è¯»å–åœ°å€ 0x8000190c
å†™å…¥åœ°å€ 0x8009cd52
0x8000190c: 00 b7 80 23 sb	a1, 0(a5)
è¯»å–åœ°å€ 0x80001910
0x80001910: 00 17 87 93 addi	a5, a5, 1
è¯»å–åœ°å€ 0x80001914
0x80001914: fe e7 9c e3 bne	a5, a4, 0x8000190c
è¯»å–åœ°å€ 0x8000190c
å†™å…¥åœ°å€ 0x8009cd53
0x8000190c: 00 b7 80 23 sb	a1, 0(a5)
è¯»å–åœ°å€ 0x80001910
0x80001910: 00 17 87 93 addi	a5, a5, 1
è¯»å–åœ°å€ 0x80001914
0x80001914: fe e7 9c e3 bne	a5, a4, 0x8000190c
è¯»å–åœ°å€ 0x8000190c
å†™å…¥åœ°å€ 0x8009cd54
0x8000190c: 00 b7 80 23 sb	a1, 0(a5)
è¯»å–åœ°å€ 0x80001910
0x80001910: 00 17 87 93 addi	a5, a5, 1
è¯»å–åœ°å€ 0x80001914
0x80001914: fe e7 9c e3 bne	a5, a4, 0x8000190c
è¯»å–åœ°å€ 0x8000190c
å†™å…¥åœ°å€ 0x8009cd55
0x8000190c: 00 b7 80 23 sb	a1, 0(a5)
è¯»å–åœ°å€ 0x80001910
0x80001910: 00 17 87 93 addi	a5, a5, 1
è¯»å–åœ°å€ 0x80001914
0x80001914: fe e7 9c e3 bne	a5, a4, 0x8000190c
è¯»å–åœ°å€ 0x8000190c
å†™å…¥åœ°å€ 0x8009cd56
0x8000190c: 00 b7 80 23 sb	a1, 0(a5)
è¯»å–åœ°å€ 0x80001910
0x80001910: 00 17 87 93 addi	a5, a5, 1
è¯»å–åœ°å€ 0x80001914
0x80001914: fe e7 9c e3 bne	a5, a4, 0x8000190c
è¯»å–åœ°å€ 0x8000190c
å†™å…¥åœ°å€ 0x8009cd57
0x8000190c: 00 b7 80 23 sb	a1, 0(a5)
è¯»å–åœ°å€ 0x80001910
0x80001910: 00 17 87 93 addi	a5, a5, 1
è¯»å–åœ°å€ 0x80001914
0x80001914: fe e7 9c e3 bne	a5, a4, 0x8000190c
è¯»å–åœ°å€ 0x8000190c
å†™å…¥åœ°å€ 0x8009cd58
0x8000190c: 00 b7 80 23 sb	a1, 0(a5)
è¯»å–åœ°å€ 0x80001910
0x80001910: 00 17 87 93 addi	a5, a5, 1
è¯»å–åœ°å€ 0x80001914
0x80001914: fe e7 9c e3 bne	a5, a4, 0x8000190c
è¯»å–åœ°å€ 0x8000190c
å†™å…¥åœ°å€ 0x8009cd59
0x8000190c: 00 b7 80 23 sb	a1, 0(a5)
è¯»å–åœ°å€ 0x80001910
0x80001910: 00 17 87 93 addi	a5, a5, 1
è¯»å–åœ°å€ 0x80001914
0x80001914: fe e7 9c e3 bne	a5, a4, 0x8000190c
è¯»å–åœ°å€ 0x8000190c
å†™å…¥åœ°å€ 0x8009cd5a
0x8000190c: 00 b7 80 23 sb	a1, 0(a5)
è¯»å–åœ°å€ 0x80001910
0x80001910: 00 17 87 93 addi	a5, a5, 1
è¯»å–åœ°å€ 0x80001914
0x80001914: fe e7 9c e3 bne	a5, a4, 0x8000190c
è¯»å–åœ°å€ 0x8000190c
å†™å…¥åœ°å€ 0x8009cd5b
0x8000190c: 00 b7 80 23 sb	a1, 0(a5)
è¯»å–åœ°å€ 0x80001910
0x80001910: 00 17 87 93 addi	a5, a5, 1
è¯»å–åœ°å€ 0x80001914
0x80001914: fe e7 9c e3 bne	a5, a4, 0x8000190c
è¯»å–åœ°å€ 0x8000190c
å†™å…¥åœ°å€ 0x8009cd5c
0x8000190c: 00 b7 80 23 sb	a1, 0(a5)
è¯»å–åœ°å€ 0x80001910
0x80001910: 00 17 87 93 addi	a5, a5, 1
è¯»å–åœ°å€ 0x80001914
0x80001914: fe e7 9c e3 bne	a5, a4, 0x8000190c
è¯»å–åœ°å€ 0x8000190c
å†™å…¥åœ°å€ 0x8009cd5d
0x8000190c: 00 b7 80 23 sb	a1, 0(a5)
è¯»å–åœ°å€ 0x80001910
0x80001910: 00 17 87 93 addi	a5, a5, 1
è¯»å–åœ°å€ 0x80001914
0x80001914: fe e7 9c e3 bne	a5, a4, 0x8000190c
è¯»å–åœ°å€ 0x8000190c
å†™å…¥åœ°å€ 0x8009cd5e
0x8000190c: 00 b7 80 23 sb	a1, 0(a5)
è¯»å–åœ°å€ 0x80001910
0x80001910: 00 17 87 93 addi	a5, a5, 1
è¯»å–åœ°å€ 0x80001914
0x80001914: fe e7 9c e3 bne	a5, a4, 0x8000190c
è¯»å–åœ°å€ 0x8000190c
å†™å…¥åœ°å€ 0x8009cd5f
0x8000190c: 00 b7 80 23 sb	a1, 0(a5)
è¯»å–åœ°å€ 0x80001910
0x80001910: 00 17 87 93 addi	a5, a5, 1
è¯»å–åœ°å€ 0x80001914
0x80001914: fe e7 9c e3 bne	a5, a4, 0x8000190c
è¯»å–åœ°å€ 0x8000190c
å†™å…¥åœ°å€ 0x8009cd60
0x8000190c: 00 b7 80 23 sb	a1, 0(a5)
è¯»å–åœ°å€ 0x80001910
0x80001910: 00 17 87 93 addi	a5, a5, 1
è¯»å–åœ°å€ 0x80001914
0x80001914: fe e7 9c e3 bne	a5, a4, 0x8000190c
è¯»å–åœ°å€ 0x8000190c
å†™å…¥åœ°å€ 0x8009cd61
0x8000190c: 00 b7 80 23 sb	a1, 0(a5)
è¯»å–åœ°å€ 0x80001910
0x80001910: 00 17 87 93 addi	a5, a5, 1
è¯»å–åœ°å€ 0x80001914
0x80001914: fe e7 9c e3 bne	a5, a4, 0x8000190c
è¯»å–åœ°å€ 0x8000190c
å†™å…¥åœ°å€ 0x8009cd62
0x8000190c: 00 b7 80 23 sb	a1, 0(a5)
è¯»å–åœ°å€ 0x80001910
0x80001910: 00 17 87 93 addi	a5, a5, 1
è¯»å–åœ°å€ 0x80001914
0x80001914: fe e7 9c e3 bne	a5, a4, 0x8000190c
è¯»å–åœ°å€ 0x8000190c
å†™å…¥åœ°å€ 0x8009cd63
0x8000190c: 00 b7 80 23 sb	a1, 0(a5)
è¯»å–åœ°å€ 0x80001910
0x80001910: 00 17 87 93 addi	a5, a5, 1
è¯»å–åœ°å€ 0x80001914
0x80001914: fe e7 9c e3 bne	a5, a4, 0x8000190c
è¯»å–åœ°å€ 0x8000190c
å†™å…¥åœ°å€ 0x8009cd64
0x8000190c: 00 b7 80 23 sb	a1, 0(a5)
è¯»å–åœ°å€ 0x80001910
0x80001910: 00 17 87 93 addi	a5, a5, 1
è¯»å–åœ°å€ 0x80001914
0x80001914: fe e7 9c e3 bne	a5, a4, 0x8000190c
è¯»å–åœ°å€ 0x8000190c
å†™å…¥åœ°å€ 0x8009cd65
0x8000190c: 00 b7 80 23 sb	a1, 0(a5)
è¯»å–åœ°å€ 0x80001910
0x80001910: 00 17 87 93 addi	a5, a5, 1
è¯»å–åœ°å€ 0x80001914
0x80001914: fe e7 9c e3 bne	a5, a4, 0x8000190c
è¯»å–åœ°å€ 0x8000190c
å†™å…¥åœ°å€ 0x8009cd66
0x8000190c: 00 b7 80 23 sb	a1, 0(a5)
è¯»å–åœ°å€ 0x80001910
0x80001910: 00 17 87 93 addi	a5, a5, 1
è¯»å–åœ°å€ 0x80001914
0x80001914: fe e7 9c e3 bne	a5, a4, 0x8000190c
è¯»å–åœ°å€ 0x8000190c
å†™å…¥åœ°å€ 0x8009cd67
0x8000190c: 00 b7 80 23 sb	a1, 0(a5)
è¯»å–åœ°å€ 0x80001910
0x80001910: 00 17 87 93 addi	a5, a5, 1
è¯»å–åœ°å€ 0x80001914
0x80001914: fe e7 9c e3 bne	a5, a4, 0x8000190c
è¯»å–åœ°å€ 0x8000190c
å†™å…¥åœ°å€ 0x8009cd68
0x8000190c: 00 b7 80 23 sb	a1, 0(a5)
è¯»å–åœ°å€ 0x80001910
0x80001910: 00 17 87 93 addi	a5, a5, 1
è¯»å–åœ°å€ 0x80001914
0x80001914: fe e7 9c e3 bne	a5, a4, 0x8000190c
è¯»å–åœ°å€ 0x8000190c
å†™å…¥åœ°å€ 0x8009cd69
0x8000190c: 00 b7 80 23 sb	a1, 0(a5)
è¯»å–åœ°å€ 0x80001910
0x80001910: 00 17 87 93 addi	a5, a5, 1
è¯»å–åœ°å€ 0x80001914
0x80001914: fe e7 9c e3 bne	a5, a4, 0x8000190c
è¯»å–åœ°å€ 0x8000190c
å†™å…¥åœ°å€ 0x8009cd6a
0x8000190c: 00 b7 80 23 sb	a1, 0(a5)
è¯»å–åœ°å€ 0x80001910
0x80001910: 00 17 87 93 addi	a5, a5, 1
è¯»å–åœ°å€ 0x80001914
0x80001914: fe e7 9c e3 bne	a5, a4, 0x8000190c
è¯»å–åœ°å€ 0x8000190c
å†™å…¥åœ°å€ 0x8009cd6b
0x8000190c: 00 b7 80 23 sb	a1, 0(a5)
è¯»å–åœ°å€ 0x80001910
0x80001910: 00 17 87 93 addi	a5, a5, 1
è¯»å–åœ°å€ 0x80001914
0x80001914: fe e7 9c e3 bne	a5, a4, 0x8000190c
è¯»å–åœ°å€ 0x8000190c
å†™å…¥åœ°å€ 0x8009cd6c
0x8000190c: 00 b7 80 23 sb	a1, 0(a5)
è¯»å–åœ°å€ 0x80001910
0x80001910: 00 17 87 93 addi	a5, a5, 1
è¯»å–åœ°å€ 0x80001914
0x80001914: fe e7 9c e3 bne	a5, a4, 0x8000190c
è¯»å–åœ°å€ 0x8000190c
å†™å…¥åœ°å€ 0x8009cd6d
0x8000190c: 00 b7 80 23 sb	a1, 0(a5)
è¯»å–åœ°å€ 0x80001910
0x80001910: 00 17 87 93 addi	a5, a5, 1
è¯»å–åœ°å€ 0x80001914
0x80001914: fe e7 9c e3 bne	a5, a4, 0x8000190c
è¯»å–åœ°å€ 0x8000190c
å†™å…¥åœ°å€ 0x8009cd6e
0x8000190c: 00 b7 80 23 sb	a1, 0(a5)
è¯»å–åœ°å€ 0x80001910
0x80001910: 00 17 87 93 addi	a5, a5, 1
è¯»å–åœ°å€ 0x80001914
0x80001914: fe e7 9c e3 bne	a5, a4, 0x8000190c
è¯»å–åœ°å€ 0x8000190c
å†™å…¥åœ°å€ 0x8009cd6f
0x8000190c: 00 b7 80 23 sb	a1, 0(a5)
è¯»å–åœ°å€ 0x80001910
0x80001910: 00 17 87 93 addi	a5, a5, 1
è¯»å–åœ°å€ 0x80001914
0x80001914: fe e7 9c e3 bne	a5, a4, 0x8000190c
è¯»å–åœ°å€ 0x8000190c
å†™å…¥åœ°å€ 0x8009cd70
0x8000190c: 00 b7 80 23 sb	a1, 0(a5)
è¯»å–åœ°å€ 0x80001910
0x80001910: 00 17 87 93 addi	a5, a5, 1
è¯»å–åœ°å€ 0x80001914
0x80001914: fe e7 9c e3 bne	a5, a4, 0x8000190c
è¯»å–åœ°å€ 0x8000190c
å†™å…¥åœ°å€ 0x8009cd71
0x8000190c: 00 b7 80 23 sb	a1, 0(a5)
è¯»å–åœ°å€ 0x80001910
0x80001910: 00 17 87 93 addi	a5, a5, 1
è¯»å–åœ°å€ 0x80001914
0x80001914: fe e7 9c e3 bne	a5, a4, 0x8000190c
è¯»å–åœ°å€ 0x8000190c
å†™å…¥åœ°å€ 0x8009cd72
0x8000190c: 00 b7 80 23 sb	a1, 0(a5)
è¯»å–åœ°å€ 0x80001910
0x80001910: 00 17 87 93 addi	a5, a5, 1
è¯»å–åœ°å€ 0x80001914
0x80001914: fe e7 9c e3 bne	a5, a4, 0x8000190c
è¯»å–åœ°å€ 0x8000190c
å†™å…¥åœ°å€ 0x8009cd73
0x8000190c: 00 b7 80 23 sb	a1, 0(a5)
è¯»å–åœ°å€ 0x80001910
0x80001910: 00 17 87 93 addi	a5, a5, 1
è¯»å–åœ°å€ 0x80001914
0x80001914: fe e7 9c e3 bne	a5, a4, 0x8000190c
è¯»å–åœ°å€ 0x8000190c
å†™å…¥åœ°å€ 0x8009cd74
0x8000190c: 00 b7 80 23 sb	a1, 0(a5)
è¯»å–åœ°å€ 0x80001910
0x80001910: 00 17 87 93 addi	a5, a5, 1
è¯»å–åœ°å€ 0x80001914
0x80001914: fe e7 9c e3 bne	a5, a4, 0x8000190c
è¯»å–åœ°å€ 0x8000190c
å†™å…¥åœ°å€ 0x8009cd75
0x8000190c: 00 b7 80 23 sb	a1, 0(a5)
è¯»å–åœ°å€ 0x80001910
0x80001910: 00 17 87 93 addi	a5, a5, 1
è¯»å–åœ°å€ 0x80001914
0x80001914: fe e7 9c e3 bne	a5, a4, 0x8000190c
è¯»å–åœ°å€ 0x8000190c
å†™å…¥åœ°å€ 0x8009cd76
0x8000190c: 00 b7 80 23 sb	a1, 0(a5)
è¯»å–åœ°å€ 0x80001910
0x80001910: 00 17 87 93 addi	a5, a5, 1
è¯»å–åœ°å€ 0x80001914
0x80001914: fe e7 9c e3 bne	a5, a4, 0x8000190c
è¯»å–åœ°å€ 0x8000190c
å†™å…¥åœ°å€ 0x8009cd77
0x8000190c: 00 b7 80 23 sb	a1, 0(a5)
è¯»å–åœ°å€ 0x80001910
0x80001910: 00 17 87 93 addi	a5, a5, 1
è¯»å–åœ°å€ 0x80001914
0x80001914: fe e7 9c e3 bne	a5, a4, 0x8000190c
è¯»å–åœ°å€ 0x8000190c
å†™å…¥åœ°å€ 0x8009cd78
0x8000190c: 00 b7 80 23 sb	a1, 0(a5)
è¯»å–åœ°å€ 0x80001910
0x80001910: 00 17 87 93 addi	a5, a5, 1
è¯»å–åœ°å€ 0x80001914
0x80001914: fe e7 9c e3 bne	a5, a4, 0x8000190c
è¯»å–åœ°å€ 0x8000190c
å†™å…¥åœ°å€ 0x8009cd79
0x8000190c: 00 b7 80 23 sb	a1, 0(a5)
è¯»å–åœ°å€ 0x80001910
0x80001910: 00 17 87 93 addi	a5, a5, 1
è¯»å–åœ°å€ 0x80001914
0x80001914: fe e7 9c e3 bne	a5, a4, 0x8000190c
è¯»å–åœ°å€ 0x8000190c
å†™å…¥åœ°å€ 0x8009cd7a
0x8000190c: 00 b7 80 23 sb	a1, 0(a5)
è¯»å–åœ°å€ 0x80001910
0x80001910: 00 17 87 93 addi	a5, a5, 1
è¯»å–åœ°å€ 0x80001914
0x80001914: fe e7 9c e3 bne	a5, a4, 0x8000190c
è¯»å–åœ°å€ 0x8000190c
å†™å…¥åœ°å€ 0x8009cd7b
0x8000190c: 00 b7 80 23 sb	a1, 0(a5)
è¯»å–åœ°å€ 0x80001910
0x80001910: 00 17 87 93 addi	a5, a5, 1
è¯»å–åœ°å€ 0x80001914
0x80001914: fe e7 9c e3 bne	a5, a4, 0x8000190c
è¯»å–åœ°å€ 0x8000190c
å†™å…¥åœ°å€ 0x8009cd7c
0x8000190c: 00 b7 80 23 sb	a1, 0(a5)
è¯»å–åœ°å€ 0x80001910
0x80001910: 00 17 87 93 addi	a5, a5, 1
è¯»å–åœ°å€ 0x80001914
0x80001914: fe e7 9c e3 bne	a5, a4, 0x8000190c
è¯»å–åœ°å€ 0x8000190c
å†™å…¥åœ°å€ 0x8009cd7d
0x8000190c: 00 b7 80 23 sb	a1, 0(a5)
è¯»å–åœ°å€ 0x80001910
0x80001910: 00 17 87 93 addi	a5, a5, 1
è¯»å–åœ°å€ 0x80001914
0x80001914: fe e7 9c e3 bne	a5, a4, 0x8000190c
è¯»å–åœ°å€ 0x8000190c
å†™å…¥åœ°å€ 0x8009cd7e
0x8000190c: 00 b7 80 23 sb	a1, 0(a5)
è¯»å–åœ°å€ 0x80001910
0x80001910: 00 17 87 93 addi	a5, a5, 1
è¯»å–åœ°å€ 0x80001914
0x80001914: fe e7 9c e3 bne	a5, a4, 0x8000190c
è¯»å–åœ°å€ 0x8000190c
å†™å…¥åœ°å€ 0x8009cd7f
0x8000190c: 00 b7 80 23 sb	a1, 0(a5)
è¯»å–åœ°å€ 0x80001910
0x80001910: 00 17 87 93 addi	a5, a5, 1
è¯»å–åœ°å€ 0x80001914
0x80001914: fe e7 9c e3 bne	a5, a4, 0x8000190c
è¯»å–åœ°å€ 0x8000190c
å†™å…¥åœ°å€ 0x8009cd80
0x8000190c: 00 b7 80 23 sb	a1, 0(a5)
è¯»å–åœ°å€ 0x80001910
0x80001910: 00 17 87 93 addi	a5, a5, 1
è¯»å–åœ°å€ 0x80001914
0x80001914: fe e7 9c e3 bne	a5, a4, 0x8000190c
è¯»å–åœ°å€ 0x8000190c
å†™å…¥åœ°å€ 0x8009cd81
0x8000190c: 00 b7 80 23 sb	a1, 0(a5)
è¯»å–åœ°å€ 0x80001910
0x80001910: 00 17 87 93 addi	a5, a5, 1
è¯»å–åœ°å€ 0x80001914
0x80001914: fe e7 9c e3 bne	a5, a4, 0x8000190c
è¯»å–åœ°å€ 0x8000190c
å†™å…¥åœ°å€ 0x8009cd82
0x8000190c: 00 b7 80 23 sb	a1, 0(a5)
è¯»å–åœ°å€ 0x80001910
0x80001910: 00 17 87 93 addi	a5, a5, 1
è¯»å–åœ°å€ 0x80001914
0x80001914: fe e7 9c e3 bne	a5, a4, 0x8000190c
è¯»å–åœ°å€ 0x8000190c
å†™å…¥åœ°å€ 0x8009cd83
0x8000190c: 00 b7 80 23 sb	a1, 0(a5)
è¯»å–åœ°å€ 0x80001910
0x80001910: 00 17 87 93 addi	a5, a5, 1
è¯»å–åœ°å€ 0x80001914
0x80001914: fe e7 9c e3 bne	a5, a4, 0x8000190c
è¯»å–åœ°å€ 0x8000190c
å†™å…¥åœ°å€ 0x8009cd84
0x8000190c: 00 b7 80 23 sb	a1, 0(a5)
è¯»å–åœ°å€ 0x80001910
0x80001910: 00 17 87 93 addi	a5, a5, 1
è¯»å–åœ°å€ 0x80001914
0x80001914: fe e7 9c e3 bne	a5, a4, 0x8000190c
è¯»å–åœ°å€ 0x8000190c
å†™å…¥åœ°å€ 0x8009cd85
0x8000190c: 00 b7 80 23 sb	a1, 0(a5)
è¯»å–åœ°å€ 0x80001910
0x80001910: 00 17 87 93 addi	a5, a5, 1
è¯»å–åœ°å€ 0x80001914
0x80001914: fe e7 9c e3 bne	a5, a4, 0x8000190c
è¯»å–åœ°å€ 0x8000190c
å†™å…¥åœ°å€ 0x8009cd86
0x8000190c: 00 b7 80 23 sb	a1, 0(a5)
è¯»å–åœ°å€ 0x80001910
0x80001910: 00 17 87 93 addi	a5, a5, 1
è¯»å–åœ°å€ 0x80001914
0x80001914: fe e7 9c e3 bne	a5, a4, 0x8000190c
è¯»å–åœ°å€ 0x8000190c
å†™å…¥åœ°å€ 0x8009cd87
0x8000190c: 00 b7 80 23 sb	a1, 0(a5)
è¯»å–åœ°å€ 0x80001910
0x80001910: 00 17 87 93 addi	a5, a5, 1
è¯»å–åœ°å€ 0x80001914
0x80001914: fe e7 9c e3 bne	a5, a4, 0x8000190c
è¯»å–åœ°å€ 0x8000190c
å†™å…¥åœ°å€ 0x8009cd88
0x8000190c: 00 b7 80 23 sb	a1, 0(a5)
è¯»å–åœ°å€ 0x80001910
0x80001910: 00 17 87 93 addi	a5, a5, 1
è¯»å–åœ°å€ 0x80001914
0x80001914: fe e7 9c e3 bne	a5, a4, 0x8000190c
è¯»å–åœ°å€ 0x8000190c
å†™å…¥åœ°å€ 0x8009cd89
0x8000190c: 00 b7 80 23 sb	a1, 0(a5)
è¯»å–åœ°å€ 0x80001910
0x80001910: 00 17 87 93 addi	a5, a5, 1
è¯»å–åœ°å€ 0x80001914
0x80001914: fe e7 9c e3 bne	a5, a4, 0x8000190c
è¯»å–åœ°å€ 0x8000190c
å†™å…¥åœ°å€ 0x8009cd8a
0x8000190c: 00 b7 80 23 sb	a1, 0(a5)
è¯»å–åœ°å€ 0x80001910
0x80001910: 00 17 87 93 addi	a5, a5, 1
è¯»å–åœ°å€ 0x80001914
0x80001914: fe e7 9c e3 bne	a5, a4, 0x8000190c
è¯»å–åœ°å€ 0x8000190c
å†™å…¥åœ°å€ 0x8009cd8b
0x8000190c: 00 b7 80 23 sb	a1, 0(a5)
è¯»å–åœ°å€ 0x80001910
0x80001910: 00 17 87 93 addi	a5, a5, 1
è¯»å–åœ°å€ 0x80001914
0x80001914: fe e7 9c e3 bne	a5, a4, 0x8000190c
è¯»å–åœ°å€ 0x8000190c
å†™å…¥åœ°å€ 0x8009cd8c
0x8000190c: 00 b7 80 23 sb	a1, 0(a5)
è¯»å–åœ°å€ 0x80001910
0x80001910: 00 17 87 93 addi	a5, a5, 1
è¯»å–åœ°å€ 0x80001914
0x80001914: fe e7 9c e3 bne	a5, a4, 0x8000190c
è¯»å–åœ°å€ 0x8000190c
å†™å…¥åœ°å€ 0x8009cd8d
0x8000190c: 00 b7 80 23 sb	a1, 0(a5)
è¯»å–åœ°å€ 0x80001910
0x80001910: 00 17 87 93 addi	a5, a5, 1
è¯»å–åœ°å€ 0x80001914
0x80001914: fe e7 9c e3 bne	a5, a4, 0x8000190c
è¯»å–åœ°å€ 0x8000190c
å†™å…¥åœ°å€ 0x8009cd8e
0x8000190c: 00 b7 80 23 sb	a1, 0(a5)
è¯»å–åœ°å€ 0x80001910
0x80001910: 00 17 87 93 addi	a5, a5, 1
è¯»å–åœ°å€ 0x80001914
0x80001914: fe e7 9c e3 bne	a5, a4, 0x8000190c
è¯»å–åœ°å€ 0x8000190c
å†™å…¥åœ°å€ 0x8009cd8f
0x8000190c: 00 b7 80 23 sb	a1, 0(a5)
è¯»å–åœ°å€ 0x80001910
0x80001910: 00 17 87 93 addi	a5, a5, 1
è¯»å–åœ°å€ 0x80001914
0x80001914: fe e7 9c e3 bne	a5, a4, 0x8000190c
è¯»å–åœ°å€ 0x8000190c
å†™å…¥åœ°å€ 0x8009cd90
0x8000190c: 00 b7 80 23 sb	a1, 0(a5)
è¯»å–åœ°å€ 0x80001910
0x80001910: 00 17 87 93 addi	a5, a5, 1
è¯»å–åœ°å€ 0x80001914
0x80001914: fe e7 9c e3 bne	a5, a4, 0x8000190c
è¯»å–åœ°å€ 0x8000190c
å†™å…¥åœ°å€ 0x8009cd91
0x8000190c: 00 b7 80 23 sb	a1, 0(a5)
è¯»å–åœ°å€ 0x80001910
0x80001910: 00 17 87 93 addi	a5, a5, 1
è¯»å–åœ°å€ 0x80001914
0x80001914: fe e7 9c e3 bne	a5, a4, 0x8000190c
è¯»å–åœ°å€ 0x8000190c
å†™å…¥åœ°å€ 0x8009cd92
0x8000190c: 00 b7 80 23 sb	a1, 0(a5)
è¯»å–åœ°å€ 0x80001910
0x80001910: 00 17 87 93 addi	a5, a5, 1
è¯»å–åœ°å€ 0x80001914
0x80001914: fe e7 9c e3 bne	a5, a4, 0x8000190c
è¯»å–åœ°å€ 0x8000190c
å†™å…¥åœ°å€ 0x8009cd93
0x8000190c: 00 b7 80 23 sb	a1, 0(a5)
è¯»å–åœ°å€ 0x80001910
0x80001910: 00 17 87 93 addi	a5, a5, 1
è¯»å–åœ°å€ 0x80001914
0x80001914: fe e7 9c e3 bne	a5, a4, 0x8000190c
è¯»å–åœ°å€ 0x8000190c
å†™å…¥åœ°å€ 0x8009cd94
0x8000190c: 00 b7 80 23 sb	a1, 0(a5)
è¯»å–åœ°å€ 0x80001910
0x80001910: 00 17 87 93 addi	a5, a5, 1
è¯»å–åœ°å€ 0x80001914
0x80001914: fe e7 9c e3 bne	a5, a4, 0x8000190c
è¯»å–åœ°å€ 0x8000190c
å†™å…¥åœ°å€ 0x8009cd95
0x8000190c: 00 b7 80 23 sb	a1, 0(a5)
è¯»å–åœ°å€ 0x80001910
0x80001910: 00 17 87 93 addi	a5, a5, 1
è¯»å–åœ°å€ 0x80001914
0x80001914: fe e7 9c e3 bne	a5, a4, 0x8000190c
è¯»å–åœ°å€ 0x8000190c
å†™å…¥åœ°å€ 0x8009cd96
0x8000190c: 00 b7 80 23 sb	a1, 0(a5)
è¯»å–åœ°å€ 0x80001910
0x80001910: 00 17 87 93 addi	a5, a5, 1
è¯»å–åœ°å€ 0x80001914
0x80001914: fe e7 9c e3 bne	a5, a4, 0x8000190c
è¯»å–åœ°å€ 0x8000190c
å†™å…¥åœ°å€ 0x8009cd97
0x8000190c: 00 b7 80 23 sb	a1, 0(a5)
è¯»å–åœ°å€ 0x80001910
0x80001910: 00 17 87 93 addi	a5, a5, 1
è¯»å–åœ°å€ 0x80001914
0x80001914: fe e7 9c e3 bne	a5, a4, 0x8000190c
è¯»å–åœ°å€ 0x8000190c
å†™å…¥åœ°å€ 0x8009cd98
0x8000190c: 00 b7 80 23 sb	a1, 0(a5)
è¯»å–åœ°å€ 0x80001910
0x80001910: 00 17 87 93 addi	a5, a5, 1
è¯»å–åœ°å€ 0x80001914
0x80001914: fe e7 9c e3 bne	a5, a4, 0x8000190c
è¯»å–åœ°å€ 0x8000190c
å†™å…¥åœ°å€ 0x8009cd99
0x8000190c: 00 b7 80 23 sb	a1, 0(a5)
è¯»å–åœ°å€ 0x80001910
0x80001910: 00 17 87 93 addi	a5, a5, 1
è¯»å–åœ°å€ 0x80001914
0x80001914: fe e7 9c e3 bne	a5, a4, 0x8000190c
è¯»å–åœ°å€ 0x8000190c
å†™å…¥åœ°å€ 0x8009cd9a
0x8000190c: 00 b7 80 23 sb	a1, 0(a5)
è¯»å–åœ°å€ 0x80001910
0x80001910: 00 17 87 93 addi	a5, a5, 1
è¯»å–åœ°å€ 0x80001914
0x80001914: fe e7 9c e3 bne	a5, a4, 0x8000190c
è¯»å–åœ°å€ 0x8000190c
å†™å…¥åœ°å€ 0x8009cd9b
0x8000190c: 00 b7 80 23 sb	a1, 0(a5)
è¯»å–åœ°å€ 0x80001910
0x80001910: 00 17 87 93 addi	a5, a5, 1
è¯»å–åœ°å€ 0x80001914
0x80001914: fe e7 9c e3 bne	a5, a4, 0x8000190c
è¯»å–åœ°å€ 0x8000190c
å†™å…¥åœ°å€ 0x8009cd9c
0x8000190c: 00 b7 80 23 sb	a1, 0(a5)
è¯»å–åœ°å€ 0x80001910
0x80001910: 00 17 87 93 addi	a5, a5, 1
è¯»å–åœ°å€ 0x80001914
0x80001914: fe e7 9c e3 bne	a5, a4, 0x8000190c
è¯»å–åœ°å€ 0x8000190c
å†™å…¥åœ°å€ 0x8009cd9d
0x8000190c: 00 b7 80 23 sb	a1, 0(a5)
è¯»å–åœ°å€ 0x80001910
0x80001910: 00 17 87 93 addi	a5, a5, 1
è¯»å–åœ°å€ 0x80001914
0x80001914: fe e7 9c e3 bne	a5, a4, 0x8000190c
è¯»å–åœ°å€ 0x8000190c
å†™å…¥åœ°å€ 0x8009cd9e
0x8000190c: 00 b7 80 23 sb	a1, 0(a5)
è¯»å–åœ°å€ 0x80001910
0x80001910: 00 17 87 93 addi	a5, a5, 1
è¯»å–åœ°å€ 0x80001914
0x80001914: fe e7 9c e3 bne	a5, a4, 0x8000190c
è¯»å–åœ°å€ 0x8000190c
å†™å…¥åœ°å€ 0x8009cd9f
0x8000190c: 00 b7 80 23 sb	a1, 0(a5)
è¯»å–åœ°å€ 0x80001910
0x80001910: 00 17 87 93 addi	a5, a5, 1
è¯»å–åœ°å€ 0x80001914
0x80001914: fe e7 9c e3 bne	a5, a4, 0x8000190c
è¯»å–åœ°å€ 0x8000190c
å†™å…¥åœ°å€ 0x8009cda0
0x8000190c: 00 b7 80 23 sb	a1, 0(a5)
è¯»å–åœ°å€ 0x80001910
0x80001910: 00 17 87 93 addi	a5, a5, 1
è¯»å–åœ°å€ 0x80001914
0x80001914: fe e7 9c e3 bne	a5, a4, 0x8000190c
è¯»å–åœ°å€ 0x8000190c
å†™å…¥åœ°å€ 0x8009cda1
0x8000190c: 00 b7 80 23 sb	a1, 0(a5)
è¯»å–åœ°å€ 0x80001910
0x80001910: 00 17 87 93 addi	a5, a5, 1
è¯»å–åœ°å€ 0x80001914
0x80001914: fe e7 9c e3 bne	a5, a4, 0x8000190c
è¯»å–åœ°å€ 0x8000190c
å†™å…¥åœ°å€ 0x8009cda2
0x8000190c: 00 b7 80 23 sb	a1, 0(a5)
è¯»å–åœ°å€ 0x80001910
0x80001910: 00 17 87 93 addi	a5, a5, 1
è¯»å–åœ°å€ 0x80001914
0x80001914: fe e7 9c e3 bne	a5, a4, 0x8000190c
è¯»å–åœ°å€ 0x8000190c
å†™å…¥åœ°å€ 0x8009cda3
0x8000190c: 00 b7 80 23 sb	a1, 0(a5)
è¯»å–åœ°å€ 0x80001910
0x80001910: 00 17 87 93 addi	a5, a5, 1
è¯»å–åœ°å€ 0x80001914
0x80001914: fe e7 9c e3 bne	a5, a4, 0x8000190c
è¯»å–åœ°å€ 0x8000190c
å†™å…¥åœ°å€ 0x8009cda4
0x8000190c: 00 b7 80 23 sb	a1, 0(a5)
è¯»å–åœ°å€ 0x80001910
0x80001910: 00 17 87 93 addi	a5, a5, 1
è¯»å–åœ°å€ 0x80001914
0x80001914: fe e7 9c e3 bne	a5, a4, 0x8000190c
è¯»å–åœ°å€ 0x8000190c
å†™å…¥åœ°å€ 0x8009cda5
0x8000190c: 00 b7 80 23 sb	a1, 0(a5)
è¯»å–åœ°å€ 0x80001910
0x80001910: 00 17 87 93 addi	a5, a5, 1
è¯»å–åœ°å€ 0x80001914
0x80001914: fe e7 9c e3 bne	a5, a4, 0x8000190c
è¯»å–åœ°å€ 0x8000190c
å†™å…¥åœ°å€ 0x8009cda6
0x8000190c: 00 b7 80 23 sb	a1, 0(a5)
è¯»å–åœ°å€ 0x80001910
0x80001910: 00 17 87 93 addi	a5, a5, 1
è¯»å–åœ°å€ 0x80001914
0x80001914: fe e7 9c e3 bne	a5, a4, 0x8000190c
è¯»å–åœ°å€ 0x8000190c
å†™å…¥åœ°å€ 0x8009cda7
0x8000190c: 00 b7 80 23 sb	a1, 0(a5)
è¯»å–åœ°å€ 0x80001910
0x80001910: 00 17 87 93 addi	a5, a5, 1
è¯»å–åœ°å€ 0x80001914
0x80001914: fe e7 9c e3 bne	a5, a4, 0x8000190c
è¯»å–åœ°å€ 0x8000190c
å†™å…¥åœ°å€ 0x8009cda8
0x8000190c: 00 b7 80 23 sb	a1, 0(a5)
è¯»å–åœ°å€ 0x80001910
0x80001910: 00 17 87 93 addi	a5, a5, 1
è¯»å–åœ°å€ 0x80001914
0x80001914: fe e7 9c e3 bne	a5, a4, 0x8000190c
è¯»å–åœ°å€ 0x8000190c
å†™å…¥åœ°å€ 0x8009cda9
0x8000190c: 00 b7 80 23 sb	a1, 0(a5)
è¯»å–åœ°å€ 0x80001910
0x80001910: 00 17 87 93 addi	a5, a5, 1
è¯»å–åœ°å€ 0x80001914
0x80001914: fe e7 9c e3 bne	a5, a4, 0x8000190c
è¯»å–åœ°å€ 0x8000190c
å†™å…¥åœ°å€ 0x8009cdaa
0x8000190c: 00 b7 80 23 sb	a1, 0(a5)
è¯»å–åœ°å€ 0x80001910
0x80001910: 00 17 87 93 addi	a5, a5, 1
è¯»å–åœ°å€ 0x80001914
0x80001914: fe e7 9c e3 bne	a5, a4, 0x8000190c
è¯»å–åœ°å€ 0x8000190c
å†™å…¥åœ°å€ 0x8009cdab
0x8000190c: 00 b7 80 23 sb	a1, 0(a5)
è¯»å–åœ°å€ 0x80001910
0x80001910: 00 17 87 93 addi	a5, a5, 1
è¯»å–åœ°å€ 0x80001914
0x80001914: fe e7 9c e3 bne	a5, a4, 0x8000190c
è¯»å–åœ°å€ 0x8000190c
å†™å…¥åœ°å€ 0x8009cdac
0x8000190c: 00 b7 80 23 sb	a1, 0(a5)
è¯»å–åœ°å€ 0x80001910
0x80001910: 00 17 87 93 addi	a5, a5, 1
è¯»å–åœ°å€ 0x80001914
0x80001914: fe e7 9c e3 bne	a5, a4, 0x8000190c
è¯»å–åœ°å€ 0x8000190c
å†™å…¥åœ°å€ 0x8009cdad
0x8000190c: 00 b7 80 23 sb	a1, 0(a5)
è¯»å–åœ°å€ 0x80001910
0x80001910: 00 17 87 93 addi	a5, a5, 1
è¯»å–åœ°å€ 0x80001914
0x80001914: fe e7 9c e3 bne	a5, a4, 0x8000190c
è¯»å–åœ°å€ 0x8000190c
å†™å…¥åœ°å€ 0x8009cdae
0x8000190c: 00 b7 80 23 sb	a1, 0(a5)
è¯»å–åœ°å€ 0x80001910
0x80001910: 00 17 87 93 addi	a5, a5, 1
è¯»å–åœ°å€ 0x80001914
0x80001914: fe e7 9c e3 bne	a5, a4, 0x8000190c
è¯»å–åœ°å€ 0x8000190c
å†™å…¥åœ°å€ 0x8009cdaf
0x8000190c: 00 b7 80 23 sb	a1, 0(a5)
è¯»å–åœ°å€ 0x80001910
0x80001910: 00 17 87 93 addi	a5, a5, 1
è¯»å–åœ°å€ 0x80001914
0x80001914: fe e7 9c e3 bne	a5, a4, 0x8000190c
è¯»å–åœ°å€ 0x8000190c
å†™å…¥åœ°å€ 0x8009cdb0
0x8000190c: 00 b7 80 23 sb	a1, 0(a5)
è¯»å–åœ°å€ 0x80001910
0x80001910: 00 17 87 93 addi	a5, a5, 1
è¯»å–åœ°å€ 0x80001914
0x80001914: fe e7 9c e3 bne	a5, a4, 0x8000190c
è¯»å–åœ°å€ 0x8000190c
å†™å…¥åœ°å€ 0x8009cdb1
0x8000190c: 00 b7 80 23 sb	a1, 0(a5)
è¯»å–åœ°å€ 0x80001910
0x80001910: 00 17 87 93 addi	a5, a5, 1
è¯»å–åœ°å€ 0x80001914
0x80001914: fe e7 9c e3 bne	a5, a4, 0x8000190c
è¯»å–åœ°å€ 0x8000190c
å†™å…¥åœ°å€ 0x8009cdb2
0x8000190c: 00 b7 80 23 sb	a1, 0(a5)
è¯»å–åœ°å€ 0x80001910
0x80001910: 00 17 87 93 addi	a5, a5, 1
è¯»å–åœ°å€ 0x80001914
0x80001914: fe e7 9c e3 bne	a5, a4, 0x8000190c
è¯»å–åœ°å€ 0x8000190c
å†™å…¥åœ°å€ 0x8009cdb3
0x8000190c: 00 b7 80 23 sb	a1, 0(a5)
è¯»å–åœ°å€ 0x80001910
0x80001910: 00 17 87 93 addi	a5, a5, 1
è¯»å–åœ°å€ 0x80001914
0x80001914: fe e7 9c e3 bne	a5, a4, 0x8000190c
è¯»å–åœ°å€ 0x8000190c
å†™å…¥åœ°å€ 0x8009cdb4
0x8000190c: 00 b7 80 23 sb	a1, 0(a5)
è¯»å–åœ°å€ 0x80001910
0x80001910: 00 17 87 93 addi	a5, a5, 1
è¯»å–åœ°å€ 0x80001914
0x80001914: fe e7 9c e3 bne	a5, a4, 0x8000190c
è¯»å–åœ°å€ 0x8000190c
å†™å…¥åœ°å€ 0x8009cdb5
0x8000190c: 00 b7 80 23 sb	a1, 0(a5)
è¯»å–åœ°å€ 0x80001910
0x80001910: 00 17 87 93 addi	a5, a5, 1
è¯»å–åœ°å€ 0x80001914
0x80001914: fe e7 9c e3 bne	a5, a4, 0x8000190c
è¯»å–åœ°å€ 0x8000190c
å†™å…¥åœ°å€ 0x8009cdb6
0x8000190c: 00 b7 80 23 sb	a1, 0(a5)
è¯»å–åœ°å€ 0x80001910
0x80001910: 00 17 87 93 addi	a5, a5, 1
è¯»å–åœ°å€ 0x80001914
0x80001914: fe e7 9c e3 bne	a5, a4, 0x8000190c
è¯»å–åœ°å€ 0x8000190c
å†™å…¥åœ°å€ 0x8009cdb7
0x8000190c: 00 b7 80 23 sb	a1, 0(a5)
è¯»å–åœ°å€ 0x80001910
0x80001910: 00 17 87 93 addi	a5, a5, 1
è¯»å–åœ°å€ 0x80001914
0x80001914: fe e7 9c e3 bne	a5, a4, 0x8000190c
è¯»å–åœ°å€ 0x8000190c
å†™å…¥åœ°å€ 0x8009cdb8
0x8000190c: 00 b7 80 23 sb	a1, 0(a5)
è¯»å–åœ°å€ 0x80001910
0x80001910: 00 17 87 93 addi	a5, a5, 1
è¯»å–åœ°å€ 0x80001914
0x80001914: fe e7 9c e3 bne	a5, a4, 0x8000190c
è¯»å–åœ°å€ 0x8000190c
å†™å…¥åœ°å€ 0x8009cdb9
0x8000190c: 00 b7 80 23 sb	a1, 0(a5)
è¯»å–åœ°å€ 0x80001910
0x80001910: 00 17 87 93 addi	a5, a5, 1
è¯»å–åœ°å€ 0x80001914
0x80001914: fe e7 9c e3 bne	a5, a4, 0x8000190c
è¯»å–åœ°å€ 0x8000190c
å†™å…¥åœ°å€ 0x8009cdba
0x8000190c: 00 b7 80 23 sb	a1, 0(a5)
è¯»å–åœ°å€ 0x80001910
0x80001910: 00 17 87 93 addi	a5, a5, 1
è¯»å–åœ°å€ 0x80001914
0x80001914: fe e7 9c e3 bne	a5, a4, 0x8000190c
è¯»å–åœ°å€ 0x8000190c
å†™å…¥åœ°å€ 0x8009cdbb
0x8000190c: 00 b7 80 23 sb	a1, 0(a5)
è¯»å–åœ°å€ 0x80001910
0x80001910: 00 17 87 93 addi	a5, a5, 1
è¯»å–åœ°å€ 0x80001914
0x80001914: fe e7 9c e3 bne	a5, a4, 0x8000190c
è¯»å–åœ°å€ 0x8000190c
å†™å…¥åœ°å€ 0x8009cdbc
0x8000190c: 00 b7 80 23 sb	a1, 0(a5)
è¯»å–åœ°å€ 0x80001910
0x80001910: 00 17 87 93 addi	a5, a5, 1
è¯»å–åœ°å€ 0x80001914
0x80001914: fe e7 9c e3 bne	a5, a4, 0x8000190c
è¯»å–åœ°å€ 0x8000190c
å†™å…¥åœ°å€ 0x8009cdbd
0x8000190c: 00 b7 80 23 sb	a1, 0(a5)
è¯»å–åœ°å€ 0x80001910
0x80001910: 00 17 87 93 addi	a5, a5, 1
è¯»å–åœ°å€ 0x80001914
0x80001914: fe e7 9c e3 bne	a5, a4, 0x8000190c
è¯»å–åœ°å€ 0x8000190c
å†™å…¥åœ°å€ 0x8009cdbe
0x8000190c: 00 b7 80 23 sb	a1, 0(a5)
è¯»å–åœ°å€ 0x80001910
0x80001910: 00 17 87 93 addi	a5, a5, 1
è¯»å–åœ°å€ 0x80001914
0x80001914: fe e7 9c e3 bne	a5, a4, 0x8000190c
è¯»å–åœ°å€ 0x8000190c
å†™å…¥åœ°å€ 0x8009cdbf
0x8000190c: 00 b7 80 23 sb	a1, 0(a5)
è¯»å–åœ°å€ 0x80001910
0x80001910: 00 17 87 93 addi	a5, a5, 1
è¯»å–åœ°å€ 0x80001914
0x80001914: fe e7 9c e3 bne	a5, a4, 0x8000190c
è¯»å–åœ°å€ 0x8000190c
å†™å…¥åœ°å€ 0x8009cdc0
0x8000190c: 00 b7 80 23 sb	a1, 0(a5)
è¯»å–åœ°å€ 0x80001910
0x80001910: 00 17 87 93 addi	a5, a5, 1
è¯»å–åœ°å€ 0x80001914
0x80001914: fe e7 9c e3 bne	a5, a4, 0x8000190c
è¯»å–åœ°å€ 0x8000190c
å†™å…¥åœ°å€ 0x8009cdc1
0x8000190c: 00 b7 80 23 sb	a1, 0(a5)
è¯»å–åœ°å€ 0x80001910
0x80001910: 00 17 87 93 addi	a5, a5, 1
è¯»å–åœ°å€ 0x80001914
0x80001914: fe e7 9c e3 bne	a5, a4, 0x8000190c
è¯»å–åœ°å€ 0x8000190c
å†™å…¥åœ°å€ 0x8009cdc2
0x8000190c: 00 b7 80 23 sb	a1, 0(a5)
è¯»å–åœ°å€ 0x80001910
0x80001910: 00 17 87 93 addi	a5, a5, 1
è¯»å–åœ°å€ 0x80001914
0x80001914: fe e7 9c e3 bne	a5, a4, 0x8000190c
è¯»å–åœ°å€ 0x8000190c
å†™å…¥åœ°å€ 0x8009cdc3
0x8000190c: 00 b7 80 23 sb	a1, 0(a5)
è¯»å–åœ°å€ 0x80001910
0x80001910: 00 17 87 93 addi	a5, a5, 1
è¯»å–åœ°å€ 0x80001914
0x80001914: fe e7 9c e3 bne	a5, a4, 0x8000190c
è¯»å–åœ°å€ 0x8000190c
å†™å…¥åœ°å€ 0x8009cdc4
0x8000190c: 00 b7 80 23 sb	a1, 0(a5)
è¯»å–åœ°å€ 0x80001910
0x80001910: 00 17 87 93 addi	a5, a5, 1
è¯»å–åœ°å€ 0x80001914
0x80001914: fe e7 9c e3 bne	a5, a4, 0x8000190c
è¯»å–åœ°å€ 0x8000190c
å†™å…¥åœ°å€ 0x8009cdc5
0x8000190c: 00 b7 80 23 sb	a1, 0(a5)
è¯»å–åœ°å€ 0x80001910
0x80001910: 00 17 87 93 addi	a5, a5, 1
è¯»å–åœ°å€ 0x80001914
0x80001914: fe e7 9c e3 bne	a5, a4, 0x8000190c
è¯»å–åœ°å€ 0x8000190c
å†™å…¥åœ°å€ 0x8009cdc6
0x8000190c: 00 b7 80 23 sb	a1, 0(a5)
è¯»å–åœ°å€ 0x80001910
0x80001910: 00 17 87 93 addi	a5, a5, 1
è¯»å–åœ°å€ 0x80001914
0x80001914: fe e7 9c e3 bne	a5, a4, 0x8000190c
è¯»å–åœ°å€ 0x8000190c
å†™å…¥åœ°å€ 0x8009cdc7
0x8000190c: 00 b7 80 23 sb	a1, 0(a5)
è¯»å–åœ°å€ 0x80001910
0x80001910: 00 17 87 93 addi	a5, a5, 1
è¯»å–åœ°å€ 0x80001914
0x80001914: fe e7 9c e3 bne	a5, a4, 0x8000190c
è¯»å–åœ°å€ 0x8000190c
å†™å…¥åœ°å€ 0x8009cdc8
0x8000190c: 00 b7 80 23 sb	a1, 0(a5)
è¯»å–åœ°å€ 0x80001910
0x80001910: 00 17 87 93 addi	a5, a5, 1
è¯»å–åœ°å€ 0x80001914
0x80001914: fe e7 9c e3 bne	a5, a4, 0x8000190c
è¯»å–åœ°å€ 0x8000190c
å†™å…¥åœ°å€ 0x8009cdc9
0x8000190c: 00 b7 80 23 sb	a1, 0(a5)
è¯»å–åœ°å€ 0x80001910
0x80001910: 00 17 87 93 addi	a5, a5, 1
è¯»å–åœ°å€ 0x80001914
0x80001914: fe e7 9c e3 bne	a5, a4, 0x8000190c
è¯»å–åœ°å€ 0x8000190c
å†™å…¥åœ°å€ 0x8009cdca
0x8000190c: 00 b7 80 23 sb	a1, 0(a5)
è¯»å–åœ°å€ 0x80001910
0x80001910: 00 17 87 93 addi	a5, a5, 1
è¯»å–åœ°å€ 0x80001914
0x80001914: fe e7 9c e3 bne	a5, a4, 0x8000190c
è¯»å–åœ°å€ 0x8000190c
å†™å…¥åœ°å€ 0x8009cdcb
0x8000190c: 00 b7 80 23 sb	a1, 0(a5)
è¯»å–åœ°å€ 0x80001910
0x80001910: 00 17 87 93 addi	a5, a5, 1
è¯»å–åœ°å€ 0x80001914
0x80001914: fe e7 9c e3 bne	a5, a4, 0x8000190c
è¯»å–åœ°å€ 0x8000190c
å†™å…¥åœ°å€ 0x8009cdcc
0x8000190c: 00 b7 80 23 sb	a1, 0(a5)
è¯»å–åœ°å€ 0x80001910
0x80001910: 00 17 87 93 addi	a5, a5, 1
è¯»å–åœ°å€ 0x80001914
0x80001914: fe e7 9c e3 bne	a5, a4, 0x8000190c
è¯»å–åœ°å€ 0x8000190c
å†™å…¥åœ°å€ 0x8009cdcd
0x8000190c: 00 b7 80 23 sb	a1, 0(a5)
è¯»å–åœ°å€ 0x80001910
0x80001910: 00 17 87 93 addi	a5, a5, 1
è¯»å–åœ°å€ 0x80001914
0x80001914: fe e7 9c e3 bne	a5, a4, 0x8000190c
è¯»å–åœ°å€ 0x8000190c
å†™å…¥åœ°å€ 0x8009cdce
0x8000190c: 00 b7 80 23 sb	a1, 0(a5)
è¯»å–åœ°å€ 0x80001910
0x80001910: 00 17 87 93 addi	a5, a5, 1
è¯»å–åœ°å€ 0x80001914
0x80001914: fe e7 9c e3 bne	a5, a4, 0x8000190c
è¯»å–åœ°å€ 0x8000190c
å†™å…¥åœ°å€ 0x8009cdcf
0x8000190c: 00 b7 80 23 sb	a1, 0(a5)
è¯»å–åœ°å€ 0x80001910
0x80001910: 00 17 87 93 addi	a5, a5, 1
è¯»å–åœ°å€ 0x80001914
0x80001914: fe e7 9c e3 bne	a5, a4, 0x8000190c
è¯»å–åœ°å€ 0x8000190c
å†™å…¥åœ°å€ 0x8009cdd0
0x8000190c: 00 b7 80 23 sb	a1, 0(a5)
è¯»å–åœ°å€ 0x80001910
0x80001910: 00 17 87 93 addi	a5, a5, 1
è¯»å–åœ°å€ 0x80001914
0x80001914: fe e7 9c e3 bne	a5, a4, 0x8000190c
è¯»å–åœ°å€ 0x8000190c
å†™å…¥åœ°å€ 0x8009cdd1
0x8000190c: 00 b7 80 23 sb	a1, 0(a5)
è¯»å–åœ°å€ 0x80001910
0x80001910: 00 17 87 93 addi	a5, a5, 1
è¯»å–åœ°å€ 0x80001914
0x80001914: fe e7 9c e3 bne	a5, a4, 0x8000190c
è¯»å–åœ°å€ 0x8000190c
å†™å…¥åœ°å€ 0x8009cdd2
0x8000190c: 00 b7 80 23 sb	a1, 0(a5)
è¯»å–åœ°å€ 0x80001910
0x80001910: 00 17 87 93 addi	a5, a5, 1
è¯»å–åœ°å€ 0x80001914
0x80001914: fe e7 9c e3 bne	a5, a4, 0x8000190c
è¯»å–åœ°å€ 0x8000190c
å†™å…¥åœ°å€ 0x8009cdd3
0x8000190c: 00 b7 80 23 sb	a1, 0(a5)
è¯»å–åœ°å€ 0x80001910
0x80001910: 00 17 87 93 addi	a5, a5, 1
è¯»å–åœ°å€ 0x80001914
0x80001914: fe e7 9c e3 bne	a5, a4, 0x8000190c
è¯»å–åœ°å€ 0x8000190c
å†™å…¥åœ°å€ 0x8009cdd4
0x8000190c: 00 b7 80 23 sb	a1, 0(a5)
è¯»å–åœ°å€ 0x80001910
0x80001910: 00 17 87 93 addi	a5, a5, 1
è¯»å–åœ°å€ 0x80001914
0x80001914: fe e7 9c e3 bne	a5, a4, 0x8000190c
è¯»å–åœ°å€ 0x8000190c
å†™å…¥åœ°å€ 0x8009cdd5
0x8000190c: 00 b7 80 23 sb	a1, 0(a5)
è¯»å–åœ°å€ 0x80001910
0x80001910: 00 17 87 93 addi	a5, a5, 1
è¯»å–åœ°å€ 0x80001914
0x80001914: fe e7 9c e3 bne	a5, a4, 0x8000190c
è¯»å–åœ°å€ 0x8000190c
å†™å…¥åœ°å€ 0x8009cdd6
0x8000190c: 00 b7 80 23 sb	a1, 0(a5)
è¯»å–åœ°å€ 0x80001910
0x80001910: 00 17 87 93 addi	a5, a5, 1
è¯»å–åœ°å€ 0x80001914
0x80001914: fe e7 9c e3 bne	a5, a4, 0x8000190c
è¯»å–åœ°å€ 0x8000190c
å†™å…¥åœ°å€ 0x8009cdd7
0x8000190c: 00 b7 80 23 sb	a1, 0(a5)
è¯»å–åœ°å€ 0x80001910
0x80001910: 00 17 87 93 addi	a5, a5, 1
è¯»å–åœ°å€ 0x80001914
0x80001914: fe e7 9c e3 bne	a5, a4, 0x8000190c
è¯»å–åœ°å€ 0x8000190c
å†™å…¥åœ°å€ 0x8009cdd8
0x8000190c: 00 b7 80 23 sb	a1, 0(a5)
è¯»å–åœ°å€ 0x80001910
0x80001910: 00 17 87 93 addi	a5, a5, 1
è¯»å–åœ°å€ 0x80001914
0x80001914: fe e7 9c e3 bne	a5, a4, 0x8000190c
è¯»å–åœ°å€ 0x8000190c
å†™å…¥åœ°å€ 0x8009cdd9
0x8000190c: 00 b7 80 23 sb	a1, 0(a5)
è¯»å–åœ°å€ 0x80001910
0x80001910: 00 17 87 93 addi	a5, a5, 1
è¯»å–åœ°å€ 0x80001914
0x80001914: fe e7 9c e3 bne	a5, a4, 0x8000190c
è¯»å–åœ°å€ 0x8000190c
å†™å…¥åœ°å€ 0x8009cdda
0x8000190c: 00 b7 80 23 sb	a1, 0(a5)
è¯»å–åœ°å€ 0x80001910
0x80001910: 00 17 87 93 addi	a5, a5, 1
è¯»å–åœ°å€ 0x80001914
0x80001914: fe e7 9c e3 bne	a5, a4, 0x8000190c
è¯»å–åœ°å€ 0x8000190c
å†™å…¥åœ°å€ 0x8009cddb
0x8000190c: 00 b7 80 23 sb	a1, 0(a5)
è¯»å–åœ°å€ 0x80001910
0x80001910: 00 17 87 93 addi	a5, a5, 1
è¯»å–åœ°å€ 0x80001914
0x80001914: fe e7 9c e3 bne	a5, a4, 0x8000190c
è¯»å–åœ°å€ 0x8000190c
å†™å…¥åœ°å€ 0x8009cddc
0x8000190c: 00 b7 80 23 sb	a1, 0(a5)
è¯»å–åœ°å€ 0x80001910
0x80001910: 00 17 87 93 addi	a5, a5, 1
è¯»å–åœ°å€ 0x80001914
0x80001914: fe e7 9c e3 bne	a5, a4, 0x8000190c
è¯»å–åœ°å€ 0x8000190c
å†™å…¥åœ°å€ 0x8009cddd
0x8000190c: 00 b7 80 23 sb	a1, 0(a5)
è¯»å–åœ°å€ 0x80001910
0x80001910: 00 17 87 93 addi	a5, a5, 1
è¯»å–åœ°å€ 0x80001914
0x80001914: fe e7 9c e3 bne	a5, a4, 0x8000190c
è¯»å–åœ°å€ 0x8000190c
å†™å…¥åœ°å€ 0x8009cdde
0x8000190c: 00 b7 80 23 sb	a1, 0(a5)
è¯»å–åœ°å€ 0x80001910
0x80001910: 00 17 87 93 addi	a5, a5, 1
è¯»å–åœ°å€ 0x80001914
0x80001914: fe e7 9c e3 bne	a5, a4, 0x8000190c
è¯»å–åœ°å€ 0x8000190c
å†™å…¥åœ°å€ 0x8009cddf
0x8000190c: 00 b7 80 23 sb	a1, 0(a5)
è¯»å–åœ°å€ 0x80001910
0x80001910: 00 17 87 93 addi	a5, a5, 1
è¯»å–åœ°å€ 0x80001914
0x80001914: fe e7 9c e3 bne	a5, a4, 0x8000190c
è¯»å–åœ°å€ 0x8000190c
å†™å…¥åœ°å€ 0x8009cde0
0x8000190c: 00 b7 80 23 sb	a1, 0(a5)
è¯»å–åœ°å€ 0x80001910
0x80001910: 00 17 87 93 addi	a5, a5, 1
è¯»å–åœ°å€ 0x80001914
0x80001914: fe e7 9c e3 bne	a5, a4, 0x8000190c
è¯»å–åœ°å€ 0x8000190c
å†™å…¥åœ°å€ 0x8009cde1
0x8000190c: 00 b7 80 23 sb	a1, 0(a5)
è¯»å–åœ°å€ 0x80001910
0x80001910: 00 17 87 93 addi	a5, a5, 1
è¯»å–åœ°å€ 0x80001914
0x80001914: fe e7 9c e3 bne	a5, a4, 0x8000190c
è¯»å–åœ°å€ 0x8000190c
å†™å…¥åœ°å€ 0x8009cde2
0x8000190c: 00 b7 80 23 sb	a1, 0(a5)
è¯»å–åœ°å€ 0x80001910
0x80001910: 00 17 87 93 addi	a5, a5, 1
è¯»å–åœ°å€ 0x80001914
0x80001914: fe e7 9c e3 bne	a5, a4, 0x8000190c
è¯»å–åœ°å€ 0x8000190c
å†™å…¥åœ°å€ 0x8009cde3
0x8000190c: 00 b7 80 23 sb	a1, 0(a5)
è¯»å–åœ°å€ 0x80001910
0x80001910: 00 17 87 93 addi	a5, a5, 1
è¯»å–åœ°å€ 0x80001914
0x80001914: fe e7 9c e3 bne	a5, a4, 0x8000190c
è¯»å–åœ°å€ 0x8000190c
å†™å…¥åœ°å€ 0x8009cde4
0x8000190c: 00 b7 80 23 sb	a1, 0(a5)
è¯»å–åœ°å€ 0x80001910
0x80001910: 00 17 87 93 addi	a5, a5, 1
è¯»å–åœ°å€ 0x80001914
0x80001914: fe e7 9c e3 bne	a5, a4, 0x8000190c
è¯»å–åœ°å€ 0x8000190c
å†™å…¥åœ°å€ 0x8009cde5
0x8000190c: 00 b7 80 23 sb	a1, 0(a5)
è¯»å–åœ°å€ 0x80001910
0x80001910: 00 17 87 93 addi	a5, a5, 1
è¯»å–åœ°å€ 0x80001914
0x80001914: fe e7 9c e3 bne	a5, a4, 0x8000190c
è¯»å–åœ°å€ 0x8000190c
å†™å…¥åœ°å€ 0x8009cde6
0x8000190c: 00 b7 80 23 sb	a1, 0(a5)
è¯»å–åœ°å€ 0x80001910
0x80001910: 00 17 87 93 addi	a5, a5, 1
è¯»å–åœ°å€ 0x80001914
0x80001914: fe e7 9c e3 bne	a5, a4, 0x8000190c
è¯»å–åœ°å€ 0x8000190c
å†™å…¥åœ°å€ 0x8009cde7
0x8000190c: 00 b7 80 23 sb	a1, 0(a5)
è¯»å–åœ°å€ 0x80001910
0x80001910: 00 17 87 93 addi	a5, a5, 1
è¯»å–åœ°å€ 0x80001914
0x80001914: fe e7 9c e3 bne	a5, a4, 0x8000190c
è¯»å–åœ°å€ 0x8000190c
å†™å…¥åœ°å€ 0x8009cde8
0x8000190c: 00 b7 80 23 sb	a1, 0(a5)
è¯»å–åœ°å€ 0x80001910
0x80001910: 00 17 87 93 addi	a5, a5, 1
è¯»å–åœ°å€ 0x80001914
0x80001914: fe e7 9c e3 bne	a5, a4, 0x8000190c
è¯»å–åœ°å€ 0x8000190c
å†™å…¥åœ°å€ 0x8009cde9
0x8000190c: 00 b7 80 23 sb	a1, 0(a5)
è¯»å–åœ°å€ 0x80001910
0x80001910: 00 17 87 93 addi	a5, a5, 1
è¯»å–åœ°å€ 0x80001914
0x80001914: fe e7 9c e3 bne	a5, a4, 0x8000190c
è¯»å–åœ°å€ 0x8000190c
å†™å…¥åœ°å€ 0x8009cdea
0x8000190c: 00 b7 80 23 sb	a1, 0(a5)
è¯»å–åœ°å€ 0x80001910
0x80001910: 00 17 87 93 addi	a5, a5, 1
è¯»å–åœ°å€ 0x80001914
0x80001914: fe e7 9c e3 bne	a5, a4, 0x8000190c
è¯»å–åœ°å€ 0x8000190c
å†™å…¥åœ°å€ 0x8009cdeb
0x8000190c: 00 b7 80 23 sb	a1, 0(a5)
è¯»å–åœ°å€ 0x80001910
0x80001910: 00 17 87 93 addi	a5, a5, 1
è¯»å–åœ°å€ 0x80001914
0x80001914: fe e7 9c e3 bne	a5, a4, 0x8000190c
è¯»å–åœ°å€ 0x8000190c
å†™å…¥åœ°å€ 0x8009cdec
0x8000190c: 00 b7 80 23 sb	a1, 0(a5)
è¯»å–åœ°å€ 0x80001910
0x80001910: 00 17 87 93 addi	a5, a5, 1
è¯»å–åœ°å€ 0x80001914
0x80001914: fe e7 9c e3 bne	a5, a4, 0x8000190c
è¯»å–åœ°å€ 0x8000190c
å†™å…¥åœ°å€ 0x8009cded
0x8000190c: 00 b7 80 23 sb	a1, 0(a5)
è¯»å–åœ°å€ 0x80001910
0x80001910: 00 17 87 93 addi	a5, a5, 1
è¯»å–åœ°å€ 0x80001914
0x80001914: fe e7 9c e3 bne	a5, a4, 0x8000190c
è¯»å–åœ°å€ 0x8000190c
å†™å…¥åœ°å€ 0x8009cdee
0x8000190c: 00 b7 80 23 sb	a1, 0(a5)
è¯»å–åœ°å€ 0x80001910
0x80001910: 00 17 87 93 addi	a5, a5, 1
è¯»å–åœ°å€ 0x80001914
0x80001914: fe e7 9c e3 bne	a5, a4, 0x8000190c
è¯»å–åœ°å€ 0x8000190c
å†™å…¥åœ°å€ 0x8009cdef
0x8000190c: 00 b7 80 23 sb	a1, 0(a5)
è¯»å–åœ°å€ 0x80001910
0x80001910: 00 17 87 93 addi	a5, a5, 1
è¯»å–åœ°å€ 0x80001914
0x80001914: fe e7 9c e3 bne	a5, a4, 0x8000190c
è¯»å–åœ°å€ 0x8000190c
å†™å…¥åœ°å€ 0x8009cdf0
0x8000190c: 00 b7 80 23 sb	a1, 0(a5)
è¯»å–åœ°å€ 0x80001910
0x80001910: 00 17 87 93 addi	a5, a5, 1
è¯»å–åœ°å€ 0x80001914
0x80001914: fe e7 9c e3 bne	a5, a4, 0x8000190c
è¯»å–åœ°å€ 0x8000190c
å†™å…¥åœ°å€ 0x8009cdf1
0x8000190c: 00 b7 80 23 sb	a1, 0(a5)
è¯»å–åœ°å€ 0x80001910
0x80001910: 00 17 87 93 addi	a5, a5, 1
è¯»å–åœ°å€ 0x80001914
0x80001914: fe e7 9c e3 bne	a5, a4, 0x8000190c
è¯»å–åœ°å€ 0x8000190c
å†™å…¥åœ°å€ 0x8009cdf2
0x8000190c: 00 b7 80 23 sb	a1, 0(a5)
è¯»å–åœ°å€ 0x80001910
0x80001910: 00 17 87 93 addi	a5, a5, 1
è¯»å–åœ°å€ 0x80001914
0x80001914: fe e7 9c e3 bne	a5, a4, 0x8000190c
è¯»å–åœ°å€ 0x8000190c
å†™å…¥åœ°å€ 0x8009cdf3
0x8000190c: 00 b7 80 23 sb	a1, 0(a5)
è¯»å–åœ°å€ 0x80001910
0x80001910: 00 17 87 93 addi	a5, a5, 1
è¯»å–åœ°å€ 0x80001914
0x80001914: fe e7 9c e3 bne	a5, a4, 0x8000190c
è¯»å–åœ°å€ 0x8000190c
å†™å…¥åœ°å€ 0x8009cdf4
0x8000190c: 00 b7 80 23 sb	a1, 0(a5)
è¯»å–åœ°å€ 0x80001910
0x80001910: 00 17 87 93 addi	a5, a5, 1
è¯»å–åœ°å€ 0x80001914
0x80001914: fe e7 9c e3 bne	a5, a4, 0x8000190c
è¯»å–åœ°å€ 0x8000190c
å†™å…¥åœ°å€ 0x8009cdf5
0x8000190c: 00 b7 80 23 sb	a1, 0(a5)
è¯»å–åœ°å€ 0x80001910
0x80001910: 00 17 87 93 addi	a5, a5, 1
è¯»å–åœ°å€ 0x80001914
0x80001914: fe e7 9c e3 bne	a5, a4, 0x8000190c
è¯»å–åœ°å€ 0x8000190c
å†™å…¥åœ°å€ 0x8009cdf6
0x8000190c: 00 b7 80 23 sb	a1, 0(a5)
è¯»å–åœ°å€ 0x80001910
0x80001910: 00 17 87 93 addi	a5, a5, 1
è¯»å–åœ°å€ 0x80001914
0x80001914: fe e7 9c e3 bne	a5, a4, 0x8000190c
è¯»å–åœ°å€ 0x8000190c
å†™å…¥åœ°å€ 0x8009cdf7
0x8000190c: 00 b7 80 23 sb	a1, 0(a5)
è¯»å–åœ°å€ 0x80001910
0x80001910: 00 17 87 93 addi	a5, a5, 1
è¯»å–åœ°å€ 0x80001914
0x80001914: fe e7 9c e3 bne	a5, a4, 0x8000190c
è¯»å–åœ°å€ 0x8000190c
å†™å…¥åœ°å€ 0x8009cdf8
0x8000190c: 00 b7 80 23 sb	a1, 0(a5)
è¯»å–åœ°å€ 0x80001910
0x80001910: 00 17 87 93 addi	a5, a5, 1
è¯»å–åœ°å€ 0x80001914
0x80001914: fe e7 9c e3 bne	a5, a4, 0x8000190c
è¯»å–åœ°å€ 0x8000190c
å†™å…¥åœ°å€ 0x8009cdf9
0x8000190c: 00 b7 80 23 sb	a1, 0(a5)
è¯»å–åœ°å€ 0x80001910
0x80001910: 00 17 87 93 addi	a5, a5, 1
è¯»å–åœ°å€ 0x80001914
0x80001914: fe e7 9c e3 bne	a5, a4, 0x8000190c
è¯»å–åœ°å€ 0x8000190c
å†™å…¥åœ°å€ 0x8009cdfa
0x8000190c: 00 b7 80 23 sb	a1, 0(a5)
è¯»å–åœ°å€ 0x80001910
0x80001910: 00 17 87 93 addi	a5, a5, 1
è¯»å–åœ°å€ 0x80001914
0x80001914: fe e7 9c e3 bne	a5, a4, 0x8000190c
è¯»å–åœ°å€ 0x8000190c
å†™å…¥åœ°å€ 0x8009cdfb
0x8000190c: 00 b7 80 23 sb	a1, 0(a5)
è¯»å–åœ°å€ 0x80001910
0x80001910: 00 17 87 93 addi	a5, a5, 1
è¯»å–åœ°å€ 0x80001914
0x80001914: fe e7 9c e3 bne	a5, a4, 0x8000190c
è¯»å–åœ°å€ 0x8000190c
å†™å…¥åœ°å€ 0x8009cdfc
0x8000190c: 00 b7 80 23 sb	a1, 0(a5)
è¯»å–åœ°å€ 0x80001910
0x80001910: 00 17 87 93 addi	a5, a5, 1
è¯»å–åœ°å€ 0x80001914
0x80001914: fe e7 9c e3 bne	a5, a4, 0x8000190c
è¯»å–åœ°å€ 0x8000190c
å†™å…¥åœ°å€ 0x8009cdfd
0x8000190c: 00 b7 80 23 sb	a1, 0(a5)
è¯»å–åœ°å€ 0x80001910
0x80001910: 00 17 87 93 addi	a5, a5, 1
è¯»å–åœ°å€ 0x80001914
0x80001914: fe e7 9c e3 bne	a5, a4, 0x8000190c
è¯»å–åœ°å€ 0x8000190c
å†™å…¥åœ°å€ 0x8009cdfe
0x8000190c: 00 b7 80 23 sb	a1, 0(a5)
è¯»å–åœ°å€ 0x80001910
0x80001910: 00 17 87 93 addi	a5, a5, 1
è¯»å–åœ°å€ 0x80001914
0x80001914: fe e7 9c e3 bne	a5, a4, 0x8000190c
è¯»å–åœ°å€ 0x8000190c
å†™å…¥åœ°å€ 0x8009cdff
0x8000190c: 00 b7 80 23 sb	a1, 0(a5)
è¯»å–åœ°å€ 0x80001910
0x80001910: 00 17 87 93 addi	a5, a5, 1
è¯»å–åœ°å€ 0x80001914
0x80001914: fe e7 9c e3 bne	a5, a4, 0x8000190c
è¯»å–åœ°å€ 0x8000190c
å†™å…¥åœ°å€ 0x8009ce00
0x8000190c: 00 b7 80 23 sb	a1, 0(a5)
è¯»å–åœ°å€ 0x80001910
0x80001910: 00 17 87 93 addi	a5, a5, 1
è¯»å–åœ°å€ 0x80001914
0x80001914: fe e7 9c e3 bne	a5, a4, 0x8000190c
è¯»å–åœ°å€ 0x8000190c
å†™å…¥åœ°å€ 0x8009ce01
0x8000190c: 00 b7 80 23 sb	a1, 0(a5)
è¯»å–åœ°å€ 0x80001910
0x80001910: 00 17 87 93 addi	a5, a5, 1
è¯»å–åœ°å€ 0x80001914
0x80001914: fe e7 9c e3 bne	a5, a4, 0x8000190c
è¯»å–åœ°å€ 0x8000190c
å†™å…¥åœ°å€ 0x8009ce02
0x8000190c: 00 b7 80 23 sb	a1, 0(a5)
è¯»å–åœ°å€ 0x80001910
0x80001910: 00 17 87 93 addi	a5, a5, 1
è¯»å–åœ°å€ 0x80001914
0x80001914: fe e7 9c e3 bne	a5, a4, 0x8000190c
è¯»å–åœ°å€ 0x8000190c
å†™å…¥åœ°å€ 0x8009ce03
0x8000190c: 00 b7 80 23 sb	a1, 0(a5)
è¯»å–åœ°å€ 0x80001910
0x80001910: 00 17 87 93 addi	a5, a5, 1
è¯»å–åœ°å€ 0x80001914
0x80001914: fe e7 9c e3 bne	a5, a4, 0x8000190c
è¯»å–åœ°å€ 0x8000190c
å†™å…¥åœ°å€ 0x8009ce04
0x8000190c: 00 b7 80 23 sb	a1, 0(a5)
è¯»å–åœ°å€ 0x80001910
0x80001910: 00 17 87 93 addi	a5, a5, 1
è¯»å–åœ°å€ 0x80001914
0x80001914: fe e7 9c e3 bne	a5, a4, 0x8000190c
è¯»å–åœ°å€ 0x8000190c
å†™å…¥åœ°å€ 0x8009ce05
0x8000190c: 00 b7 80 23 sb	a1, 0(a5)
è¯»å–åœ°å€ 0x80001910
0x80001910: 00 17 87 93 addi	a5, a5, 1
è¯»å–åœ°å€ 0x80001914
0x80001914: fe e7 9c e3 bne	a5, a4, 0x8000190c
è¯»å–åœ°å€ 0x8000190c
å†™å…¥åœ°å€ 0x8009ce06
0x8000190c: 00 b7 80 23 sb	a1, 0(a5)
è¯»å–åœ°å€ 0x80001910
0x80001910: 00 17 87 93 addi	a5, a5, 1
è¯»å–åœ°å€ 0x80001914
0x80001914: fe e7 9c e3 bne	a5, a4, 0x8000190c
è¯»å–åœ°å€ 0x8000190c
å†™å…¥åœ°å€ 0x8009ce07
0x8000190c: 00 b7 80 23 sb	a1, 0(a5)
è¯»å–åœ°å€ 0x80001910
0x80001910: 00 17 87 93 addi	a5, a5, 1
è¯»å–åœ°å€ 0x80001914
0x80001914: fe e7 9c e3 bne	a5, a4, 0x8000190c
è¯»å–åœ°å€ 0x8000190c
å†™å…¥åœ°å€ 0x8009ce08
0x8000190c: 00 b7 80 23 sb	a1, 0(a5)
è¯»å–åœ°å€ 0x80001910
0x80001910: 00 17 87 93 addi	a5, a5, 1
è¯»å–åœ°å€ 0x80001914
0x80001914: fe e7 9c e3 bne	a5, a4, 0x8000190c
è¯»å–åœ°å€ 0x8000190c
å†™å…¥åœ°å€ 0x8009ce09
0x8000190c: 00 b7 80 23 sb	a1, 0(a5)
è¯»å–åœ°å€ 0x80001910
0x80001910: 00 17 87 93 addi	a5, a5, 1
è¯»å–åœ°å€ 0x80001914
0x80001914: fe e7 9c e3 bne	a5, a4, 0x8000190c
è¯»å–åœ°å€ 0x8000190c
å†™å…¥åœ°å€ 0x8009ce0a
0x8000190c: 00 b7 80 23 sb	a1, 0(a5)
è¯»å–åœ°å€ 0x80001910
0x80001910: 00 17 87 93 addi	a5, a5, 1
è¯»å–åœ°å€ 0x80001914
0x80001914: fe e7 9c e3 bne	a5, a4, 0x8000190c
è¯»å–åœ°å€ 0x8000190c
å†™å…¥åœ°å€ 0x8009ce0b
0x8000190c: 00 b7 80 23 sb	a1, 0(a5)
è¯»å–åœ°å€ 0x80001910
0x80001910: 00 17 87 93 addi	a5, a5, 1
è¯»å–åœ°å€ 0x80001914
0x80001914: fe e7 9c e3 bne	a5, a4, 0x8000190c
è¯»å–åœ°å€ 0x8000190c
å†™å…¥åœ°å€ 0x8009ce0c
0x8000190c: 00 b7 80 23 sb	a1, 0(a5)
è¯»å–åœ°å€ 0x80001910
0x80001910: 00 17 87 93 addi	a5, a5, 1
è¯»å–åœ°å€ 0x80001914
0x80001914: fe e7 9c e3 bne	a5, a4, 0x8000190c
è¯»å–åœ°å€ 0x8000190c
å†™å…¥åœ°å€ 0x8009ce0d
0x8000190c: 00 b7 80 23 sb	a1, 0(a5)
è¯»å–åœ°å€ 0x80001910
0x80001910: 00 17 87 93 addi	a5, a5, 1
è¯»å–åœ°å€ 0x80001914
0x80001914: fe e7 9c e3 bne	a5, a4, 0x8000190c
è¯»å–åœ°å€ 0x8000190c
å†™å…¥åœ°å€ 0x8009ce0e
0x8000190c: 00 b7 80 23 sb	a1, 0(a5)
è¯»å–åœ°å€ 0x80001910
0x80001910: 00 17 87 93 addi	a5, a5, 1
è¯»å–åœ°å€ 0x80001914
0x80001914: fe e7 9c e3 bne	a5, a4, 0x8000190c
è¯»å–åœ°å€ 0x8000190c
å†™å…¥åœ°å€ 0x8009ce0f
0x8000190c: 00 b7 80 23 sb	a1, 0(a5)
è¯»å–åœ°å€ 0x80001910
0x80001910: 00 17 87 93 addi	a5, a5, 1
è¯»å–åœ°å€ 0x80001914
0x80001914: fe e7 9c e3 bne	a5, a4, 0x8000190c
è¯»å–åœ°å€ 0x8000190c
å†™å…¥åœ°å€ 0x8009ce10
0x8000190c: 00 b7 80 23 sb	a1, 0(a5)
è¯»å–åœ°å€ 0x80001910
0x80001910: 00 17 87 93 addi	a5, a5, 1
è¯»å–åœ°å€ 0x80001914
0x80001914: fe e7 9c e3 bne	a5, a4, 0x8000190c
è¯»å–åœ°å€ 0x8000190c
å†™å…¥åœ°å€ 0x8009ce11
0x8000190c: 00 b7 80 23 sb	a1, 0(a5)
è¯»å–åœ°å€ 0x80001910
0x80001910: 00 17 87 93 addi	a5, a5, 1
è¯»å–åœ°å€ 0x80001914
0x80001914: fe e7 9c e3 bne	a5, a4, 0x8000190c
è¯»å–åœ°å€ 0x8000190c
å†™å…¥åœ°å€ 0x8009ce12
0x8000190c: 00 b7 80 23 sb	a1, 0(a5)
è¯»å–åœ°å€ 0x80001910
0x80001910: 00 17 87 93 addi	a5, a5, 1
è¯»å–åœ°å€ 0x80001914
0x80001914: fe e7 9c e3 bne	a5, a4, 0x8000190c
è¯»å–åœ°å€ 0x8000190c
å†™å…¥åœ°å€ 0x8009ce13
0x8000190c: 00 b7 80 23 sb	a1, 0(a5)
è¯»å–åœ°å€ 0x80001910
0x80001910: 00 17 87 93 addi	a5, a5, 1
è¯»å–åœ°å€ 0x80001914
0x80001914: fe e7 9c e3 bne	a5, a4, 0x8000190c
è¯»å–åœ°å€ 0x8000190c
å†™å…¥åœ°å€ 0x8009ce14
0x8000190c: 00 b7 80 23 sb	a1, 0(a5)
è¯»å–åœ°å€ 0x80001910
0x80001910: 00 17 87 93 addi	a5, a5, 1
è¯»å–åœ°å€ 0x80001914
0x80001914: fe e7 9c e3 bne	a5, a4, 0x8000190c
è¯»å–åœ°å€ 0x8000190c
å†™å…¥åœ°å€ 0x8009ce15
0x8000190c: 00 b7 80 23 sb	a1, 0(a5)
è¯»å–åœ°å€ 0x80001910
0x80001910: 00 17 87 93 addi	a5, a5, 1
è¯»å–åœ°å€ 0x80001914
0x80001914: fe e7 9c e3 bne	a5, a4, 0x8000190c
è¯»å–åœ°å€ 0x8000190c
å†™å…¥åœ°å€ 0x8009ce16
0x8000190c: 00 b7 80 23 sb	a1, 0(a5)
è¯»å–åœ°å€ 0x80001910
0x80001910: 00 17 87 93 addi	a5, a5, 1
è¯»å–åœ°å€ 0x80001914
0x80001914: fe e7 9c e3 bne	a5, a4, 0x8000190c
è¯»å–åœ°å€ 0x8000190c
å†™å…¥åœ°å€ 0x8009ce17
0x8000190c: 00 b7 80 23 sb	a1, 0(a5)
è¯»å–åœ°å€ 0x80001910
0x80001910: 00 17 87 93 addi	a5, a5, 1
è¯»å–åœ°å€ 0x80001914
0x80001914: fe e7 9c e3 bne	a5, a4, 0x8000190c
è¯»å–åœ°å€ 0x8000190c
å†™å…¥åœ°å€ 0x8009ce18
0x8000190c: 00 b7 80 23 sb	a1, 0(a5)
è¯»å–åœ°å€ 0x80001910
0x80001910: 00 17 87 93 addi	a5, a5, 1
è¯»å–åœ°å€ 0x80001914
0x80001914: fe e7 9c e3 bne	a5, a4, 0x8000190c
è¯»å–åœ°å€ 0x8000190c
å†™å…¥åœ°å€ 0x8009ce19
0x8000190c: 00 b7 80 23 sb	a1, 0(a5)
è¯»å–åœ°å€ 0x80001910
0x80001910: 00 17 87 93 addi	a5, a5, 1
è¯»å–åœ°å€ 0x80001914
0x80001914: fe e7 9c e3 bne	a5, a4, 0x8000190c
è¯»å–åœ°å€ 0x8000190c
å†™å…¥åœ°å€ 0x8009ce1a
0x8000190c: 00 b7 80 23 sb	a1, 0(a5)
è¯»å–åœ°å€ 0x80001910
0x80001910: 00 17 87 93 addi	a5, a5, 1
è¯»å–åœ°å€ 0x80001914
0x80001914: fe e7 9c e3 bne	a5, a4, 0x8000190c
è¯»å–åœ°å€ 0x8000190c
å†™å…¥åœ°å€ 0x8009ce1b
0x8000190c: 00 b7 80 23 sb	a1, 0(a5)
è¯»å–åœ°å€ 0x80001910
0x80001910: 00 17 87 93 addi	a5, a5, 1
è¯»å–åœ°å€ 0x80001914
0x80001914: fe e7 9c e3 bne	a5, a4, 0x8000190c
è¯»å–åœ°å€ 0x8000190c
å†™å…¥åœ°å€ 0x8009ce1c
0x8000190c: 00 b7 80 23 sb	a1, 0(a5)
è¯»å–åœ°å€ 0x80001910
0x80001910: 00 17 87 93 addi	a5, a5, 1
è¯»å–åœ°å€ 0x80001914
0x80001914: fe e7 9c e3 bne	a5, a4, 0x8000190c
è¯»å–åœ°å€ 0x8000190c
å†™å…¥åœ°å€ 0x8009ce1d
0x8000190c: 00 b7 80 23 sb	a1, 0(a5)
è¯»å–åœ°å€ 0x80001910
0x80001910: 00 17 87 93 addi	a5, a5, 1
è¯»å–åœ°å€ 0x80001914
0x80001914: fe e7 9c e3 bne	a5, a4, 0x8000190c
è¯»å–åœ°å€ 0x8000190c
å†™å…¥åœ°å€ 0x8009ce1e
0x8000190c: 00 b7 80 23 sb	a1, 0(a5)
è¯»å–åœ°å€ 0x80001910
0x80001910: 00 17 87 93 addi	a5, a5, 1
è¯»å–åœ°å€ 0x80001914
0x80001914: fe e7 9c e3 bne	a5, a4, 0x8000190c
è¯»å–åœ°å€ 0x8000190c
å†™å…¥åœ°å€ 0x8009ce1f
0x8000190c: 00 b7 80 23 sb	a1, 0(a5)
è¯»å–åœ°å€ 0x80001910
0x80001910: 00 17 87 93 addi	a5, a5, 1
è¯»å–åœ°å€ 0x80001914
0x80001914: fe e7 9c e3 bne	a5, a4, 0x8000190c
è¯»å–åœ°å€ 0x8000190c
å†™å…¥åœ°å€ 0x8009ce20
0x8000190c: 00 b7 80 23 sb	a1, 0(a5)
è¯»å–åœ°å€ 0x80001910
0x80001910: 00 17 87 93 addi	a5, a5, 1
è¯»å–åœ°å€ 0x80001914
0x80001914: fe e7 9c e3 bne	a5, a4, 0x8000190c
è¯»å–åœ°å€ 0x8000190c
å†™å…¥åœ°å€ 0x8009ce21
0x8000190c: 00 b7 80 23 sb	a1, 0(a5)
è¯»å–åœ°å€ 0x80001910
0x80001910: 00 17 87 93 addi	a5, a5, 1
è¯»å–åœ°å€ 0x80001914
0x80001914: fe e7 9c e3 bne	a5, a4, 0x8000190c
è¯»å–åœ°å€ 0x8000190c
å†™å…¥åœ°å€ 0x8009ce22
0x8000190c: 00 b7 80 23 sb	a1, 0(a5)
è¯»å–åœ°å€ 0x80001910
0x80001910: 00 17 87 93 addi	a5, a5, 1
è¯»å–åœ°å€ 0x80001914
0x80001914: fe e7 9c e3 bne	a5, a4, 0x8000190c
è¯»å–åœ°å€ 0x8000190c
å†™å…¥åœ°å€ 0x8009ce23
0x8000190c: 00 b7 80 23 sb	a1, 0(a5)
è¯»å–åœ°å€ 0x80001910
0x80001910: 00 17 87 93 addi	a5, a5, 1
è¯»å–åœ°å€ 0x80001914
0x80001914: fe e7 9c e3 bne	a5, a4, 0x8000190c
è¯»å–åœ°å€ 0x8000190c
å†™å…¥åœ°å€ 0x8009ce24
0x8000190c: 00 b7 80 23 sb	a1, 0(a5)
è¯»å–åœ°å€ 0x80001910
0x80001910: 00 17 87 93 addi	a5, a5, 1
è¯»å–åœ°å€ 0x80001914
0x80001914: fe e7 9c e3 bne	a5, a4, 0x8000190c
è¯»å–åœ°å€ 0x8000190c
å†™å…¥åœ°å€ 0x8009ce25
0x8000190c: 00 b7 80 23 sb	a1, 0(a5)
è¯»å–åœ°å€ 0x80001910
0x80001910: 00 17 87 93 addi	a5, a5, 1
è¯»å–åœ°å€ 0x80001914
0x80001914: fe e7 9c e3 bne	a5, a4, 0x8000190c
è¯»å–åœ°å€ 0x8000190c
å†™å…¥åœ°å€ 0x8009ce26
0x8000190c: 00 b7 80 23 sb	a1, 0(a5)
è¯»å–åœ°å€ 0x80001910
0x80001910: 00 17 87 93 addi	a5, a5, 1
è¯»å–åœ°å€ 0x80001914
0x80001914: fe e7 9c e3 bne	a5, a4, 0x8000190c
è¯»å–åœ°å€ 0x8000190c
å†™å…¥åœ°å€ 0x8009ce27
0x8000190c: 00 b7 80 23 sb	a1, 0(a5)
è¯»å–åœ°å€ 0x80001910
0x80001910: 00 17 87 93 addi	a5, a5, 1
è¯»å–åœ°å€ 0x80001914
0x80001914: fe e7 9c e3 bne	a5, a4, 0x8000190c
è¯»å–åœ°å€ 0x8000190c
å†™å…¥åœ°å€ 0x8009ce28
0x8000190c: 00 b7 80 23 sb	a1, 0(a5)
è¯»å–åœ°å€ 0x80001910
0x80001910: 00 17 87 93 addi	a5, a5, 1
è¯»å–åœ°å€ 0x80001914
0x80001914: fe e7 9c e3 bne	a5, a4, 0x8000190c
è¯»å–åœ°å€ 0x8000190c
å†™å…¥åœ°å€ 0x8009ce29
0x8000190c: 00 b7 80 23 sb	a1, 0(a5)
è¯»å–åœ°å€ 0x80001910
0x80001910: 00 17 87 93 addi	a5, a5, 1
è¯»å–åœ°å€ 0x80001914
0x80001914: fe e7 9c e3 bne	a5, a4, 0x8000190c
è¯»å–åœ°å€ 0x8000190c
å†™å…¥åœ°å€ 0x8009ce2a
0x8000190c: 00 b7 80 23 sb	a1, 0(a5)
è¯»å–åœ°å€ 0x80001910
0x80001910: 00 17 87 93 addi	a5, a5, 1
è¯»å–åœ°å€ 0x80001914
0x80001914: fe e7 9c e3 bne	a5, a4, 0x8000190c
è¯»å–åœ°å€ 0x8000190c
å†™å…¥åœ°å€ 0x8009ce2b
0x8000190c: 00 b7 80 23 sb	a1, 0(a5)
è¯»å–åœ°å€ 0x80001910
0x80001910: 00 17 87 93 addi	a5, a5, 1
è¯»å–åœ°å€ 0x80001914
0x80001914: fe e7 9c e3 bne	a5, a4, 0x8000190c
è¯»å–åœ°å€ 0x8000190c
å†™å…¥åœ°å€ 0x8009ce2c
0x8000190c: 00 b7 80 23 sb	a1, 0(a5)
è¯»å–åœ°å€ 0x80001910
0x80001910: 00 17 87 93 addi	a5, a5, 1
è¯»å–åœ°å€ 0x80001914
0x80001914: fe e7 9c e3 bne	a5, a4, 0x8000190c
è¯»å–åœ°å€ 0x8000190c
å†™å…¥åœ°å€ 0x8009ce2d
0x8000190c: 00 b7 80 23 sb	a1, 0(a5)
è¯»å–åœ°å€ 0x80001910
0x80001910: 00 17 87 93 addi	a5, a5, 1
è¯»å–åœ°å€ 0x80001914
0x80001914: fe e7 9c e3 bne	a5, a4, 0x8000190c
è¯»å–åœ°å€ 0x8000190c
å†™å…¥åœ°å€ 0x8009ce2e
0x8000190c: 00 b7 80 23 sb	a1, 0(a5)
è¯»å–åœ°å€ 0x80001910
0x80001910: 00 17 87 93 addi	a5, a5, 1
è¯»å–åœ°å€ 0x80001914
0x80001914: fe e7 9c e3 bne	a5, a4, 0x8000190c
è¯»å–åœ°å€ 0x8000190c
å†™å…¥åœ°å€ 0x8009ce2f
0x8000190c: 00 b7 80 23 sb	a1, 0(a5)
è¯»å–åœ°å€ 0x80001910
0x80001910: 00 17 87 93 addi	a5, a5, 1
è¯»å–åœ°å€ 0x80001914
0x80001914: fe e7 9c e3 bne	a5, a4, 0x8000190c
è¯»å–åœ°å€ 0x8000190c
å†™å…¥åœ°å€ 0x8009ce30
0x8000190c: 00 b7 80 23 sb	a1, 0(a5)
è¯»å–åœ°å€ 0x80001910
0x80001910: 00 17 87 93 addi	a5, a5, 1
è¯»å–åœ°å€ 0x80001914
0x80001914: fe e7 9c e3 bne	a5, a4, 0x8000190c
è¯»å–åœ°å€ 0x8000190c
å†™å…¥åœ°å€ 0x8009ce31
0x8000190c: 00 b7 80 23 sb	a1, 0(a5)
è¯»å–åœ°å€ 0x80001910
0x80001910: 00 17 87 93 addi	a5, a5, 1
è¯»å–åœ°å€ 0x80001914
0x80001914: fe e7 9c e3 bne	a5, a4, 0x8000190c
è¯»å–åœ°å€ 0x8000190c
å†™å…¥åœ°å€ 0x8009ce32
0x8000190c: 00 b7 80 23 sb	a1, 0(a5)
è¯»å–åœ°å€ 0x80001910
0x80001910: 00 17 87 93 addi	a5, a5, 1
è¯»å–åœ°å€ 0x80001914
0x80001914: fe e7 9c e3 bne	a5, a4, 0x8000190c
è¯»å–åœ°å€ 0x8000190c
å†™å…¥åœ°å€ 0x8009ce33
0x8000190c: 00 b7 80 23 sb	a1, 0(a5)
è¯»å–åœ°å€ 0x80001910
0x80001910: 00 17 87 93 addi	a5, a5, 1
è¯»å–åœ°å€ 0x80001914
0x80001914: fe e7 9c e3 bne	a5, a4, 0x8000190c
è¯»å–åœ°å€ 0x8000190c
å†™å…¥åœ°å€ 0x8009ce34
0x8000190c: 00 b7 80 23 sb	a1, 0(a5)
è¯»å–åœ°å€ 0x80001910
0x80001910: 00 17 87 93 addi	a5, a5, 1
è¯»å–åœ°å€ 0x80001914
0x80001914: fe e7 9c e3 bne	a5, a4, 0x8000190c
è¯»å–åœ°å€ 0x8000190c
å†™å…¥åœ°å€ 0x8009ce35
0x8000190c: 00 b7 80 23 sb	a1, 0(a5)
è¯»å–åœ°å€ 0x80001910
0x80001910: 00 17 87 93 addi	a5, a5, 1
è¯»å–åœ°å€ 0x80001914
0x80001914: fe e7 9c e3 bne	a5, a4, 0x8000190c
è¯»å–åœ°å€ 0x8000190c
å†™å…¥åœ°å€ 0x8009ce36
0x8000190c: 00 b7 80 23 sb	a1, 0(a5)
è¯»å–åœ°å€ 0x80001910
0x80001910: 00 17 87 93 addi	a5, a5, 1
è¯»å–åœ°å€ 0x80001914
0x80001914: fe e7 9c e3 bne	a5, a4, 0x8000190c
è¯»å–åœ°å€ 0x8000190c
å†™å…¥åœ°å€ 0x8009ce37
0x8000190c: 00 b7 80 23 sb	a1, 0(a5)
è¯»å–åœ°å€ 0x80001910
0x80001910: 00 17 87 93 addi	a5, a5, 1
è¯»å–åœ°å€ 0x80001914
0x80001914: fe e7 9c e3 bne	a5, a4, 0x8000190c
è¯»å–åœ°å€ 0x8000190c
å†™å…¥åœ°å€ 0x8009ce38
0x8000190c: 00 b7 80 23 sb	a1, 0(a5)
è¯»å–åœ°å€ 0x80001910
0x80001910: 00 17 87 93 addi	a5, a5, 1
è¯»å–åœ°å€ 0x80001914
0x80001914: fe e7 9c e3 bne	a5, a4, 0x8000190c
è¯»å–åœ°å€ 0x8000190c
å†™å…¥åœ°å€ 0x8009ce39
0x8000190c: 00 b7 80 23 sb	a1, 0(a5)
è¯»å–åœ°å€ 0x80001910
0x80001910: 00 17 87 93 addi	a5, a5, 1
è¯»å–åœ°å€ 0x80001914
0x80001914: fe e7 9c e3 bne	a5, a4, 0x8000190c
è¯»å–åœ°å€ 0x8000190c
å†™å…¥åœ°å€ 0x8009ce3a
0x8000190c: 00 b7 80 23 sb	a1, 0(a5)
è¯»å–åœ°å€ 0x80001910
0x80001910: 00 17 87 93 addi	a5, a5, 1
è¯»å–åœ°å€ 0x80001914
0x80001914: fe e7 9c e3 bne	a5, a4, 0x8000190c
è¯»å–åœ°å€ 0x8000190c
å†™å…¥åœ°å€ 0x8009ce3b
0x8000190c: 00 b7 80 23 sb	a1, 0(a5)
è¯»å–åœ°å€ 0x80001910
0x80001910: 00 17 87 93 addi	a5, a5, 1
è¯»å–åœ°å€ 0x80001914
0x80001914: fe e7 9c e3 bne	a5, a4, 0x8000190c
è¯»å–åœ°å€ 0x8000190c
å†™å…¥åœ°å€ 0x8009ce3c
0x8000190c: 00 b7 80 23 sb	a1, 0(a5)
è¯»å–åœ°å€ 0x80001910
0x80001910: 00 17 87 93 addi	a5, a5, 1
è¯»å–åœ°å€ 0x80001914
0x80001914: fe e7 9c e3 bne	a5, a4, 0x8000190c
è¯»å–åœ°å€ 0x8000190c
å†™å…¥åœ°å€ 0x8009ce3d
0x8000190c: 00 b7 80 23 sb	a1, 0(a5)
è¯»å–åœ°å€ 0x80001910
0x80001910: 00 17 87 93 addi	a5, a5, 1
è¯»å–åœ°å€ 0x80001914
0x80001914: fe e7 9c e3 bne	a5, a4, 0x8000190c
è¯»å–åœ°å€ 0x8000190c
å†™å…¥åœ°å€ 0x8009ce3e
0x8000190c: 00 b7 80 23 sb	a1, 0(a5)
è¯»å–åœ°å€ 0x80001910
0x80001910: 00 17 87 93 addi	a5, a5, 1
è¯»å–åœ°å€ 0x80001914
0x80001914: fe e7 9c e3 bne	a5, a4, 0x8000190c
è¯»å–åœ°å€ 0x8000190c
å†™å…¥åœ°å€ 0x8009ce3f
0x8000190c: 00 b7 80 23 sb	a1, 0(a5)
è¯»å–åœ°å€ 0x80001910
0x80001910: 00 17 87 93 addi	a5, a5, 1
è¯»å–åœ°å€ 0x80001914
0x80001914: fe e7 9c e3 bne	a5, a4, 0x8000190c
è¯»å–åœ°å€ 0x8000190c
å†™å…¥åœ°å€ 0x8009ce40
0x8000190c: 00 b7 80 23 sb	a1, 0(a5)
è¯»å–åœ°å€ 0x80001910
0x80001910: 00 17 87 93 addi	a5, a5, 1
è¯»å–åœ°å€ 0x80001914
0x80001914: fe e7 9c e3 bne	a5, a4, 0x8000190c
è¯»å–åœ°å€ 0x8000190c
å†™å…¥åœ°å€ 0x8009ce41
0x8000190c: 00 b7 80 23 sb	a1, 0(a5)
è¯»å–åœ°å€ 0x80001910
0x80001910: 00 17 87 93 addi	a5, a5, 1
è¯»å–åœ°å€ 0x80001914
0x80001914: fe e7 9c e3 bne	a5, a4, 0x8000190c
è¯»å–åœ°å€ 0x8000190c
å†™å…¥åœ°å€ 0x8009ce42
0x8000190c: 00 b7 80 23 sb	a1, 0(a5)
è¯»å–åœ°å€ 0x80001910
0x80001910: 00 17 87 93 addi	a5, a5, 1
è¯»å–åœ°å€ 0x80001914
0x80001914: fe e7 9c e3 bne	a5, a4, 0x8000190c
è¯»å–åœ°å€ 0x8000190c
å†™å…¥åœ°å€ 0x8009ce43
0x8000190c: 00 b7 80 23 sb	a1, 0(a5)
è¯»å–åœ°å€ 0x80001910
0x80001910: 00 17 87 93 addi	a5, a5, 1
è¯»å–åœ°å€ 0x80001914
0x80001914: fe e7 9c e3 bne	a5, a4, 0x8000190c
è¯»å–åœ°å€ 0x8000190c
å†™å…¥åœ°å€ 0x8009ce44
0x8000190c: 00 b7 80 23 sb	a1, 0(a5)
è¯»å–åœ°å€ 0x80001910
0x80001910: 00 17 87 93 addi	a5, a5, 1
è¯»å–åœ°å€ 0x80001914
0x80001914: fe e7 9c e3 bne	a5, a4, 0x8000190c
è¯»å–åœ°å€ 0x8000190c
å†™å…¥åœ°å€ 0x8009ce45
0x8000190c: 00 b7 80 23 sb	a1, 0(a5)
è¯»å–åœ°å€ 0x80001910
0x80001910: 00 17 87 93 addi	a5, a5, 1
è¯»å–åœ°å€ 0x80001914
0x80001914: fe e7 9c e3 bne	a5, a4, 0x8000190c
è¯»å–åœ°å€ 0x8000190c
å†™å…¥åœ°å€ 0x8009ce46
0x8000190c: 00 b7 80 23 sb	a1, 0(a5)
è¯»å–åœ°å€ 0x80001910
0x80001910: 00 17 87 93 addi	a5, a5, 1
è¯»å–åœ°å€ 0x80001914
0x80001914: fe e7 9c e3 bne	a5, a4, 0x8000190c
è¯»å–åœ°å€ 0x8000190c
å†™å…¥åœ°å€ 0x8009ce47
0x8000190c: 00 b7 80 23 sb	a1, 0(a5)
è¯»å–åœ°å€ 0x80001910
0x80001910: 00 17 87 93 addi	a5, a5, 1
è¯»å–åœ°å€ 0x80001914
0x80001914: fe e7 9c e3 bne	a5, a4, 0x8000190c
è¯»å–åœ°å€ 0x8000190c
å†™å…¥åœ°å€ 0x8009ce48
0x8000190c: 00 b7 80 23 sb	a1, 0(a5)
è¯»å–åœ°å€ 0x80001910
0x80001910: 00 17 87 93 addi	a5, a5, 1
è¯»å–åœ°å€ 0x80001914
0x80001914: fe e7 9c e3 bne	a5, a4, 0x8000190c
è¯»å–åœ°å€ 0x8000190c
å†™å…¥åœ°å€ 0x8009ce49
0x8000190c: 00 b7 80 23 sb	a1, 0(a5)
è¯»å–åœ°å€ 0x80001910
0x80001910: 00 17 87 93 addi	a5, a5, 1
è¯»å–åœ°å€ 0x80001914
0x80001914: fe e7 9c e3 bne	a5, a4, 0x8000190c
è¯»å–åœ°å€ 0x8000190c
å†™å…¥åœ°å€ 0x8009ce4a
0x8000190c: 00 b7 80 23 sb	a1, 0(a5)
è¯»å–åœ°å€ 0x80001910
0x80001910: 00 17 87 93 addi	a5, a5, 1
è¯»å–åœ°å€ 0x80001914
0x80001914: fe e7 9c e3 bne	a5, a4, 0x8000190c
è¯»å–åœ°å€ 0x8000190c
å†™å…¥åœ°å€ 0x8009ce4b
0x8000190c: 00 b7 80 23 sb	a1, 0(a5)
è¯»å–åœ°å€ 0x80001910
0x80001910: 00 17 87 93 addi	a5, a5, 1
è¯»å–åœ°å€ 0x80001914
0x80001914: fe e7 9c e3 bne	a5, a4, 0x8000190c
è¯»å–åœ°å€ 0x8000190c
å†™å…¥åœ°å€ 0x8009ce4c
0x8000190c: 00 b7 80 23 sb	a1, 0(a5)
è¯»å–åœ°å€ 0x80001910
0x80001910: 00 17 87 93 addi	a5, a5, 1
è¯»å–åœ°å€ 0x80001914
0x80001914: fe e7 9c e3 bne	a5, a4, 0x8000190c
è¯»å–åœ°å€ 0x8000190c
å†™å…¥åœ°å€ 0x8009ce4d
0x8000190c: 00 b7 80 23 sb	a1, 0(a5)
è¯»å–åœ°å€ 0x80001910
0x80001910: 00 17 87 93 addi	a5, a5, 1
è¯»å–åœ°å€ 0x80001914
0x80001914: fe e7 9c e3 bne	a5, a4, 0x8000190c
è¯»å–åœ°å€ 0x8000190c
å†™å…¥åœ°å€ 0x8009ce4e
0x8000190c: 00 b7 80 23 sb	a1, 0(a5)
è¯»å–åœ°å€ 0x80001910
0x80001910: 00 17 87 93 addi	a5, a5, 1
è¯»å–åœ°å€ 0x80001914
0x80001914: fe e7 9c e3 bne	a5, a4, 0x8000190c
è¯»å–åœ°å€ 0x8000190c
å†™å…¥åœ°å€ 0x8009ce4f
0x8000190c: 00 b7 80 23 sb	a1, 0(a5)
è¯»å–åœ°å€ 0x80001910
0x80001910: 00 17 87 93 addi	a5, a5, 1
è¯»å–åœ°å€ 0x80001914
0x80001914: fe e7 9c e3 bne	a5, a4, 0x8000190c
è¯»å–åœ°å€ 0x8000190c
å†™å…¥åœ°å€ 0x8009ce50
0x8000190c: 00 b7 80 23 sb	a1, 0(a5)
è¯»å–åœ°å€ 0x80001910
0x80001910: 00 17 87 93 addi	a5, a5, 1
è¯»å–åœ°å€ 0x80001914
0x80001914: fe e7 9c e3 bne	a5, a4, 0x8000190c
è¯»å–åœ°å€ 0x8000190c
å†™å…¥åœ°å€ 0x8009ce51
0x8000190c: 00 b7 80 23 sb	a1, 0(a5)
è¯»å–åœ°å€ 0x80001910
0x80001910: 00 17 87 93 addi	a5, a5, 1
è¯»å–åœ°å€ 0x80001914
0x80001914: fe e7 9c e3 bne	a5, a4, 0x8000190c
è¯»å–åœ°å€ 0x8000190c
å†™å…¥åœ°å€ 0x8009ce52
0x8000190c: 00 b7 80 23 sb	a1, 0(a5)
è¯»å–åœ°å€ 0x80001910
0x80001910: 00 17 87 93 addi	a5, a5, 1
è¯»å–åœ°å€ 0x80001914
0x80001914: fe e7 9c e3 bne	a5, a4, 0x8000190c
è¯»å–åœ°å€ 0x8000190c
å†™å…¥åœ°å€ 0x8009ce53
0x8000190c: 00 b7 80 23 sb	a1, 0(a5)
è¯»å–åœ°å€ 0x80001910
0x80001910: 00 17 87 93 addi	a5, a5, 1
è¯»å–åœ°å€ 0x80001914
0x80001914: fe e7 9c e3 bne	a5, a4, 0x8000190c
è¯»å–åœ°å€ 0x8000190c
å†™å…¥åœ°å€ 0x8009ce54
0x8000190c: 00 b7 80 23 sb	a1, 0(a5)
è¯»å–åœ°å€ 0x80001910
0x80001910: 00 17 87 93 addi	a5, a5, 1
è¯»å–åœ°å€ 0x80001914
0x80001914: fe e7 9c e3 bne	a5, a4, 0x8000190c
è¯»å–åœ°å€ 0x8000190c
å†™å…¥åœ°å€ 0x8009ce55
0x8000190c: 00 b7 80 23 sb	a1, 0(a5)
è¯»å–åœ°å€ 0x80001910
0x80001910: 00 17 87 93 addi	a5, a5, 1
è¯»å–åœ°å€ 0x80001914
0x80001914: fe e7 9c e3 bne	a5, a4, 0x8000190c
è¯»å–åœ°å€ 0x8000190c
å†™å…¥åœ°å€ 0x8009ce56
0x8000190c: 00 b7 80 23 sb	a1, 0(a5)
è¯»å–åœ°å€ 0x80001910
0x80001910: 00 17 87 93 addi	a5, a5, 1
è¯»å–åœ°å€ 0x80001914
0x80001914: fe e7 9c e3 bne	a5, a4, 0x8000190c
è¯»å–åœ°å€ 0x8000190c
å†™å…¥åœ°å€ 0x8009ce57
0x8000190c: 00 b7 80 23 sb	a1, 0(a5)
è¯»å–åœ°å€ 0x80001910
0x80001910: 00 17 87 93 addi	a5, a5, 1
è¯»å–åœ°å€ 0x80001914
0x80001914: fe e7 9c e3 bne	a5, a4, 0x8000190c
è¯»å–åœ°å€ 0x8000190c
å†™å…¥åœ°å€ 0x8009ce58
0x8000190c: 00 b7 80 23 sb	a1, 0(a5)
è¯»å–åœ°å€ 0x80001910
0x80001910: 00 17 87 93 addi	a5, a5, 1
è¯»å–åœ°å€ 0x80001914
0x80001914: fe e7 9c e3 bne	a5, a4, 0x8000190c
è¯»å–åœ°å€ 0x8000190c
å†™å…¥åœ°å€ 0x8009ce59
0x8000190c: 00 b7 80 23 sb	a1, 0(a5)
è¯»å–åœ°å€ 0x80001910
0x80001910: 00 17 87 93 addi	a5, a5, 1
è¯»å–åœ°å€ 0x80001914
0x80001914: fe e7 9c e3 bne	a5, a4, 0x8000190c
è¯»å–åœ°å€ 0x8000190c
å†™å…¥åœ°å€ 0x8009ce5a
0x8000190c: 00 b7 80 23 sb	a1, 0(a5)
è¯»å–åœ°å€ 0x80001910
0x80001910: 00 17 87 93 addi	a5, a5, 1
è¯»å–åœ°å€ 0x80001914
0x80001914: fe e7 9c e3 bne	a5, a4, 0x8000190c
è¯»å–åœ°å€ 0x8000190c
å†™å…¥åœ°å€ 0x8009ce5b
0x8000190c: 00 b7 80 23 sb	a1, 0(a5)
è¯»å–åœ°å€ 0x80001910
0x80001910: 00 17 87 93 addi	a5, a5, 1
è¯»å–åœ°å€ 0x80001914
0x80001914: fe e7 9c e3 bne	a5, a4, 0x8000190c
è¯»å–åœ°å€ 0x8000190c
å†™å…¥åœ°å€ 0x8009ce5c
0x8000190c: 00 b7 80 23 sb	a1, 0(a5)
è¯»å–åœ°å€ 0x80001910
0x80001910: 00 17 87 93 addi	a5, a5, 1
è¯»å–åœ°å€ 0x80001914
0x80001914: fe e7 9c e3 bne	a5, a4, 0x8000190c
è¯»å–åœ°å€ 0x8000190c
å†™å…¥åœ°å€ 0x8009ce5d
0x8000190c: 00 b7 80 23 sb	a1, 0(a5)
è¯»å–åœ°å€ 0x80001910
0x80001910: 00 17 87 93 addi	a5, a5, 1
è¯»å–åœ°å€ 0x80001914
0x80001914: fe e7 9c e3 bne	a5, a4, 0x8000190c
è¯»å–åœ°å€ 0x8000190c
å†™å…¥åœ°å€ 0x8009ce5e
0x8000190c: 00 b7 80 23 sb	a1, 0(a5)
è¯»å–åœ°å€ 0x80001910
0x80001910: 00 17 87 93 addi	a5, a5, 1
è¯»å–åœ°å€ 0x80001914
0x80001914: fe e7 9c e3 bne	a5, a4, 0x8000190c
è¯»å–åœ°å€ 0x8000190c
å†™å…¥åœ°å€ 0x8009ce5f
0x8000190c: 00 b7 80 23 sb	a1, 0(a5)
è¯»å–åœ°å€ 0x80001910
0x80001910: 00 17 87 93 addi	a5, a5, 1
è¯»å–åœ°å€ 0x80001914
0x80001914: fe e7 9c e3 bne	a5, a4, 0x8000190c
è¯»å–åœ°å€ 0x8000190c
å†™å…¥åœ°å€ 0x8009ce60
0x8000190c: 00 b7 80 23 sb	a1, 0(a5)
è¯»å–åœ°å€ 0x80001910
0x80001910: 00 17 87 93 addi	a5, a5, 1
è¯»å–åœ°å€ 0x80001914
0x80001914: fe e7 9c e3 bne	a5, a4, 0x8000190c
è¯»å–åœ°å€ 0x8000190c
å†™å…¥åœ°å€ 0x8009ce61
0x8000190c: 00 b7 80 23 sb	a1, 0(a5)
è¯»å–åœ°å€ 0x80001910
0x80001910: 00 17 87 93 addi	a5, a5, 1
è¯»å–åœ°å€ 0x80001914
0x80001914: fe e7 9c e3 bne	a5, a4, 0x8000190c
è¯»å–åœ°å€ 0x8000190c
å†™å…¥åœ°å€ 0x8009ce62
0x8000190c: 00 b7 80 23 sb	a1, 0(a5)
è¯»å–åœ°å€ 0x80001910
0x80001910: 00 17 87 93 addi	a5, a5, 1
è¯»å–åœ°å€ 0x80001914
0x80001914: fe e7 9c e3 bne	a5, a4, 0x8000190c
è¯»å–åœ°å€ 0x8000190c
å†™å…¥åœ°å€ 0x8009ce63
0x8000190c: 00 b7 80 23 sb	a1, 0(a5)
è¯»å–åœ°å€ 0x80001910
0x80001910: 00 17 87 93 addi	a5, a5, 1
è¯»å–åœ°å€ 0x80001914
0x80001914: fe e7 9c e3 bne	a5, a4, 0x8000190c
è¯»å–åœ°å€ 0x8000190c
å†™å…¥åœ°å€ 0x8009ce64
0x8000190c: 00 b7 80 23 sb	a1, 0(a5)
è¯»å–åœ°å€ 0x80001910
0x80001910: 00 17 87 93 addi	a5, a5, 1
è¯»å–åœ°å€ 0x80001914
0x80001914: fe e7 9c e3 bne	a5, a4, 0x8000190c
è¯»å–åœ°å€ 0x8000190c
å†™å…¥åœ°å€ 0x8009ce65
0x8000190c: 00 b7 80 23 sb	a1, 0(a5)
è¯»å–åœ°å€ 0x80001910
0x80001910: 00 17 87 93 addi	a5, a5, 1
è¯»å–åœ°å€ 0x80001914
0x80001914: fe e7 9c e3 bne	a5, a4, 0x8000190c
è¯»å–åœ°å€ 0x8000190c
å†™å…¥åœ°å€ 0x8009ce66
0x8000190c: 00 b7 80 23 sb	a1, 0(a5)
è¯»å–åœ°å€ 0x80001910
0x80001910: 00 17 87 93 addi	a5, a5, 1
è¯»å–åœ°å€ 0x80001914
0x80001914: fe e7 9c e3 bne	a5, a4, 0x8000190c
è¯»å–åœ°å€ 0x8000190c
å†™å…¥åœ°å€ 0x8009ce67
0x8000190c: 00 b7 80 23 sb	a1, 0(a5)
è¯»å–åœ°å€ 0x80001910
0x80001910: 00 17 87 93 addi	a5, a5, 1
è¯»å–åœ°å€ 0x80001914
0x80001914: fe e7 9c e3 bne	a5, a4, 0x8000190c
è¯»å–åœ°å€ 0x8000190c
å†™å…¥åœ°å€ 0x8009ce68
0x8000190c: 00 b7 80 23 sb	a1, 0(a5)
è¯»å–åœ°å€ 0x80001910
0x80001910: 00 17 87 93 addi	a5, a5, 1
è¯»å–åœ°å€ 0x80001914
0x80001914: fe e7 9c e3 bne	a5, a4, 0x8000190c
è¯»å–åœ°å€ 0x8000190c
å†™å…¥åœ°å€ 0x8009ce69
0x8000190c: 00 b7 80 23 sb	a1, 0(a5)
è¯»å–åœ°å€ 0x80001910
0x80001910: 00 17 87 93 addi	a5, a5, 1
è¯»å–åœ°å€ 0x80001914
0x80001914: fe e7 9c e3 bne	a5, a4, 0x8000190c
è¯»å–åœ°å€ 0x8000190c
å†™å…¥åœ°å€ 0x8009ce6a
0x8000190c: 00 b7 80 23 sb	a1, 0(a5)
è¯»å–åœ°å€ 0x80001910
0x80001910: 00 17 87 93 addi	a5, a5, 1
è¯»å–åœ°å€ 0x80001914
0x80001914: fe e7 9c e3 bne	a5, a4, 0x8000190c
è¯»å–åœ°å€ 0x8000190c
å†™å…¥åœ°å€ 0x8009ce6b
0x8000190c: 00 b7 80 23 sb	a1, 0(a5)
è¯»å–åœ°å€ 0x80001910
0x80001910: 00 17 87 93 addi	a5, a5, 1
è¯»å–åœ°å€ 0x80001914
0x80001914: fe e7 9c e3 bne	a5, a4, 0x8000190c
è¯»å–åœ°å€ 0x8000190c
å†™å…¥åœ°å€ 0x8009ce6c
0x8000190c: 00 b7 80 23 sb	a1, 0(a5)
è¯»å–åœ°å€ 0x80001910
0x80001910: 00 17 87 93 addi	a5, a5, 1
è¯»å–åœ°å€ 0x80001914
0x80001914: fe e7 9c e3 bne	a5, a4, 0x8000190c
è¯»å–åœ°å€ 0x8000190c
å†™å…¥åœ°å€ 0x8009ce6d
0x8000190c: 00 b7 80 23 sb	a1, 0(a5)
è¯»å–åœ°å€ 0x80001910
0x80001910: 00 17 87 93 addi	a5, a5, 1
è¯»å–åœ°å€ 0x80001914
0x80001914: fe e7 9c e3 bne	a5, a4, 0x8000190c
è¯»å–åœ°å€ 0x8000190c
å†™å…¥åœ°å€ 0x8009ce6e
0x8000190c: 00 b7 80 23 sb	a1, 0(a5)
è¯»å–åœ°å€ 0x80001910
0x80001910: 00 17 87 93 addi	a5, a5, 1
è¯»å–åœ°å€ 0x80001914
0x80001914: fe e7 9c e3 bne	a5, a4, 0x8000190c
è¯»å–åœ°å€ 0x8000190c
å†™å…¥åœ°å€ 0x8009ce6f
0x8000190c: 00 b7 80 23 sb	a1, 0(a5)
è¯»å–åœ°å€ 0x80001910
0x80001910: 00 17 87 93 addi	a5, a5, 1
è¯»å–åœ°å€ 0x80001914
0x80001914: fe e7 9c e3 bne	a5, a4, 0x8000190c
è¯»å–åœ°å€ 0x8000190c
å†™å…¥åœ°å€ 0x8009ce70
0x8000190c: 00 b7 80 23 sb	a1, 0(a5)
è¯»å–åœ°å€ 0x80001910
0x80001910: 00 17 87 93 addi	a5, a5, 1
è¯»å–åœ°å€ 0x80001914
0x80001914: fe e7 9c e3 bne	a5, a4, 0x8000190c
è¯»å–åœ°å€ 0x8000190c
å†™å…¥åœ°å€ 0x8009ce71
0x8000190c: 00 b7 80 23 sb	a1, 0(a5)
è¯»å–åœ°å€ 0x80001910
0x80001910: 00 17 87 93 addi	a5, a5, 1
è¯»å–åœ°å€ 0x80001914
0x80001914: fe e7 9c e3 bne	a5, a4, 0x8000190c
è¯»å–åœ°å€ 0x8000190c
å†™å…¥åœ°å€ 0x8009ce72
0x8000190c: 00 b7 80 23 sb	a1, 0(a5)
è¯»å–åœ°å€ 0x80001910
0x80001910: 00 17 87 93 addi	a5, a5, 1
è¯»å–åœ°å€ 0x80001914
0x80001914: fe e7 9c e3 bne	a5, a4, 0x8000190c
è¯»å–åœ°å€ 0x8000190c
å†™å…¥åœ°å€ 0x8009ce73
0x8000190c: 00 b7 80 23 sb	a1, 0(a5)
è¯»å–åœ°å€ 0x80001910
0x80001910: 00 17 87 93 addi	a5, a5, 1
è¯»å–åœ°å€ 0x80001914
0x80001914: fe e7 9c e3 bne	a5, a4, 0x8000190c
è¯»å–åœ°å€ 0x8000190c
å†™å…¥åœ°å€ 0x8009ce74
0x8000190c: 00 b7 80 23 sb	a1, 0(a5)
è¯»å–åœ°å€ 0x80001910
0x80001910: 00 17 87 93 addi	a5, a5, 1
è¯»å–åœ°å€ 0x80001914
0x80001914: fe e7 9c e3 bne	a5, a4, 0x8000190c
è¯»å–åœ°å€ 0x8000190c
å†™å…¥åœ°å€ 0x8009ce75
0x8000190c: 00 b7 80 23 sb	a1, 0(a5)
è¯»å–åœ°å€ 0x80001910
0x80001910: 00 17 87 93 addi	a5, a5, 1
è¯»å–åœ°å€ 0x80001914
0x80001914: fe e7 9c e3 bne	a5, a4, 0x8000190c
è¯»å–åœ°å€ 0x8000190c
å†™å…¥åœ°å€ 0x8009ce76
0x8000190c: 00 b7 80 23 sb	a1, 0(a5)
è¯»å–åœ°å€ 0x80001910
0x80001910: 00 17 87 93 addi	a5, a5, 1
è¯»å–åœ°å€ 0x80001914
0x80001914: fe e7 9c e3 bne	a5, a4, 0x8000190c
è¯»å–åœ°å€ 0x8000190c
å†™å…¥åœ°å€ 0x8009ce77
0x8000190c: 00 b7 80 23 sb	a1, 0(a5)
è¯»å–åœ°å€ 0x80001910
0x80001910: 00 17 87 93 addi	a5, a5, 1
è¯»å–åœ°å€ 0x80001914
0x80001914: fe e7 9c e3 bne	a5, a4, 0x8000190c
è¯»å–åœ°å€ 0x8000190c
å†™å…¥åœ°å€ 0x8009ce78
0x8000190c: 00 b7 80 23 sb	a1, 0(a5)
è¯»å–åœ°å€ 0x80001910
0x80001910: 00 17 87 93 addi	a5, a5, 1
è¯»å–åœ°å€ 0x80001914
0x80001914: fe e7 9c e3 bne	a5, a4, 0x8000190c
è¯»å–åœ°å€ 0x8000190c
å†™å…¥åœ°å€ 0x8009ce79
0x8000190c: 00 b7 80 23 sb	a1, 0(a5)
è¯»å–åœ°å€ 0x80001910
0x80001910: 00 17 87 93 addi	a5, a5, 1
è¯»å–åœ°å€ 0x80001914
0x80001914: fe e7 9c e3 bne	a5, a4, 0x8000190c
è¯»å–åœ°å€ 0x8000190c
å†™å…¥åœ°å€ 0x8009ce7a
0x8000190c: 00 b7 80 23 sb	a1, 0(a5)
è¯»å–åœ°å€ 0x80001910
0x80001910: 00 17 87 93 addi	a5, a5, 1
è¯»å–åœ°å€ 0x80001914
0x80001914: fe e7 9c e3 bne	a5, a4, 0x8000190c
è¯»å–åœ°å€ 0x8000190c
å†™å…¥åœ°å€ 0x8009ce7b
0x8000190c: 00 b7 80 23 sb	a1, 0(a5)
è¯»å–åœ°å€ 0x80001910
0x80001910: 00 17 87 93 addi	a5, a5, 1
è¯»å–åœ°å€ 0x80001914
0x80001914: fe e7 9c e3 bne	a5, a4, 0x8000190c
è¯»å–åœ°å€ 0x8000190c
å†™å…¥åœ°å€ 0x8009ce7c
0x8000190c: 00 b7 80 23 sb	a1, 0(a5)
è¯»å–åœ°å€ 0x80001910
0x80001910: 00 17 87 93 addi	a5, a5, 1
è¯»å–åœ°å€ 0x80001914
0x80001914: fe e7 9c e3 bne	a5, a4, 0x8000190c
è¯»å–åœ°å€ 0x8000190c
å†™å…¥åœ°å€ 0x8009ce7d
0x8000190c: 00 b7 80 23 sb	a1, 0(a5)
è¯»å–åœ°å€ 0x80001910
0x80001910: 00 17 87 93 addi	a5, a5, 1
è¯»å–åœ°å€ 0x80001914
0x80001914: fe e7 9c e3 bne	a5, a4, 0x8000190c
è¯»å–åœ°å€ 0x8000190c
å†™å…¥åœ°å€ 0x8009ce7e
0x8000190c: 00 b7 80 23 sb	a1, 0(a5)
è¯»å–åœ°å€ 0x80001910
0x80001910: 00 17 87 93 addi	a5, a5, 1
è¯»å–åœ°å€ 0x80001914
0x80001914: fe e7 9c e3 bne	a5, a4, 0x8000190c
è¯»å–åœ°å€ 0x8000190c
å†™å…¥åœ°å€ 0x8009ce7f
0x8000190c: 00 b7 80 23 sb	a1, 0(a5)
è¯»å–åœ°å€ 0x80001910
0x80001910: 00 17 87 93 addi	a5, a5, 1
è¯»å–åœ°å€ 0x80001914
0x80001914: fe e7 9c e3 bne	a5, a4, 0x8000190c
è¯»å–åœ°å€ 0x8000190c
å†™å…¥åœ°å€ 0x8009ce80
0x8000190c: 00 b7 80 23 sb	a1, 0(a5)
è¯»å–åœ°å€ 0x80001910
0x80001910: 00 17 87 93 addi	a5, a5, 1
è¯»å–åœ°å€ 0x80001914
0x80001914: fe e7 9c e3 bne	a5, a4, 0x8000190c
è¯»å–åœ°å€ 0x8000190c
å†™å…¥åœ°å€ 0x8009ce81
0x8000190c: 00 b7 80 23 sb	a1, 0(a5)
è¯»å–åœ°å€ 0x80001910
0x80001910: 00 17 87 93 addi	a5, a5, 1
è¯»å–åœ°å€ 0x80001914
0x80001914: fe e7 9c e3 bne	a5, a4, 0x8000190c
è¯»å–åœ°å€ 0x8000190c
å†™å…¥åœ°å€ 0x8009ce82
0x8000190c: 00 b7 80 23 sb	a1, 0(a5)
è¯»å–åœ°å€ 0x80001910
0x80001910: 00 17 87 93 addi	a5, a5, 1
è¯»å–åœ°å€ 0x80001914
0x80001914: fe e7 9c e3 bne	a5, a4, 0x8000190c
è¯»å–åœ°å€ 0x8000190c
å†™å…¥åœ°å€ 0x8009ce83
0x8000190c: 00 b7 80 23 sb	a1, 0(a5)
è¯»å–åœ°å€ 0x80001910
0x80001910: 00 17 87 93 addi	a5, a5, 1
è¯»å–åœ°å€ 0x80001914
0x80001914: fe e7 9c e3 bne	a5, a4, 0x8000190c
è¯»å–åœ°å€ 0x8000190c
å†™å…¥åœ°å€ 0x8009ce84
0x8000190c: 00 b7 80 23 sb	a1, 0(a5)
è¯»å–åœ°å€ 0x80001910
0x80001910: 00 17 87 93 addi	a5, a5, 1
è¯»å–åœ°å€ 0x80001914
0x80001914: fe e7 9c e3 bne	a5, a4, 0x8000190c
è¯»å–åœ°å€ 0x8000190c
å†™å…¥åœ°å€ 0x8009ce85
0x8000190c: 00 b7 80 23 sb	a1, 0(a5)
è¯»å–åœ°å€ 0x80001910
0x80001910: 00 17 87 93 addi	a5, a5, 1
è¯»å–åœ°å€ 0x80001914
0x80001914: fe e7 9c e3 bne	a5, a4, 0x8000190c
è¯»å–åœ°å€ 0x8000190c
å†™å…¥åœ°å€ 0x8009ce86
0x8000190c: 00 b7 80 23 sb	a1, 0(a5)
è¯»å–åœ°å€ 0x80001910
0x80001910: 00 17 87 93 addi	a5, a5, 1
è¯»å–åœ°å€ 0x80001914
0x80001914: fe e7 9c e3 bne	a5, a4, 0x8000190c
è¯»å–åœ°å€ 0x8000190c
å†™å…¥åœ°å€ 0x8009ce87
0x8000190c: 00 b7 80 23 sb	a1, 0(a5)
è¯»å–åœ°å€ 0x80001910
0x80001910: 00 17 87 93 addi	a5, a5, 1
è¯»å–åœ°å€ 0x80001914
0x80001914: fe e7 9c e3 bne	a5, a4, 0x8000190c
è¯»å–åœ°å€ 0x8000190c
å†™å…¥åœ°å€ 0x8009ce88
0x8000190c: 00 b7 80 23 sb	a1, 0(a5)
è¯»å–åœ°å€ 0x80001910
0x80001910: 00 17 87 93 addi	a5, a5, 1
è¯»å–åœ°å€ 0x80001914
0x80001914: fe e7 9c e3 bne	a5, a4, 0x8000190c
è¯»å–åœ°å€ 0x8000190c
å†™å…¥åœ°å€ 0x8009ce89
0x8000190c: 00 b7 80 23 sb	a1, 0(a5)
è¯»å–åœ°å€ 0x80001910
0x80001910: 00 17 87 93 addi	a5, a5, 1
è¯»å–åœ°å€ 0x80001914
0x80001914: fe e7 9c e3 bne	a5, a4, 0x8000190c
è¯»å–åœ°å€ 0x8000190c
å†™å…¥åœ°å€ 0x8009ce8a
0x8000190c: 00 b7 80 23 sb	a1, 0(a5)
è¯»å–åœ°å€ 0x80001910
0x80001910: 00 17 87 93 addi	a5, a5, 1
è¯»å–åœ°å€ 0x80001914
0x80001914: fe e7 9c e3 bne	a5, a4, 0x8000190c
è¯»å–åœ°å€ 0x8000190c
å†™å…¥åœ°å€ 0x8009ce8b
0x8000190c: 00 b7 80 23 sb	a1, 0(a5)
è¯»å–åœ°å€ 0x80001910
0x80001910: 00 17 87 93 addi	a5, a5, 1
è¯»å–åœ°å€ 0x80001914
0x80001914: fe e7 9c e3 bne	a5, a4, 0x8000190c
è¯»å–åœ°å€ 0x8000190c
å†™å…¥åœ°å€ 0x8009ce8c
0x8000190c: 00 b7 80 23 sb	a1, 0(a5)
è¯»å–åœ°å€ 0x80001910
0x80001910: 00 17 87 93 addi	a5, a5, 1
è¯»å–åœ°å€ 0x80001914
0x80001914: fe e7 9c e3 bne	a5, a4, 0x8000190c
è¯»å–åœ°å€ 0x8000190c
å†™å…¥åœ°å€ 0x8009ce8d
0x8000190c: 00 b7 80 23 sb	a1, 0(a5)
è¯»å–åœ°å€ 0x80001910
0x80001910: 00 17 87 93 addi	a5, a5, 1
è¯»å–åœ°å€ 0x80001914
0x80001914: fe e7 9c e3 bne	a5, a4, 0x8000190c
è¯»å–åœ°å€ 0x8000190c
å†™å…¥åœ°å€ 0x8009ce8e
0x8000190c: 00 b7 80 23 sb	a1, 0(a5)
è¯»å–åœ°å€ 0x80001910
0x80001910: 00 17 87 93 addi	a5, a5, 1
è¯»å–åœ°å€ 0x80001914
0x80001914: fe e7 9c e3 bne	a5, a4, 0x8000190c
è¯»å–åœ°å€ 0x8000190c
å†™å…¥åœ°å€ 0x8009ce8f
0x8000190c: 00 b7 80 23 sb	a1, 0(a5)
è¯»å–åœ°å€ 0x80001910
0x80001910: 00 17 87 93 addi	a5, a5, 1
è¯»å–åœ°å€ 0x80001914
0x80001914: fe e7 9c e3 bne	a5, a4, 0x8000190c
è¯»å–åœ°å€ 0x8000190c
å†™å…¥åœ°å€ 0x8009ce90
0x8000190c: 00 b7 80 23 sb	a1, 0(a5)
è¯»å–åœ°å€ 0x80001910
0x80001910: 00 17 87 93 addi	a5, a5, 1
è¯»å–åœ°å€ 0x80001914
0x80001914: fe e7 9c e3 bne	a5, a4, 0x8000190c
è¯»å–åœ°å€ 0x8000190c
å†™å…¥åœ°å€ 0x8009ce91
0x8000190c: 00 b7 80 23 sb	a1, 0(a5)
è¯»å–åœ°å€ 0x80001910
0x80001910: 00 17 87 93 addi	a5, a5, 1
è¯»å–åœ°å€ 0x80001914
0x80001914: fe e7 9c e3 bne	a5, a4, 0x8000190c
è¯»å–åœ°å€ 0x8000190c
å†™å…¥åœ°å€ 0x8009ce92
0x8000190c: 00 b7 80 23 sb	a1, 0(a5)
è¯»å–åœ°å€ 0x80001910
0x80001910: 00 17 87 93 addi	a5, a5, 1
è¯»å–åœ°å€ 0x80001914
0x80001914: fe e7 9c e3 bne	a5, a4, 0x8000190c
è¯»å–åœ°å€ 0x8000190c
å†™å…¥åœ°å€ 0x8009ce93
0x8000190c: 00 b7 80 23 sb	a1, 0(a5)
è¯»å–åœ°å€ 0x80001910
0x80001910: 00 17 87 93 addi	a5, a5, 1
è¯»å–åœ°å€ 0x80001914
0x80001914: fe e7 9c e3 bne	a5, a4, 0x8000190c
è¯»å–åœ°å€ 0x8000190c
å†™å…¥åœ°å€ 0x8009ce94
0x8000190c: 00 b7 80 23 sb	a1, 0(a5)
è¯»å–åœ°å€ 0x80001910
0x80001910: 00 17 87 93 addi	a5, a5, 1
è¯»å–åœ°å€ 0x80001914
0x80001914: fe e7 9c e3 bne	a5, a4, 0x8000190c
è¯»å–åœ°å€ 0x8000190c
å†™å…¥åœ°å€ 0x8009ce95
0x8000190c: 00 b7 80 23 sb	a1, 0(a5)
è¯»å–åœ°å€ 0x80001910
0x80001910: 00 17 87 93 addi	a5, a5, 1
è¯»å–åœ°å€ 0x80001914
0x80001914: fe e7 9c e3 bne	a5, a4, 0x8000190c
è¯»å–åœ°å€ 0x8000190c
å†™å…¥åœ°å€ 0x8009ce96
0x8000190c: 00 b7 80 23 sb	a1, 0(a5)
è¯»å–åœ°å€ 0x80001910
0x80001910: 00 17 87 93 addi	a5, a5, 1
è¯»å–åœ°å€ 0x80001914
0x80001914: fe e7 9c e3 bne	a5, a4, 0x8000190c
è¯»å–åœ°å€ 0x8000190c
å†™å…¥åœ°å€ 0x8009ce97
0x8000190c: 00 b7 80 23 sb	a1, 0(a5)
è¯»å–åœ°å€ 0x80001910
0x80001910: 00 17 87 93 addi	a5, a5, 1
è¯»å–åœ°å€ 0x80001914
0x80001914: fe e7 9c e3 bne	a5, a4, 0x8000190c
è¯»å–åœ°å€ 0x8000190c
å†™å…¥åœ°å€ 0x8009ce98
0x8000190c: 00 b7 80 23 sb	a1, 0(a5)
è¯»å–åœ°å€ 0x80001910
0x80001910: 00 17 87 93 addi	a5, a5, 1
è¯»å–åœ°å€ 0x80001914
0x80001914: fe e7 9c e3 bne	a5, a4, 0x8000190c
è¯»å–åœ°å€ 0x8000190c
å†™å…¥åœ°å€ 0x8009ce99
0x8000190c: 00 b7 80 23 sb	a1, 0(a5)
è¯»å–åœ°å€ 0x80001910
0x80001910: 00 17 87 93 addi	a5, a5, 1
è¯»å–åœ°å€ 0x80001914
0x80001914: fe e7 9c e3 bne	a5, a4, 0x8000190c
è¯»å–åœ°å€ 0x8000190c
å†™å…¥åœ°å€ 0x8009ce9a
0x8000190c: 00 b7 80 23 sb	a1, 0(a5)
è¯»å–åœ°å€ 0x80001910
0x80001910: 00 17 87 93 addi	a5, a5, 1
è¯»å–åœ°å€ 0x80001914
0x80001914: fe e7 9c e3 bne	a5, a4, 0x8000190c
è¯»å–åœ°å€ 0x8000190c
å†™å…¥åœ°å€ 0x8009ce9b
0x8000190c: 00 b7 80 23 sb	a1, 0(a5)
è¯»å–åœ°å€ 0x80001910
0x80001910: 00 17 87 93 addi	a5, a5, 1
è¯»å–åœ°å€ 0x80001914
0x80001914: fe e7 9c e3 bne	a5, a4, 0x8000190c
è¯»å–åœ°å€ 0x8000190c
å†™å…¥åœ°å€ 0x8009ce9c
0x8000190c: 00 b7 80 23 sb	a1, 0(a5)
è¯»å–åœ°å€ 0x80001910
0x80001910: 00 17 87 93 addi	a5, a5, 1
è¯»å–åœ°å€ 0x80001914
0x80001914: fe e7 9c e3 bne	a5, a4, 0x8000190c
è¯»å–åœ°å€ 0x8000190c
å†™å…¥åœ°å€ 0x8009ce9d
0x8000190c: 00 b7 80 23 sb	a1, 0(a5)
è¯»å–åœ°å€ 0x80001910
0x80001910: 00 17 87 93 addi	a5, a5, 1
è¯»å–åœ°å€ 0x80001914
0x80001914: fe e7 9c e3 bne	a5, a4, 0x8000190c
è¯»å–åœ°å€ 0x8000190c
å†™å…¥åœ°å€ 0x8009ce9e
0x8000190c: 00 b7 80 23 sb	a1, 0(a5)
è¯»å–åœ°å€ 0x80001910
0x80001910: 00 17 87 93 addi	a5, a5, 1
è¯»å–åœ°å€ 0x80001914
0x80001914: fe e7 9c e3 bne	a5, a4, 0x8000190c
è¯»å–åœ°å€ 0x8000190c
å†™å…¥åœ°å€ 0x8009ce9f
0x8000190c: 00 b7 80 23 sb	a1, 0(a5)
è¯»å–åœ°å€ 0x80001910
0x80001910: 00 17 87 93 addi	a5, a5, 1
è¯»å–åœ°å€ 0x80001914
0x80001914: fe e7 9c e3 bne	a5, a4, 0x8000190c
è¯»å–åœ°å€ 0x8000190c
å†™å…¥åœ°å€ 0x8009cea0
0x8000190c: 00 b7 80 23 sb	a1, 0(a5)
è¯»å–åœ°å€ 0x80001910
0x80001910: 00 17 87 93 addi	a5, a5, 1
è¯»å–åœ°å€ 0x80001914
0x80001914: fe e7 9c e3 bne	a5, a4, 0x8000190c
è¯»å–åœ°å€ 0x8000190c
å†™å…¥åœ°å€ 0x8009cea1
0x8000190c: 00 b7 80 23 sb	a1, 0(a5)
è¯»å–åœ°å€ 0x80001910
0x80001910: 00 17 87 93 addi	a5, a5, 1
è¯»å–åœ°å€ 0x80001914
0x80001914: fe e7 9c e3 bne	a5, a4, 0x8000190c
è¯»å–åœ°å€ 0x8000190c
å†™å…¥åœ°å€ 0x8009cea2
0x8000190c: 00 b7 80 23 sb	a1, 0(a5)
è¯»å–åœ°å€ 0x80001910
0x80001910: 00 17 87 93 addi	a5, a5, 1
è¯»å–åœ°å€ 0x80001914
0x80001914: fe e7 9c e3 bne	a5, a4, 0x8000190c
è¯»å–åœ°å€ 0x8000190c
å†™å…¥åœ°å€ 0x8009cea3
0x8000190c: 00 b7 80 23 sb	a1, 0(a5)
è¯»å–åœ°å€ 0x80001910
0x80001910: 00 17 87 93 addi	a5, a5, 1
è¯»å–åœ°å€ 0x80001914
0x80001914: fe e7 9c e3 bne	a5, a4, 0x8000190c
è¯»å–åœ°å€ 0x8000190c
å†™å…¥åœ°å€ 0x8009cea4
0x8000190c: 00 b7 80 23 sb	a1, 0(a5)
è¯»å–åœ°å€ 0x80001910
0x80001910: 00 17 87 93 addi	a5, a5, 1
è¯»å–åœ°å€ 0x80001914
0x80001914: fe e7 9c e3 bne	a5, a4, 0x8000190c
è¯»å–åœ°å€ 0x8000190c
å†™å…¥åœ°å€ 0x8009cea5
0x8000190c: 00 b7 80 23 sb	a1, 0(a5)
è¯»å–åœ°å€ 0x80001910
0x80001910: 00 17 87 93 addi	a5, a5, 1
è¯»å–åœ°å€ 0x80001914
0x80001914: fe e7 9c e3 bne	a5, a4, 0x8000190c
è¯»å–åœ°å€ 0x8000190c
å†™å…¥åœ°å€ 0x8009cea6
0x8000190c: 00 b7 80 23 sb	a1, 0(a5)
è¯»å–åœ°å€ 0x80001910
0x80001910: 00 17 87 93 addi	a5, a5, 1
è¯»å–åœ°å€ 0x80001914
0x80001914: fe e7 9c e3 bne	a5, a4, 0x8000190c
è¯»å–åœ°å€ 0x8000190c
å†™å…¥åœ°å€ 0x8009cea7
0x8000190c: 00 b7 80 23 sb	a1, 0(a5)
è¯»å–åœ°å€ 0x80001910
0x80001910: 00 17 87 93 addi	a5, a5, 1
è¯»å–åœ°å€ 0x80001914
0x80001914: fe e7 9c e3 bne	a5, a4, 0x8000190c
è¯»å–åœ°å€ 0x8000190c
å†™å…¥åœ°å€ 0x8009cea8
0x8000190c: 00 b7 80 23 sb	a1, 0(a5)
è¯»å–åœ°å€ 0x80001910
0x80001910: 00 17 87 93 addi	a5, a5, 1
è¯»å–åœ°å€ 0x80001914
0x80001914: fe e7 9c e3 bne	a5, a4, 0x8000190c
è¯»å–åœ°å€ 0x8000190c
å†™å…¥åœ°å€ 0x8009cea9
0x8000190c: 00 b7 80 23 sb	a1, 0(a5)
è¯»å–åœ°å€ 0x80001910
0x80001910: 00 17 87 93 addi	a5, a5, 1
è¯»å–åœ°å€ 0x80001914
0x80001914: fe e7 9c e3 bne	a5, a4, 0x8000190c
è¯»å–åœ°å€ 0x8000190c
å†™å…¥åœ°å€ 0x8009ceaa
0x8000190c: 00 b7 80 23 sb	a1, 0(a5)
è¯»å–åœ°å€ 0x80001910
0x80001910: 00 17 87 93 addi	a5, a5, 1
è¯»å–åœ°å€ 0x80001914
0x80001914: fe e7 9c e3 bne	a5, a4, 0x8000190c
è¯»å–åœ°å€ 0x8000190c
å†™å…¥åœ°å€ 0x8009ceab
0x8000190c: 00 b7 80 23 sb	a1, 0(a5)
è¯»å–åœ°å€ 0x80001910
0x80001910: 00 17 87 93 addi	a5, a5, 1
è¯»å–åœ°å€ 0x80001914
0x80001914: fe e7 9c e3 bne	a5, a4, 0x8000190c
è¯»å–åœ°å€ 0x8000190c
å†™å…¥åœ°å€ 0x8009ceac
0x8000190c: 00 b7 80 23 sb	a1, 0(a5)
è¯»å–åœ°å€ 0x80001910
0x80001910: 00 17 87 93 addi	a5, a5, 1
è¯»å–åœ°å€ 0x80001914
0x80001914: fe e7 9c e3 bne	a5, a4, 0x8000190c
è¯»å–åœ°å€ 0x8000190c
å†™å…¥åœ°å€ 0x8009cead
0x8000190c: 00 b7 80 23 sb	a1, 0(a5)
è¯»å–åœ°å€ 0x80001910
0x80001910: 00 17 87 93 addi	a5, a5, 1
è¯»å–åœ°å€ 0x80001914
0x80001914: fe e7 9c e3 bne	a5, a4, 0x8000190c
è¯»å–åœ°å€ 0x8000190c
å†™å…¥åœ°å€ 0x8009ceae
0x8000190c: 00 b7 80 23 sb	a1, 0(a5)
è¯»å–åœ°å€ 0x80001910
0x80001910: 00 17 87 93 addi	a5, a5, 1
è¯»å–åœ°å€ 0x80001914
0x80001914: fe e7 9c e3 bne	a5, a4, 0x8000190c
è¯»å–åœ°å€ 0x8000190c
å†™å…¥åœ°å€ 0x8009ceaf
0x8000190c: 00 b7 80 23 sb	a1, 0(a5)
è¯»å–åœ°å€ 0x80001910
0x80001910: 00 17 87 93 addi	a5, a5, 1
è¯»å–åœ°å€ 0x80001914
0x80001914: fe e7 9c e3 bne	a5, a4, 0x8000190c
è¯»å–åœ°å€ 0x8000190c
å†™å…¥åœ°å€ 0x8009ceb0
0x8000190c: 00 b7 80 23 sb	a1, 0(a5)
è¯»å–åœ°å€ 0x80001910
0x80001910: 00 17 87 93 addi	a5, a5, 1
è¯»å–åœ°å€ 0x80001914
0x80001914: fe e7 9c e3 bne	a5, a4, 0x8000190c
è¯»å–åœ°å€ 0x8000190c
å†™å…¥åœ°å€ 0x8009ceb1
0x8000190c: 00 b7 80 23 sb	a1, 0(a5)
è¯»å–åœ°å€ 0x80001910
0x80001910: 00 17 87 93 addi	a5, a5, 1
è¯»å–åœ°å€ 0x80001914
0x80001914: fe e7 9c e3 bne	a5, a4, 0x8000190c
è¯»å–åœ°å€ 0x8000190c
å†™å…¥åœ°å€ 0x8009ceb2
0x8000190c: 00 b7 80 23 sb	a1, 0(a5)
è¯»å–åœ°å€ 0x80001910
0x80001910: 00 17 87 93 addi	a5, a5, 1
è¯»å–åœ°å€ 0x80001914
0x80001914: fe e7 9c e3 bne	a5, a4, 0x8000190c
è¯»å–åœ°å€ 0x8000190c
å†™å…¥åœ°å€ 0x8009ceb3
0x8000190c: 00 b7 80 23 sb	a1, 0(a5)
è¯»å–åœ°å€ 0x80001910
0x80001910: 00 17 87 93 addi	a5, a5, 1
è¯»å–åœ°å€ 0x80001914
0x80001914: fe e7 9c e3 bne	a5, a4, 0x8000190c
è¯»å–åœ°å€ 0x8000190c
å†™å…¥åœ°å€ 0x8009ceb4
0x8000190c: 00 b7 80 23 sb	a1, 0(a5)
è¯»å–åœ°å€ 0x80001910
0x80001910: 00 17 87 93 addi	a5, a5, 1
è¯»å–åœ°å€ 0x80001914
0x80001914: fe e7 9c e3 bne	a5, a4, 0x8000190c
è¯»å–åœ°å€ 0x8000190c
å†™å…¥åœ°å€ 0x8009ceb5
0x8000190c: 00 b7 80 23 sb	a1, 0(a5)
è¯»å–åœ°å€ 0x80001910
0x80001910: 00 17 87 93 addi	a5, a5, 1
è¯»å–åœ°å€ 0x80001914
0x80001914: fe e7 9c e3 bne	a5, a4, 0x8000190c
è¯»å–åœ°å€ 0x8000190c
å†™å…¥åœ°å€ 0x8009ceb6
0x8000190c: 00 b7 80 23 sb	a1, 0(a5)
è¯»å–åœ°å€ 0x80001910
0x80001910: 00 17 87 93 addi	a5, a5, 1
è¯»å–åœ°å€ 0x80001914
0x80001914: fe e7 9c e3 bne	a5, a4, 0x8000190c
è¯»å–åœ°å€ 0x8000190c
å†™å…¥åœ°å€ 0x8009ceb7
0x8000190c: 00 b7 80 23 sb	a1, 0(a5)
è¯»å–åœ°å€ 0x80001910
0x80001910: 00 17 87 93 addi	a5, a5, 1
è¯»å–åœ°å€ 0x80001914
0x80001914: fe e7 9c e3 bne	a5, a4, 0x8000190c
è¯»å–åœ°å€ 0x8000190c
å†™å…¥åœ°å€ 0x8009ceb8
0x8000190c: 00 b7 80 23 sb	a1, 0(a5)
è¯»å–åœ°å€ 0x80001910
0x80001910: 00 17 87 93 addi	a5, a5, 1
è¯»å–åœ°å€ 0x80001914
0x80001914: fe e7 9c e3 bne	a5, a4, 0x8000190c
è¯»å–åœ°å€ 0x8000190c
å†™å…¥åœ°å€ 0x8009ceb9
0x8000190c: 00 b7 80 23 sb	a1, 0(a5)
è¯»å–åœ°å€ 0x80001910
0x80001910: 00 17 87 93 addi	a5, a5, 1
è¯»å–åœ°å€ 0x80001914
0x80001914: fe e7 9c e3 bne	a5, a4, 0x8000190c
è¯»å–åœ°å€ 0x8000190c
å†™å…¥åœ°å€ 0x8009ceba
0x8000190c: 00 b7 80 23 sb	a1, 0(a5)
è¯»å–åœ°å€ 0x80001910
0x80001910: 00 17 87 93 addi	a5, a5, 1
è¯»å–åœ°å€ 0x80001914
0x80001914: fe e7 9c e3 bne	a5, a4, 0x8000190c
è¯»å–åœ°å€ 0x8000190c
å†™å…¥åœ°å€ 0x8009cebb
0x8000190c: 00 b7 80 23 sb	a1, 0(a5)
è¯»å–åœ°å€ 0x80001910
0x80001910: 00 17 87 93 addi	a5, a5, 1
è¯»å–åœ°å€ 0x80001914
0x80001914: fe e7 9c e3 bne	a5, a4, 0x8000190c
è¯»å–åœ°å€ 0x8000190c
å†™å…¥åœ°å€ 0x8009cebc
0x8000190c: 00 b7 80 23 sb	a1, 0(a5)
è¯»å–åœ°å€ 0x80001910
0x80001910: 00 17 87 93 addi	a5, a5, 1
è¯»å–åœ°å€ 0x80001914
0x80001914: fe e7 9c e3 bne	a5, a4, 0x8000190c
è¯»å–åœ°å€ 0x8000190c
å†™å…¥åœ°å€ 0x8009cebd
0x8000190c: 00 b7 80 23 sb	a1, 0(a5)
è¯»å–åœ°å€ 0x80001910
0x80001910: 00 17 87 93 addi	a5, a5, 1
è¯»å–åœ°å€ 0x80001914
0x80001914: fe e7 9c e3 bne	a5, a4, 0x8000190c
è¯»å–åœ°å€ 0x8000190c
å†™å…¥åœ°å€ 0x8009cebe
0x8000190c: 00 b7 80 23 sb	a1, 0(a5)
è¯»å–åœ°å€ 0x80001910
0x80001910: 00 17 87 93 addi	a5, a5, 1
è¯»å–åœ°å€ 0x80001914
0x80001914: fe e7 9c e3 bne	a5, a4, 0x8000190c
è¯»å–åœ°å€ 0x8000190c
å†™å…¥åœ°å€ 0x8009cebf
0x8000190c: 00 b7 80 23 sb	a1, 0(a5)
è¯»å–åœ°å€ 0x80001910
0x80001910: 00 17 87 93 addi	a5, a5, 1
è¯»å–åœ°å€ 0x80001914
0x80001914: fe e7 9c e3 bne	a5, a4, 0x8000190c
è¯»å–åœ°å€ 0x8000190c
å†™å…¥åœ°å€ 0x8009cec0
0x8000190c: 00 b7 80 23 sb	a1, 0(a5)
è¯»å–åœ°å€ 0x80001910
0x80001910: 00 17 87 93 addi	a5, a5, 1
è¯»å–åœ°å€ 0x80001914
0x80001914: fe e7 9c e3 bne	a5, a4, 0x8000190c
è¯»å–åœ°å€ 0x8000190c
å†™å…¥åœ°å€ 0x8009cec1
0x8000190c: 00 b7 80 23 sb	a1, 0(a5)
è¯»å–åœ°å€ 0x80001910
0x80001910: 00 17 87 93 addi	a5, a5, 1
è¯»å–åœ°å€ 0x80001914
0x80001914: fe e7 9c e3 bne	a5, a4, 0x8000190c
è¯»å–åœ°å€ 0x8000190c
å†™å…¥åœ°å€ 0x8009cec2
0x8000190c: 00 b7 80 23 sb	a1, 0(a5)
è¯»å–åœ°å€ 0x80001910
0x80001910: 00 17 87 93 addi	a5, a5, 1
è¯»å–åœ°å€ 0x80001914
0x80001914: fe e7 9c e3 bne	a5, a4, 0x8000190c
è¯»å–åœ°å€ 0x8000190c
å†™å…¥åœ°å€ 0x8009cec3
0x8000190c: 00 b7 80 23 sb	a1, 0(a5)
è¯»å–åœ°å€ 0x80001910
0x80001910: 00 17 87 93 addi	a5, a5, 1
è¯»å–åœ°å€ 0x80001914
0x80001914: fe e7 9c e3 bne	a5, a4, 0x8000190c
è¯»å–åœ°å€ 0x8000190c
å†™å…¥åœ°å€ 0x8009cec4
0x8000190c: 00 b7 80 23 sb	a1, 0(a5)
è¯»å–åœ°å€ 0x80001910
0x80001910: 00 17 87 93 addi	a5, a5, 1
è¯»å–åœ°å€ 0x80001914
0x80001914: fe e7 9c e3 bne	a5, a4, 0x8000190c
è¯»å–åœ°å€ 0x8000190c
å†™å…¥åœ°å€ 0x8009cec5
0x8000190c: 00 b7 80 23 sb	a1, 0(a5)
è¯»å–åœ°å€ 0x80001910
0x80001910: 00 17 87 93 addi	a5, a5, 1
è¯»å–åœ°å€ 0x80001914
0x80001914: fe e7 9c e3 bne	a5, a4, 0x8000190c
è¯»å–åœ°å€ 0x8000190c
å†™å…¥åœ°å€ 0x8009cec6
0x8000190c: 00 b7 80 23 sb	a1, 0(a5)
è¯»å–åœ°å€ 0x80001910
0x80001910: 00 17 87 93 addi	a5, a5, 1
è¯»å–åœ°å€ 0x80001914
0x80001914: fe e7 9c e3 bne	a5, a4, 0x8000190c
è¯»å–åœ°å€ 0x8000190c
å†™å…¥åœ°å€ 0x8009cec7
0x8000190c: 00 b7 80 23 sb	a1, 0(a5)
è¯»å–åœ°å€ 0x80001910
0x80001910: 00 17 87 93 addi	a5, a5, 1
è¯»å–åœ°å€ 0x80001914
0x80001914: fe e7 9c e3 bne	a5, a4, 0x8000190c
è¯»å–åœ°å€ 0x8000190c
å†™å…¥åœ°å€ 0x8009cec8
0x8000190c: 00 b7 80 23 sb	a1, 0(a5)
è¯»å–åœ°å€ 0x80001910
0x80001910: 00 17 87 93 addi	a5, a5, 1
è¯»å–åœ°å€ 0x80001914
0x80001914: fe e7 9c e3 bne	a5, a4, 0x8000190c
è¯»å–åœ°å€ 0x8000190c
å†™å…¥åœ°å€ 0x8009cec9
0x8000190c: 00 b7 80 23 sb	a1, 0(a5)
è¯»å–åœ°å€ 0x80001910
0x80001910: 00 17 87 93 addi	a5, a5, 1
è¯»å–åœ°å€ 0x80001914
0x80001914: fe e7 9c e3 bne	a5, a4, 0x8000190c
è¯»å–åœ°å€ 0x8000190c
å†™å…¥åœ°å€ 0x8009ceca
0x8000190c: 00 b7 80 23 sb	a1, 0(a5)
è¯»å–åœ°å€ 0x80001910
0x80001910: 00 17 87 93 addi	a5, a5, 1
è¯»å–åœ°å€ 0x80001914
0x80001914: fe e7 9c e3 bne	a5, a4, 0x8000190c
è¯»å–åœ°å€ 0x8000190c
å†™å…¥åœ°å€ 0x8009cecb
0x8000190c: 00 b7 80 23 sb	a1, 0(a5)
è¯»å–åœ°å€ 0x80001910
0x80001910: 00 17 87 93 addi	a5, a5, 1
è¯»å–åœ°å€ 0x80001914
0x80001914: fe e7 9c e3 bne	a5, a4, 0x8000190c
è¯»å–åœ°å€ 0x8000190c
å†™å…¥åœ°å€ 0x8009cecc
0x8000190c: 00 b7 80 23 sb	a1, 0(a5)
è¯»å–åœ°å€ 0x80001910
0x80001910: 00 17 87 93 addi	a5, a5, 1
è¯»å–åœ°å€ 0x80001914
0x80001914: fe e7 9c e3 bne	a5, a4, 0x8000190c
è¯»å–åœ°å€ 0x8000190c
å†™å…¥åœ°å€ 0x8009cecd
0x8000190c: 00 b7 80 23 sb	a1, 0(a5)
è¯»å–åœ°å€ 0x80001910
0x80001910: 00 17 87 93 addi	a5, a5, 1
è¯»å–åœ°å€ 0x80001914
0x80001914: fe e7 9c e3 bne	a5, a4, 0x8000190c
è¯»å–åœ°å€ 0x8000190c
å†™å…¥åœ°å€ 0x8009cece
0x8000190c: 00 b7 80 23 sb	a1, 0(a5)
è¯»å–åœ°å€ 0x80001910
0x80001910: 00 17 87 93 addi	a5, a5, 1
è¯»å–åœ°å€ 0x80001914
0x80001914: fe e7 9c e3 bne	a5, a4, 0x8000190c
è¯»å–åœ°å€ 0x8000190c
å†™å…¥åœ°å€ 0x8009cecf
0x8000190c: 00 b7 80 23 sb	a1, 0(a5)
è¯»å–åœ°å€ 0x80001910
0x80001910: 00 17 87 93 addi	a5, a5, 1
è¯»å–åœ°å€ 0x80001914
0x80001914: fe e7 9c e3 bne	a5, a4, 0x8000190c
è¯»å–åœ°å€ 0x8000190c
å†™å…¥åœ°å€ 0x8009ced0
0x8000190c: 00 b7 80 23 sb	a1, 0(a5)
è¯»å–åœ°å€ 0x80001910
0x80001910: 00 17 87 93 addi	a5, a5, 1
è¯»å–åœ°å€ 0x80001914
0x80001914: fe e7 9c e3 bne	a5, a4, 0x8000190c
è¯»å–åœ°å€ 0x8000190c
å†™å…¥åœ°å€ 0x8009ced1
0x8000190c: 00 b7 80 23 sb	a1, 0(a5)
è¯»å–åœ°å€ 0x80001910
0x80001910: 00 17 87 93 addi	a5, a5, 1
è¯»å–åœ°å€ 0x80001914
0x80001914: fe e7 9c e3 bne	a5, a4, 0x8000190c
è¯»å–åœ°å€ 0x8000190c
å†™å…¥åœ°å€ 0x8009ced2
0x8000190c: 00 b7 80 23 sb	a1, 0(a5)
è¯»å–åœ°å€ 0x80001910
0x80001910: 00 17 87 93 addi	a5, a5, 1
è¯»å–åœ°å€ 0x80001914
0x80001914: fe e7 9c e3 bne	a5, a4, 0x8000190c
è¯»å–åœ°å€ 0x8000190c
å†™å…¥åœ°å€ 0x8009ced3
0x8000190c: 00 b7 80 23 sb	a1, 0(a5)
è¯»å–åœ°å€ 0x80001910
0x80001910: 00 17 87 93 addi	a5, a5, 1
è¯»å–åœ°å€ 0x80001914
0x80001914: fe e7 9c e3 bne	a5, a4, 0x8000190c
è¯»å–åœ°å€ 0x8000190c
å†™å…¥åœ°å€ 0x8009ced4
0x8000190c: 00 b7 80 23 sb	a1, 0(a5)
è¯»å–åœ°å€ 0x80001910
0x80001910: 00 17 87 93 addi	a5, a5, 1
è¯»å–åœ°å€ 0x80001914
0x80001914: fe e7 9c e3 bne	a5, a4, 0x8000190c
è¯»å–åœ°å€ 0x8000190c
å†™å…¥åœ°å€ 0x8009ced5
0x8000190c: 00 b7 80 23 sb	a1, 0(a5)
è¯»å–åœ°å€ 0x80001910
0x80001910: 00 17 87 93 addi	a5, a5, 1
è¯»å–åœ°å€ 0x80001914
0x80001914: fe e7 9c e3 bne	a5, a4, 0x8000190c
è¯»å–åœ°å€ 0x8000190c
å†™å…¥åœ°å€ 0x8009ced6
0x8000190c: 00 b7 80 23 sb	a1, 0(a5)
è¯»å–åœ°å€ 0x80001910
0x80001910: 00 17 87 93 addi	a5, a5, 1
è¯»å–åœ°å€ 0x80001914
0x80001914: fe e7 9c e3 bne	a5, a4, 0x8000190c
è¯»å–åœ°å€ 0x8000190c
å†™å…¥åœ°å€ 0x8009ced7
0x8000190c: 00 b7 80 23 sb	a1, 0(a5)
è¯»å–åœ°å€ 0x80001910
0x80001910: 00 17 87 93 addi	a5, a5, 1
è¯»å–åœ°å€ 0x80001914
0x80001914: fe e7 9c e3 bne	a5, a4, 0x8000190c
è¯»å–åœ°å€ 0x8000190c
å†™å…¥åœ°å€ 0x8009ced8
0x8000190c: 00 b7 80 23 sb	a1, 0(a5)
è¯»å–åœ°å€ 0x80001910
0x80001910: 00 17 87 93 addi	a5, a5, 1
è¯»å–åœ°å€ 0x80001914
0x80001914: fe e7 9c e3 bne	a5, a4, 0x8000190c
è¯»å–åœ°å€ 0x8000190c
å†™å…¥åœ°å€ 0x8009ced9
0x8000190c: 00 b7 80 23 sb	a1, 0(a5)
è¯»å–åœ°å€ 0x80001910
0x80001910: 00 17 87 93 addi	a5, a5, 1
è¯»å–åœ°å€ 0x80001914
0x80001914: fe e7 9c e3 bne	a5, a4, 0x8000190c
è¯»å–åœ°å€ 0x8000190c
å†™å…¥åœ°å€ 0x8009ceda
0x8000190c: 00 b7 80 23 sb	a1, 0(a5)
è¯»å–åœ°å€ 0x80001910
0x80001910: 00 17 87 93 addi	a5, a5, 1
è¯»å–åœ°å€ 0x80001914
0x80001914: fe e7 9c e3 bne	a5, a4, 0x8000190c
è¯»å–åœ°å€ 0x8000190c
å†™å…¥åœ°å€ 0x8009cedb
0x8000190c: 00 b7 80 23 sb	a1, 0(a5)
è¯»å–åœ°å€ 0x80001910
0x80001910: 00 17 87 93 addi	a5, a5, 1
è¯»å–åœ°å€ 0x80001914
0x80001914: fe e7 9c e3 bne	a5, a4, 0x8000190c
è¯»å–åœ°å€ 0x8000190c
å†™å…¥åœ°å€ 0x8009cedc
0x8000190c: 00 b7 80 23 sb	a1, 0(a5)
è¯»å–åœ°å€ 0x80001910
0x80001910: 00 17 87 93 addi	a5, a5, 1
è¯»å–åœ°å€ 0x80001914
0x80001914: fe e7 9c e3 bne	a5, a4, 0x8000190c
è¯»å–åœ°å€ 0x8000190c
å†™å…¥åœ°å€ 0x8009cedd
0x8000190c: 00 b7 80 23 sb	a1, 0(a5)
è¯»å–åœ°å€ 0x80001910
0x80001910: 00 17 87 93 addi	a5, a5, 1
è¯»å–åœ°å€ 0x80001914
0x80001914: fe e7 9c e3 bne	a5, a4, 0x8000190c
è¯»å–åœ°å€ 0x8000190c
å†™å…¥åœ°å€ 0x8009cede
0x8000190c: 00 b7 80 23 sb	a1, 0(a5)
è¯»å–åœ°å€ 0x80001910
0x80001910: 00 17 87 93 addi	a5, a5, 1
è¯»å–åœ°å€ 0x80001914
0x80001914: fe e7 9c e3 bne	a5, a4, 0x8000190c
è¯»å–åœ°å€ 0x8000190c
å†™å…¥åœ°å€ 0x8009cedf
0x8000190c: 00 b7 80 23 sb	a1, 0(a5)
è¯»å–åœ°å€ 0x80001910
0x80001910: 00 17 87 93 addi	a5, a5, 1
è¯»å–åœ°å€ 0x80001914
0x80001914: fe e7 9c e3 bne	a5, a4, 0x8000190c
è¯»å–åœ°å€ 0x8000190c
å†™å…¥åœ°å€ 0x8009cee0
0x8000190c: 00 b7 80 23 sb	a1, 0(a5)
è¯»å–åœ°å€ 0x80001910
0x80001910: 00 17 87 93 addi	a5, a5, 1
è¯»å–åœ°å€ 0x80001914
0x80001914: fe e7 9c e3 bne	a5, a4, 0x8000190c
è¯»å–åœ°å€ 0x8000190c
å†™å…¥åœ°å€ 0x8009cee1
0x8000190c: 00 b7 80 23 sb	a1, 0(a5)
è¯»å–åœ°å€ 0x80001910
0x80001910: 00 17 87 93 addi	a5, a5, 1
è¯»å–åœ°å€ 0x80001914
0x80001914: fe e7 9c e3 bne	a5, a4, 0x8000190c
è¯»å–åœ°å€ 0x8000190c
å†™å…¥åœ°å€ 0x8009cee2
0x8000190c: 00 b7 80 23 sb	a1, 0(a5)
è¯»å–åœ°å€ 0x80001910
0x80001910: 00 17 87 93 addi	a5, a5, 1
è¯»å–åœ°å€ 0x80001914
0x80001914: fe e7 9c e3 bne	a5, a4, 0x8000190c
è¯»å–åœ°å€ 0x8000190c
å†™å…¥åœ°å€ 0x8009cee3
0x8000190c: 00 b7 80 23 sb	a1, 0(a5)
è¯»å–åœ°å€ 0x80001910
0x80001910: 00 17 87 93 addi	a5, a5, 1
è¯»å–åœ°å€ 0x80001914
0x80001914: fe e7 9c e3 bne	a5, a4, 0x8000190c
è¯»å–åœ°å€ 0x8000190c
å†™å…¥åœ°å€ 0x8009cee4
0x8000190c: 00 b7 80 23 sb	a1, 0(a5)
è¯»å–åœ°å€ 0x80001910
0x80001910: 00 17 87 93 addi	a5, a5, 1
è¯»å–åœ°å€ 0x80001914
0x80001914: fe e7 9c e3 bne	a5, a4, 0x8000190c
è¯»å–åœ°å€ 0x8000190c
å†™å…¥åœ°å€ 0x8009cee5
0x8000190c: 00 b7 80 23 sb	a1, 0(a5)
è¯»å–åœ°å€ 0x80001910
0x80001910: 00 17 87 93 addi	a5, a5, 1
è¯»å–åœ°å€ 0x80001914
0x80001914: fe e7 9c e3 bne	a5, a4, 0x8000190c
è¯»å–åœ°å€ 0x8000190c
å†™å…¥åœ°å€ 0x8009cee6
0x8000190c: 00 b7 80 23 sb	a1, 0(a5)
è¯»å–åœ°å€ 0x80001910
0x80001910: 00 17 87 93 addi	a5, a5, 1
è¯»å–åœ°å€ 0x80001914
0x80001914: fe e7 9c e3 bne	a5, a4, 0x8000190c
è¯»å–åœ°å€ 0x8000190c
å†™å…¥åœ°å€ 0x8009cee7
0x8000190c: 00 b7 80 23 sb	a1, 0(a5)
è¯»å–åœ°å€ 0x80001910
0x80001910: 00 17 87 93 addi	a5, a5, 1
è¯»å–åœ°å€ 0x80001914
0x80001914: fe e7 9c e3 bne	a5, a4, 0x8000190c
è¯»å–åœ°å€ 0x8000190c
å†™å…¥åœ°å€ 0x8009cee8
0x8000190c: 00 b7 80 23 sb	a1, 0(a5)
è¯»å–åœ°å€ 0x80001910
0x80001910: 00 17 87 93 addi	a5, a5, 1
è¯»å–åœ°å€ 0x80001914
0x80001914: fe e7 9c e3 bne	a5, a4, 0x8000190c
è¯»å–åœ°å€ 0x8000190c
å†™å…¥åœ°å€ 0x8009cee9
0x8000190c: 00 b7 80 23 sb	a1, 0(a5)
è¯»å–åœ°å€ 0x80001910
0x80001910: 00 17 87 93 addi	a5, a5, 1
è¯»å–åœ°å€ 0x80001914
0x80001914: fe e7 9c e3 bne	a5, a4, 0x8000190c
è¯»å–åœ°å€ 0x8000190c
å†™å…¥åœ°å€ 0x8009ceea
0x8000190c: 00 b7 80 23 sb	a1, 0(a5)
è¯»å–åœ°å€ 0x80001910
0x80001910: 00 17 87 93 addi	a5, a5, 1
è¯»å–åœ°å€ 0x80001914
0x80001914: fe e7 9c e3 bne	a5, a4, 0x8000190c
è¯»å–åœ°å€ 0x8000190c
å†™å…¥åœ°å€ 0x8009ceeb
0x8000190c: 00 b7 80 23 sb	a1, 0(a5)
è¯»å–åœ°å€ 0x80001910
0x80001910: 00 17 87 93 addi	a5, a5, 1
è¯»å–åœ°å€ 0x80001914
0x80001914: fe e7 9c e3 bne	a5, a4, 0x8000190c
è¯»å–åœ°å€ 0x8000190c
å†™å…¥åœ°å€ 0x8009ceec
0x8000190c: 00 b7 80 23 sb	a1, 0(a5)
è¯»å–åœ°å€ 0x80001910
0x80001910: 00 17 87 93 addi	a5, a5, 1
è¯»å–åœ°å€ 0x80001914
0x80001914: fe e7 9c e3 bne	a5, a4, 0x8000190c
è¯»å–åœ°å€ 0x8000190c
å†™å…¥åœ°å€ 0x8009ceed
0x8000190c: 00 b7 80 23 sb	a1, 0(a5)
è¯»å–åœ°å€ 0x80001910
0x80001910: 00 17 87 93 addi	a5, a5, 1
è¯»å–åœ°å€ 0x80001914
0x80001914: fe e7 9c e3 bne	a5, a4, 0x8000190c
è¯»å–åœ°å€ 0x8000190c
å†™å…¥åœ°å€ 0x8009ceee
0x8000190c: 00 b7 80 23 sb	a1, 0(a5)
è¯»å–åœ°å€ 0x80001910
0x80001910: 00 17 87 93 addi	a5, a5, 1
è¯»å–åœ°å€ 0x80001914
0x80001914: fe e7 9c e3 bne	a5, a4, 0x8000190c
è¯»å–åœ°å€ 0x8000190c
å†™å…¥åœ°å€ 0x8009ceef
0x8000190c: 00 b7 80 23 sb	a1, 0(a5)
è¯»å–åœ°å€ 0x80001910
0x80001910: 00 17 87 93 addi	a5, a5, 1
è¯»å–åœ°å€ 0x80001914
0x80001914: fe e7 9c e3 bne	a5, a4, 0x8000190c
è¯»å–åœ°å€ 0x8000190c
å†™å…¥åœ°å€ 0x8009cef0
0x8000190c: 00 b7 80 23 sb	a1, 0(a5)
è¯»å–åœ°å€ 0x80001910
0x80001910: 00 17 87 93 addi	a5, a5, 1
è¯»å–åœ°å€ 0x80001914
0x80001914: fe e7 9c e3 bne	a5, a4, 0x8000190c
è¯»å–åœ°å€ 0x8000190c
å†™å…¥åœ°å€ 0x8009cef1
0x8000190c: 00 b7 80 23 sb	a1, 0(a5)
è¯»å–åœ°å€ 0x80001910
0x80001910: 00 17 87 93 addi	a5, a5, 1
è¯»å–åœ°å€ 0x80001914
0x80001914: fe e7 9c e3 bne	a5, a4, 0x8000190c
è¯»å–åœ°å€ 0x8000190c
å†™å…¥åœ°å€ 0x8009cef2
0x8000190c: 00 b7 80 23 sb	a1, 0(a5)
è¯»å–åœ°å€ 0x80001910
0x80001910: 00 17 87 93 addi	a5, a5, 1
è¯»å–åœ°å€ 0x80001914
0x80001914: fe e7 9c e3 bne	a5, a4, 0x8000190c
è¯»å–åœ°å€ 0x8000190c
å†™å…¥åœ°å€ 0x8009cef3
0x8000190c: 00 b7 80 23 sb	a1, 0(a5)
è¯»å–åœ°å€ 0x80001910
0x80001910: 00 17 87 93 addi	a5, a5, 1
è¯»å–åœ°å€ 0x80001914
0x80001914: fe e7 9c e3 bne	a5, a4, 0x8000190c
è¯»å–åœ°å€ 0x8000190c
å†™å…¥åœ°å€ 0x8009cef4
0x8000190c: 00 b7 80 23 sb	a1, 0(a5)
è¯»å–åœ°å€ 0x80001910
0x80001910: 00 17 87 93 addi	a5, a5, 1
è¯»å–åœ°å€ 0x80001914
0x80001914: fe e7 9c e3 bne	a5, a4, 0x8000190c
è¯»å–åœ°å€ 0x8000190c
å†™å…¥åœ°å€ 0x8009cef5
0x8000190c: 00 b7 80 23 sb	a1, 0(a5)
è¯»å–åœ°å€ 0x80001910
0x80001910: 00 17 87 93 addi	a5, a5, 1
è¯»å–åœ°å€ 0x80001914
0x80001914: fe e7 9c e3 bne	a5, a4, 0x8000190c
è¯»å–åœ°å€ 0x8000190c
å†™å…¥åœ°å€ 0x8009cef6
0x8000190c: 00 b7 80 23 sb	a1, 0(a5)
è¯»å–åœ°å€ 0x80001910
0x80001910: 00 17 87 93 addi	a5, a5, 1
è¯»å–åœ°å€ 0x80001914
0x80001914: fe e7 9c e3 bne	a5, a4, 0x8000190c
è¯»å–åœ°å€ 0x8000190c
å†™å…¥åœ°å€ 0x8009cef7
0x8000190c: 00 b7 80 23 sb	a1, 0(a5)
è¯»å–åœ°å€ 0x80001910
0x80001910: 00 17 87 93 addi	a5, a5, 1
è¯»å–åœ°å€ 0x80001914
0x80001914: fe e7 9c e3 bne	a5, a4, 0x8000190c
è¯»å–åœ°å€ 0x8000190c
å†™å…¥åœ°å€ 0x8009cef8
0x8000190c: 00 b7 80 23 sb	a1, 0(a5)
è¯»å–åœ°å€ 0x80001910
0x80001910: 00 17 87 93 addi	a5, a5, 1
è¯»å–åœ°å€ 0x80001914
0x80001914: fe e7 9c e3 bne	a5, a4, 0x8000190c
è¯»å–åœ°å€ 0x8000190c
å†™å…¥åœ°å€ 0x8009cef9
0x8000190c: 00 b7 80 23 sb	a1, 0(a5)
è¯»å–åœ°å€ 0x80001910
0x80001910: 00 17 87 93 addi	a5, a5, 1
è¯»å–åœ°å€ 0x80001914
0x80001914: fe e7 9c e3 bne	a5, a4, 0x8000190c
è¯»å–åœ°å€ 0x8000190c
å†™å…¥åœ°å€ 0x8009cefa
0x8000190c: 00 b7 80 23 sb	a1, 0(a5)
è¯»å–åœ°å€ 0x80001910
0x80001910: 00 17 87 93 addi	a5, a5, 1
è¯»å–åœ°å€ 0x80001914
0x80001914: fe e7 9c e3 bne	a5, a4, 0x8000190c
è¯»å–åœ°å€ 0x8000190c
å†™å…¥åœ°å€ 0x8009cefb
0x8000190c: 00 b7 80 23 sb	a1, 0(a5)
è¯»å–åœ°å€ 0x80001910
0x80001910: 00 17 87 93 addi	a5, a5, 1
è¯»å–åœ°å€ 0x80001914
0x80001914: fe e7 9c e3 bne	a5, a4, 0x8000190c
è¯»å–åœ°å€ 0x8000190c
å†™å…¥åœ°å€ 0x8009cefc
0x8000190c: 00 b7 80 23 sb	a1, 0(a5)
è¯»å–åœ°å€ 0x80001910
0x80001910: 00 17 87 93 addi	a5, a5, 1
è¯»å–åœ°å€ 0x80001914
0x80001914: fe e7 9c e3 bne	a5, a4, 0x8000190c
è¯»å–åœ°å€ 0x8000190c
å†™å…¥åœ°å€ 0x8009cefd
0x8000190c: 00 b7 80 23 sb	a1, 0(a5)
è¯»å–åœ°å€ 0x80001910
0x80001910: 00 17 87 93 addi	a5, a5, 1
è¯»å–åœ°å€ 0x80001914
0x80001914: fe e7 9c e3 bne	a5, a4, 0x8000190c
è¯»å–åœ°å€ 0x8000190c
å†™å…¥åœ°å€ 0x8009cefe
0x8000190c: 00 b7 80 23 sb	a1, 0(a5)
è¯»å–åœ°å€ 0x80001910
0x80001910: 00 17 87 93 addi	a5, a5, 1
è¯»å–åœ°å€ 0x80001914
0x80001914: fe e7 9c e3 bne	a5, a4, 0x8000190c
è¯»å–åœ°å€ 0x8000190c
å†™å…¥åœ°å€ 0x8009ceff
0x8000190c: 00 b7 80 23 sb	a1, 0(a5)
è¯»å–åœ°å€ 0x80001910
0x80001910: 00 17 87 93 addi	a5, a5, 1
è¯»å–åœ°å€ 0x80001914
0x80001914: fe e7 9c e3 bne	a5, a4, 0x8000190c
è¯»å–åœ°å€ 0x8000190c
å†™å…¥åœ°å€ 0x8009cf00
0x8000190c: 00 b7 80 23 sb	a1, 0(a5)
è¯»å–åœ°å€ 0x80001910
0x80001910: 00 17 87 93 addi	a5, a5, 1
è¯»å–åœ°å€ 0x80001914
0x80001914: fe e7 9c e3 bne	a5, a4, 0x8000190c
è¯»å–åœ°å€ 0x8000190c
å†™å…¥åœ°å€ 0x8009cf01
0x8000190c: 00 b7 80 23 sb	a1, 0(a5)
è¯»å–åœ°å€ 0x80001910
0x80001910: 00 17 87 93 addi	a5, a5, 1
è¯»å–åœ°å€ 0x80001914
0x80001914: fe e7 9c e3 bne	a5, a4, 0x8000190c
è¯»å–åœ°å€ 0x8000190c
å†™å…¥åœ°å€ 0x8009cf02
0x8000190c: 00 b7 80 23 sb	a1, 0(a5)
è¯»å–åœ°å€ 0x80001910
0x80001910: 00 17 87 93 addi	a5, a5, 1
è¯»å–åœ°å€ 0x80001914
0x80001914: fe e7 9c e3 bne	a5, a4, 0x8000190c
è¯»å–åœ°å€ 0x8000190c
å†™å…¥åœ°å€ 0x8009cf03
0x8000190c: 00 b7 80 23 sb	a1, 0(a5)
è¯»å–åœ°å€ 0x80001910
0x80001910: 00 17 87 93 addi	a5, a5, 1
è¯»å–åœ°å€ 0x80001914
0x80001914: fe e7 9c e3 bne	a5, a4, 0x8000190c
è¯»å–åœ°å€ 0x8000190c
å†™å…¥åœ°å€ 0x8009cf04
0x8000190c: 00 b7 80 23 sb	a1, 0(a5)
è¯»å–åœ°å€ 0x80001910
0x80001910: 00 17 87 93 addi	a5, a5, 1
è¯»å–åœ°å€ 0x80001914
0x80001914: fe e7 9c e3 bne	a5, a4, 0x8000190c
è¯»å–åœ°å€ 0x8000190c
å†™å…¥åœ°å€ 0x8009cf05
0x8000190c: 00 b7 80 23 sb	a1, 0(a5)
è¯»å–åœ°å€ 0x80001910
0x80001910: 00 17 87 93 addi	a5, a5, 1
è¯»å–åœ°å€ 0x80001914
0x80001914: fe e7 9c e3 bne	a5, a4, 0x8000190c
è¯»å–åœ°å€ 0x8000190c
å†™å…¥åœ°å€ 0x8009cf06
0x8000190c: 00 b7 80 23 sb	a1, 0(a5)
è¯»å–åœ°å€ 0x80001910
0x80001910: 00 17 87 93 addi	a5, a5, 1
è¯»å–åœ°å€ 0x80001914
0x80001914: fe e7 9c e3 bne	a5, a4, 0x8000190c
è¯»å–åœ°å€ 0x8000190c
å†™å…¥åœ°å€ 0x8009cf07
0x8000190c: 00 b7 80 23 sb	a1, 0(a5)
è¯»å–åœ°å€ 0x80001910
0x80001910: 00 17 87 93 addi	a5, a5, 1
è¯»å–åœ°å€ 0x80001914
0x80001914: fe e7 9c e3 bne	a5, a4, 0x8000190c
è¯»å–åœ°å€ 0x8000190c
å†™å…¥åœ°å€ 0x8009cf08
0x8000190c: 00 b7 80 23 sb	a1, 0(a5)
è¯»å–åœ°å€ 0x80001910
0x80001910: 00 17 87 93 addi	a5, a5, 1
è¯»å–åœ°å€ 0x80001914
0x80001914: fe e7 9c e3 bne	a5, a4, 0x8000190c
è¯»å–åœ°å€ 0x8000190c
å†™å…¥åœ°å€ 0x8009cf09
0x8000190c: 00 b7 80 23 sb	a1, 0(a5)
è¯»å–åœ°å€ 0x80001910
0x80001910: 00 17 87 93 addi	a5, a5, 1
è¯»å–åœ°å€ 0x80001914
0x80001914: fe e7 9c e3 bne	a5, a4, 0x8000190c
è¯»å–åœ°å€ 0x8000190c
å†™å…¥åœ°å€ 0x8009cf0a
0x8000190c: 00 b7 80 23 sb	a1, 0(a5)
è¯»å–åœ°å€ 0x80001910
0x80001910: 00 17 87 93 addi	a5, a5, 1
è¯»å–åœ°å€ 0x80001914
0x80001914: fe e7 9c e3 bne	a5, a4, 0x8000190c
è¯»å–åœ°å€ 0x8000190c
å†™å…¥åœ°å€ 0x8009cf0b
0x8000190c: 00 b7 80 23 sb	a1, 0(a5)
è¯»å–åœ°å€ 0x80001910
0x80001910: 00 17 87 93 addi	a5, a5, 1
è¯»å–åœ°å€ 0x80001914
0x80001914: fe e7 9c e3 bne	a5, a4, 0x8000190c
è¯»å–åœ°å€ 0x8000190c
å†™å…¥åœ°å€ 0x8009cf0c
0x8000190c: 00 b7 80 23 sb	a1, 0(a5)
è¯»å–åœ°å€ 0x80001910
0x80001910: 00 17 87 93 addi	a5, a5, 1
è¯»å–åœ°å€ 0x80001914
0x80001914: fe e7 9c e3 bne	a5, a4, 0x8000190c
è¯»å–åœ°å€ 0x8000190c
å†™å…¥åœ°å€ 0x8009cf0d
0x8000190c: 00 b7 80 23 sb	a1, 0(a5)
è¯»å–åœ°å€ 0x80001910
0x80001910: 00 17 87 93 addi	a5, a5, 1
è¯»å–åœ°å€ 0x80001914
0x80001914: fe e7 9c e3 bne	a5, a4, 0x8000190c
è¯»å–åœ°å€ 0x8000190c
å†™å…¥åœ°å€ 0x8009cf0e
0x8000190c: 00 b7 80 23 sb	a1, 0(a5)
è¯»å–åœ°å€ 0x80001910
0x80001910: 00 17 87 93 addi	a5, a5, 1
è¯»å–åœ°å€ 0x80001914
0x80001914: fe e7 9c e3 bne	a5, a4, 0x8000190c
è¯»å–åœ°å€ 0x8000190c
å†™å…¥åœ°å€ 0x8009cf0f
0x8000190c: 00 b7 80 23 sb	a1, 0(a5)
è¯»å–åœ°å€ 0x80001910
0x80001910: 00 17 87 93 addi	a5, a5, 1
è¯»å–åœ°å€ 0x80001914
0x80001914: fe e7 9c e3 bne	a5, a4, 0x8000190c
è¯»å–åœ°å€ 0x8000190c
å†™å…¥åœ°å€ 0x8009cf10
0x8000190c: 00 b7 80 23 sb	a1, 0(a5)
è¯»å–åœ°å€ 0x80001910
0x80001910: 00 17 87 93 addi	a5, a5, 1
è¯»å–åœ°å€ 0x80001914
0x80001914: fe e7 9c e3 bne	a5, a4, 0x8000190c
è¯»å–åœ°å€ 0x8000190c
å†™å…¥åœ°å€ 0x8009cf11
0x8000190c: 00 b7 80 23 sb	a1, 0(a5)
è¯»å–åœ°å€ 0x80001910
0x80001910: 00 17 87 93 addi	a5, a5, 1
è¯»å–åœ°å€ 0x80001914
0x80001914: fe e7 9c e3 bne	a5, a4, 0x8000190c
è¯»å–åœ°å€ 0x8000190c
å†™å…¥åœ°å€ 0x8009cf12
0x8000190c: 00 b7 80 23 sb	a1, 0(a5)
è¯»å–åœ°å€ 0x80001910
0x80001910: 00 17 87 93 addi	a5, a5, 1
è¯»å–åœ°å€ 0x80001914
0x80001914: fe e7 9c e3 bne	a5, a4, 0x8000190c
è¯»å–åœ°å€ 0x8000190c
å†™å…¥åœ°å€ 0x8009cf13
0x8000190c: 00 b7 80 23 sb	a1, 0(a5)
è¯»å–åœ°å€ 0x80001910
0x80001910: 00 17 87 93 addi	a5, a5, 1
è¯»å–åœ°å€ 0x80001914
0x80001914: fe e7 9c e3 bne	a5, a4, 0x8000190c
è¯»å–åœ°å€ 0x8000190c
å†™å…¥åœ°å€ 0x8009cf14
0x8000190c: 00 b7 80 23 sb	a1, 0(a5)
è¯»å–åœ°å€ 0x80001910
0x80001910: 00 17 87 93 addi	a5, a5, 1
è¯»å–åœ°å€ 0x80001914
0x80001914: fe e7 9c e3 bne	a5, a4, 0x8000190c
è¯»å–åœ°å€ 0x8000190c
å†™å…¥åœ°å€ 0x8009cf15
0x8000190c: 00 b7 80 23 sb	a1, 0(a5)
è¯»å–åœ°å€ 0x80001910
0x80001910: 00 17 87 93 addi	a5, a5, 1
è¯»å–åœ°å€ 0x80001914
0x80001914: fe e7 9c e3 bne	a5, a4, 0x8000190c
è¯»å–åœ°å€ 0x8000190c
å†™å…¥åœ°å€ 0x8009cf16
0x8000190c: 00 b7 80 23 sb	a1, 0(a5)
è¯»å–åœ°å€ 0x80001910
0x80001910: 00 17 87 93 addi	a5, a5, 1
è¯»å–åœ°å€ 0x80001914
0x80001914: fe e7 9c e3 bne	a5, a4, 0x8000190c
è¯»å–åœ°å€ 0x8000190c
å†™å…¥åœ°å€ 0x8009cf17
0x8000190c: 00 b7 80 23 sb	a1, 0(a5)
è¯»å–åœ°å€ 0x80001910
0x80001910: 00 17 87 93 addi	a5, a5, 1
è¯»å–åœ°å€ 0x80001914
0x80001914: fe e7 9c e3 bne	a5, a4, 0x8000190c
è¯»å–åœ°å€ 0x8000190c
å†™å…¥åœ°å€ 0x8009cf18
0x8000190c: 00 b7 80 23 sb	a1, 0(a5)
è¯»å–åœ°å€ 0x80001910
0x80001910: 00 17 87 93 addi	a5, a5, 1
è¯»å–åœ°å€ 0x80001914
0x80001914: fe e7 9c e3 bne	a5, a4, 0x8000190c
è¯»å–åœ°å€ 0x8000190c
å†™å…¥åœ°å€ 0x8009cf19
0x8000190c: 00 b7 80 23 sb	a1, 0(a5)
è¯»å–åœ°å€ 0x80001910
0x80001910: 00 17 87 93 addi	a5, a5, 1
è¯»å–åœ°å€ 0x80001914
0x80001914: fe e7 9c e3 bne	a5, a4, 0x8000190c
è¯»å–åœ°å€ 0x8000190c
å†™å…¥åœ°å€ 0x8009cf1a
0x8000190c: 00 b7 80 23 sb	a1, 0(a5)
è¯»å–åœ°å€ 0x80001910
0x80001910: 00 17 87 93 addi	a5, a5, 1
è¯»å–åœ°å€ 0x80001914
0x80001914: fe e7 9c e3 bne	a5, a4, 0x8000190c
è¯»å–åœ°å€ 0x8000190c
å†™å…¥åœ°å€ 0x8009cf1b
0x8000190c: 00 b7 80 23 sb	a1, 0(a5)
è¯»å–åœ°å€ 0x80001910
0x80001910: 00 17 87 93 addi	a5, a5, 1
è¯»å–åœ°å€ 0x80001914
0x80001914: fe e7 9c e3 bne	a5, a4, 0x8000190c
è¯»å–åœ°å€ 0x8000190c
å†™å…¥åœ°å€ 0x8009cf1c
0x8000190c: 00 b7 80 23 sb	a1, 0(a5)
è¯»å–åœ°å€ 0x80001910
0x80001910: 00 17 87 93 addi	a5, a5, 1
è¯»å–åœ°å€ 0x80001914
0x80001914: fe e7 9c e3 bne	a5, a4, 0x8000190c
è¯»å–åœ°å€ 0x8000190c
å†™å…¥åœ°å€ 0x8009cf1d
0x8000190c: 00 b7 80 23 sb	a1, 0(a5)
è¯»å–åœ°å€ 0x80001910
0x80001910: 00 17 87 93 addi	a5, a5, 1
è¯»å–åœ°å€ 0x80001914
0x80001914: fe e7 9c e3 bne	a5, a4, 0x8000190c
è¯»å–åœ°å€ 0x8000190c
å†™å…¥åœ°å€ 0x8009cf1e
0x8000190c: 00 b7 80 23 sb	a1, 0(a5)
è¯»å–åœ°å€ 0x80001910
0x80001910: 00 17 87 93 addi	a5, a5, 1
è¯»å–åœ°å€ 0x80001914
0x80001914: fe e7 9c e3 bne	a5, a4, 0x8000190c
è¯»å–åœ°å€ 0x8000190c
å†™å…¥åœ°å€ 0x8009cf1f
0x8000190c: 00 b7 80 23 sb	a1, 0(a5)
è¯»å–åœ°å€ 0x80001910
0x80001910: 00 17 87 93 addi	a5, a5, 1
è¯»å–åœ°å€ 0x80001914
0x80001914: fe e7 9c e3 bne	a5, a4, 0x8000190c
è¯»å–åœ°å€ 0x8000190c
å†™å…¥åœ°å€ 0x8009cf20
0x8000190c: 00 b7 80 23 sb	a1, 0(a5)
è¯»å–åœ°å€ 0x80001910
0x80001910: 00 17 87 93 addi	a5, a5, 1
è¯»å–åœ°å€ 0x80001914
0x80001914: fe e7 9c e3 bne	a5, a4, 0x8000190c
è¯»å–åœ°å€ 0x8000190c
å†™å…¥åœ°å€ 0x8009cf21
0x8000190c: 00 b7 80 23 sb	a1, 0(a5)
è¯»å–åœ°å€ 0x80001910
0x80001910: 00 17 87 93 addi	a5, a5, 1
è¯»å–åœ°å€ 0x80001914
0x80001914: fe e7 9c e3 bne	a5, a4, 0x8000190c
è¯»å–åœ°å€ 0x8000190c
å†™å…¥åœ°å€ 0x8009cf22
0x8000190c: 00 b7 80 23 sb	a1, 0(a5)
è¯»å–åœ°å€ 0x80001910
0x80001910: 00 17 87 93 addi	a5, a5, 1
è¯»å–åœ°å€ 0x80001914
0x80001914: fe e7 9c e3 bne	a5, a4, 0x8000190c
è¯»å–åœ°å€ 0x8000190c
å†™å…¥åœ°å€ 0x8009cf23
0x8000190c: 00 b7 80 23 sb	a1, 0(a5)
è¯»å–åœ°å€ 0x80001910
0x80001910: 00 17 87 93 addi	a5, a5, 1
è¯»å–åœ°å€ 0x80001914
0x80001914: fe e7 9c e3 bne	a5, a4, 0x8000190c
è¯»å–åœ°å€ 0x8000190c
å†™å…¥åœ°å€ 0x8009cf24
0x8000190c: 00 b7 80 23 sb	a1, 0(a5)
è¯»å–åœ°å€ 0x80001910
0x80001910: 00 17 87 93 addi	a5, a5, 1
è¯»å–åœ°å€ 0x80001914
0x80001914: fe e7 9c e3 bne	a5, a4, 0x8000190c
è¯»å–åœ°å€ 0x8000190c
å†™å…¥åœ°å€ 0x8009cf25
0x8000190c: 00 b7 80 23 sb	a1, 0(a5)
è¯»å–åœ°å€ 0x80001910
0x80001910: 00 17 87 93 addi	a5, a5, 1
è¯»å–åœ°å€ 0x80001914
0x80001914: fe e7 9c e3 bne	a5, a4, 0x8000190c
è¯»å–åœ°å€ 0x8000190c
å†™å…¥åœ°å€ 0x8009cf26
0x8000190c: 00 b7 80 23 sb	a1, 0(a5)
è¯»å–åœ°å€ 0x80001910
0x80001910: 00 17 87 93 addi	a5, a5, 1
è¯»å–åœ°å€ 0x80001914
0x80001914: fe e7 9c e3 bne	a5, a4, 0x8000190c
è¯»å–åœ°å€ 0x8000190c
å†™å…¥åœ°å€ 0x8009cf27
0x8000190c: 00 b7 80 23 sb	a1, 0(a5)
è¯»å–åœ°å€ 0x80001910
0x80001910: 00 17 87 93 addi	a5, a5, 1
è¯»å–åœ°å€ 0x80001914
0x80001914: fe e7 9c e3 bne	a5, a4, 0x8000190c
è¯»å–åœ°å€ 0x8000190c
å†™å…¥åœ°å€ 0x8009cf28
0x8000190c: 00 b7 80 23 sb	a1, 0(a5)
è¯»å–åœ°å€ 0x80001910
0x80001910: 00 17 87 93 addi	a5, a5, 1
è¯»å–åœ°å€ 0x80001914
0x80001914: fe e7 9c e3 bne	a5, a4, 0x8000190c
è¯»å–åœ°å€ 0x8000190c
å†™å…¥åœ°å€ 0x8009cf29
0x8000190c: 00 b7 80 23 sb	a1, 0(a5)
è¯»å–åœ°å€ 0x80001910
0x80001910: 00 17 87 93 addi	a5, a5, 1
è¯»å–åœ°å€ 0x80001914
0x80001914: fe e7 9c e3 bne	a5, a4, 0x8000190c
è¯»å–åœ°å€ 0x8000190c
å†™å…¥åœ°å€ 0x8009cf2a
0x8000190c: 00 b7 80 23 sb	a1, 0(a5)
è¯»å–åœ°å€ 0x80001910
0x80001910: 00 17 87 93 addi	a5, a5, 1
è¯»å–åœ°å€ 0x80001914
0x80001914: fe e7 9c e3 bne	a5, a4, 0x8000190c
è¯»å–åœ°å€ 0x8000190c
å†™å…¥åœ°å€ 0x8009cf2b
0x8000190c: 00 b7 80 23 sb	a1, 0(a5)
è¯»å–åœ°å€ 0x80001910
0x80001910: 00 17 87 93 addi	a5, a5, 1
è¯»å–åœ°å€ 0x80001914
0x80001914: fe e7 9c e3 bne	a5, a4, 0x8000190c
è¯»å–åœ°å€ 0x8000190c
å†™å…¥åœ°å€ 0x8009cf2c
0x8000190c: 00 b7 80 23 sb	a1, 0(a5)
è¯»å–åœ°å€ 0x80001910
0x80001910: 00 17 87 93 addi	a5, a5, 1
è¯»å–åœ°å€ 0x80001914
0x80001914: fe e7 9c e3 bne	a5, a4, 0x8000190c
è¯»å–åœ°å€ 0x8000190c
å†™å…¥åœ°å€ 0x8009cf2d
0x8000190c: 00 b7 80 23 sb	a1, 0(a5)
è¯»å–åœ°å€ 0x80001910
0x80001910: 00 17 87 93 addi	a5, a5, 1
è¯»å–åœ°å€ 0x80001914
0x80001914: fe e7 9c e3 bne	a5, a4, 0x8000190c
è¯»å–åœ°å€ 0x8000190c
å†™å…¥åœ°å€ 0x8009cf2e
0x8000190c: 00 b7 80 23 sb	a1, 0(a5)
è¯»å–åœ°å€ 0x80001910
0x80001910: 00 17 87 93 addi	a5, a5, 1
è¯»å–åœ°å€ 0x80001914
0x80001914: fe e7 9c e3 bne	a5, a4, 0x8000190c
è¯»å–åœ°å€ 0x8000190c
å†™å…¥åœ°å€ 0x8009cf2f
0x8000190c: 00 b7 80 23 sb	a1, 0(a5)
è¯»å–åœ°å€ 0x80001910
0x80001910: 00 17 87 93 addi	a5, a5, 1
è¯»å–åœ°å€ 0x80001914
0x80001914: fe e7 9c e3 bne	a5, a4, 0x8000190c
è¯»å–åœ°å€ 0x8000190c
å†™å…¥åœ°å€ 0x8009cf30
0x8000190c: 00 b7 80 23 sb	a1, 0(a5)
è¯»å–åœ°å€ 0x80001910
0x80001910: 00 17 87 93 addi	a5, a5, 1
è¯»å–åœ°å€ 0x80001914
0x80001914: fe e7 9c e3 bne	a5, a4, 0x8000190c
è¯»å–åœ°å€ 0x8000190c
å†™å…¥åœ°å€ 0x8009cf31
0x8000190c: 00 b7 80 23 sb	a1, 0(a5)
è¯»å–åœ°å€ 0x80001910
0x80001910: 00 17 87 93 addi	a5, a5, 1
è¯»å–åœ°å€ 0x80001914
0x80001914: fe e7 9c e3 bne	a5, a4, 0x8000190c
è¯»å–åœ°å€ 0x8000190c
å†™å…¥åœ°å€ 0x8009cf32
0x8000190c: 00 b7 80 23 sb	a1, 0(a5)
è¯»å–åœ°å€ 0x80001910
0x80001910: 00 17 87 93 addi	a5, a5, 1
è¯»å–åœ°å€ 0x80001914
0x80001914: fe e7 9c e3 bne	a5, a4, 0x8000190c
è¯»å–åœ°å€ 0x8000190c
å†™å…¥åœ°å€ 0x8009cf33
0x8000190c: 00 b7 80 23 sb	a1, 0(a5)
è¯»å–åœ°å€ 0x80001910
0x80001910: 00 17 87 93 addi	a5, a5, 1
è¯»å–åœ°å€ 0x80001914
0x80001914: fe e7 9c e3 bne	a5, a4, 0x8000190c
è¯»å–åœ°å€ 0x8000190c
å†™å…¥åœ°å€ 0x8009cf34
0x8000190c: 00 b7 80 23 sb	a1, 0(a5)
è¯»å–åœ°å€ 0x80001910
0x80001910: 00 17 87 93 addi	a5, a5, 1
è¯»å–åœ°å€ 0x80001914
0x80001914: fe e7 9c e3 bne	a5, a4, 0x8000190c
è¯»å–åœ°å€ 0x8000190c
å†™å…¥åœ°å€ 0x8009cf35
0x8000190c: 00 b7 80 23 sb	a1, 0(a5)
è¯»å–åœ°å€ 0x80001910
0x80001910: 00 17 87 93 addi	a5, a5, 1
è¯»å–åœ°å€ 0x80001914
0x80001914: fe e7 9c e3 bne	a5, a4, 0x8000190c
è¯»å–åœ°å€ 0x8000190c
å†™å…¥åœ°å€ 0x8009cf36
0x8000190c: 00 b7 80 23 sb	a1, 0(a5)
è¯»å–åœ°å€ 0x80001910
0x80001910: 00 17 87 93 addi	a5, a5, 1
è¯»å–åœ°å€ 0x80001914
0x80001914: fe e7 9c e3 bne	a5, a4, 0x8000190c
è¯»å–åœ°å€ 0x8000190c
å†™å…¥åœ°å€ 0x8009cf37
0x8000190c: 00 b7 80 23 sb	a1, 0(a5)
è¯»å–åœ°å€ 0x80001910
0x80001910: 00 17 87 93 addi	a5, a5, 1
è¯»å–åœ°å€ 0x80001914
0x80001914: fe e7 9c e3 bne	a5, a4, 0x8000190c
è¯»å–åœ°å€ 0x8000190c
å†™å…¥åœ°å€ 0x8009cf38
0x8000190c: 00 b7 80 23 sb	a1, 0(a5)
è¯»å–åœ°å€ 0x80001910
0x80001910: 00 17 87 93 addi	a5, a5, 1
è¯»å–åœ°å€ 0x80001914
0x80001914: fe e7 9c e3 bne	a5, a4, 0x8000190c
è¯»å–åœ°å€ 0x8000190c
å†™å…¥åœ°å€ 0x8009cf39
0x8000190c: 00 b7 80 23 sb	a1, 0(a5)
è¯»å–åœ°å€ 0x80001910
0x80001910: 00 17 87 93 addi	a5, a5, 1
è¯»å–åœ°å€ 0x80001914
0x80001914: fe e7 9c e3 bne	a5, a4, 0x8000190c
è¯»å–åœ°å€ 0x8000190c
å†™å…¥åœ°å€ 0x8009cf3a
0x8000190c: 00 b7 80 23 sb	a1, 0(a5)
è¯»å–åœ°å€ 0x80001910
0x80001910: 00 17 87 93 addi	a5, a5, 1
è¯»å–åœ°å€ 0x80001914
0x80001914: fe e7 9c e3 bne	a5, a4, 0x8000190c
è¯»å–åœ°å€ 0x8000190c
å†™å…¥åœ°å€ 0x8009cf3b
0x8000190c: 00 b7 80 23 sb	a1, 0(a5)
è¯»å–åœ°å€ 0x80001910
0x80001910: 00 17 87 93 addi	a5, a5, 1
è¯»å–åœ°å€ 0x80001914
0x80001914: fe e7 9c e3 bne	a5, a4, 0x8000190c
è¯»å–åœ°å€ 0x8000190c
å†™å…¥åœ°å€ 0x8009cf3c
0x8000190c: 00 b7 80 23 sb	a1, 0(a5)
è¯»å–åœ°å€ 0x80001910
0x80001910: 00 17 87 93 addi	a5, a5, 1
è¯»å–åœ°å€ 0x80001914
0x80001914: fe e7 9c e3 bne	a5, a4, 0x8000190c
è¯»å–åœ°å€ 0x8000190c
å†™å…¥åœ°å€ 0x8009cf3d
0x8000190c: 00 b7 80 23 sb	a1, 0(a5)
è¯»å–åœ°å€ 0x80001910
0x80001910: 00 17 87 93 addi	a5, a5, 1
è¯»å–åœ°å€ 0x80001914
0x80001914: fe e7 9c e3 bne	a5, a4, 0x8000190c
è¯»å–åœ°å€ 0x8000190c
å†™å…¥åœ°å€ 0x8009cf3e
0x8000190c: 00 b7 80 23 sb	a1, 0(a5)
è¯»å–åœ°å€ 0x80001910
0x80001910: 00 17 87 93 addi	a5, a5, 1
è¯»å–åœ°å€ 0x80001914
0x80001914: fe e7 9c e3 bne	a5, a4, 0x8000190c
è¯»å–åœ°å€ 0x8000190c
å†™å…¥åœ°å€ 0x8009cf3f
0x8000190c: 00 b7 80 23 sb	a1, 0(a5)
è¯»å–åœ°å€ 0x80001910
0x80001910: 00 17 87 93 addi	a5, a5, 1
è¯»å–åœ°å€ 0x80001914
0x80001914: fe e7 9c e3 bne	a5, a4, 0x8000190c
è¯»å–åœ°å€ 0x8000190c
å†™å…¥åœ°å€ 0x8009cf40
0x8000190c: 00 b7 80 23 sb	a1, 0(a5)
è¯»å–åœ°å€ 0x80001910
0x80001910: 00 17 87 93 addi	a5, a5, 1
è¯»å–åœ°å€ 0x80001914
0x80001914: fe e7 9c e3 bne	a5, a4, 0x8000190c
è¯»å–åœ°å€ 0x8000190c
å†™å…¥åœ°å€ 0x8009cf41
0x8000190c: 00 b7 80 23 sb	a1, 0(a5)
è¯»å–åœ°å€ 0x80001910
0x80001910: 00 17 87 93 addi	a5, a5, 1
è¯»å–åœ°å€ 0x80001914
0x80001914: fe e7 9c e3 bne	a5, a4, 0x8000190c
è¯»å–åœ°å€ 0x8000190c
å†™å…¥åœ°å€ 0x8009cf42
0x8000190c: 00 b7 80 23 sb	a1, 0(a5)
è¯»å–åœ°å€ 0x80001910
0x80001910: 00 17 87 93 addi	a5, a5, 1
è¯»å–åœ°å€ 0x80001914
0x80001914: fe e7 9c e3 bne	a5, a4, 0x8000190c
è¯»å–åœ°å€ 0x8000190c
å†™å…¥åœ°å€ 0x8009cf43
0x8000190c: 00 b7 80 23 sb	a1, 0(a5)
è¯»å–åœ°å€ 0x80001910
0x80001910: 00 17 87 93 addi	a5, a5, 1
è¯»å–åœ°å€ 0x80001914
0x80001914: fe e7 9c e3 bne	a5, a4, 0x8000190c
è¯»å–åœ°å€ 0x8000190c
å†™å…¥åœ°å€ 0x8009cf44
0x8000190c: 00 b7 80 23 sb	a1, 0(a5)
è¯»å–åœ°å€ 0x80001910
0x80001910: 00 17 87 93 addi	a5, a5, 1
è¯»å–åœ°å€ 0x80001914
0x80001914: fe e7 9c e3 bne	a5, a4, 0x8000190c
è¯»å–åœ°å€ 0x8000190c
å†™å…¥åœ°å€ 0x8009cf45
0x8000190c: 00 b7 80 23 sb	a1, 0(a5)
è¯»å–åœ°å€ 0x80001910
0x80001910: 00 17 87 93 addi	a5, a5, 1
è¯»å–åœ°å€ 0x80001914
0x80001914: fe e7 9c e3 bne	a5, a4, 0x8000190c
è¯»å–åœ°å€ 0x8000190c
å†™å…¥åœ°å€ 0x8009cf46
0x8000190c: 00 b7 80 23 sb	a1, 0(a5)
è¯»å–åœ°å€ 0x80001910
0x80001910: 00 17 87 93 addi	a5, a5, 1
è¯»å–åœ°å€ 0x80001914
0x80001914: fe e7 9c e3 bne	a5, a4, 0x8000190c
è¯»å–åœ°å€ 0x8000190c
å†™å…¥åœ°å€ 0x8009cf47
0x8000190c: 00 b7 80 23 sb	a1, 0(a5)
è¯»å–åœ°å€ 0x80001910
0x80001910: 00 17 87 93 addi	a5, a5, 1
è¯»å–åœ°å€ 0x80001914
0x80001914: fe e7 9c e3 bne	a5, a4, 0x8000190c
è¯»å–åœ°å€ 0x8000190c
å†™å…¥åœ°å€ 0x8009cf48
0x8000190c: 00 b7 80 23 sb	a1, 0(a5)
è¯»å–åœ°å€ 0x80001910
0x80001910: 00 17 87 93 addi	a5, a5, 1
è¯»å–åœ°å€ 0x80001914
0x80001914: fe e7 9c e3 bne	a5, a4, 0x8000190c
è¯»å–åœ°å€ 0x8000190c
å†™å…¥åœ°å€ 0x8009cf49
0x8000190c: 00 b7 80 23 sb	a1, 0(a5)
è¯»å–åœ°å€ 0x80001910
0x80001910: 00 17 87 93 addi	a5, a5, 1
è¯»å–åœ°å€ 0x80001914
0x80001914: fe e7 9c e3 bne	a5, a4, 0x8000190c
è¯»å–åœ°å€ 0x8000190c
å†™å…¥åœ°å€ 0x8009cf4a
0x8000190c: 00 b7 80 23 sb	a1, 0(a5)
è¯»å–åœ°å€ 0x80001910
0x80001910: 00 17 87 93 addi	a5, a5, 1
è¯»å–åœ°å€ 0x80001914
0x80001914: fe e7 9c e3 bne	a5, a4, 0x8000190c
è¯»å–åœ°å€ 0x8000190c
å†™å…¥åœ°å€ 0x8009cf4b
0x8000190c: 00 b7 80 23 sb	a1, 0(a5)
è¯»å–åœ°å€ 0x80001910
0x80001910: 00 17 87 93 addi	a5, a5, 1
è¯»å–åœ°å€ 0x80001914
0x80001914: fe e7 9c e3 bne	a5, a4, 0x8000190c
è¯»å–åœ°å€ 0x8000190c
å†™å…¥åœ°å€ 0x8009cf4c
0x8000190c: 00 b7 80 23 sb	a1, 0(a5)
è¯»å–åœ°å€ 0x80001910
0x80001910: 00 17 87 93 addi	a5, a5, 1
è¯»å–åœ°å€ 0x80001914
0x80001914: fe e7 9c e3 bne	a5, a4, 0x8000190c
è¯»å–åœ°å€ 0x8000190c
å†™å…¥åœ°å€ 0x8009cf4d
0x8000190c: 00 b7 80 23 sb	a1, 0(a5)
è¯»å–åœ°å€ 0x80001910
0x80001910: 00 17 87 93 addi	a5, a5, 1
è¯»å–åœ°å€ 0x80001914
0x80001914: fe e7 9c e3 bne	a5, a4, 0x8000190c
è¯»å–åœ°å€ 0x8000190c
å†™å…¥åœ°å€ 0x8009cf4e
0x8000190c: 00 b7 80 23 sb	a1, 0(a5)
è¯»å–åœ°å€ 0x80001910
0x80001910: 00 17 87 93 addi	a5, a5, 1
è¯»å–åœ°å€ 0x80001914
0x80001914: fe e7 9c e3 bne	a5, a4, 0x8000190c
è¯»å–åœ°å€ 0x8000190c
å†™å…¥åœ°å€ 0x8009cf4f
0x8000190c: 00 b7 80 23 sb	a1, 0(a5)
è¯»å–åœ°å€ 0x80001910
0x80001910: 00 17 87 93 addi	a5, a5, 1
è¯»å–åœ°å€ 0x80001914
0x80001914: fe e7 9c e3 bne	a5, a4, 0x8000190c
è¯»å–åœ°å€ 0x8000190c
å†™å…¥åœ°å€ 0x8009cf50
0x8000190c: 00 b7 80 23 sb	a1, 0(a5)
è¯»å–åœ°å€ 0x80001910
0x80001910: 00 17 87 93 addi	a5, a5, 1
è¯»å–åœ°å€ 0x80001914
0x80001914: fe e7 9c e3 bne	a5, a4, 0x8000190c
è¯»å–åœ°å€ 0x8000190c
å†™å…¥åœ°å€ 0x8009cf51
0x8000190c: 00 b7 80 23 sb	a1, 0(a5)
è¯»å–åœ°å€ 0x80001910
0x80001910: 00 17 87 93 addi	a5, a5, 1
è¯»å–åœ°å€ 0x80001914
0x80001914: fe e7 9c e3 bne	a5, a4, 0x8000190c
è¯»å–åœ°å€ 0x8000190c
å†™å…¥åœ°å€ 0x8009cf52
0x8000190c: 00 b7 80 23 sb	a1, 0(a5)
è¯»å–åœ°å€ 0x80001910
0x80001910: 00 17 87 93 addi	a5, a5, 1
è¯»å–åœ°å€ 0x80001914
0x80001914: fe e7 9c e3 bne	a5, a4, 0x8000190c
è¯»å–åœ°å€ 0x8000190c
å†™å…¥åœ°å€ 0x8009cf53
0x8000190c: 00 b7 80 23 sb	a1, 0(a5)
è¯»å–åœ°å€ 0x80001910
0x80001910: 00 17 87 93 addi	a5, a5, 1
è¯»å–åœ°å€ 0x80001914
0x80001914: fe e7 9c e3 bne	a5, a4, 0x8000190c
è¯»å–åœ°å€ 0x8000190c
å†™å…¥åœ°å€ 0x8009cf54
0x8000190c: 00 b7 80 23 sb	a1, 0(a5)
è¯»å–åœ°å€ 0x80001910
0x80001910: 00 17 87 93 addi	a5, a5, 1
è¯»å–åœ°å€ 0x80001914
0x80001914: fe e7 9c e3 bne	a5, a4, 0x8000190c
è¯»å–åœ°å€ 0x8000190c
å†™å…¥åœ°å€ 0x8009cf55
0x8000190c: 00 b7 80 23 sb	a1, 0(a5)
è¯»å–åœ°å€ 0x80001910
0x80001910: 00 17 87 93 addi	a5, a5, 1
è¯»å–åœ°å€ 0x80001914
0x80001914: fe e7 9c e3 bne	a5, a4, 0x8000190c
è¯»å–åœ°å€ 0x8000190c
å†™å…¥åœ°å€ 0x8009cf56
0x8000190c: 00 b7 80 23 sb	a1, 0(a5)
è¯»å–åœ°å€ 0x80001910
0x80001910: 00 17 87 93 addi	a5, a5, 1
è¯»å–åœ°å€ 0x80001914
0x80001914: fe e7 9c e3 bne	a5, a4, 0x8000190c
è¯»å–åœ°å€ 0x8000190c
å†™å…¥åœ°å€ 0x8009cf57
0x8000190c: 00 b7 80 23 sb	a1, 0(a5)
è¯»å–åœ°å€ 0x80001910
0x80001910: 00 17 87 93 addi	a5, a5, 1
è¯»å–åœ°å€ 0x80001914
0x80001914: fe e7 9c e3 bne	a5, a4, 0x8000190c
è¯»å–åœ°å€ 0x8000190c
å†™å…¥åœ°å€ 0x8009cf58
0x8000190c: 00 b7 80 23 sb	a1, 0(a5)
è¯»å–åœ°å€ 0x80001910
0x80001910: 00 17 87 93 addi	a5, a5, 1
è¯»å–åœ°å€ 0x80001914
0x80001914: fe e7 9c e3 bne	a5, a4, 0x8000190c
è¯»å–åœ°å€ 0x8000190c
å†™å…¥åœ°å€ 0x8009cf59
0x8000190c: 00 b7 80 23 sb	a1, 0(a5)
è¯»å–åœ°å€ 0x80001910
0x80001910: 00 17 87 93 addi	a5, a5, 1
è¯»å–åœ°å€ 0x80001914
0x80001914: fe e7 9c e3 bne	a5, a4, 0x8000190c
è¯»å–åœ°å€ 0x8000190c
å†™å…¥åœ°å€ 0x8009cf5a
0x8000190c: 00 b7 80 23 sb	a1, 0(a5)
è¯»å–åœ°å€ 0x80001910
0x80001910: 00 17 87 93 addi	a5, a5, 1
è¯»å–åœ°å€ 0x80001914
0x80001914: fe e7 9c e3 bne	a5, a4, 0x8000190c
è¯»å–åœ°å€ 0x8000190c
å†™å…¥åœ°å€ 0x8009cf5b
0x8000190c: 00 b7 80 23 sb	a1, 0(a5)
è¯»å–åœ°å€ 0x80001910
0x80001910: 00 17 87 93 addi	a5, a5, 1
è¯»å–åœ°å€ 0x80001914
0x80001914: fe e7 9c e3 bne	a5, a4, 0x8000190c
è¯»å–åœ°å€ 0x8000190c
å†™å…¥åœ°å€ 0x8009cf5c
0x8000190c: 00 b7 80 23 sb	a1, 0(a5)
è¯»å–åœ°å€ 0x80001910
0x80001910: 00 17 87 93 addi	a5, a5, 1
è¯»å–åœ°å€ 0x80001914
0x80001914: fe e7 9c e3 bne	a5, a4, 0x8000190c
è¯»å–åœ°å€ 0x8000190c
å†™å…¥åœ°å€ 0x8009cf5d
0x8000190c: 00 b7 80 23 sb	a1, 0(a5)
è¯»å–åœ°å€ 0x80001910
0x80001910: 00 17 87 93 addi	a5, a5, 1
è¯»å–åœ°å€ 0x80001914
0x80001914: fe e7 9c e3 bne	a5, a4, 0x8000190c
è¯»å–åœ°å€ 0x8000190c
å†™å…¥åœ°å€ 0x8009cf5e
0x8000190c: 00 b7 80 23 sb	a1, 0(a5)
è¯»å–åœ°å€ 0x80001910
0x80001910: 00 17 87 93 addi	a5, a5, 1
è¯»å–åœ°å€ 0x80001914
0x80001914: fe e7 9c e3 bne	a5, a4, 0x8000190c
è¯»å–åœ°å€ 0x8000190c
å†™å…¥åœ°å€ 0x8009cf5f
0x8000190c: 00 b7 80 23 sb	a1, 0(a5)
è¯»å–åœ°å€ 0x80001910
0x80001910: 00 17 87 93 addi	a5, a5, 1
è¯»å–åœ°å€ 0x80001914
0x80001914: fe e7 9c e3 bne	a5, a4, 0x8000190c
è¯»å–åœ°å€ 0x8000190c
å†™å…¥åœ°å€ 0x8009cf60
0x8000190c: 00 b7 80 23 sb	a1, 0(a5)
è¯»å–åœ°å€ 0x80001910
0x80001910: 00 17 87 93 addi	a5, a5, 1
è¯»å–åœ°å€ 0x80001914
0x80001914: fe e7 9c e3 bne	a5, a4, 0x8000190c
è¯»å–åœ°å€ 0x8000190c
å†™å…¥åœ°å€ 0x8009cf61
0x8000190c: 00 b7 80 23 sb	a1, 0(a5)
è¯»å–åœ°å€ 0x80001910
0x80001910: 00 17 87 93 addi	a5, a5, 1
è¯»å–åœ°å€ 0x80001914
0x80001914: fe e7 9c e3 bne	a5, a4, 0x8000190c
è¯»å–åœ°å€ 0x8000190c
å†™å…¥åœ°å€ 0x8009cf62
0x8000190c: 00 b7 80 23 sb	a1, 0(a5)
è¯»å–åœ°å€ 0x80001910
0x80001910: 00 17 87 93 addi	a5, a5, 1
è¯»å–åœ°å€ 0x80001914
0x80001914: fe e7 9c e3 bne	a5, a4, 0x8000190c
è¯»å–åœ°å€ 0x8000190c
å†™å…¥åœ°å€ 0x8009cf63
0x8000190c: 00 b7 80 23 sb	a1, 0(a5)
è¯»å–åœ°å€ 0x80001910
0x80001910: 00 17 87 93 addi	a5, a5, 1
è¯»å–åœ°å€ 0x80001914
0x80001914: fe e7 9c e3 bne	a5, a4, 0x8000190c
è¯»å–åœ°å€ 0x8000190c
å†™å…¥åœ°å€ 0x8009cf64
0x8000190c: 00 b7 80 23 sb	a1, 0(a5)
è¯»å–åœ°å€ 0x80001910
0x80001910: 00 17 87 93 addi	a5, a5, 1
è¯»å–åœ°å€ 0x80001914
0x80001914: fe e7 9c e3 bne	a5, a4, 0x8000190c
è¯»å–åœ°å€ 0x8000190c
å†™å…¥åœ°å€ 0x8009cf65
0x8000190c: 00 b7 80 23 sb	a1, 0(a5)
è¯»å–åœ°å€ 0x80001910
0x80001910: 00 17 87 93 addi	a5, a5, 1
è¯»å–åœ°å€ 0x80001914
0x80001914: fe e7 9c e3 bne	a5, a4, 0x8000190c
è¯»å–åœ°å€ 0x8000190c
å†™å…¥åœ°å€ 0x8009cf66
0x8000190c: 00 b7 80 23 sb	a1, 0(a5)
è¯»å–åœ°å€ 0x80001910
0x80001910: 00 17 87 93 addi	a5, a5, 1
è¯»å–åœ°å€ 0x80001914
0x80001914: fe e7 9c e3 bne	a5, a4, 0x8000190c
è¯»å–åœ°å€ 0x8000190c
å†™å…¥åœ°å€ 0x8009cf67
0x8000190c: 00 b7 80 23 sb	a1, 0(a5)
è¯»å–åœ°å€ 0x80001910
0x80001910: 00 17 87 93 addi	a5, a5, 1
è¯»å–åœ°å€ 0x80001914
0x80001914: fe e7 9c e3 bne	a5, a4, 0x8000190c
è¯»å–åœ°å€ 0x8000190c
å†™å…¥åœ°å€ 0x8009cf68
0x8000190c: 00 b7 80 23 sb	a1, 0(a5)
è¯»å–åœ°å€ 0x80001910
0x80001910: 00 17 87 93 addi	a5, a5, 1
è¯»å–åœ°å€ 0x80001914
0x80001914: fe e7 9c e3 bne	a5, a4, 0x8000190c
è¯»å–åœ°å€ 0x8000190c
å†™å…¥åœ°å€ 0x8009cf69
0x8000190c: 00 b7 80 23 sb	a1, 0(a5)
è¯»å–åœ°å€ 0x80001910
0x80001910: 00 17 87 93 addi	a5, a5, 1
è¯»å–åœ°å€ 0x80001914
0x80001914: fe e7 9c e3 bne	a5, a4, 0x8000190c
è¯»å–åœ°å€ 0x8000190c
å†™å…¥åœ°å€ 0x8009cf6a
0x8000190c: 00 b7 80 23 sb	a1, 0(a5)
è¯»å–åœ°å€ 0x80001910
0x80001910: 00 17 87 93 addi	a5, a5, 1
è¯»å–åœ°å€ 0x80001914
0x80001914: fe e7 9c e3 bne	a5, a4, 0x8000190c
è¯»å–åœ°å€ 0x8000190c
å†™å…¥åœ°å€ 0x8009cf6b
0x8000190c: 00 b7 80 23 sb	a1, 0(a5)
è¯»å–åœ°å€ 0x80001910
0x80001910: 00 17 87 93 addi	a5, a5, 1
è¯»å–åœ°å€ 0x80001914
0x80001914: fe e7 9c e3 bne	a5, a4, 0x8000190c
è¯»å–åœ°å€ 0x8000190c
å†™å…¥åœ°å€ 0x8009cf6c
0x8000190c: 00 b7 80 23 sb	a1, 0(a5)
è¯»å–åœ°å€ 0x80001910
0x80001910: 00 17 87 93 addi	a5, a5, 1
è¯»å–åœ°å€ 0x80001914
0x80001914: fe e7 9c e3 bne	a5, a4, 0x8000190c
è¯»å–åœ°å€ 0x8000190c
å†™å…¥åœ°å€ 0x8009cf6d
0x8000190c: 00 b7 80 23 sb	a1, 0(a5)
è¯»å–åœ°å€ 0x80001910
0x80001910: 00 17 87 93 addi	a5, a5, 1
è¯»å–åœ°å€ 0x80001914
0x80001914: fe e7 9c e3 bne	a5, a4, 0x8000190c
è¯»å–åœ°å€ 0x8000190c
å†™å…¥åœ°å€ 0x8009cf6e
0x8000190c: 00 b7 80 23 sb	a1, 0(a5)
è¯»å–åœ°å€ 0x80001910
0x80001910: 00 17 87 93 addi	a5, a5, 1
è¯»å–åœ°å€ 0x80001914
0x80001914: fe e7 9c e3 bne	a5, a4, 0x8000190c
è¯»å–åœ°å€ 0x8000190c
å†™å…¥åœ°å€ 0x8009cf6f
0x8000190c: 00 b7 80 23 sb	a1, 0(a5)
è¯»å–åœ°å€ 0x80001910
0x80001910: 00 17 87 93 addi	a5, a5, 1
è¯»å–åœ°å€ 0x80001914
0x80001914: fe e7 9c e3 bne	a5, a4, 0x8000190c
è¯»å–åœ°å€ 0x80001918
0x80001918: 00 00 80 67 jalr	zero, 0(ra)
è¯»å–åœ°å€ 0x8000172c
0x8000172c: 00 04 86 13 addi	a2, s1, 0
è¯»å–åœ°å€ 0x80001730
0x80001730: 00 04 05 93 addi	a1, s0, 0
è¯»å–åœ°å€ 0x80001734
0x80001734: 01 01 05 13 addi	a0, sp, 16
è¯»å–åœ°å€ 0x80001738
0x80001738: dd 5f f0 ef jal	ra, 0x8000150c
è¯»å–åœ°å€ 0x8000150c
0x8000150c: fc 01 01 13 addi	sp, sp, -64
è¯»å–åœ°å€ 0x80001510
å†™å…¥åœ°å€ 0x8009cb38
0x80001510: 01 81 2c 23 sw	s8, 24(sp)
è¯»å–åœ°å€ 0x80001514
å†™å…¥åœ°å€ 0x8009cb5c
0x80001514: 02 11 2e 23 sw	ra, 60(sp)
è¯»å–åœ°å€ 0x80001518
å†™å…¥åœ°å€ 0x8009cb58
0x80001518: 02 81 2c 23 sw	s0, 56(sp)
è¯»å–åœ°å€ 0x8000151c
å†™å…¥åœ°å€ 0x8009cb54
0x8000151c: 02 91 2a 23 sw	s1, 52(sp)
è¯»å–åœ°å€ 0x80001520
å†™å…¥åœ°å€ 0x8009cb50
0x80001520: 03 21 28 23 sw	s2, 48(sp)
è¯»å–åœ°å€ 0x80001524
å†™å…¥åœ°å€ 0x8009cb4c
0x80001524: 03 31 26 23 sw	s3, 44(sp)
è¯»å–åœ°å€ 0x80001528
å†™å…¥åœ°å€ 0x8009cb48
0x80001528: 03 41 24 23 sw	s4, 40(sp)
è¯»å–åœ°å€ 0x8000152c
å†™å…¥åœ°å€ 0x8009cb44
0x8000152c: 03 51 22 23 sw	s5, 36(sp)
è¯»å–åœ°å€ 0x80001530
å†™å…¥åœ°å€ 0x8009cb40
0x80001530: 03 61 20 23 sw	s6, 32(sp)
è¯»å–åœ°å€ 0x80001534
å†™å…¥åœ°å€ 0x8009cb3c
0x80001534: 01 71 2e 23 sw	s7, 28(sp)
è¯»å–åœ°å€ 0x80001538
å†™å…¥åœ°å€ 0x8009cb34
0x80001538: 01 91 2a 23 sw	s9, 20(sp)
è¯»å–åœ°å€ 0x8000153c
å†™å…¥åœ°å€ 0x8009cb30
0x8000153c: 01 a1 28 23 sw	s10, 16(sp)
è¯»å–åœ°å€ 0x80001540
å†™å…¥åœ°å€ 0x8009cb2c
0x80001540: 01 b1 26 23 sw	s11, 12(sp)
è¯»å–åœ°å€ 0x80001544
è¯»å–åœ°å€ 0x8000213c
0x80001544: 00 05 c7 83 lbu	a5, 0(a1)
è¯»å–åœ°å€ 0x80001548
0x80001548: 00 05 0c 13 addi	s8, a0, 0
è¯»å–åœ°å€ 0x8000154c
0x8000154c: 18 07 82 63 beq	a5, zero, 0x800016d0
è¯»å–åœ°å€ 0x80001550
0x80001550: 00 05 84 13 addi	s0, a1, 0
è¯»å–åœ°å€ 0x80001554
0x80001554: 00 05 04 93 addi	s1, a0, 0
è¯»å–åœ°å€ 0x80001558
0x80001558: 02 50 0a 93 addi	s5, zero, 37
è¯»å–åœ°å€ 0x8000155c
0x8000155c: 06 40 0b 93 addi	s7, zero, 100
è¯»å–åœ°å€ 0x80001560
0x80001560: 00 a0 0b 13 addi	s6, zero, 10
è¯»å–åœ°å€ 0x80001564
0x80001564: 00 10 09 13 addi	s2, zero, 1
è¯»å–åœ°å€ 0x80001568
0x80001568: 03 00 09 93 addi	s3, zero, 48
è¯»å–åœ°å€ 0x8000156c
0x8000156c: 07 30 0d 13 addi	s10, zero, 115
è¯»å–åœ°å€ 0x80001570
0x80001570: 06 30 0c 93 addi	s9, zero, 99
è¯»å–åœ°å€ 0x80001574
0x80001574: 00 14 07 13 addi	a4, s0, 1
è¯»å–åœ°å€ 0x80001578
0x80001578: 07 57 9c 63 bne	a5, s5, 0x800015f0
è¯»å–åœ°å€ 0x800015f0
å†™å…¥åœ°å€ 0x8009cb70
0x800015f0: 00 f4 80 23 sb	a5, 0(s1)
è¯»å–åœ°å€ 0x800015f4
è¯»å–åœ°å€ 0x8000213d
0x800015f4: 00 14 47 83 lbu	a5, 1(s0)
è¯»å–åœ°å€ 0x800015f8
0x800015f8: 00 14 84 93 addi	s1, s1, 1
è¯»å–åœ°å€ 0x800015fc
0x800015fc: 00 07 04 13 addi	s0, a4, 0
è¯»å–åœ°å€ 0x80001600
0x80001600: f6 07 9a e3 bne	a5, zero, 0x80001574
è¯»å–åœ°å€ 0x80001574
0x80001574: 00 14 07 13 addi	a4, s0, 1
è¯»å–åœ°å€ 0x80001578
0x80001578: 07 57 9c 63 bne	a5, s5, 0x800015f0
è¯»å–åœ°å€ 0x800015f0
å†™å…¥åœ°å€ 0x8009cb71
0x800015f0: 00 f4 80 23 sb	a5, 0(s1)
è¯»å–åœ°å€ 0x800015f4
è¯»å–åœ°å€ 0x8000213e
0x800015f4: 00 14 47 83 lbu	a5, 1(s0)
è¯»å–åœ°å€ 0x800015f8
0x800015f8: 00 14 84 93 addi	s1, s1, 1
è¯»å–åœ°å€ 0x800015fc
0x800015fc: 00 07 04 13 addi	s0, a4, 0
è¯»å–åœ°å€ 0x80001600
0x80001600: f6 07 9a e3 bne	a5, zero, 0x80001574
è¯»å–åœ°å€ 0x80001574
0x80001574: 00 14 07 13 addi	a4, s0, 1
è¯»å–åœ°å€ 0x80001578
0x80001578: 07 57 9c 63 bne	a5, s5, 0x800015f0
è¯»å–åœ°å€ 0x800015f0
å†™å…¥åœ°å€ 0x8009cb72
0x800015f0: 00 f4 80 23 sb	a5, 0(s1)
è¯»å–åœ°å€ 0x800015f4
è¯»å–åœ°å€ 0x8000213f
0x800015f4: 00 14 47 83 lbu	a5, 1(s0)
è¯»å–åœ°å€ 0x800015f8
0x800015f8: 00 14 84 93 addi	s1, s1, 1
è¯»å–åœ°å€ 0x800015fc
0x800015fc: 00 07 04 13 addi	s0, a4, 0
è¯»å–åœ°å€ 0x80001600
0x80001600: f6 07 9a e3 bne	a5, zero, 0x80001574
è¯»å–åœ°å€ 0x80001574
0x80001574: 00 14 07 13 addi	a4, s0, 1
è¯»å–åœ°å€ 0x80001578
0x80001578: 07 57 9c 63 bne	a5, s5, 0x800015f0
è¯»å–åœ°å€ 0x800015f0
å†™å…¥åœ°å€ 0x8009cb73
0x800015f0: 00 f4 80 23 sb	a5, 0(s1)
è¯»å–åœ°å€ 0x800015f4
è¯»å–åœ°å€ 0x80002140
0x800015f4: 00 14 47 83 lbu	a5, 1(s0)
è¯»å–åœ°å€ 0x800015f8
0x800015f8: 00 14 84 93 addi	s1, s1, 1
è¯»å–åœ°å€ 0x800015fc
0x800015fc: 00 07 04 13 addi	s0, a4, 0
è¯»å–åœ°å€ 0x80001600
0x80001600: f6 07 9a e3 bne	a5, zero, 0x80001574
è¯»å–åœ°å€ 0x80001574
0x80001574: 00 14 07 13 addi	a4, s0, 1
è¯»å–åœ°å€ 0x80001578
0x80001578: 07 57 9c 63 bne	a5, s5, 0x800015f0
è¯»å–åœ°å€ 0x800015f0
å†™å…¥åœ°å€ 0x8009cb74
0x800015f0: 00 f4 80 23 sb	a5, 0(s1)
è¯»å–åœ°å€ 0x800015f4
è¯»å–åœ°å€ 0x80002141
0x800015f4: 00 14 47 83 lbu	a5, 1(s0)
è¯»å–åœ°å€ 0x800015f8
0x800015f8: 00 14 84 93 addi	s1, s1, 1
è¯»å–åœ°å€ 0x800015fc
0x800015fc: 00 07 04 13 addi	s0, a4, 0
è¯»å–åœ°å€ 0x80001600
0x80001600: f6 07 9a e3 bne	a5, zero, 0x80001574
è¯»å–åœ°å€ 0x80001574
0x80001574: 00 14 07 13 addi	a4, s0, 1
è¯»å–åœ°å€ 0x80001578
0x80001578: 07 57 9c 63 bne	a5, s5, 0x800015f0
è¯»å–åœ°å€ 0x800015f0
å†™å…¥åœ°å€ 0x8009cb75
0x800015f0: 00 f4 80 23 sb	a5, 0(s1)
è¯»å–åœ°å€ 0x800015f4
è¯»å–åœ°å€ 0x80002142
0x800015f4: 00 14 47 83 lbu	a5, 1(s0)
è¯»å–åœ°å€ 0x800015f8
0x800015f8: 00 14 84 93 addi	s1, s1, 1
è¯»å–åœ°å€ 0x800015fc
0x800015fc: 00 07 04 13 addi	s0, a4, 0
è¯»å–åœ°å€ 0x80001600
0x80001600: f6 07 9a e3 bne	a5, zero, 0x80001574
è¯»å–åœ°å€ 0x80001574
0x80001574: 00 14 07 13 addi	a4, s0, 1
è¯»å–åœ°å€ 0x80001578
0x80001578: 07 57 9c 63 bne	a5, s5, 0x800015f0
è¯»å–åœ°å€ 0x800015f0
å†™å…¥åœ°å€ 0x8009cb76
0x800015f0: 00 f4 80 23 sb	a5, 0(s1)
è¯»å–åœ°å€ 0x800015f4
è¯»å–åœ°å€ 0x80002143
0x800015f4: 00 14 47 83 lbu	a5, 1(s0)
è¯»å–åœ°å€ 0x800015f8
0x800015f8: 00 14 84 93 addi	s1, s1, 1
è¯»å–åœ°å€ 0x800015fc
0x800015fc: 00 07 04 13 addi	s0, a4, 0
è¯»å–åœ°å€ 0x80001600
0x80001600: f6 07 9a e3 bne	a5, zero, 0x80001574
è¯»å–åœ°å€ 0x80001574
0x80001574: 00 14 07 13 addi	a4, s0, 1
è¯»å–åœ°å€ 0x80001578
0x80001578: 07 57 9c 63 bne	a5, s5, 0x800015f0
è¯»å–åœ°å€ 0x800015f0
å†™å…¥åœ°å€ 0x8009cb77
0x800015f0: 00 f4 80 23 sb	a5, 0(s1)
è¯»å–åœ°å€ 0x800015f4
è¯»å–åœ°å€ 0x80002144
0x800015f4: 00 14 47 83 lbu	a5, 1(s0)
è¯»å–åœ°å€ 0x800015f8
0x800015f8: 00 14 84 93 addi	s1, s1, 1
è¯»å–åœ°å€ 0x800015fc
0x800015fc: 00 07 04 13 addi	s0, a4, 0
è¯»å–åœ°å€ 0x80001600
0x80001600: f6 07 9a e3 bne	a5, zero, 0x80001574
è¯»å–åœ°å€ 0x80001574
0x80001574: 00 14 07 13 addi	a4, s0, 1
è¯»å–åœ°å€ 0x80001578
0x80001578: 07 57 9c 63 bne	a5, s5, 0x800015f0
è¯»å–åœ°å€ 0x800015f0
å†™å…¥åœ°å€ 0x8009cb78
0x800015f0: 00 f4 80 23 sb	a5, 0(s1)
è¯»å–åœ°å€ 0x800015f4
è¯»å–åœ°å€ 0x80002145
0x800015f4: 00 14 47 83 lbu	a5, 1(s0)
è¯»å–åœ°å€ 0x800015f8
0x800015f8: 00 14 84 93 addi	s1, s1, 1
è¯»å–åœ°å€ 0x800015fc
0x800015fc: 00 07 04 13 addi	s0, a4, 0
è¯»å–åœ°å€ 0x80001600
0x80001600: f6 07 9a e3 bne	a5, zero, 0x80001574
è¯»å–åœ°å€ 0x80001574
0x80001574: 00 14 07 13 addi	a4, s0, 1
è¯»å–åœ°å€ 0x80001578
0x80001578: 07 57 9c 63 bne	a5, s5, 0x800015f0
è¯»å–åœ°å€ 0x800015f0
å†™å…¥åœ°å€ 0x8009cb79
0x800015f0: 00 f4 80 23 sb	a5, 0(s1)
è¯»å–åœ°å€ 0x800015f4
è¯»å–åœ°å€ 0x80002146
0x800015f4: 00 14 47 83 lbu	a5, 1(s0)
è¯»å–åœ°å€ 0x800015f8
0x800015f8: 00 14 84 93 addi	s1, s1, 1
è¯»å–åœ°å€ 0x800015fc
0x800015fc: 00 07 04 13 addi	s0, a4, 0
è¯»å–åœ°å€ 0x80001600
0x80001600: f6 07 9a e3 bne	a5, zero, 0x80001574
è¯»å–åœ°å€ 0x80001574
0x80001574: 00 14 07 13 addi	a4, s0, 1
è¯»å–åœ°å€ 0x80001578
0x80001578: 07 57 9c 63 bne	a5, s5, 0x800015f0
è¯»å–åœ°å€ 0x800015f0
å†™å…¥åœ°å€ 0x8009cb7a
0x800015f0: 00 f4 80 23 sb	a5, 0(s1)
è¯»å–åœ°å€ 0x800015f4
è¯»å–åœ°å€ 0x80002147
0x800015f4: 00 14 47 83 lbu	a5, 1(s0)
è¯»å–åœ°å€ 0x800015f8
0x800015f8: 00 14 84 93 addi	s1, s1, 1
è¯»å–åœ°å€ 0x800015fc
0x800015fc: 00 07 04 13 addi	s0, a4, 0
è¯»å–åœ°å€ 0x80001600
0x80001600: f6 07 9a e3 bne	a5, zero, 0x80001574
è¯»å–åœ°å€ 0x80001574
0x80001574: 00 14 07 13 addi	a4, s0, 1
è¯»å–åœ°å€ 0x80001578
0x80001578: 07 57 9c 63 bne	a5, s5, 0x800015f0
è¯»å–åœ°å€ 0x800015f0
å†™å…¥åœ°å€ 0x8009cb7b
0x800015f0: 00 f4 80 23 sb	a5, 0(s1)
è¯»å–åœ°å€ 0x800015f4
è¯»å–åœ°å€ 0x80002148
0x800015f4: 00 14 47 83 lbu	a5, 1(s0)
è¯»å–åœ°å€ 0x800015f8
0x800015f8: 00 14 84 93 addi	s1, s1, 1
è¯»å–åœ°å€ 0x800015fc
0x800015fc: 00 07 04 13 addi	s0, a4, 0
è¯»å–åœ°å€ 0x80001600
0x80001600: f6 07 9a e3 bne	a5, zero, 0x80001574
è¯»å–åœ°å€ 0x80001574
0x80001574: 00 14 07 13 addi	a4, s0, 1
è¯»å–åœ°å€ 0x80001578
0x80001578: 07 57 9c 63 bne	a5, s5, 0x800015f0
è¯»å–åœ°å€ 0x800015f0
å†™å…¥åœ°å€ 0x8009cb7c
0x800015f0: 00 f4 80 23 sb	a5, 0(s1)
è¯»å–åœ°å€ 0x800015f4
è¯»å–åœ°å€ 0x80002149
0x800015f4: 00 14 47 83 lbu	a5, 1(s0)
è¯»å–åœ°å€ 0x800015f8
0x800015f8: 00 14 84 93 addi	s1, s1, 1
è¯»å–åœ°å€ 0x800015fc
0x800015fc: 00 07 04 13 addi	s0, a4, 0
è¯»å–åœ°å€ 0x80001600
0x80001600: f6 07 9a e3 bne	a5, zero, 0x80001574
è¯»å–åœ°å€ 0x80001574
0x80001574: 00 14 07 13 addi	a4, s0, 1
è¯»å–åœ°å€ 0x80001578
0x80001578: 07 57 9c 63 bne	a5, s5, 0x800015f0
è¯»å–åœ°å€ 0x800015f0
å†™å…¥åœ°å€ 0x8009cb7d
0x800015f0: 00 f4 80 23 sb	a5, 0(s1)
è¯»å–åœ°å€ 0x800015f4
è¯»å–åœ°å€ 0x8000214a
0x800015f4: 00 14 47 83 lbu	a5, 1(s0)
è¯»å–åœ°å€ 0x800015f8
0x800015f8: 00 14 84 93 addi	s1, s1, 1
è¯»å–åœ°å€ 0x800015fc
0x800015fc: 00 07 04 13 addi	s0, a4, 0
è¯»å–åœ°å€ 0x80001600
0x80001600: f6 07 9a e3 bne	a5, zero, 0x80001574
è¯»å–åœ°å€ 0x80001574
0x80001574: 00 14 07 13 addi	a4, s0, 1
è¯»å–åœ°å€ 0x80001578
0x80001578: 07 57 9c 63 bne	a5, s5, 0x800015f0
è¯»å–åœ°å€ 0x800015f0
å†™å…¥åœ°å€ 0x8009cb7e
0x800015f0: 00 f4 80 23 sb	a5, 0(s1)
è¯»å–åœ°å€ 0x800015f4
è¯»å–åœ°å€ 0x8000214b
0x800015f4: 00 14 47 83 lbu	a5, 1(s0)
è¯»å–åœ°å€ 0x800015f8
0x800015f8: 00 14 84 93 addi	s1, s1, 1
è¯»å–åœ°å€ 0x800015fc
0x800015fc: 00 07 04 13 addi	s0, a4, 0
è¯»å–åœ°å€ 0x80001600
0x80001600: f6 07 9a e3 bne	a5, zero, 0x80001574
è¯»å–åœ°å€ 0x80001574
0x80001574: 00 14 07 13 addi	a4, s0, 1
è¯»å–åœ°å€ 0x80001578
0x80001578: 07 57 9c 63 bne	a5, s5, 0x800015f0
è¯»å–åœ°å€ 0x800015f0
å†™å…¥åœ°å€ 0x8009cb7f
0x800015f0: 00 f4 80 23 sb	a5, 0(s1)
è¯»å–åœ°å€ 0x800015f4
è¯»å–åœ°å€ 0x8000214c
0x800015f4: 00 14 47 83 lbu	a5, 1(s0)
è¯»å–åœ°å€ 0x800015f8
0x800015f8: 00 14 84 93 addi	s1, s1, 1
è¯»å–åœ°å€ 0x800015fc
0x800015fc: 00 07 04 13 addi	s0, a4, 0
è¯»å–åœ°å€ 0x80001600
0x80001600: f6 07 9a e3 bne	a5, zero, 0x80001574
è¯»å–åœ°å€ 0x80001574
0x80001574: 00 14 07 13 addi	a4, s0, 1
è¯»å–åœ°å€ 0x80001578
0x80001578: 07 57 9c 63 bne	a5, s5, 0x800015f0
è¯»å–åœ°å€ 0x800015f0
å†™å…¥åœ°å€ 0x8009cb80
0x800015f0: 00 f4 80 23 sb	a5, 0(s1)
è¯»å–åœ°å€ 0x800015f4
è¯»å–åœ°å€ 0x8000214d
0x800015f4: 00 14 47 83 lbu	a5, 1(s0)
è¯»å–åœ°å€ 0x800015f8
0x800015f8: 00 14 84 93 addi	s1, s1, 1
è¯»å–åœ°å€ 0x800015fc
0x800015fc: 00 07 04 13 addi	s0, a4, 0
è¯»å–åœ°å€ 0x80001600
0x80001600: f6 07 9a e3 bne	a5, zero, 0x80001574
è¯»å–åœ°å€ 0x80001574
0x80001574: 00 14 07 13 addi	a4, s0, 1
è¯»å–åœ°å€ 0x80001578
0x80001578: 07 57 9c 63 bne	a5, s5, 0x800015f0
è¯»å–åœ°å€ 0x800015f0
å†™å…¥åœ°å€ 0x8009cb81
0x800015f0: 00 f4 80 23 sb	a5, 0(s1)
è¯»å–åœ°å€ 0x800015f4
è¯»å–åœ°å€ 0x8000214e
0x800015f4: 00 14 47 83 lbu	a5, 1(s0)
è¯»å–åœ°å€ 0x800015f8
0x800015f8: 00 14 84 93 addi	s1, s1, 1
è¯»å–åœ°å€ 0x800015fc
0x800015fc: 00 07 04 13 addi	s0, a4, 0
è¯»å–åœ°å€ 0x80001600
0x80001600: f6 07 9a e3 bne	a5, zero, 0x80001574
è¯»å–åœ°å€ 0x80001574
0x80001574: 00 14 07 13 addi	a4, s0, 1
è¯»å–åœ°å€ 0x80001578
0x80001578: 07 57 9c 63 bne	a5, s5, 0x800015f0
è¯»å–åœ°å€ 0x800015f0
å†™å…¥åœ°å€ 0x8009cb82
0x800015f0: 00 f4 80 23 sb	a5, 0(s1)
è¯»å–åœ°å€ 0x800015f4
è¯»å–åœ°å€ 0x8000214f
0x800015f4: 00 14 47 83 lbu	a5, 1(s0)
è¯»å–åœ°å€ 0x800015f8
0x800015f8: 00 14 84 93 addi	s1, s1, 1
è¯»å–åœ°å€ 0x800015fc
0x800015fc: 00 07 04 13 addi	s0, a4, 0
è¯»å–åœ°å€ 0x80001600
0x80001600: f6 07 9a e3 bne	a5, zero, 0x80001574
è¯»å–åœ°å€ 0x80001574
0x80001574: 00 14 07 13 addi	a4, s0, 1
è¯»å–åœ°å€ 0x80001578
0x80001578: 07 57 9c 63 bne	a5, s5, 0x800015f0
è¯»å–åœ°å€ 0x800015f0
å†™å…¥åœ°å€ 0x8009cb83
0x800015f0: 00 f4 80 23 sb	a5, 0(s1)
è¯»å–åœ°å€ 0x800015f4
è¯»å–åœ°å€ 0x80002150
0x800015f4: 00 14 47 83 lbu	a5, 1(s0)
è¯»å–åœ°å€ 0x800015f8
0x800015f8: 00 14 84 93 addi	s1, s1, 1
è¯»å–åœ°å€ 0x800015fc
0x800015fc: 00 07 04 13 addi	s0, a4, 0
è¯»å–åœ°å€ 0x80001600
0x80001600: f6 07 9a e3 bne	a5, zero, 0x80001574
è¯»å–åœ°å€ 0x80001574
0x80001574: 00 14 07 13 addi	a4, s0, 1
è¯»å–åœ°å€ 0x80001578
0x80001578: 07 57 9c 63 bne	a5, s5, 0x800015f0
è¯»å–åœ°å€ 0x800015f0
å†™å…¥åœ°å€ 0x8009cb84
0x800015f0: 00 f4 80 23 sb	a5, 0(s1)
è¯»å–åœ°å€ 0x800015f4
è¯»å–åœ°å€ 0x80002151
0x800015f4: 00 14 47 83 lbu	a5, 1(s0)
è¯»å–åœ°å€ 0x800015f8
0x800015f8: 00 14 84 93 addi	s1, s1, 1
è¯»å–åœ°å€ 0x800015fc
0x800015fc: 00 07 04 13 addi	s0, a4, 0
è¯»å–åœ°å€ 0x80001600
0x80001600: f6 07 9a e3 bne	a5, zero, 0x80001574
è¯»å–åœ°å€ 0x80001574
0x80001574: 00 14 07 13 addi	a4, s0, 1
è¯»å–åœ°å€ 0x80001578
0x80001578: 07 57 9c 63 bne	a5, s5, 0x800015f0
è¯»å–åœ°å€ 0x800015f0
å†™å…¥åœ°å€ 0x8009cb85
0x800015f0: 00 f4 80 23 sb	a5, 0(s1)
è¯»å–åœ°å€ 0x800015f4
è¯»å–åœ°å€ 0x80002152
0x800015f4: 00 14 47 83 lbu	a5, 1(s0)
è¯»å–åœ°å€ 0x800015f8
0x800015f8: 00 14 84 93 addi	s1, s1, 1
è¯»å–åœ°å€ 0x800015fc
0x800015fc: 00 07 04 13 addi	s0, a4, 0
è¯»å–åœ°å€ 0x80001600
0x80001600: f6 07 9a e3 bne	a5, zero, 0x80001574
è¯»å–åœ°å€ 0x80001574
0x80001574: 00 14 07 13 addi	a4, s0, 1
è¯»å–åœ°å€ 0x80001578
0x80001578: 07 57 9c 63 bne	a5, s5, 0x800015f0
è¯»å–åœ°å€ 0x800015f0
å†™å…¥åœ°å€ 0x8009cb86
0x800015f0: 00 f4 80 23 sb	a5, 0(s1)
è¯»å–åœ°å€ 0x800015f4
è¯»å–åœ°å€ 0x80002153
0x800015f4: 00 14 47 83 lbu	a5, 1(s0)
è¯»å–åœ°å€ 0x800015f8
0x800015f8: 00 14 84 93 addi	s1, s1, 1
è¯»å–åœ°å€ 0x800015fc
0x800015fc: 00 07 04 13 addi	s0, a4, 0
è¯»å–åœ°å€ 0x80001600
0x80001600: f6 07 9a e3 bne	a5, zero, 0x80001574
è¯»å–åœ°å€ 0x80001574
0x80001574: 00 14 07 13 addi	a4, s0, 1
è¯»å–åœ°å€ 0x80001578
0x80001578: 07 57 9c 63 bne	a5, s5, 0x800015f0
è¯»å–åœ°å€ 0x800015f0
å†™å…¥åœ°å€ 0x8009cb87
0x800015f0: 00 f4 80 23 sb	a5, 0(s1)
è¯»å–åœ°å€ 0x800015f4
è¯»å–åœ°å€ 0x80002154
0x800015f4: 00 14 47 83 lbu	a5, 1(s0)
è¯»å–åœ°å€ 0x800015f8
0x800015f8: 00 14 84 93 addi	s1, s1, 1
è¯»å–åœ°å€ 0x800015fc
0x800015fc: 00 07 04 13 addi	s0, a4, 0
è¯»å–åœ°å€ 0x80001600
0x80001600: f6 07 9a e3 bne	a5, zero, 0x80001574
è¯»å–åœ°å€ 0x80001574
0x80001574: 00 14 07 13 addi	a4, s0, 1
è¯»å–åœ°å€ 0x80001578
0x80001578: 07 57 9c 63 bne	a5, s5, 0x800015f0
è¯»å–åœ°å€ 0x800015f0
å†™å…¥åœ°å€ 0x8009cb88
0x800015f0: 00 f4 80 23 sb	a5, 0(s1)
è¯»å–åœ°å€ 0x800015f4
è¯»å–åœ°å€ 0x80002155
0x800015f4: 00 14 47 83 lbu	a5, 1(s0)
è¯»å–åœ°å€ 0x800015f8
0x800015f8: 00 14 84 93 addi	s1, s1, 1
è¯»å–åœ°å€ 0x800015fc
0x800015fc: 00 07 04 13 addi	s0, a4, 0
è¯»å–åœ°å€ 0x80001600
0x80001600: f6 07 9a e3 bne	a5, zero, 0x80001574
è¯»å–åœ°å€ 0x80001574
0x80001574: 00 14 07 13 addi	a4, s0, 1
è¯»å–åœ°å€ 0x80001578
0x80001578: 07 57 9c 63 bne	a5, s5, 0x800015f0
è¯»å–åœ°å€ 0x800015f0
å†™å…¥åœ°å€ 0x8009cb89
0x800015f0: 00 f4 80 23 sb	a5, 0(s1)
è¯»å–åœ°å€ 0x800015f4
è¯»å–åœ°å€ 0x80002156
0x800015f4: 00 14 47 83 lbu	a5, 1(s0)
è¯»å–åœ°å€ 0x800015f8
0x800015f8: 00 14 84 93 addi	s1, s1, 1
è¯»å–åœ°å€ 0x800015fc
0x800015fc: 00 07 04 13 addi	s0, a4, 0
è¯»å–åœ°å€ 0x80001600
0x80001600: f6 07 9a e3 bne	a5, zero, 0x80001574
è¯»å–åœ°å€ 0x80001574
0x80001574: 00 14 07 13 addi	a4, s0, 1
è¯»å–åœ°å€ 0x80001578
0x80001578: 07 57 9c 63 bne	a5, s5, 0x800015f0
è¯»å–åœ°å€ 0x800015f0
å†™å…¥åœ°å€ 0x8009cb8a
0x800015f0: 00 f4 80 23 sb	a5, 0(s1)
è¯»å–åœ°å€ 0x800015f4
è¯»å–åœ°å€ 0x80002157
0x800015f4: 00 14 47 83 lbu	a5, 1(s0)
è¯»å–åœ°å€ 0x800015f8
0x800015f8: 00 14 84 93 addi	s1, s1, 1
è¯»å–åœ°å€ 0x800015fc
0x800015fc: 00 07 04 13 addi	s0, a4, 0
è¯»å–åœ°å€ 0x80001600
0x80001600: f6 07 9a e3 bne	a5, zero, 0x80001574
è¯»å–åœ°å€ 0x80001574
0x80001574: 00 14 07 13 addi	a4, s0, 1
è¯»å–åœ°å€ 0x80001578
0x80001578: 07 57 9c 63 bne	a5, s5, 0x800015f0
è¯»å–åœ°å€ 0x800015f0
å†™å…¥åœ°å€ 0x8009cb8b
0x800015f0: 00 f4 80 23 sb	a5, 0(s1)
è¯»å–åœ°å€ 0x800015f4
è¯»å–åœ°å€ 0x80002158
0x800015f4: 00 14 47 83 lbu	a5, 1(s0)
è¯»å–åœ°å€ 0x800015f8
0x800015f8: 00 14 84 93 addi	s1, s1, 1
è¯»å–åœ°å€ 0x800015fc
0x800015fc: 00 07 04 13 addi	s0, a4, 0
è¯»å–åœ°å€ 0x80001600
0x80001600: f6 07 9a e3 bne	a5, zero, 0x80001574
è¯»å–åœ°å€ 0x80001574
0x80001574: 00 14 07 13 addi	a4, s0, 1
è¯»å–åœ°å€ 0x80001578
0x80001578: 07 57 9c 63 bne	a5, s5, 0x800015f0
è¯»å–åœ°å€ 0x800015f0
å†™å…¥åœ°å€ 0x8009cb8c
0x800015f0: 00 f4 80 23 sb	a5, 0(s1)
è¯»å–åœ°å€ 0x800015f4
è¯»å–åœ°å€ 0x80002159
0x800015f4: 00 14 47 83 lbu	a5, 1(s0)
è¯»å–åœ°å€ 0x800015f8
0x800015f8: 00 14 84 93 addi	s1, s1, 1
è¯»å–åœ°å€ 0x800015fc
0x800015fc: 00 07 04 13 addi	s0, a4, 0
è¯»å–åœ°å€ 0x80001600
0x80001600: f6 07 9a e3 bne	a5, zero, 0x80001574
è¯»å–åœ°å€ 0x80001574
0x80001574: 00 14 07 13 addi	a4, s0, 1
è¯»å–åœ°å€ 0x80001578
0x80001578: 07 57 9c 63 bne	a5, s5, 0x800015f0
è¯»å–åœ°å€ 0x800015f0
å†™å…¥åœ°å€ 0x8009cb8d
0x800015f0: 00 f4 80 23 sb	a5, 0(s1)
è¯»å–åœ°å€ 0x800015f4
è¯»å–åœ°å€ 0x8000215a
0x800015f4: 00 14 47 83 lbu	a5, 1(s0)
è¯»å–åœ°å€ 0x800015f8
0x800015f8: 00 14 84 93 addi	s1, s1, 1
è¯»å–åœ°å€ 0x800015fc
0x800015fc: 00 07 04 13 addi	s0, a4, 0
è¯»å–åœ°å€ 0x80001600
0x80001600: f6 07 9a e3 bne	a5, zero, 0x80001574
è¯»å–åœ°å€ 0x80001574
0x80001574: 00 14 07 13 addi	a4, s0, 1
è¯»å–åœ°å€ 0x80001578
0x80001578: 07 57 9c 63 bne	a5, s5, 0x800015f0
è¯»å–åœ°å€ 0x800015f0
å†™å…¥åœ°å€ 0x8009cb8e
0x800015f0: 00 f4 80 23 sb	a5, 0(s1)
è¯»å–åœ°å€ 0x800015f4
è¯»å–åœ°å€ 0x8000215b
0x800015f4: 00 14 47 83 lbu	a5, 1(s0)
è¯»å–åœ°å€ 0x800015f8
0x800015f8: 00 14 84 93 addi	s1, s1, 1
è¯»å–åœ°å€ 0x800015fc
0x800015fc: 00 07 04 13 addi	s0, a4, 0
è¯»å–åœ°å€ 0x80001600
0x80001600: f6 07 9a e3 bne	a5, zero, 0x80001574
è¯»å–åœ°å€ 0x80001574
0x80001574: 00 14 07 13 addi	a4, s0, 1
è¯»å–åœ°å€ 0x80001578
0x80001578: 07 57 9c 63 bne	a5, s5, 0x800015f0
è¯»å–åœ°å€ 0x800015f0
å†™å…¥åœ°å€ 0x8009cb8f
0x800015f0: 00 f4 80 23 sb	a5, 0(s1)
è¯»å–åœ°å€ 0x800015f4
è¯»å–åœ°å€ 0x8000215c
0x800015f4: 00 14 47 83 lbu	a5, 1(s0)
è¯»å–åœ°å€ 0x800015f8
0x800015f8: 00 14 84 93 addi	s1, s1, 1
è¯»å–åœ°å€ 0x800015fc
0x800015fc: 00 07 04 13 addi	s0, a4, 0
è¯»å–åœ°å€ 0x80001600
0x80001600: f6 07 9a e3 bne	a5, zero, 0x80001574
è¯»å–åœ°å€ 0x80001574
0x80001574: 00 14 07 13 addi	a4, s0, 1
è¯»å–åœ°å€ 0x80001578
0x80001578: 07 57 9c 63 bne	a5, s5, 0x800015f0
è¯»å–åœ°å€ 0x800015f0
å†™å…¥åœ°å€ 0x8009cb90
0x800015f0: 00 f4 80 23 sb	a5, 0(s1)
è¯»å–åœ°å€ 0x800015f4
è¯»å–åœ°å€ 0x8000215d
0x800015f4: 00 14 47 83 lbu	a5, 1(s0)
è¯»å–åœ°å€ 0x800015f8
0x800015f8: 00 14 84 93 addi	s1, s1, 1
è¯»å–åœ°å€ 0x800015fc
0x800015fc: 00 07 04 13 addi	s0, a4, 0
è¯»å–åœ°å€ 0x80001600
0x80001600: f6 07 9a e3 bne	a5, zero, 0x80001574
è¯»å–åœ°å€ 0x80001574
0x80001574: 00 14 07 13 addi	a4, s0, 1
è¯»å–åœ°å€ 0x80001578
0x80001578: 07 57 9c 63 bne	a5, s5, 0x800015f0
è¯»å–åœ°å€ 0x800015f0
å†™å…¥åœ°å€ 0x8009cb91
0x800015f0: 00 f4 80 23 sb	a5, 0(s1)
è¯»å–åœ°å€ 0x800015f4
è¯»å–åœ°å€ 0x8000215e
0x800015f4: 00 14 47 83 lbu	a5, 1(s0)
è¯»å–åœ°å€ 0x800015f8
0x800015f8: 00 14 84 93 addi	s1, s1, 1
è¯»å–åœ°å€ 0x800015fc
0x800015fc: 00 07 04 13 addi	s0, a4, 0
è¯»å–åœ°å€ 0x80001600
0x80001600: f6 07 9a e3 bne	a5, zero, 0x80001574
è¯»å–åœ°å€ 0x80001574
0x80001574: 00 14 07 13 addi	a4, s0, 1
è¯»å–åœ°å€ 0x80001578
0x80001578: 07 57 9c 63 bne	a5, s5, 0x800015f0
è¯»å–åœ°å€ 0x800015f0
å†™å…¥åœ°å€ 0x8009cb92
0x800015f0: 00 f4 80 23 sb	a5, 0(s1)
è¯»å–åœ°å€ 0x800015f4
è¯»å–åœ°å€ 0x8000215f
0x800015f4: 00 14 47 83 lbu	a5, 1(s0)
è¯»å–åœ°å€ 0x800015f8
0x800015f8: 00 14 84 93 addi	s1, s1, 1
è¯»å–åœ°å€ 0x800015fc
0x800015fc: 00 07 04 13 addi	s0, a4, 0
è¯»å–åœ°å€ 0x80001600
0x80001600: f6 07 9a e3 bne	a5, zero, 0x80001574
è¯»å–åœ°å€ 0x80001574
0x80001574: 00 14 07 13 addi	a4, s0, 1
è¯»å–åœ°å€ 0x80001578
0x80001578: 07 57 9c 63 bne	a5, s5, 0x800015f0
è¯»å–åœ°å€ 0x800015f0
å†™å…¥åœ°å€ 0x8009cb93
0x800015f0: 00 f4 80 23 sb	a5, 0(s1)
è¯»å–åœ°å€ 0x800015f4
è¯»å–åœ°å€ 0x80002160
0x800015f4: 00 14 47 83 lbu	a5, 1(s0)
è¯»å–åœ°å€ 0x800015f8
0x800015f8: 00 14 84 93 addi	s1, s1, 1
è¯»å–åœ°å€ 0x800015fc
0x800015fc: 00 07 04 13 addi	s0, a4, 0
è¯»å–åœ°å€ 0x80001600
0x80001600: f6 07 9a e3 bne	a5, zero, 0x80001574
è¯»å–åœ°å€ 0x80001574
0x80001574: 00 14 07 13 addi	a4, s0, 1
è¯»å–åœ°å€ 0x80001578
0x80001578: 07 57 9c 63 bne	a5, s5, 0x800015f0
è¯»å–åœ°å€ 0x800015f0
å†™å…¥åœ°å€ 0x8009cb94
0x800015f0: 00 f4 80 23 sb	a5, 0(s1)
è¯»å–åœ°å€ 0x800015f4
è¯»å–åœ°å€ 0x80002161
0x800015f4: 00 14 47 83 lbu	a5, 1(s0)
è¯»å–åœ°å€ 0x800015f8
0x800015f8: 00 14 84 93 addi	s1, s1, 1
è¯»å–åœ°å€ 0x800015fc
0x800015fc: 00 07 04 13 addi	s0, a4, 0
è¯»å–åœ°å€ 0x80001600
0x80001600: f6 07 9a e3 bne	a5, zero, 0x80001574
è¯»å–åœ°å€ 0x80001574
0x80001574: 00 14 07 13 addi	a4, s0, 1
è¯»å–åœ°å€ 0x80001578
0x80001578: 07 57 9c 63 bne	a5, s5, 0x800015f0
è¯»å–åœ°å€ 0x800015f0
å†™å…¥åœ°å€ 0x8009cb95
0x800015f0: 00 f4 80 23 sb	a5, 0(s1)
è¯»å–åœ°å€ 0x800015f4
è¯»å–åœ°å€ 0x80002162
0x800015f4: 00 14 47 83 lbu	a5, 1(s0)
è¯»å–åœ°å€ 0x800015f8
0x800015f8: 00 14 84 93 addi	s1, s1, 1
è¯»å–åœ°å€ 0x800015fc
0x800015fc: 00 07 04 13 addi	s0, a4, 0
è¯»å–åœ°å€ 0x80001600
0x80001600: f6 07 9a e3 bne	a5, zero, 0x80001574
è¯»å–åœ°å€ 0x80001574
0x80001574: 00 14 07 13 addi	a4, s0, 1
è¯»å–åœ°å€ 0x80001578
0x80001578: 07 57 9c 63 bne	a5, s5, 0x800015f0
è¯»å–åœ°å€ 0x800015f0
å†™å…¥åœ°å€ 0x8009cb96
0x800015f0: 00 f4 80 23 sb	a5, 0(s1)
è¯»å–åœ°å€ 0x800015f4
è¯»å–åœ°å€ 0x80002163
0x800015f4: 00 14 47 83 lbu	a5, 1(s0)
è¯»å–åœ°å€ 0x800015f8
0x800015f8: 00 14 84 93 addi	s1, s1, 1
è¯»å–åœ°å€ 0x800015fc
0x800015fc: 00 07 04 13 addi	s0, a4, 0
è¯»å–åœ°å€ 0x80001600
0x80001600: f6 07 9a e3 bne	a5, zero, 0x80001574
è¯»å–åœ°å€ 0x80001574
0x80001574: 00 14 07 13 addi	a4, s0, 1
è¯»å–åœ°å€ 0x80001578
0x80001578: 07 57 9c 63 bne	a5, s5, 0x800015f0
è¯»å–åœ°å€ 0x800015f0
å†™å…¥åœ°å€ 0x8009cb97
0x800015f0: 00 f4 80 23 sb	a5, 0(s1)
è¯»å–åœ°å€ 0x800015f4
è¯»å–åœ°å€ 0x80002164
0x800015f4: 00 14 47 83 lbu	a5, 1(s0)
è¯»å–åœ°å€ 0x800015f8
0x800015f8: 00 14 84 93 addi	s1, s1, 1
è¯»å–åœ°å€ 0x800015fc
0x800015fc: 00 07 04 13 addi	s0, a4, 0
è¯»å–åœ°å€ 0x80001600
0x80001600: f6 07 9a e3 bne	a5, zero, 0x80001574
è¯»å–åœ°å€ 0x80001574
0x80001574: 00 14 07 13 addi	a4, s0, 1
è¯»å–åœ°å€ 0x80001578
0x80001578: 07 57 9c 63 bne	a5, s5, 0x800015f0
è¯»å–åœ°å€ 0x800015f0
å†™å…¥åœ°å€ 0x8009cb98
0x800015f0: 00 f4 80 23 sb	a5, 0(s1)
è¯»å–åœ°å€ 0x800015f4
è¯»å–åœ°å€ 0x80002165
0x800015f4: 00 14 47 83 lbu	a5, 1(s0)
è¯»å–åœ°å€ 0x800015f8
0x800015f8: 00 14 84 93 addi	s1, s1, 1
è¯»å–åœ°å€ 0x800015fc
0x800015fc: 00 07 04 13 addi	s0, a4, 0
è¯»å–åœ°å€ 0x80001600
0x80001600: f6 07 9a e3 bne	a5, zero, 0x80001574
è¯»å–åœ°å€ 0x80001574
0x80001574: 00 14 07 13 addi	a4, s0, 1
è¯»å–åœ°å€ 0x80001578
0x80001578: 07 57 9c 63 bne	a5, s5, 0x800015f0
è¯»å–åœ°å€ 0x800015f0
å†™å…¥åœ°å€ 0x8009cb99
0x800015f0: 00 f4 80 23 sb	a5, 0(s1)
è¯»å–åœ°å€ 0x800015f4
è¯»å–åœ°å€ 0x80002166
0x800015f4: 00 14 47 83 lbu	a5, 1(s0)
è¯»å–åœ°å€ 0x800015f8
0x800015f8: 00 14 84 93 addi	s1, s1, 1
è¯»å–åœ°å€ 0x800015fc
0x800015fc: 00 07 04 13 addi	s0, a4, 0
è¯»å–åœ°å€ 0x80001600
0x80001600: f6 07 9a e3 bne	a5, zero, 0x80001574
è¯»å–åœ°å€ 0x80001574
0x80001574: 00 14 07 13 addi	a4, s0, 1
è¯»å–åœ°å€ 0x80001578
0x80001578: 07 57 9c 63 bne	a5, s5, 0x800015f0
è¯»å–åœ°å€ 0x800015f0
å†™å…¥åœ°å€ 0x8009cb9a
0x800015f0: 00 f4 80 23 sb	a5, 0(s1)
è¯»å–åœ°å€ 0x800015f4
è¯»å–åœ°å€ 0x80002167
0x800015f4: 00 14 47 83 lbu	a5, 1(s0)
è¯»å–åœ°å€ 0x800015f8
0x800015f8: 00 14 84 93 addi	s1, s1, 1
è¯»å–åœ°å€ 0x800015fc
0x800015fc: 00 07 04 13 addi	s0, a4, 0
è¯»å–åœ°å€ 0x80001600
0x80001600: f6 07 9a e3 bne	a5, zero, 0x80001574
è¯»å–åœ°å€ 0x80001604
0x80001604: fa 9f f0 6f jal	zero, 0x800015ac
è¯»å–åœ°å€ 0x800015ac
0x800015ac: 41 84 85 33 sub	a0, s1, s8
è¯»å–åœ°å€ 0x800015b0
å†™å…¥åœ°å€ 0x8009cb9b
0x800015b0: 00 04 80 23 sb	zero, 0(s1)
è¯»å–åœ°å€ 0x800015b4
è¯»å–åœ°å€ 0x8009cb5c
0x800015b4: 03 c1 20 83 lw	ra, 60(sp)
è¯»å–åœ°å€ 0x800015b8
è¯»å–åœ°å€ 0x8009cb58
0x800015b8: 03 81 24 03 lw	s0, 56(sp)
è¯»å–åœ°å€ 0x800015bc
è¯»å–åœ°å€ 0x8009cb54
0x800015bc: 03 41 24 83 lw	s1, 52(sp)
è¯»å–åœ°å€ 0x800015c0
è¯»å–åœ°å€ 0x8009cb50
0x800015c0: 03 01 29 03 lw	s2, 48(sp)
è¯»å–åœ°å€ 0x800015c4
è¯»å–åœ°å€ 0x8009cb4c
0x800015c4: 02 c1 29 83 lw	s3, 44(sp)
è¯»å–åœ°å€ 0x800015c8
è¯»å–åœ°å€ 0x8009cb48
0x800015c8: 02 81 2a 03 lw	s4, 40(sp)
è¯»å–åœ°å€ 0x800015cc
è¯»å–åœ°å€ 0x8009cb44
0x800015cc: 02 41 2a 83 lw	s5, 36(sp)
è¯»å–åœ°å€ 0x800015d0
è¯»å–åœ°å€ 0x8009cb40
0x800015d0: 02 01 2b 03 lw	s6, 32(sp)
è¯»å–åœ°å€ 0x800015d4
è¯»å–åœ°å€ 0x8009cb3c
0x800015d4: 01 c1 2b 83 lw	s7, 28(sp)
è¯»å–åœ°å€ 0x800015d8
è¯»å–åœ°å€ 0x8009cb38
0x800015d8: 01 81 2c 03 lw	s8, 24(sp)
è¯»å–åœ°å€ 0x800015dc
è¯»å–åœ°å€ 0x8009cb34
0x800015dc: 01 41 2c 83 lw	s9, 20(sp)
è¯»å–åœ°å€ 0x800015e0
è¯»å–åœ°å€ 0x8009cb30
0x800015e0: 01 01 2d 03 lw	s10, 16(sp)
è¯»å–åœ°å€ 0x800015e4
è¯»å–åœ°å€ 0x8009cb2c
0x800015e4: 00 c1 2d 83 lw	s11, 12(sp)
è¯»å–åœ°å€ 0x800015e8
0x800015e8: 04 01 01 13 addi	sp, sp, 64
è¯»å–åœ°å€ 0x800015ec
0x800015ec: 00 00 80 67 jalr	zero, 0(ra)
è¯»å–åœ°å€ 0x8000173c
0x8000173c: 00 05 09 13 addi	s2, a0, 0
è¯»å–åœ°å€ 0x80001740
0x80001740: 00 a0 5e 63 bge	zero, a0, 0x8000175c
è¯»å–åœ°å€ 0x80001744
0x80001744: 01 01 04 13 addi	s0, sp, 16
è¯»å–åœ°å€ 0x80001748
0x80001748: 00 a4 04 b3 add	s1, s0, a0
è¯»å–åœ°å€ 0x8000174c
è¯»å–åœ°å€ 0x8009cb70
0x8000174c: 00 04 45 03 lbu	a0, 0(s0)
è¯»å–åœ°å€ 0x80001750
0x80001750: 00 14 04 13 addi	s0, s0, 1
è¯»å–åœ°å€ 0x80001754
0x80001754: 83 df f0 ef jal	ra, 0x80000f90
è¯»å–åœ°å€ 0x80000f90
0x80000f90: a0 00 07 b7 lui	a5, 655360
è¯»å–åœ°å€ 0x80000f94
write device name = serial 	 addr = 0xa00003f8 
0x80000f94: 3e a7 8c 23 sb	a0, 1016(a5)
è¯»å–åœ°å€ 0x80000f98
0x80000f98: 00 00 80 67 jalr	zero, 0(ra)
è¯»å–åœ°å€ 0x80001758
0x80001758: fe 94 1a e3 bne	s0, s1, 0x8000174c
è¯»å–åœ°å€ 0x8000174c
è¯»å–åœ°å€ 0x8009cb71
0x8000174c: 00 04 45 03 lbu	a0, 0(s0)
è¯»å–åœ°å€ 0x80001750
0x80001750: 00 14 04 13 addi	s0, s0, 1
è¯»å–åœ°å€ 0x80001754
0x80001754: 83 df f0 ef jal	ra, 0x80000f90
è¯»å–åœ°å€ 0x80000f90
0x80000f90: a0 00 07 b7 lui	a5, 655360
è¯»å–åœ°å€ 0x80000f94
write device name = serial 	 addr = 0xa00003f8 
0x80000f94: 3e a7 8c 23 sb	a0, 1016(a5)
è¯»å–åœ°å€ 0x80000f98
0x80000f98: 00 00 80 67 jalr	zero, 0(ra)
è¯»å–åœ°å€ 0x80001758
0x80001758: fe 94 1a e3 bne	s0, s1, 0x8000174c
è¯»å–åœ°å€ 0x8000174c
è¯»å–åœ°å€ 0x8009cb72
0x8000174c: 00 04 45 03 lbu	a0, 0(s0)
è¯»å–åœ°å€ 0x80001750
0x80001750: 00 14 04 13 addi	s0, s0, 1
è¯»å–åœ°å€ 0x80001754
0x80001754: 83 df f0 ef jal	ra, 0x80000f90
è¯»å–åœ°å€ 0x80000f90
0x80000f90: a0 00 07 b7 lui	a5, 655360
è¯»å–åœ°å€ 0x80000f94
write device name = serial 	 addr = 0xa00003f8 
0x80000f94: 3e a7 8c 23 sb	a0, 1016(a5)
è¯»å–åœ°å€ 0x80000f98
0x80000f98: 00 00 80 67 jalr	zero, 0(ra)
è¯»å–åœ°å€ 0x80001758
0x80001758: fe 94 1a e3 bne	s0, s1, 0x8000174c
è¯»å–åœ°å€ 0x8000174c
è¯»å–åœ°å€ 0x8009cb73
0x8000174c: 00 04 45 03 lbu	a0, 0(s0)
è¯»å–åœ°å€ 0x80001750
0x80001750: 00 14 04 13 addi	s0, s0, 1
è¯»å–åœ°å€ 0x80001754
0x80001754: 83 df f0 ef jal	ra, 0x80000f90
è¯»å–åœ°å€ 0x80000f90
0x80000f90: a0 00 07 b7 lui	a5, 655360
è¯»å–åœ°å€ 0x80000f94
write device name = serial 	 addr = 0xa00003f8 
0x80000f94: 3e a7 8c 23 sb	a0, 1016(a5)
è¯»å–åœ°å€ 0x80000f98
0x80000f98: 00 00 80 67 jalr	zero, 0(ra)
è¯»å–åœ°å€ 0x80001758
0x80001758: fe 94 1a e3 bne	s0, s1, 0x8000174c
è¯»å–åœ°å€ 0x8000174c
è¯»å–åœ°å€ 0x8009cb74
0x8000174c: 00 04 45 03 lbu	a0, 0(s0)
è¯»å–åœ°å€ 0x80001750
0x80001750: 00 14 04 13 addi	s0, s0, 1
è¯»å–åœ°å€ 0x80001754
0x80001754: 83 df f0 ef jal	ra, 0x80000f90
è¯»å–åœ°å€ 0x80000f90
0x80000f90: a0 00 07 b7 lui	a5, 655360
è¯»å–åœ°å€ 0x80000f94
write device name = serial 	 addr = 0xa00003f8 
0x80000f94: 3e a7 8c 23 sb	a0, 1016(a5)
è¯»å–åœ°å€ 0x80000f98
0x80000f98: 00 00 80 67 jalr	zero, 0(ra)
è¯»å–åœ°å€ 0x80001758
0x80001758: fe 94 1a e3 bne	s0, s1, 0x8000174c
è¯»å–åœ°å€ 0x8000174c
è¯»å–åœ°å€ 0x8009cb75
0x8000174c: 00 04 45 03 lbu	a0, 0(s0)
è¯»å–åœ°å€ 0x80001750
0x80001750: 00 14 04 13 addi	s0, s0, 1
è¯»å–åœ°å€ 0x80001754
0x80001754: 83 df f0 ef jal	ra, 0x80000f90
è¯»å–åœ°å€ 0x80000f90
0x80000f90: a0 00 07 b7 lui	a5, 655360
è¯»å–åœ°å€ 0x80000f94
write device name = serial 	 addr = 0xa00003f8 
0x80000f94: 3e a7 8c 23 sb	a0, 1016(a5)
è¯»å–åœ°å€ 0x80000f98
0x80000f98: 00 00 80 67 jalr	zero, 0(ra)
è¯»å–åœ°å€ 0x80001758
0x80001758: fe 94 1a e3 bne	s0, s1, 0x8000174c
è¯»å–åœ°å€ 0x8000174c
è¯»å–åœ°å€ 0x8009cb76
0x8000174c: 00 04 45 03 lbu	a0, 0(s0)
è¯»å–åœ°å€ 0x80001750
0x80001750: 00 14 04 13 addi	s0, s0, 1
è¯»å–åœ°å€ 0x80001754
0x80001754: 83 df f0 ef jal	ra, 0x80000f90
è¯»å–åœ°å€ 0x80000f90
0x80000f90: a0 00 07 b7 lui	a5, 655360
è¯»å–åœ°å€ 0x80000f94
write device name = serial 	 addr = 0xa00003f8 
0x80000f94: 3e a7 8c 23 sb	a0, 1016(a5)
è¯»å–åœ°å€ 0x80000f98
0x80000f98: 00 00 80 67 jalr	zero, 0(ra)
è¯»å–åœ°å€ 0x80001758
0x80001758: fe 94 1a e3 bne	s0, s1, 0x8000174c
è¯»å–åœ°å€ 0x8000174c
è¯»å–åœ°å€ 0x8009cb77
0x8000174c: 00 04 45 03 lbu	a0, 0(s0)
è¯»å–åœ°å€ 0x80001750
0x80001750: 00 14 04 13 addi	s0, s0, 1
è¯»å–åœ°å€ 0x80001754
0x80001754: 83 df f0 ef jal	ra, 0x80000f90
è¯»å–åœ°å€ 0x80000f90
0x80000f90: a0 00 07 b7 lui	a5, 655360
è¯»å–åœ°å€ 0x80000f94
write device name = serial 	 addr = 0xa00003f8 
0x80000f94: 3e a7 8c 23 sb	a0, 1016(a5)
è¯»å–åœ°å€ 0x80000f98
0x80000f98: 00 00 80 67 jalr	zero, 0(ra)
è¯»å–åœ°å€ 0x80001758
0x80001758: fe 94 1a e3 bne	s0, s1, 0x8000174c
è¯»å–åœ°å€ 0x8000174c
è¯»å–åœ°å€ 0x8009cb78
0x8000174c: 00 04 45 03 lbu	a0, 0(s0)
è¯»å–åœ°å€ 0x80001750
0x80001750: 00 14 04 13 addi	s0, s0, 1
è¯»å–åœ°å€ 0x80001754
0x80001754: 83 df f0 ef jal	ra, 0x80000f90
è¯»å–åœ°å€ 0x80000f90
0x80000f90: a0 00 07 b7 lui	a5, 655360
è¯»å–åœ°å€ 0x80000f94
write device name = serial 	 addr = 0xa00003f8 
0x80000f94: 3e a7 8c 23 sb	a0, 1016(a5)
è¯»å–åœ°å€ 0x80000f98
0x80000f98: 00 00 80 67 jalr	zero, 0(ra)
è¯»å–åœ°å€ 0x80001758
0x80001758: fe 94 1a e3 bne	s0, s1, 0x8000174c
è¯»å–åœ°å€ 0x8000174c
è¯»å–åœ°å€ 0x8009cb79
0x8000174c: 00 04 45 03 lbu	a0, 0(s0)
è¯»å–åœ°å€ 0x80001750
0x80001750: 00 14 04 13 addi	s0, s0, 1
è¯»å–åœ°å€ 0x80001754
0x80001754: 83 df f0 ef jal	ra, 0x80000f90
è¯»å–åœ°å€ 0x80000f90
0x80000f90: a0 00 07 b7 lui	a5, 655360
è¯»å–åœ°å€ 0x80000f94
write device name = serial 	 addr = 0xa00003f8 
0x80000f94: 3e a7 8c 23 sb	a0, 1016(a5)
è¯»å–åœ°å€ 0x80000f98
0x80000f98: 00 00 80 67 jalr	zero, 0(ra)
è¯»å–åœ°å€ 0x80001758
0x80001758: fe 94 1a e3 bne	s0, s1, 0x8000174c
è¯»å–åœ°å€ 0x8000174c
è¯»å–åœ°å€ 0x8009cb7a
0x8000174c: 00 04 45 03 lbu	a0, 0(s0)
è¯»å–åœ°å€ 0x80001750
0x80001750: 00 14 04 13 addi	s0, s0, 1
è¯»å–åœ°å€ 0x80001754
0x80001754: 83 df f0 ef jal	ra, 0x80000f90
è¯»å–åœ°å€ 0x80000f90
0x80000f90: a0 00 07 b7 lui	a5, 655360
è¯»å–åœ°å€ 0x80000f94
write device name = serial 	 addr = 0xa00003f8 
0x80000f94: 3e a7 8c 23 sb	a0, 1016(a5)
è¯»å–åœ°å€ 0x80000f98
0x80000f98: 00 00 80 67 jalr	zero, 0(ra)
è¯»å–åœ°å€ 0x80001758
0x80001758: fe 94 1a e3 bne	s0, s1, 0x8000174c
è¯»å–åœ°å€ 0x8000174c
è¯»å–åœ°å€ 0x8009cb7b
0x8000174c: 00 04 45 03 lbu	a0, 0(s0)
è¯»å–åœ°å€ 0x80001750
0x80001750: 00 14 04 13 addi	s0, s0, 1
è¯»å–åœ°å€ 0x80001754
0x80001754: 83 df f0 ef jal	ra, 0x80000f90
è¯»å–åœ°å€ 0x80000f90
0x80000f90: a0 00 07 b7 lui	a5, 655360
è¯»å–åœ°å€ 0x80000f94
write device name = serial 	 addr = 0xa00003f8 
0x80000f94: 3e a7 8c 23 sb	a0, 1016(a5)
è¯»å–åœ°å€ 0x80000f98
0x80000f98: 00 00 80 67 jalr	zero, 0(ra)
è¯»å–åœ°å€ 0x80001758
0x80001758: fe 94 1a e3 bne	s0, s1, 0x8000174c
è¯»å–åœ°å€ 0x8000174c
è¯»å–åœ°å€ 0x8009cb7c
0x8000174c: 00 04 45 03 lbu	a0, 0(s0)
è¯»å–åœ°å€ 0x80001750
0x80001750: 00 14 04 13 addi	s0, s0, 1
è¯»å–åœ°å€ 0x80001754
0x80001754: 83 df f0 ef jal	ra, 0x80000f90
è¯»å–åœ°å€ 0x80000f90
0x80000f90: a0 00 07 b7 lui	a5, 655360
è¯»å–åœ°å€ 0x80000f94
write device name = serial 	 addr = 0xa00003f8 
0x80000f94: 3e a7 8c 23 sb	a0, 1016(a5)
è¯»å–åœ°å€ 0x80000f98
0x80000f98: 00 00 80 67 jalr	zero, 0(ra)
è¯»å–åœ°å€ 0x80001758
0x80001758: fe 94 1a e3 bne	s0, s1, 0x8000174c
è¯»å–åœ°å€ 0x8000174c
è¯»å–åœ°å€ 0x8009cb7d
0x8000174c: 00 04 45 03 lbu	a0, 0(s0)
è¯»å–åœ°å€ 0x80001750
0x80001750: 00 14 04 13 addi	s0, s0, 1
è¯»å–åœ°å€ 0x80001754
0x80001754: 83 df f0 ef jal	ra, 0x80000f90
è¯»å–åœ°å€ 0x80000f90
0x80000f90: a0 00 07 b7 lui	a5, 655360
è¯»å–åœ°å€ 0x80000f94
write device name = serial 	 addr = 0xa00003f8 
0x80000f94: 3e a7 8c 23 sb	a0, 1016(a5)
è¯»å–åœ°å€ 0x80000f98
0x80000f98: 00 00 80 67 jalr	zero, 0(ra)
è¯»å–åœ°å€ 0x80001758
0x80001758: fe 94 1a e3 bne	s0, s1, 0x8000174c
è¯»å–åœ°å€ 0x8000174c
è¯»å–åœ°å€ 0x8009cb7e
0x8000174c: 00 04 45 03 lbu	a0, 0(s0)
è¯»å–åœ°å€ 0x80001750
0x80001750: 00 14 04 13 addi	s0, s0, 1
è¯»å–åœ°å€ 0x80001754
0x80001754: 83 df f0 ef jal	ra, 0x80000f90
è¯»å–åœ°å€ 0x80000f90
0x80000f90: a0 00 07 b7 lui	a5, 655360
è¯»å–åœ°å€ 0x80000f94
write device name = serial 	 addr = 0xa00003f8 
0x80000f94: 3e a7 8c 23 sb	a0, 1016(a5)
è¯»å–åœ°å€ 0x80000f98
0x80000f98: 00 00 80 67 jalr	zero, 0(ra)
è¯»å–åœ°å€ 0x80001758
0x80001758: fe 94 1a e3 bne	s0, s1, 0x8000174c
è¯»å–åœ°å€ 0x8000174c
è¯»å–åœ°å€ 0x8009cb7f
0x8000174c: 00 04 45 03 lbu	a0, 0(s0)
è¯»å–åœ°å€ 0x80001750
0x80001750: 00 14 04 13 addi	s0, s0, 1
è¯»å–åœ°å€ 0x80001754
0x80001754: 83 df f0 ef jal	ra, 0x80000f90
è¯»å–åœ°å€ 0x80000f90
0x80000f90: a0 00 07 b7 lui	a5, 655360
è¯»å–åœ°å€ 0x80000f94
write device name = serial 	 addr = 0xa00003f8 
0x80000f94: 3e a7 8c 23 sb	a0, 1016(a5)
è¯»å–åœ°å€ 0x80000f98
0x80000f98: 00 00 80 67 jalr	zero, 0(ra)
è¯»å–åœ°å€ 0x80001758
0x80001758: fe 94 1a e3 bne	s0, s1, 0x8000174c
è¯»å–åœ°å€ 0x8000174c
è¯»å–åœ°å€ 0x8009cb80
0x8000174c: 00 04 45 03 lbu	a0, 0(s0)
è¯»å–åœ°å€ 0x80001750
0x80001750: 00 14 04 13 addi	s0, s0, 1
è¯»å–åœ°å€ 0x80001754
0x80001754: 83 df f0 ef jal	ra, 0x80000f90
è¯»å–åœ°å€ 0x80000f90
0x80000f90: a0 00 07 b7 lui	a5, 655360
è¯»å–åœ°å€ 0x80000f94
write device name = serial 	 addr = 0xa00003f8 
0x80000f94: 3e a7 8c 23 sb	a0, 1016(a5)
è¯»å–åœ°å€ 0x80000f98
0x80000f98: 00 00 80 67 jalr	zero, 0(ra)
è¯»å–åœ°å€ 0x80001758
0x80001758: fe 94 1a e3 bne	s0, s1, 0x8000174c
è¯»å–åœ°å€ 0x8000174c
è¯»å–åœ°å€ 0x8009cb81
0x8000174c: 00 04 45 03 lbu	a0, 0(s0)
è¯»å–åœ°å€ 0x80001750
0x80001750: 00 14 04 13 addi	s0, s0, 1
è¯»å–åœ°å€ 0x80001754
0x80001754: 83 df f0 ef jal	ra, 0x80000f90
è¯»å–åœ°å€ 0x80000f90
0x80000f90: a0 00 07 b7 lui	a5, 655360
è¯»å–åœ°å€ 0x80000f94
write device name = serial 	 addr = 0xa00003f8 
0x80000f94: 3e a7 8c 23 sb	a0, 1016(a5)
è¯»å–åœ°å€ 0x80000f98
0x80000f98: 00 00 80 67 jalr	zero, 0(ra)
è¯»å–åœ°å€ 0x80001758
0x80001758: fe 94 1a e3 bne	s0, s1, 0x8000174c
è¯»å–åœ°å€ 0x8000174c
è¯»å–åœ°å€ 0x8009cb82
0x8000174c: 00 04 45 03 lbu	a0, 0(s0)
è¯»å–åœ°å€ 0x80001750
0x80001750: 00 14 04 13 addi	s0, s0, 1
è¯»å–åœ°å€ 0x80001754
0x80001754: 83 df f0 ef jal	ra, 0x80000f90
è¯»å–åœ°å€ 0x80000f90
0x80000f90: a0 00 07 b7 lui	a5, 655360
è¯»å–åœ°å€ 0x80000f94
write device name = serial 	 addr = 0xa00003f8 
0x80000f94: 3e a7 8c 23 sb	a0, 1016(a5)
è¯»å–åœ°å€ 0x80000f98
0x80000f98: 00 00 80 67 jalr	zero, 0(ra)
è¯»å–åœ°å€ 0x80001758
0x80001758: fe 94 1a e3 bne	s0, s1, 0x8000174c
è¯»å–åœ°å€ 0x8000174c
è¯»å–åœ°å€ 0x8009cb83
0x8000174c: 00 04 45 03 lbu	a0, 0(s0)
è¯»å–åœ°å€ 0x80001750
0x80001750: 00 14 04 13 addi	s0, s0, 1
è¯»å–åœ°å€ 0x80001754
0x80001754: 83 df f0 ef jal	ra, 0x80000f90
è¯»å–åœ°å€ 0x80000f90
0x80000f90: a0 00 07 b7 lui	a5, 655360
è¯»å–åœ°å€ 0x80000f94
write device name = serial 	 addr = 0xa00003f8 
0x80000f94: 3e a7 8c 23 sb	a0, 1016(a5)
è¯»å–åœ°å€ 0x80000f98
0x80000f98: 00 00 80 67 jalr	zero, 0(ra)
è¯»å–åœ°å€ 0x80001758
0x80001758: fe 94 1a e3 bne	s0, s1, 0x8000174c
è¯»å–åœ°å€ 0x8000174c
è¯»å–åœ°å€ 0x8009cb84
0x8000174c: 00 04 45 03 lbu	a0, 0(s0)
è¯»å–åœ°å€ 0x80001750
0x80001750: 00 14 04 13 addi	s0, s0, 1
è¯»å–åœ°å€ 0x80001754
0x80001754: 83 df f0 ef jal	ra, 0x80000f90
è¯»å–åœ°å€ 0x80000f90
0x80000f90: a0 00 07 b7 lui	a5, 655360
è¯»å–åœ°å€ 0x80000f94
write device name = serial 	 addr = 0xa00003f8 
0x80000f94: 3e a7 8c 23 sb	a0, 1016(a5)
è¯»å–åœ°å€ 0x80000f98
0x80000f98: 00 00 80 67 jalr	zero, 0(ra)
è¯»å–åœ°å€ 0x80001758
0x80001758: fe 94 1a e3 bne	s0, s1, 0x8000174c
è¯»å–åœ°å€ 0x8000174c
è¯»å–åœ°å€ 0x8009cb85
0x8000174c: 00 04 45 03 lbu	a0, 0(s0)
è¯»å–åœ°å€ 0x80001750
0x80001750: 00 14 04 13 addi	s0, s0, 1
è¯»å–åœ°å€ 0x80001754
0x80001754: 83 df f0 ef jal	ra, 0x80000f90
è¯»å–åœ°å€ 0x80000f90
0x80000f90: a0 00 07 b7 lui	a5, 655360
è¯»å–åœ°å€ 0x80000f94
write device name = serial 	 addr = 0xa00003f8 
0x80000f94: 3e a7 8c 23 sb	a0, 1016(a5)
è¯»å–åœ°å€ 0x80000f98
0x80000f98: 00 00 80 67 jalr	zero, 0(ra)
è¯»å–åœ°å€ 0x80001758
0x80001758: fe 94 1a e3 bne	s0, s1, 0x8000174c
è¯»å–åœ°å€ 0x8000174c
è¯»å–åœ°å€ 0x8009cb86
0x8000174c: 00 04 45 03 lbu	a0, 0(s0)
è¯»å–åœ°å€ 0x80001750
0x80001750: 00 14 04 13 addi	s0, s0, 1
è¯»å–åœ°å€ 0x80001754
0x80001754: 83 df f0 ef jal	ra, 0x80000f90
è¯»å–åœ°å€ 0x80000f90
0x80000f90: a0 00 07 b7 lui	a5, 655360
è¯»å–åœ°å€ 0x80000f94
write device name = serial 	 addr = 0xa00003f8 
0x80000f94: 3e a7 8c 23 sb	a0, 1016(a5)
è¯»å–åœ°å€ 0x80000f98
0x80000f98: 00 00 80 67 jalr	zero, 0(ra)
è¯»å–åœ°å€ 0x80001758
0x80001758: fe 94 1a e3 bne	s0, s1, 0x8000174c
è¯»å–åœ°å€ 0x8000174c
è¯»å–åœ°å€ 0x8009cb87
0x8000174c: 00 04 45 03 lbu	a0, 0(s0)
è¯»å–åœ°å€ 0x80001750
0x80001750: 00 14 04 13 addi	s0, s0, 1
è¯»å–åœ°å€ 0x80001754
0x80001754: 83 df f0 ef jal	ra, 0x80000f90
è¯»å–åœ°å€ 0x80000f90
0x80000f90: a0 00 07 b7 lui	a5, 655360
è¯»å–åœ°å€ 0x80000f94
write device name = serial 	 addr = 0xa00003f8 
0x80000f94: 3e a7 8c 23 sb	a0, 1016(a5)
è¯»å–åœ°å€ 0x80000f98
0x80000f98: 00 00 80 67 jalr	zero, 0(ra)
è¯»å–åœ°å€ 0x80001758
0x80001758: fe 94 1a e3 bne	s0, s1, 0x8000174c
è¯»å–åœ°å€ 0x8000174c
è¯»å–åœ°å€ 0x8009cb88
0x8000174c: 00 04 45 03 lbu	a0, 0(s0)
è¯»å–åœ°å€ 0x80001750
0x80001750: 00 14 04 13 addi	s0, s0, 1
è¯»å–åœ°å€ 0x80001754
0x80001754: 83 df f0 ef jal	ra, 0x80000f90
è¯»å–åœ°å€ 0x80000f90
0x80000f90: a0 00 07 b7 lui	a5, 655360
è¯»å–åœ°å€ 0x80000f94
write device name = serial 	 addr = 0xa00003f8 
0x80000f94: 3e a7 8c 23 sb	a0, 1016(a5)
è¯»å–åœ°å€ 0x80000f98
0x80000f98: 00 00 80 67 jalr	zero, 0(ra)
è¯»å–åœ°å€ 0x80001758
0x80001758: fe 94 1a e3 bne	s0, s1, 0x8000174c
è¯»å–åœ°å€ 0x8000174c
è¯»å–åœ°å€ 0x8009cb89
0x8000174c: 00 04 45 03 lbu	a0, 0(s0)
è¯»å–åœ°å€ 0x80001750
0x80001750: 00 14 04 13 addi	s0, s0, 1
è¯»å–åœ°å€ 0x80001754
0x80001754: 83 df f0 ef jal	ra, 0x80000f90
è¯»å–åœ°å€ 0x80000f90
0x80000f90: a0 00 07 b7 lui	a5, 655360
è¯»å–åœ°å€ 0x80000f94
write device name = serial 	 addr = 0xa00003f8 
0x80000f94: 3e a7 8c 23 sb	a0, 1016(a5)
è¯»å–åœ°å€ 0x80000f98
0x80000f98: 00 00 80 67 jalr	zero, 0(ra)
è¯»å–åœ°å€ 0x80001758
0x80001758: fe 94 1a e3 bne	s0, s1, 0x8000174c
è¯»å–åœ°å€ 0x8000174c
è¯»å–åœ°å€ 0x8009cb8a
0x8000174c: 00 04 45 03 lbu	a0, 0(s0)
è¯»å–åœ°å€ 0x80001750
0x80001750: 00 14 04 13 addi	s0, s0, 1
è¯»å–åœ°å€ 0x80001754
0x80001754: 83 df f0 ef jal	ra, 0x80000f90
è¯»å–åœ°å€ 0x80000f90
0x80000f90: a0 00 07 b7 lui	a5, 655360
è¯»å–åœ°å€ 0x80000f94
write device name = serial 	 addr = 0xa00003f8 
0x80000f94: 3e a7 8c 23 sb	a0, 1016(a5)
è¯»å–åœ°å€ 0x80000f98
0x80000f98: 00 00 80 67 jalr	zero, 0(ra)
è¯»å–åœ°å€ 0x80001758
0x80001758: fe 94 1a e3 bne	s0, s1, 0x8000174c
è¯»å–åœ°å€ 0x8000174c
è¯»å–åœ°å€ 0x8009cb8b
0x8000174c: 00 04 45 03 lbu	a0, 0(s0)
è¯»å–åœ°å€ 0x80001750
0x80001750: 00 14 04 13 addi	s0, s0, 1
è¯»å–åœ°å€ 0x80001754
0x80001754: 83 df f0 ef jal	ra, 0x80000f90
è¯»å–åœ°å€ 0x80000f90
0x80000f90: a0 00 07 b7 lui	a5, 655360
è¯»å–åœ°å€ 0x80000f94
write device name = serial 	 addr = 0xa00003f8 
0x80000f94: 3e a7 8c 23 sb	a0, 1016(a5)
è¯»å–åœ°å€ 0x80000f98
0x80000f98: 00 00 80 67 jalr	zero, 0(ra)
è¯»å–åœ°å€ 0x80001758
0x80001758: fe 94 1a e3 bne	s0, s1, 0x8000174c
è¯»å–åœ°å€ 0x8000174c
è¯»å–åœ°å€ 0x8009cb8c
0x8000174c: 00 04 45 03 lbu	a0, 0(s0)
è¯»å–åœ°å€ 0x80001750
0x80001750: 00 14 04 13 addi	s0, s0, 1
è¯»å–åœ°å€ 0x80001754
0x80001754: 83 df f0 ef jal	ra, 0x80000f90
è¯»å–åœ°å€ 0x80000f90
0x80000f90: a0 00 07 b7 lui	a5, 655360
è¯»å–åœ°å€ 0x80000f94
write device name = serial 	 addr = 0xa00003f8 
0x80000f94: 3e a7 8c 23 sb	a0, 1016(a5)
è¯»å–åœ°å€ 0x80000f98
0x80000f98: 00 00 80 67 jalr	zero, 0(ra)
è¯»å–åœ°å€ 0x80001758
0x80001758: fe 94 1a e3 bne	s0, s1, 0x8000174c
è¯»å–åœ°å€ 0x8000174c
è¯»å–åœ°å€ 0x8009cb8d
0x8000174c: 00 04 45 03 lbu	a0, 0(s0)
è¯»å–åœ°å€ 0x80001750
0x80001750: 00 14 04 13 addi	s0, s0, 1
è¯»å–åœ°å€ 0x80001754
0x80001754: 83 df f0 ef jal	ra, 0x80000f90
è¯»å–åœ°å€ 0x80000f90
0x80000f90: a0 00 07 b7 lui	a5, 655360
è¯»å–åœ°å€ 0x80000f94
write device name = serial 	 addr = 0xa00003f8 
0x80000f94: 3e a7 8c 23 sb	a0, 1016(a5)
è¯»å–åœ°å€ 0x80000f98
0x80000f98: 00 00 80 67 jalr	zero, 0(ra)
è¯»å–åœ°å€ 0x80001758
0x80001758: fe 94 1a e3 bne	s0, s1, 0x8000174c
è¯»å–åœ°å€ 0x8000174c
è¯»å–åœ°å€ 0x8009cb8e
0x8000174c: 00 04 45 03 lbu	a0, 0(s0)
è¯»å–åœ°å€ 0x80001750
0x80001750: 00 14 04 13 addi	s0, s0, 1
è¯»å–åœ°å€ 0x80001754
0x80001754: 83 df f0 ef jal	ra, 0x80000f90
è¯»å–åœ°å€ 0x80000f90
0x80000f90: a0 00 07 b7 lui	a5, 655360
è¯»å–åœ°å€ 0x80000f94
write device name = serial 	 addr = 0xa00003f8 
0x80000f94: 3e a7 8c 23 sb	a0, 1016(a5)
è¯»å–åœ°å€ 0x80000f98
0x80000f98: 00 00 80 67 jalr	zero, 0(ra)
è¯»å–åœ°å€ 0x80001758
0x80001758: fe 94 1a e3 bne	s0, s1, 0x8000174c
è¯»å–åœ°å€ 0x8000174c
è¯»å–åœ°å€ 0x8009cb8f
0x8000174c: 00 04 45 03 lbu	a0, 0(s0)
è¯»å–åœ°å€ 0x80001750
0x80001750: 00 14 04 13 addi	s0, s0, 1
è¯»å–åœ°å€ 0x80001754
0x80001754: 83 df f0 ef jal	ra, 0x80000f90
è¯»å–åœ°å€ 0x80000f90
0x80000f90: a0 00 07 b7 lui	a5, 655360
è¯»å–åœ°å€ 0x80000f94
write device name = serial 	 addr = 0xa00003f8 
0x80000f94: 3e a7 8c 23 sb	a0, 1016(a5)
è¯»å–åœ°å€ 0x80000f98
0x80000f98: 00 00 80 67 jalr	zero, 0(ra)
è¯»å–åœ°å€ 0x80001758
0x80001758: fe 94 1a e3 bne	s0, s1, 0x8000174c
è¯»å–åœ°å€ 0x8000174c
è¯»å–åœ°å€ 0x8009cb90
0x8000174c: 00 04 45 03 lbu	a0, 0(s0)
è¯»å–åœ°å€ 0x80001750
0x80001750: 00 14 04 13 addi	s0, s0, 1
è¯»å–åœ°å€ 0x80001754
0x80001754: 83 df f0 ef jal	ra, 0x80000f90
è¯»å–åœ°å€ 0x80000f90
0x80000f90: a0 00 07 b7 lui	a5, 655360
è¯»å–åœ°å€ 0x80000f94
write device name = serial 	 addr = 0xa00003f8 
0x80000f94: 3e a7 8c 23 sb	a0, 1016(a5)
è¯»å–åœ°å€ 0x80000f98
0x80000f98: 00 00 80 67 jalr	zero, 0(ra)
è¯»å–åœ°å€ 0x80001758
0x80001758: fe 94 1a e3 bne	s0, s1, 0x8000174c
è¯»å–åœ°å€ 0x8000174c
è¯»å–åœ°å€ 0x8009cb91
0x8000174c: 00 04 45 03 lbu	a0, 0(s0)
è¯»å–åœ°å€ 0x80001750
0x80001750: 00 14 04 13 addi	s0, s0, 1
è¯»å–åœ°å€ 0x80001754
0x80001754: 83 df f0 ef jal	ra, 0x80000f90
è¯»å–åœ°å€ 0x80000f90
0x80000f90: a0 00 07 b7 lui	a5, 655360
è¯»å–åœ°å€ 0x80000f94
write device name = serial 	 addr = 0xa00003f8 
0x80000f94: 3e a7 8c 23 sb	a0, 1016(a5)
è¯»å–åœ°å€ 0x80000f98
0x80000f98: 00 00 80 67 jalr	zero, 0(ra)
è¯»å–åœ°å€ 0x80001758
0x80001758: fe 94 1a e3 bne	s0, s1, 0x8000174c
è¯»å–åœ°å€ 0x8000174c
è¯»å–åœ°å€ 0x8009cb92
0x8000174c: 00 04 45 03 lbu	a0, 0(s0)
è¯»å–åœ°å€ 0x80001750
0x80001750: 00 14 04 13 addi	s0, s0, 1
è¯»å–åœ°å€ 0x80001754
0x80001754: 83 df f0 ef jal	ra, 0x80000f90
è¯»å–åœ°å€ 0x80000f90
0x80000f90: a0 00 07 b7 lui	a5, 655360
è¯»å–åœ°å€ 0x80000f94
write device name = serial 	 addr = 0xa00003f8 
0x80000f94: 3e a7 8c 23 sb	a0, 1016(a5)
è¯»å–åœ°å€ 0x80000f98
0x80000f98: 00 00 80 67 jalr	zero, 0(ra)
è¯»å–åœ°å€ 0x80001758
0x80001758: fe 94 1a e3 bne	s0, s1, 0x8000174c
è¯»å–åœ°å€ 0x8000174c
è¯»å–åœ°å€ 0x8009cb93
0x8000174c: 00 04 45 03 lbu	a0, 0(s0)
è¯»å–åœ°å€ 0x80001750
0x80001750: 00 14 04 13 addi	s0, s0, 1
è¯»å–åœ°å€ 0x80001754
0x80001754: 83 df f0 ef jal	ra, 0x80000f90
è¯»å–åœ°å€ 0x80000f90
0x80000f90: a0 00 07 b7 lui	a5, 655360
è¯»å–åœ°å€ 0x80000f94
write device name = serial 	 addr = 0xa00003f8 
0x80000f94: 3e a7 8c 23 sb	a0, 1016(a5)
è¯»å–åœ°å€ 0x80000f98
0x80000f98: 00 00 80 67 jalr	zero, 0(ra)
è¯»å–åœ°å€ 0x80001758
0x80001758: fe 94 1a e3 bne	s0, s1, 0x8000174c
è¯»å–åœ°å€ 0x8000174c
è¯»å–åœ°å€ 0x8009cb94
0x8000174c: 00 04 45 03 lbu	a0, 0(s0)
è¯»å–åœ°å€ 0x80001750
0x80001750: 00 14 04 13 addi	s0, s0, 1
è¯»å–åœ°å€ 0x80001754
0x80001754: 83 df f0 ef jal	ra, 0x80000f90
è¯»å–åœ°å€ 0x80000f90
0x80000f90: a0 00 07 b7 lui	a5, 655360
è¯»å–åœ°å€ 0x80000f94
write device name = serial 	 addr = 0xa00003f8 
0x80000f94: 3e a7 8c 23 sb	a0, 1016(a5)
è¯»å–åœ°å€ 0x80000f98
0x80000f98: 00 00 80 67 jalr	zero, 0(ra)
è¯»å–åœ°å€ 0x80001758
0x80001758: fe 94 1a e3 bne	s0, s1, 0x8000174c
è¯»å–åœ°å€ 0x8000174c
è¯»å–åœ°å€ 0x8009cb95
0x8000174c: 00 04 45 03 lbu	a0, 0(s0)
è¯»å–åœ°å€ 0x80001750
0x80001750: 00 14 04 13 addi	s0, s0, 1
è¯»å–åœ°å€ 0x80001754
0x80001754: 83 df f0 ef jal	ra, 0x80000f90
è¯»å–åœ°å€ 0x80000f90
0x80000f90: a0 00 07 b7 lui	a5, 655360
è¯»å–åœ°å€ 0x80000f94
write device name = serial 	 addr = 0xa00003f8 
0x80000f94: 3e a7 8c 23 sb	a0, 1016(a5)
è¯»å–åœ°å€ 0x80000f98
0x80000f98: 00 00 80 67 jalr	zero, 0(ra)
è¯»å–åœ°å€ 0x80001758
0x80001758: fe 94 1a e3 bne	s0, s1, 0x8000174c
è¯»å–åœ°å€ 0x8000174c
è¯»å–åœ°å€ 0x8009cb96
0x8000174c: 00 04 45 03 lbu	a0, 0(s0)
è¯»å–åœ°å€ 0x80001750
0x80001750: 00 14 04 13 addi	s0, s0, 1
è¯»å–åœ°å€ 0x80001754
0x80001754: 83 df f0 ef jal	ra, 0x80000f90
è¯»å–åœ°å€ 0x80000f90
0x80000f90: a0 00 07 b7 lui	a5, 655360
è¯»å–åœ°å€ 0x80000f94
write device name = serial 	 addr = 0xa00003f8 
0x80000f94: 3e a7 8c 23 sb	a0, 1016(a5)
è¯»å–åœ°å€ 0x80000f98
0x80000f98: 00 00 80 67 jalr	zero, 0(ra)
è¯»å–åœ°å€ 0x80001758
0x80001758: fe 94 1a e3 bne	s0, s1, 0x8000174c
è¯»å–åœ°å€ 0x8000174c
è¯»å–åœ°å€ 0x8009cb97
0x8000174c: 00 04 45 03 lbu	a0, 0(s0)
è¯»å–åœ°å€ 0x80001750
0x80001750: 00 14 04 13 addi	s0, s0, 1
è¯»å–åœ°å€ 0x80001754
0x80001754: 83 df f0 ef jal	ra, 0x80000f90
è¯»å–åœ°å€ 0x80000f90
0x80000f90: a0 00 07 b7 lui	a5, 655360
è¯»å–åœ°å€ 0x80000f94
write device name = serial 	 addr = 0xa00003f8 
0x80000f94: 3e a7 8c 23 sb	a0, 1016(a5)
è¯»å–åœ°å€ 0x80000f98
0x80000f98: 00 00 80 67 jalr	zero, 0(ra)
è¯»å–åœ°å€ 0x80001758
0x80001758: fe 94 1a e3 bne	s0, s1, 0x8000174c
è¯»å–åœ°å€ 0x8000174c
è¯»å–åœ°å€ 0x8009cb98
0x8000174c: 00 04 45 03 lbu	a0, 0(s0)
è¯»å–åœ°å€ 0x80001750
0x80001750: 00 14 04 13 addi	s0, s0, 1
è¯»å–åœ°å€ 0x80001754
0x80001754: 83 df f0 ef jal	ra, 0x80000f90
è¯»å–åœ°å€ 0x80000f90
0x80000f90: a0 00 07 b7 lui	a5, 655360
è¯»å–åœ°å€ 0x80000f94
write device name = serial 	 addr = 0xa00003f8 
0x80000f94: 3e a7 8c 23 sb	a0, 1016(a5)
è¯»å–åœ°å€ 0x80000f98
0x80000f98: 00 00 80 67 jalr	zero, 0(ra)
è¯»å–åœ°å€ 0x80001758
0x80001758: fe 94 1a e3 bne	s0, s1, 0x8000174c
è¯»å–åœ°å€ 0x8000174c
è¯»å–åœ°å€ 0x8009cb99
0x8000174c: 00 04 45 03 lbu	a0, 0(s0)
è¯»å–åœ°å€ 0x80001750
0x80001750: 00 14 04 13 addi	s0, s0, 1
è¯»å–åœ°å€ 0x80001754
0x80001754: 83 df f0 ef jal	ra, 0x80000f90
è¯»å–åœ°å€ 0x80000f90
0x80000f90: a0 00 07 b7 lui	a5, 655360
è¯»å–åœ°å€ 0x80000f94
write device name = serial 	 addr = 0xa00003f8 
0x80000f94: 3e a7 8c 23 sb	a0, 1016(a5)
è¯»å–åœ°å€ 0x80000f98
0x80000f98: 00 00 80 67 jalr	zero, 0(ra)
è¯»å–åœ°å€ 0x80001758
0x80001758: fe 94 1a e3 bne	s0, s1, 0x8000174c
è¯»å–åœ°å€ 0x8000174c
è¯»å–åœ°å€ 0x8009cb9a
0x8000174c: 00 04 45 03 lbu	a0, 0(s0)
è¯»å–åœ°å€ 0x80001750
0x80001750: 00 14 04 13 addi	s0, s0, 1
è¯»å–åœ°å€ 0x80001754
0x80001754: 83 df f0 ef jal	ra, 0x80000f90
è¯»å–åœ°å€ 0x80000f90
0x80000f90: a0 00 07 b7 lui	a5, 655360
è¯»å–åœ°å€ 0x80000f94
write device name = serial 	 addr = 0xa00003f8 
0x80000f94: 3e a7 8c 23 sb	a0, 1016(a5)
è¯»å–åœ°å€ 0x80000f98
0x80000f98: 00 00 80 67 jalr	zero, 0(ra)
è¯»å–åœ°å€ 0x80001758
0x80001758: fe 94 1a e3 bne	s0, s1, 0x8000174c
è¯»å–åœ°å€ 0x8000175c
è¯»å–åœ°å€ 0x8009cf7c
0x8000175c: 41 c1 20 83 lw	ra, 1052(sp)
è¯»å–åœ°å€ 0x80001760
è¯»å–åœ°å€ 0x8009cf78
0x80001760: 41 81 24 03 lw	s0, 1048(sp)
è¯»å–åœ°å€ 0x80001764
è¯»å–åœ°å€ 0x8009cf74
0x80001764: 41 41 24 83 lw	s1, 1044(sp)
è¯»å–åœ°å€ 0x80001768
0x80001768: 00 09 05 13 addi	a0, s2, 0
è¯»å–åœ°å€ 0x8000176c
è¯»å–åœ°å€ 0x8009cf70
0x8000176c: 41 01 29 03 lw	s2, 1040(sp)
è¯»å–åœ°å€ 0x80001770
0x80001770: 44 01 01 13 addi	sp, sp, 1088
è¯»å–åœ°å€ 0x80001774
0x80001774: 00 00 80 67 jalr	zero, 0(ra)
è¯»å–åœ°å€ 0x80000d00
0x80000d00: 00 81 05 93 addi	a1, sp, 8
è¯»å–åœ°å€ 0x80000d04
0x80000d04: 00 10 05 13 addi	a0, zero, 1
è¯»å–åœ°å€ 0x80000d08
0x80000d08: 3a c0 00 ef jal	ra, 0x800010b4
è¯»å–åœ°å€ 0x800010b4
0x800010b4: 80 01 17 b7 lui	a5, 524305
è¯»å–åœ°å€ 0x800010b8
0x800010b8: 00 25 15 13 slli	a0, a0, 2
è¯»å–åœ°å€ 0x800010bc
0x800010bc: 9f 87 87 93 addi	a5, a5, -1544
è¯»å–åœ°å€ 0x800010c0
0x800010c0: 00 a7 87 b3 add	a5, a5, a0
è¯»å–åœ°å€ 0x800010c4
è¯»å–åœ°å€ 0x800109fc
0x800010c4: 00 07 a7 83 lw	a5, 0(a5)
è¯»å–åœ°å€ 0x800010c8
0x800010c8: 00 05 85 13 addi	a0, a1, 0
è¯»å–åœ°å€ 0x800010cc
0x800010cc: 00 07 80 67 jalr	zero, 0(a5)
è¯»å–åœ°å€ 0x80000fe4
å†™å…¥åœ°å€ 0x8009cfa8
0x80000fe4: 00 05 00 23 sb	zero, 0(a0)
è¯»å–åœ°å€ 0x80000fe8
0x80000fe8: 00 00 80 67 jalr	zero, 0(ra)
è¯»å–åœ°å€ 0x80000d0c
è¯»å–åœ°å€ 0x8009cfa8
0x80000d0c: 00 81 47 83 lbu	a5, 8(sp)
è¯»å–åœ°å€ 0x80000d10
0x80000d10: 80 09 59 b7 lui	s3, 524437
è¯»å–åœ°å€ 0x80000d14
0x80000d14: e2 99 89 93 addi	s3, s3, -471
è¯»å–åœ°å€ 0x80000d18
0x80000d18: 00 81 05 93 addi	a1, sp, 8
è¯»å–åœ°å€ 0x80000d1c
0x80000d1c: 00 70 05 13 addi	a0, zero, 7
è¯»å–åœ°å€ 0x80000d20
å†™å…¥åœ°å€ 0x80094e29
0x80000d20: 00 f9 80 23 sb	a5, 0(s3)
è¯»å–åœ°å€ 0x80000d24
0x80000d24: 39 00 00 ef jal	ra, 0x800010b4
è¯»å–åœ°å€ 0x800010b4
0x800010b4: 80 01 17 b7 lui	a5, 524305
è¯»å–åœ°å€ 0x800010b8
0x800010b8: 00 25 15 13 slli	a0, a0, 2
è¯»å–åœ°å€ 0x800010bc
0x800010bc: 9f 87 87 93 addi	a5, a5, -1544
è¯»å–åœ°å€ 0x800010c0
0x800010c0: 00 a7 87 b3 add	a5, a5, a0
è¯»å–åœ°å€ 0x800010c4
è¯»å–åœ°å€ 0x80010a14
0x800010c4: 00 07 a7 83 lw	a5, 0(a5)
è¯»å–åœ°å€ 0x800010c8
0x800010c8: 00 05 85 13 addi	a0, a1, 0
è¯»å–åœ°å€ 0x800010cc
0x800010cc: 00 07 80 67 jalr	zero, 0(a5)
è¯»å–åœ°å€ 0x80000fd8
0x80000fd8: 00 10 07 93 addi	a5, zero, 1
è¯»å–åœ°å€ 0x80000fdc
å†™å…¥åœ°å€ 0x8009cfa8
0x80000fdc: 00 f5 00 23 sb	a5, 0(a0)
è¯»å–åœ°å€ 0x80000fe0
0x80000fe0: 00 00 80 67 jalr	zero, 0(ra)
è¯»å–åœ°å€ 0x80000d28
è¯»å–åœ°å€ 0x8009cfa8
0x80000d28: 00 81 47 83 lbu	a5, 8(sp)
è¯»å–åœ°å€ 0x80000d2c
0x80000d2c: 80 09 5a b7 lui	s5, 524437
è¯»å–åœ°å€ 0x80000d30
0x80000d30: e2 8a 8a 93 addi	s5, s5, -472
è¯»å–åœ°å€ 0x80000d34
0x80000d34: 80 00 24 37 lui	s0, 524290
è¯»å–åœ°å€ 0x80000d38
0x80000d38: 80 00 2a 37 lui	s4, 524290
è¯»å–åœ°å€ 0x80000d3c
0x80000d3c: 80 00 24 b7 lui	s1, 524290
è¯»å–åœ°å€ 0x80000d40
å†™å…¥åœ°å€ 0x80094e28
0x80000d40: 00 fa 80 23 sb	a5, 0(s5)
è¯»å–åœ°å€ 0x80000d44
0x80000d44: 34 c4 04 13 addi	s0, s0, 844
è¯»å–åœ°å€ 0x80000d48
0x80000d48: 33 ca 0a 13 addi	s4, s4, 828
è¯»å–åœ°å€ 0x80000d4c
0x80000d4c: 34 44 84 93 addi	s1, s1, 836
è¯»å–åœ°å€ 0x80000d50
0x80000d50: 80 00 29 37 lui	s2, 524290
è¯»å–åœ°å€ 0x80000d54
è¯»å–åœ°å€ 0x80094e29
0x80000d54: 00 09 c7 03 lbu	a4, 0(s3)
è¯»å–åœ°å€ 0x80000d58
0x80000d58: 02 07 04 63 beq	a4, zero, 0x80000d80
è¯»å–åœ°å€ 0x80000d80
0x80000d80: 00 07 9e 63 bne	a5, zero, 0x80000d9c
è¯»å–åœ°å€ 0x80000d9c
0x80000d9c: 00 80 05 13 addi	a0, zero, 8
è¯»å–åœ°å€ 0x80000da0
0x80000da0: 00 81 05 93 addi	a1, sp, 8
è¯»å–åœ°å€ 0x80000da4
0x80000da4: 31 00 00 ef jal	ra, 0x800010b4
è¯»å–åœ°å€ 0x800010b4
0x800010b4: 80 01 17 b7 lui	a5, 524305
è¯»å–åœ°å€ 0x800010b8
0x800010b8: 00 25 15 13 slli	a0, a0, 2
è¯»å–åœ°å€ 0x800010bc
0x800010bc: 9f 87 87 93 addi	a5, a5, -1544
è¯»å–åœ°å€ 0x800010c0
0x800010c0: 00 a7 87 b3 add	a5, a5, a0
è¯»å–åœ°å€ 0x800010c4
è¯»å–åœ°å€ 0x80010a18
0x800010c4: 00 07 a7 83 lw	a5, 0(a5)
è¯»å–åœ°å€ 0x800010c8
0x800010c8: 00 05 85 13 addi	a0, a1, 0
è¯»å–åœ°å€ 0x800010cc
0x800010cc: 00 07 80 67 jalr	zero, 0(a5)
è¯»å–åœ°å€ 0x80001134
0x80001134: a0 00 07 b7 lui	a5, 655360
è¯»å–åœ°å€ 0x80001138
read device name = keyboard 	 addr = 0xa0000060 
0x80001138: 06 07 a7 83 lw	a5, 96(a5)
è¯»å–åœ°å€ 0x8000113c
0x8000113c: 00 00 87 37 lui	a4, 8
è¯»å–åœ°å€ 0x80001140
å†™å…¥åœ°å€ 0x8009cfac
0x80001140: 00 f5 22 23 sw	a5, 4(a0)
è¯»å–åœ°å€ 0x80001144
0x80001144: 00 e7 f6 b3 and	a3, a5, a4
è¯»å–åœ°å€ 0x80001148
0x80001148: 00 06 8c 63 beq	a3, zero, 0x80001160
è¯»å–åœ°å€ 0x80001160
å†™å…¥åœ°å€ 0x8009cfa8
0x80001160: 00 05 00 23 sb	zero, 0(a0)
è¯»å–åœ°å€ 0x80001164
0x80001164: 00 00 80 67 jalr	zero, 0(ra)
è¯»å–åœ°å€ 0x80000da8
è¯»å–åœ°å€ 0x8009cfac
0x80000da8: 00 c1 26 03 lw	a2, 12(sp)
è¯»å–åœ°å€ 0x80000dac
è¯»å–åœ°å€ 0x8009cfa8
0x80000dac: 00 81 47 03 lbu	a4, 8(sp)
è¯»å–åœ°å€ 0x80000db0
0x80000db0: 18 09 05 13 addi	a0, s2, 384
è¯»å–åœ°å€ 0x80000db4
0x80000db4: 00 26 17 93 slli	a5, a2, 2
è¯»å–åœ°å€ 0x80000db8
0x80000db8: 00 f4 07 b3 add	a5, s0, a5
è¯»å–åœ°å€ 0x80000dbc
0x80000dbc: fc 06 16 e3 bne	a2, zero, 0x80000d88
è¯»å–åœ°å€ 0x80000dc0
è¯»å–åœ°å€ 0x80094e28
0x80000dc0: 00 0a c7 83 lbu	a5, 0(s5)
è¯»å–åœ°å€ 0x80000dc4
0x80000dc4: f9 1f f0 6f jal	zero, 0x80000d54
è¯»å–åœ°å€ 0x80000d54
è¯»å–åœ°å€ 0x80094e29
0x80000d54: 00 09 c7 03 lbu	a4, 0(s3)
è¯»å–åœ°å€ 0x80000d58
0x80000d58: 02 07 04 63 beq	a4, zero, 0x80000d80
è¯»å–åœ°å€ 0x80000d80
0x80000d80: 00 07 9e 63 bne	a5, zero, 0x80000d9c
è¯»å–åœ°å€ 0x80000d9c
0x80000d9c: 00 80 05 13 addi	a0, zero, 8
è¯»å–åœ°å€ 0x80000da0
0x80000da0: 00 81 05 93 addi	a1, sp, 8
è¯»å–åœ°å€ 0x80000da4
0x80000da4: 31 00 00 ef jal	ra, 0x800010b4
è¯»å–åœ°å€ 0x800010b4
0x800010b4: 80 01 17 b7 lui	a5, 524305
è¯»å–åœ°å€ 0x800010b8
0x800010b8: 00 25 15 13 slli	a0, a0, 2
è¯»å–åœ°å€ 0x800010bc
0x800010bc: 9f 87 87 93 addi	a5, a5, -1544
è¯»å–åœ°å€ 0x800010c0
0x800010c0: 00 a7 87 b3 add	a5, a5, a0
è¯»å–åœ°å€ 0x800010c4
è¯»å–åœ°å€ 0x80010a18
0x800010c4: 00 07 a7 83 lw	a5, 0(a5)
è¯»å–åœ°å€ 0x800010c8
0x800010c8: 00 05 85 13 addi	a0, a1, 0
è¯»å–åœ°å€ 0x800010cc
0x800010cc: 00 07 80 67 jalr	zero, 0(a5)
è¯»å–åœ°å€ 0x80001134
0x80001134: a0 00 07 b7 lui	a5, 655360
è¯»å–åœ°å€ 0x80001138
read device name = keyboard 	 addr = 0xa0000060 
0x80001138: 06 07 a7 83 lw	a5, 96(a5)
è¯»å–åœ°å€ 0x8000113c
0x8000113c: 00 00 87 37 lui	a4, 8
è¯»å–åœ°å€ 0x80001140
å†™å…¥åœ°å€ 0x8009cfac
0x80001140: 00 f5 22 23 sw	a5, 4(a0)
è¯»å–åœ°å€ 0x80001144
0x80001144: 00 e7 f6 b3 and	a3, a5, a4
è¯»å–åœ°å€ 0x80001148
0x80001148: 00 06 8c 63 beq	a3, zero, 0x80001160
è¯»å–åœ°å€ 0x80001160
å†™å…¥åœ°å€ 0x8009cfa8
0x80001160: 00 05 00 23 sb	zero, 0(a0)
è¯»å–åœ°å€ 0x80001164
0x80001164: 00 00 80 67 jalr	zero, 0(ra)
è¯»å–åœ°å€ 0x80000da8
è¯»å–åœ°å€ 0x8009cfac
0x80000da8: 00 c1 26 03 lw	a2, 12(sp)
è¯»å–åœ°å€ 0x80000dac
è¯»å–åœ°å€ 0x8009cfa8
0x80000dac: 00 81 47 03 lbu	a4, 8(sp)
è¯»å–åœ°å€ 0x80000db0
0x80000db0: 18 09 05 13 addi	a0, s2, 384
è¯»å–åœ°å€ 0x80000db4
0x80000db4: 00 26 17 93 slli	a5, a2, 2
è¯»å–åœ°å€ 0x80000db8
0x80000db8: 00 f4 07 b3 add	a5, s0, a5
è¯»å–åœ°å€ 0x80000dbc
0x80000dbc: fc 06 16 e3 bne	a2, zero, 0x80000d88
è¯»å–åœ°å€ 0x80000dc0
è¯»å–åœ°å€ 0x80094e28
0x80000dc0: 00 0a c7 83 lbu	a5, 0(s5)
è¯»å–åœ°å€ 0x80000dc4
0x80000dc4: f9 1f f0 6f jal	zero, 0x80000d54
è¯»å–åœ°å€ 0x80000d54
è¯»å–åœ°å€ 0x80094e29
0x80000d54: 00 09 c7 03 lbu	a4, 0(s3)
è¯»å–åœ°å€ 0x80000d58
0x80000d58: 02 07 04 63 beq	a4, zero, 0x80000d80
è¯»å–åœ°å€ 0x80000d80
0x80000d80: 00 07 9e 63 bne	a5, zero, 0x80000d9c
è¯»å–åœ°å€ 0x80000d9c
0x80000d9c: 00 80 05 13 addi	a0, zero, 8
è¯»å–åœ°å€ 0x80000da0
0x80000da0: 00 81 05 93 addi	a1, sp, 8
è¯»å–åœ°å€ 0x80000da4
0x80000da4: 31 00 00 ef jal	ra, 0x800010b4
è¯»å–åœ°å€ 0x800010b4
0x800010b4: 80 01 17 b7 lui	a5, 524305
è¯»å–åœ°å€ 0x800010b8
0x800010b8: 00 25 15 13 slli	a0, a0, 2
è¯»å–åœ°å€ 0x800010bc
0x800010bc: 9f 87 87 93 addi	a5, a5, -1544
è¯»å–åœ°å€ 0x800010c0
0x800010c0: 00 a7 87 b3 add	a5, a5, a0
è¯»å–åœ°å€ 0x800010c4
è¯»å–åœ°å€ 0x80010a18
0x800010c4: 00 07 a7 83 lw	a5, 0(a5)
è¯»å–åœ°å€ 0x800010c8
0x800010c8: 00 05 85 13 addi	a0, a1, 0
è¯»å–åœ°å€ 0x800010cc
0x800010cc: 00 07 80 67 jalr	zero, 0(a5)
è¯»å–åœ°å€ 0x80001134
0x80001134: a0 00 07 b7 lui	a5, 655360
è¯»å–åœ°å€ 0x80001138
read device name = keyboard 	 addr = 0xa0000060 
0x80001138: 06 07 a7 83 lw	a5, 96(a5)
è¯»å–åœ°å€ 0x8000113c
0x8000113c: 00 00 87 37 lui	a4, 8
è¯»å–åœ°å€ 0x80001140
å†™å…¥åœ°å€ 0x8009cfac
0x80001140: 00 f5 22 23 sw	a5, 4(a0)
è¯»å–åœ°å€ 0x80001144
0x80001144: 00 e7 f6 b3 and	a3, a5, a4
è¯»å–åœ°å€ 0x80001148
0x80001148: 00 06 8c 63 beq	a3, zero, 0x80001160
è¯»å–åœ°å€ 0x80001160
å†™å…¥åœ°å€ 0x8009cfa8
0x80001160: 00 05 00 23 sb	zero, 0(a0)
è¯»å–åœ°å€ 0x80001164
0x80001164: 00 00 80 67 jalr	zero, 0(ra)
è¯»å–åœ°å€ 0x80000da8
è¯»å–åœ°å€ 0x8009cfac
0x80000da8: 00 c1 26 03 lw	a2, 12(sp)
è¯»å–åœ°å€ 0x80000dac
è¯»å–åœ°å€ 0x8009cfa8
0x80000dac: 00 81 47 03 lbu	a4, 8(sp)
è¯»å–åœ°å€ 0x80000db0
0x80000db0: 18 09 05 13 addi	a0, s2, 384
è¯»å–åœ°å€ 0x80000db4
0x80000db4: 00 26 17 93 slli	a5, a2, 2
è¯»å–åœ°å€ 0x80000db8
0x80000db8: 00 f4 07 b3 add	a5, s0, a5
è¯»å–åœ°å€ 0x80000dbc
0x80000dbc: fc 06 16 e3 bne	a2, zero, 0x80000d88
è¯»å–åœ°å€ 0x80000dc0
è¯»å–åœ°å€ 0x80094e28
0x80000dc0: 00 0a c7 83 lbu	a5, 0(s5)
è¯»å–åœ°å€ 0x80000dc4
0x80000dc4: f9 1f f0 6f jal	zero, 0x80000d54
è¯»å–åœ°å€ 0x80000d54
è¯»å–åœ°å€ 0x80094e29
0x80000d54: 00 09 c7 03 lbu	a4, 0(s3)
è¯»å–åœ°å€ 0x80000d58
0x80000d58: 02 07 04 63 beq	a4, zero, 0x80000d80
è¯»å–åœ°å€ 0x80000d80
0x80000d80: 00 07 9e 63 bne	a5, zero, 0x80000d9c
è¯»å–åœ°å€ 0x80000d9c
0x80000d9c: 00 80 05 13 addi	a0, zero, 8
è¯»å–åœ°å€ 0x80000da0
0x80000da0: 00 81 05 93 addi	a1, sp, 8
è¯»å–åœ°å€ 0x80000da4
0x80000da4: 31 00 00 ef jal	ra, 0x800010b4
è¯»å–åœ°å€ 0x800010b4
0x800010b4: 80 01 17 b7 lui	a5, 524305
è¯»å–åœ°å€ 0x800010b8
0x800010b8: 00 25 15 13 slli	a0, a0, 2
è¯»å–åœ°å€ 0x800010bc
0x800010bc: 9f 87 87 93 addi	a5, a5, -1544
è¯»å–åœ°å€ 0x800010c0
0x800010c0: 00 a7 87 b3 add	a5, a5, a0
è¯»å–åœ°å€ 0x800010c4
è¯»å–åœ°å€ 0x80010a18
0x800010c4: 00 07 a7 83 lw	a5, 0(a5)
è¯»å–åœ°å€ 0x800010c8
0x800010c8: 00 05 85 13 addi	a0, a1, 0
è¯»å–åœ°å€ 0x800010cc
0x800010cc: 00 07 80 67 jalr	zero, 0(a5)
è¯»å–åœ°å€ 0x80001134
0x80001134: a0 00 07 b7 lui	a5, 655360
è¯»å–åœ°å€ 0x80001138
read device name = keyboard 	 addr = 0xa0000060 
0x80001138: 06 07 a7 83 lw	a5, 96(a5)
è¯»å–åœ°å€ 0x8000113c
0x8000113c: 00 00 87 37 lui	a4, 8
è¯»å–åœ°å€ 0x80001140
å†™å…¥åœ°å€ 0x8009cfac
0x80001140: 00 f5 22 23 sw	a5, 4(a0)
è¯»å–åœ°å€ 0x80001144
0x80001144: 00 e7 f6 b3 and	a3, a5, a4
è¯»å–åœ°å€ 0x80001148
0x80001148: 00 06 8c 63 beq	a3, zero, 0x80001160
è¯»å–åœ°å€ 0x80001160
å†™å…¥åœ°å€ 0x8009cfa8
0x80001160: 00 05 00 23 sb	zero, 0(a0)
è¯»å–åœ°å€ 0x80001164
0x80001164: 00 00 80 67 jalr	zero, 0(ra)
è¯»å–åœ°å€ 0x80000da8
è¯»å–åœ°å€ 0x8009cfac
0x80000da8: 00 c1 26 03 lw	a2, 12(sp)
è¯»å–åœ°å€ 0x80000dac
è¯»å–åœ°å€ 0x8009cfa8
0x80000dac: 00 81 47 03 lbu	a4, 8(sp)
è¯»å–åœ°å€ 0x80000db0
0x80000db0: 18 09 05 13 addi	a0, s2, 384
è¯»å–åœ°å€ 0x80000db4
0x80000db4: 00 26 17 93 slli	a5, a2, 2
è¯»å–åœ°å€ 0x80000db8
0x80000db8: 00 f4 07 b3 add	a5, s0, a5
è¯»å–åœ°å€ 0x80000dbc
0x80000dbc: fc 06 16 e3 bne	a2, zero, 0x80000d88
è¯»å–åœ°å€ 0x80000dc0
è¯»å–åœ°å€ 0x80094e28
0x80000dc0: 00 0a c7 83 lbu	a5, 0(s5)
è¯»å–åœ°å€ 0x80000dc4
0x80000dc4: f9 1f f0 6f jal	zero, 0x80000d54
è¯»å–åœ°å€ 0x80000d54
è¯»å–åœ°å€ 0x80094e29
0x80000d54: 00 09 c7 03 lbu	a4, 0(s3)
è¯»å–åœ°å€ 0x80000d58
0x80000d58: 02 07 04 63 beq	a4, zero, 0x80000d80
è¯»å–åœ°å€ 0x80000d80
0x80000d80: 00 07 9e 63 bne	a5, zero, 0x80000d9c
è¯»å–åœ°å€ 0x80000d9c
0x80000d9c: 00 80 05 13 addi	a0, zero, 8
è¯»å–åœ°å€ 0x80000da0
0x80000da0: 00 81 05 93 addi	a1, sp, 8
è¯»å–åœ°å€ 0x80000da4
0x80000da4: 31 00 00 ef jal	ra, 0x800010b4
è¯»å–åœ°å€ 0x800010b4
0x800010b4: 80 01 17 b7 lui	a5, 524305
è¯»å–åœ°å€ 0x800010b8
0x800010b8: 00 25 15 13 slli	a0, a0, 2
è¯»å–åœ°å€ 0x800010bc
0x800010bc: 9f 87 87 93 addi	a5, a5, -1544
è¯»å–åœ°å€ 0x800010c0
0x800010c0: 00 a7 87 b3 add	a5, a5, a0
è¯»å–åœ°å€ 0x800010c4
è¯»å–åœ°å€ 0x80010a18
0x800010c4: 00 07 a7 83 lw	a5, 0(a5)
è¯»å–åœ°å€ 0x800010c8
0x800010c8: 00 05 85 13 addi	a0, a1, 0
è¯»å–åœ°å€ 0x800010cc
0x800010cc: 00 07 80 67 jalr	zero, 0(a5)
è¯»å–åœ°å€ 0x80001134
0x80001134: a0 00 07 b7 lui	a5, 655360
è¯»å–åœ°å€ 0x80001138
read device name = keyboard 	 addr = 0xa0000060 
0x80001138: 06 07 a7 83 lw	a5, 96(a5)
è¯»å–åœ°å€ 0x8000113c
0x8000113c: 00 00 87 37 lui	a4, 8
è¯»å–åœ°å€ 0x80001140
å†™å…¥åœ°å€ 0x8009cfac
0x80001140: 00 f5 22 23 sw	a5, 4(a0)
è¯»å–åœ°å€ 0x80001144
0x80001144: 00 e7 f6 b3 and	a3, a5, a4
è¯»å–åœ°å€ 0x80001148
0x80001148: 00 06 8c 63 beq	a3, zero, 0x80001160
è¯»å–åœ°å€ 0x80001160
å†™å…¥åœ°å€ 0x8009cfa8
0x80001160: 00 05 00 23 sb	zero, 0(a0)
è¯»å–åœ°å€ 0x80001164
0x80001164: 00 00 80 67 jalr	zero, 0(ra)
è¯»å–åœ°å€ 0x80000da8
è¯»å–åœ°å€ 0x8009cfac
0x80000da8: 00 c1 26 03 lw	a2, 12(sp)
è¯»å–åœ°å€ 0x80000dac
è¯»å–åœ°å€ 0x8009cfa8
0x80000dac: 00 81 47 03 lbu	a4, 8(sp)
è¯»å–åœ°å€ 0x80000db0
0x80000db0: 18 09 05 13 addi	a0, s2, 384
è¯»å–åœ°å€ 0x80000db4
0x80000db4: 00 26 17 93 slli	a5, a2, 2
è¯»å–åœ°å€ 0x80000db8
0x80000db8: 00 f4 07 b3 add	a5, s0, a5
è¯»å–åœ°å€ 0x80000dbc
0x80000dbc: fc 06 16 e3 bne	a2, zero, 0x80000d88
è¯»å–åœ°å€ 0x80000dc0
è¯»å–åœ°å€ 0x80094e28
0x80000dc0: 00 0a c7 83 lbu	a5, 0(s5)
è¯»å–åœ°å€ 0x80000dc4
0x80000dc4: f9 1f f0 6f jal	zero, 0x80000d54
è¯»å–åœ°å€ 0x80000d54
è¯»å–åœ°å€ 0x80094e29
0x80000d54: 00 09 c7 03 lbu	a4, 0(s3)
è¯»å–åœ°å€ 0x80000d58
0x80000d58: 02 07 04 63 beq	a4, zero, 0x80000d80
è¯»å–åœ°å€ 0x80000d80
0x80000d80: 00 07 9e 63 bne	a5, zero, 0x80000d9c
è¯»å–åœ°å€ 0x80000d9c
0x80000d9c: 00 80 05 13 addi	a0, zero, 8
è¯»å–åœ°å€ 0x80000da0
0x80000da0: 00 81 05 93 addi	a1, sp, 8
è¯»å–åœ°å€ 0x80000da4
0x80000da4: 31 00 00 ef jal	ra, 0x800010b4
è¯»å–åœ°å€ 0x800010b4
0x800010b4: 80 01 17 b7 lui	a5, 524305
è¯»å–åœ°å€ 0x800010b8
0x800010b8: 00 25 15 13 slli	a0, a0, 2
è¯»å–åœ°å€ 0x800010bc
0x800010bc: 9f 87 87 93 addi	a5, a5, -1544
è¯»å–åœ°å€ 0x800010c0
0x800010c0: 00 a7 87 b3 add	a5, a5, a0
è¯»å–åœ°å€ 0x800010c4
è¯»å–åœ°å€ 0x80010a18
0x800010c4: 00 07 a7 83 lw	a5, 0(a5)
è¯»å–åœ°å€ 0x800010c8
0x800010c8: 00 05 85 13 addi	a0, a1, 0
è¯»å–åœ°å€ 0x800010cc
0x800010cc: 00 07 80 67 jalr	zero, 0(a5)
è¯»å–åœ°å€ 0x80001134
0x80001134: a0 00 07 b7 lui	a5, 655360
è¯»å–åœ°å€ 0x80001138
read device name = keyboard 	 addr = 0xa0000060 
0x80001138: 06 07 a7 83 lw	a5, 96(a5)
è¯»å–åœ°å€ 0x8000113c
0x8000113c: 00 00 87 37 lui	a4, 8
è¯»å–åœ°å€ 0x80001140
å†™å…¥åœ°å€ 0x8009cfac
0x80001140: 00 f5 22 23 sw	a5, 4(a0)
è¯»å–åœ°å€ 0x80001144
0x80001144: 00 e7 f6 b3 and	a3, a5, a4
è¯»å–åœ°å€ 0x80001148
0x80001148: 00 06 8c 63 beq	a3, zero, 0x80001160
è¯»å–åœ°å€ 0x80001160
å†™å…¥åœ°å€ 0x8009cfa8
0x80001160: 00 05 00 23 sb	zero, 0(a0)
è¯»å–åœ°å€ 0x80001164
0x80001164: 00 00 80 67 jalr	zero, 0(ra)
è¯»å–åœ°å€ 0x80000da8
è¯»å–åœ°å€ 0x8009cfac
0x80000da8: 00 c1 26 03 lw	a2, 12(sp)
è¯»å–åœ°å€ 0x80000dac
è¯»å–åœ°å€ 0x8009cfa8
0x80000dac: 00 81 47 03 lbu	a4, 8(sp)
è¯»å–åœ°å€ 0x80000db0
0x80000db0: 18 09 05 13 addi	a0, s2, 384
è¯»å–åœ°å€ 0x80000db4
0x80000db4: 00 26 17 93 slli	a5, a2, 2
è¯»å–åœ°å€ 0x80000db8
0x80000db8: 00 f4 07 b3 add	a5, s0, a5
è¯»å–åœ°å€ 0x80000dbc
0x80000dbc: fc 06 16 e3 bne	a2, zero, 0x80000d88
è¯»å–åœ°å€ 0x80000dc0
è¯»å–åœ°å€ 0x80094e28
0x80000dc0: 00 0a c7 83 lbu	a5, 0(s5)
è¯»å–åœ°å€ 0x80000dc4
0x80000dc4: f9 1f f0 6f jal	zero, 0x80000d54
è¯»å–åœ°å€ 0x80000d54
è¯»å–åœ°å€ 0x80094e29
0x80000d54: 00 09 c7 03 lbu	a4, 0(s3)
è¯»å–åœ°å€ 0x80000d58
0x80000d58: 02 07 04 63 beq	a4, zero, 0x80000d80
è¯»å–åœ°å€ 0x80000d80
0x80000d80: 00 07 9e 63 bne	a5, zero, 0x80000d9c
è¯»å–åœ°å€ 0x80000d9c
0x80000d9c: 00 80 05 13 addi	a0, zero, 8
è¯»å–åœ°å€ 0x80000da0
0x80000da0: 00 81 05 93 addi	a1, sp, 8
è¯»å–åœ°å€ 0x80000da4
0x80000da4: 31 00 00 ef jal	ra, 0x800010b4
è¯»å–åœ°å€ 0x800010b4
0x800010b4: 80 01 17 b7 lui	a5, 524305
è¯»å–åœ°å€ 0x800010b8
0x800010b8: 00 25 15 13 slli	a0, a0, 2
è¯»å–åœ°å€ 0x800010bc
0x800010bc: 9f 87 87 93 addi	a5, a5, -1544
è¯»å–åœ°å€ 0x800010c0
0x800010c0: 00 a7 87 b3 add	a5, a5, a0
è¯»å–åœ°å€ 0x800010c4
è¯»å–åœ°å€ 0x80010a18
0x800010c4: 00 07 a7 83 lw	a5, 0(a5)
è¯»å–åœ°å€ 0x800010c8
0x800010c8: 00 05 85 13 addi	a0, a1, 0
è¯»å–åœ°å€ 0x800010cc
0x800010cc: 00 07 80 67 jalr	zero, 0(a5)
è¯»å–åœ°å€ 0x80001134
0x80001134: a0 00 07 b7 lui	a5, 655360
è¯»å–åœ°å€ 0x80001138
read device name = keyboard 	 addr = 0xa0000060 
0x80001138: 06 07 a7 83 lw	a5, 96(a5)
è¯»å–åœ°å€ 0x8000113c
0x8000113c: 00 00 87 37 lui	a4, 8
è¯»å–åœ°å€ 0x80001140
å†™å…¥åœ°å€ 0x8009cfac
0x80001140: 00 f5 22 23 sw	a5, 4(a0)
è¯»å–åœ°å€ 0x80001144
0x80001144: 00 e7 f6 b3 and	a3, a5, a4
è¯»å–åœ°å€ 0x80001148
0x80001148: 00 06 8c 63 beq	a3, zero, 0x80001160
è¯»å–åœ°å€ 0x80001160
å†™å…¥åœ°å€ 0x8009cfa8
0x80001160: 00 05 00 23 sb	zero, 0(a0)
è¯»å–åœ°å€ 0x80001164
0x80001164: 00 00 80 67 jalr	zero, 0(ra)
è¯»å–åœ°å€ 0x80000da8
è¯»å–åœ°å€ 0x8009cfac
0x80000da8: 00 c1 26 03 lw	a2, 12(sp)
è¯»å–åœ°å€ 0x80000dac
è¯»å–åœ°å€ 0x8009cfa8
0x80000dac: 00 81 47 03 lbu	a4, 8(sp)
è¯»å–åœ°å€ 0x80000db0
0x80000db0: 18 09 05 13 addi	a0, s2, 384
è¯»å–åœ°å€ 0x80000db4
0x80000db4: 00 26 17 93 slli	a5, a2, 2
è¯»å–åœ°å€ 0x80000db8
0x80000db8: 00 f4 07 b3 add	a5, s0, a5
è¯»å–åœ°å€ 0x80000dbc
0x80000dbc: fc 06 16 e3 bne	a2, zero, 0x80000d88
è¯»å–åœ°å€ 0x80000dc0
è¯»å–åœ°å€ 0x80094e28
0x80000dc0: 00 0a c7 83 lbu	a5, 0(s5)
è¯»å–åœ°å€ 0x80000dc4
0x80000dc4: f9 1f f0 6f jal	zero, 0x80000d54
è¯»å–åœ°å€ 0x80000d54
è¯»å–åœ°å€ 0x80094e29
0x80000d54: 00 09 c7 03 lbu	a4, 0(s3)
è¯»å–åœ°å€ 0x80000d58
0x80000d58: 02 07 04 63 beq	a4, zero, 0x80000d80
è¯»å–åœ°å€ 0x80000d80
0x80000d80: 00 07 9e 63 bne	a5, zero, 0x80000d9c
è¯»å–åœ°å€ 0x80000d9c
0x80000d9c: 00 80 05 13 addi	a0, zero, 8
è¯»å–åœ°å€ 0x80000da0
0x80000da0: 00 81 05 93 addi	a1, sp, 8
è¯»å–åœ°å€ 0x80000da4
0x80000da4: 31 00 00 ef jal	ra, 0x800010b4
è¯»å–åœ°å€ 0x800010b4
0x800010b4: 80 01 17 b7 lui	a5, 524305
è¯»å–åœ°å€ 0x800010b8
0x800010b8: 00 25 15 13 slli	a0, a0, 2
è¯»å–åœ°å€ 0x800010bc
0x800010bc: 9f 87 87 93 addi	a5, a5, -1544
è¯»å–åœ°å€ 0x800010c0
0x800010c0: 00 a7 87 b3 add	a5, a5, a0
è¯»å–åœ°å€ 0x800010c4
è¯»å–åœ°å€ 0x80010a18
0x800010c4: 00 07 a7 83 lw	a5, 0(a5)
è¯»å–åœ°å€ 0x800010c8
0x800010c8: 00 05 85 13 addi	a0, a1, 0
è¯»å–åœ°å€ 0x800010cc
0x800010cc: 00 07 80 67 jalr	zero, 0(a5)
è¯»å–åœ°å€ 0x80001134
0x80001134: a0 00 07 b7 lui	a5, 655360
è¯»å–åœ°å€ 0x80001138
read device name = keyboard 	 addr = 0xa0000060 
0x80001138: 06 07 a7 83 lw	a5, 96(a5)
è¯»å–åœ°å€ 0x8000113c
0x8000113c: 00 00 87 37 lui	a4, 8
è¯»å–åœ°å€ 0x80001140
å†™å…¥åœ°å€ 0x8009cfac
0x80001140: 00 f5 22 23 sw	a5, 4(a0)
è¯»å–åœ°å€ 0x80001144
0x80001144: 00 e7 f6 b3 and	a3, a5, a4
è¯»å–åœ°å€ 0x80001148
0x80001148: 00 06 8c 63 beq	a3, zero, 0x80001160
è¯»å–åœ°å€ 0x80001160
å†™å…¥åœ°å€ 0x8009cfa8
0x80001160: 00 05 00 23 sb	zero, 0(a0)
è¯»å–åœ°å€ 0x80001164
0x80001164: 00 00 80 67 jalr	zero, 0(ra)
è¯»å–åœ°å€ 0x80000da8
è¯»å–åœ°å€ 0x8009cfac
0x80000da8: 00 c1 26 03 lw	a2, 12(sp)
è¯»å–åœ°å€ 0x80000dac
è¯»å–åœ°å€ 0x8009cfa8
0x80000dac: 00 81 47 03 lbu	a4, 8(sp)
è¯»å–åœ°å€ 0x80000db0
0x80000db0: 18 09 05 13 addi	a0, s2, 384
è¯»å–åœ°å€ 0x80000db4
0x80000db4: 00 26 17 93 slli	a5, a2, 2
è¯»å–åœ°å€ 0x80000db8
0x80000db8: 00 f4 07 b3 add	a5, s0, a5
è¯»å–åœ°å€ 0x80000dbc
0x80000dbc: fc 06 16 e3 bne	a2, zero, 0x80000d88
è¯»å–åœ°å€ 0x80000dc0
è¯»å–åœ°å€ 0x80094e28
0x80000dc0: 00 0a c7 83 lbu	a5, 0(s5)
è¯»å–åœ°å€ 0x80000dc4
0x80000dc4: f9 1f f0 6f jal	zero, 0x80000d54
è¯»å–åœ°å€ 0x80000d54
è¯»å–åœ°å€ 0x80094e29
0x80000d54: 00 09 c7 03 lbu	a4, 0(s3)
è¯»å–åœ°å€ 0x80000d58
0x80000d58: 02 07 04 63 beq	a4, zero, 0x80000d80
è¯»å–åœ°å€ 0x80000d80
0x80000d80: 00 07 9e 63 bne	a5, zero, 0x80000d9c
è¯»å–åœ°å€ 0x80000d9c
0x80000d9c: 00 80 05 13 addi	a0, zero, 8
è¯»å–åœ°å€ 0x80000da0
0x80000da0: 00 81 05 93 addi	a1, sp, 8
è¯»å–åœ°å€ 0x80000da4
0x80000da4: 31 00 00 ef jal	ra, 0x800010b4
è¯»å–åœ°å€ 0x800010b4
0x800010b4: 80 01 17 b7 lui	a5, 524305
è¯»å–åœ°å€ 0x800010b8
0x800010b8: 00 25 15 13 slli	a0, a0, 2
è¯»å–åœ°å€ 0x800010bc
0x800010bc: 9f 87 87 93 addi	a5, a5, -1544
è¯»å–åœ°å€ 0x800010c0
0x800010c0: 00 a7 87 b3 add	a5, a5, a0
è¯»å–åœ°å€ 0x800010c4
è¯»å–åœ°å€ 0x80010a18
0x800010c4: 00 07 a7 83 lw	a5, 0(a5)
è¯»å–åœ°å€ 0x800010c8
0x800010c8: 00 05 85 13 addi	a0, a1, 0
è¯»å–åœ°å€ 0x800010cc
0x800010cc: 00 07 80 67 jalr	zero, 0(a5)
è¯»å–åœ°å€ 0x80001134
0x80001134: a0 00 07 b7 lui	a5, 655360
è¯»å–åœ°å€ 0x80001138
read device name = keyboard 	 addr = 0xa0000060 
0x80001138: 06 07 a7 83 lw	a5, 96(a5)
è¯»å–åœ°å€ 0x8000113c
0x8000113c: 00 00 87 37 lui	a4, 8
è¯»å–åœ°å€ 0x80001140
å†™å…¥åœ°å€ 0x8009cfac
0x80001140: 00 f5 22 23 sw	a5, 4(a0)
è¯»å–åœ°å€ 0x80001144
0x80001144: 00 e7 f6 b3 and	a3, a5, a4
è¯»å–åœ°å€ 0x80001148
0x80001148: 00 06 8c 63 beq	a3, zero, 0x80001160
è¯»å–åœ°å€ 0x80001160
å†™å…¥åœ°å€ 0x8009cfa8
0x80001160: 00 05 00 23 sb	zero, 0(a0)
è¯»å–åœ°å€ 0x80001164
0x80001164: 00 00 80 67 jalr	zero, 0(ra)
è¯»å–åœ°å€ 0x80000da8
è¯»å–åœ°å€ 0x8009cfac
0x80000da8: 00 c1 26 03 lw	a2, 12(sp)
è¯»å–åœ°å€ 0x80000dac
è¯»å–åœ°å€ 0x8009cfa8
0x80000dac: 00 81 47 03 lbu	a4, 8(sp)
è¯»å–åœ°å€ 0x80000db0
0x80000db0: 18 09 05 13 addi	a0, s2, 384
è¯»å–åœ°å€ 0x80000db4
0x80000db4: 00 26 17 93 slli	a5, a2, 2
è¯»å–åœ°å€ 0x80000db8
0x80000db8: 00 f4 07 b3 add	a5, s0, a5
è¯»å–åœ°å€ 0x80000dbc
0x80000dbc: fc 06 16 e3 bne	a2, zero, 0x80000d88
è¯»å–åœ°å€ 0x80000dc0
è¯»å–åœ°å€ 0x80094e28
0x80000dc0: 00 0a c7 83 lbu	a5, 0(s5)
è¯»å–åœ°å€ 0x80000dc4
0x80000dc4: f9 1f f0 6f jal	zero, 0x80000d54
è¯»å–åœ°å€ 0x80000d54
è¯»å–åœ°å€ 0x80094e29
0x80000d54: 00 09 c7 03 lbu	a4, 0(s3)
è¯»å–åœ°å€ 0x80000d58
0x80000d58: 02 07 04 63 beq	a4, zero, 0x80000d80
è¯»å–åœ°å€ 0x80000d80
0x80000d80: 00 07 9e 63 bne	a5, zero, 0x80000d9c
è¯»å–åœ°å€ 0x80000d9c
0x80000d9c: 00 80 05 13 addi	a0, zero, 8
è¯»å–åœ°å€ 0x80000da0
0x80000da0: 00 81 05 93 addi	a1, sp, 8
è¯»å–åœ°å€ 0x80000da4
0x80000da4: 31 00 00 ef jal	ra, 0x800010b4
è¯»å–åœ°å€ 0x800010b4
0x800010b4: 80 01 17 b7 lui	a5, 524305
è¯»å–åœ°å€ 0x800010b8
0x800010b8: 00 25 15 13 slli	a0, a0, 2
è¯»å–åœ°å€ 0x800010bc
0x800010bc: 9f 87 87 93 addi	a5, a5, -1544
è¯»å–åœ°å€ 0x800010c0
0x800010c0: 00 a7 87 b3 add	a5, a5, a0
è¯»å–åœ°å€ 0x800010c4
è¯»å–åœ°å€ 0x80010a18
0x800010c4: 00 07 a7 83 lw	a5, 0(a5)
è¯»å–åœ°å€ 0x800010c8
0x800010c8: 00 05 85 13 addi	a0, a1, 0
è¯»å–åœ°å€ 0x800010cc
0x800010cc: 00 07 80 67 jalr	zero, 0(a5)
è¯»å–åœ°å€ 0x80001134
0x80001134: a0 00 07 b7 lui	a5, 655360
è¯»å–åœ°å€ 0x80001138
read device name = keyboard 	 addr = 0xa0000060 
0x80001138: 06 07 a7 83 lw	a5, 96(a5)
è¯»å–åœ°å€ 0x8000113c
0x8000113c: 00 00 87 37 lui	a4, 8
è¯»å–åœ°å€ 0x80001140
å†™å…¥åœ°å€ 0x8009cfac
0x80001140: 00 f5 22 23 sw	a5, 4(a0)
è¯»å–åœ°å€ 0x80001144
0x80001144: 00 e7 f6 b3 and	a3, a5, a4
è¯»å–åœ°å€ 0x80001148
0x80001148: 00 06 8c 63 beq	a3, zero, 0x80001160
è¯»å–åœ°å€ 0x80001160
å†™å…¥åœ°å€ 0x8009cfa8
0x80001160: 00 05 00 23 sb	zero, 0(a0)
è¯»å–åœ°å€ 0x80001164
0x80001164: 00 00 80 67 jalr	zero, 0(ra)
è¯»å–åœ°å€ 0x80000da8
è¯»å–åœ°å€ 0x8009cfac
0x80000da8: 00 c1 26 03 lw	a2, 12(sp)
è¯»å–åœ°å€ 0x80000dac
è¯»å–åœ°å€ 0x8009cfa8
0x80000dac: 00 81 47 03 lbu	a4, 8(sp)
è¯»å–åœ°å€ 0x80000db0
0x80000db0: 18 09 05 13 addi	a0, s2, 384
è¯»å–åœ°å€ 0x80000db4
0x80000db4: 00 26 17 93 slli	a5, a2, 2
è¯»å–åœ°å€ 0x80000db8
0x80000db8: 00 f4 07 b3 add	a5, s0, a5
è¯»å–åœ°å€ 0x80000dbc
0x80000dbc: fc 06 16 e3 bne	a2, zero, 0x80000d88
è¯»å–åœ°å€ 0x80000dc0
è¯»å–åœ°å€ 0x80094e28
0x80000dc0: 00 0a c7 83 lbu	a5, 0(s5)
è¯»å–åœ°å€ 0x80000dc4
0x80000dc4: f9 1f f0 6f jal	zero, 0x80000d54
è¯»å–åœ°å€ 0x80000d54
è¯»å–åœ°å€ 0x80094e29
0x80000d54: 00 09 c7 03 lbu	a4, 0(s3)
è¯»å–åœ°å€ 0x80000d58
0x80000d58: 02 07 04 63 beq	a4, zero, 0x80000d80
è¯»å–åœ°å€ 0x80000d80
0x80000d80: 00 07 9e 63 bne	a5, zero, 0x80000d9c
è¯»å–åœ°å€ 0x80000d9c
0x80000d9c: 00 80 05 13 addi	a0, zero, 8
è¯»å–åœ°å€ 0x80000da0
0x80000da0: 00 81 05 93 addi	a1, sp, 8
è¯»å–åœ°å€ 0x80000da4
0x80000da4: 31 00 00 ef jal	ra, 0x800010b4
è¯»å–åœ°å€ 0x800010b4
0x800010b4: 80 01 17 b7 lui	a5, 524305
è¯»å–åœ°å€ 0x800010b8
0x800010b8: 00 25 15 13 slli	a0, a0, 2
è¯»å–åœ°å€ 0x800010bc
0x800010bc: 9f 87 87 93 addi	a5, a5, -1544
è¯»å–åœ°å€ 0x800010c0
0x800010c0: 00 a7 87 b3 add	a5, a5, a0
è¯»å–åœ°å€ 0x800010c4
è¯»å–åœ°å€ 0x80010a18
0x800010c4: 00 07 a7 83 lw	a5, 0(a5)
è¯»å–åœ°å€ 0x800010c8
0x800010c8: 00 05 85 13 addi	a0, a1, 0
è¯»å–åœ°å€ 0x800010cc
0x800010cc: 00 07 80 67 jalr	zero, 0(a5)
è¯»å–åœ°å€ 0x80001134
0x80001134: a0 00 07 b7 lui	a5, 655360
è¯»å–åœ°å€ 0x80001138
read device name = keyboard 	 addr = 0xa0000060 
0x80001138: 06 07 a7 83 lw	a5, 96(a5)
è¯»å–åœ°å€ 0x8000113c
0x8000113c: 00 00 87 37 lui	a4, 8
è¯»å–åœ°å€ 0x80001140
å†™å…¥åœ°å€ 0x8009cfac
0x80001140: 00 f5 22 23 sw	a5, 4(a0)
è¯»å–åœ°å€ 0x80001144
0x80001144: 00 e7 f6 b3 and	a3, a5, a4
è¯»å–åœ°å€ 0x80001148
0x80001148: 00 06 8c 63 beq	a3, zero, 0x80001160
è¯»å–åœ°å€ 0x80001160
å†™å…¥åœ°å€ 0x8009cfa8
0x80001160: 00 05 00 23 sb	zero, 0(a0)
è¯»å–åœ°å€ 0x80001164
0x80001164: 00 00 80 67 jalr	zero, 0(ra)
è¯»å–åœ°å€ 0x80000da8
è¯»å–åœ°å€ 0x8009cfac
0x80000da8: 00 c1 26 03 lw	a2, 12(sp)
è¯»å–åœ°å€ 0x80000dac
è¯»å–åœ°å€ 0x8009cfa8
0x80000dac: 00 81 47 03 lbu	a4, 8(sp)
è¯»å–åœ°å€ 0x80000db0
0x80000db0: 18 09 05 13 addi	a0, s2, 384
è¯»å–åœ°å€ 0x80000db4
0x80000db4: 00 26 17 93 slli	a5, a2, 2
è¯»å–åœ°å€ 0x80000db8
0x80000db8: 00 f4 07 b3 add	a5, s0, a5
è¯»å–åœ°å€ 0x80000dbc
0x80000dbc: fc 06 16 e3 bne	a2, zero, 0x80000d88
è¯»å–åœ°å€ 0x80000dc0
è¯»å–åœ°å€ 0x80094e28
0x80000dc0: 00 0a c7 83 lbu	a5, 0(s5)
è¯»å–åœ°å€ 0x80000dc4
0x80000dc4: f9 1f f0 6f jal	zero, 0x80000d54
è¯»å–åœ°å€ 0x80000d54
è¯»å–åœ°å€ 0x80094e29
0x80000d54: 00 09 c7 03 lbu	a4, 0(s3)
è¯»å–åœ°å€ 0x80000d58
0x80000d58: 02 07 04 63 beq	a4, zero, 0x80000d80
è¯»å–åœ°å€ 0x80000d80
0x80000d80: 00 07 9e 63 bne	a5, zero, 0x80000d9c
è¯»å–åœ°å€ 0x80000d9c
0x80000d9c: 00 80 05 13 addi	a0, zero, 8
è¯»å–åœ°å€ 0x80000da0
0x80000da0: 00 81 05 93 addi	a1, sp, 8
è¯»å–åœ°å€ 0x80000da4
0x80000da4: 31 00 00 ef jal	ra, 0x800010b4
è¯»å–åœ°å€ 0x800010b4
0x800010b4: 80 01 17 b7 lui	a5, 524305
è¯»å–åœ°å€ 0x800010b8
0x800010b8: 00 25 15 13 slli	a0, a0, 2
è¯»å–åœ°å€ 0x800010bc
0x800010bc: 9f 87 87 93 addi	a5, a5, -1544
è¯»å–åœ°å€ 0x800010c0
0x800010c0: 00 a7 87 b3 add	a5, a5, a0
è¯»å–åœ°å€ 0x800010c4
è¯»å–åœ°å€ 0x80010a18
0x800010c4: 00 07 a7 83 lw	a5, 0(a5)
è¯»å–åœ°å€ 0x800010c8
0x800010c8: 00 05 85 13 addi	a0, a1, 0
è¯»å–åœ°å€ 0x800010cc
0x800010cc: 00 07 80 67 jalr	zero, 0(a5)
è¯»å–åœ°å€ 0x80001134
0x80001134: a0 00 07 b7 lui	a5, 655360
è¯»å–åœ°å€ 0x80001138
read device name = keyboard 	 addr = 0xa0000060 
0x80001138: 06 07 a7 83 lw	a5, 96(a5)
è¯»å–åœ°å€ 0x8000113c
0x8000113c: 00 00 87 37 lui	a4, 8
è¯»å–åœ°å€ 0x80001140
å†™å…¥åœ°å€ 0x8009cfac
0x80001140: 00 f5 22 23 sw	a5, 4(a0)
è¯»å–åœ°å€ 0x80001144
0x80001144: 00 e7 f6 b3 and	a3, a5, a4
è¯»å–åœ°å€ 0x80001148
0x80001148: 00 06 8c 63 beq	a3, zero, 0x80001160
è¯»å–åœ°å€ 0x80001160
å†™å…¥åœ°å€ 0x8009cfa8
0x80001160: 00 05 00 23 sb	zero, 0(a0)
è¯»å–åœ°å€ 0x80001164
0x80001164: 00 00 80 67 jalr	zero, 0(ra)
è¯»å–åœ°å€ 0x80000da8
è¯»å–åœ°å€ 0x8009cfac
0x80000da8: 00 c1 26 03 lw	a2, 12(sp)
è¯»å–åœ°å€ 0x80000dac
è¯»å–åœ°å€ 0x8009cfa8
0x80000dac: 00 81 47 03 lbu	a4, 8(sp)
è¯»å–åœ°å€ 0x80000db0
0x80000db0: 18 09 05 13 addi	a0, s2, 384
è¯»å–åœ°å€ 0x80000db4
0x80000db4: 00 26 17 93 slli	a5, a2, 2
è¯»å–åœ°å€ 0x80000db8
0x80000db8: 00 f4 07 b3 add	a5, s0, a5
è¯»å–åœ°å€ 0x80000dbc
0x80000dbc: fc 06 16 e3 bne	a2, zero, 0x80000d88
è¯»å–åœ°å€ 0x80000dc0
è¯»å–åœ°å€ 0x80094e28
0x80000dc0: 00 0a c7 83 lbu	a5, 0(s5)
è¯»å–åœ°å€ 0x80000dc4
0x80000dc4: f9 1f f0 6f jal	zero, 0x80000d54
è¯»å–åœ°å€ 0x80000d54
è¯»å–åœ°å€ 0x80094e29
0x80000d54: 00 09 c7 03 lbu	a4, 0(s3)
è¯»å–åœ°å€ 0x80000d58
0x80000d58: 02 07 04 63 beq	a4, zero, 0x80000d80
è¯»å–åœ°å€ 0x80000d80
0x80000d80: 00 07 9e 63 bne	a5, zero, 0x80000d9c
è¯»å–åœ°å€ 0x80000d9c
0x80000d9c: 00 80 05 13 addi	a0, zero, 8
è¯»å–åœ°å€ 0x80000da0
0x80000da0: 00 81 05 93 addi	a1, sp, 8
è¯»å–åœ°å€ 0x80000da4
0x80000da4: 31 00 00 ef jal	ra, 0x800010b4
è¯»å–åœ°å€ 0x800010b4
0x800010b4: 80 01 17 b7 lui	a5, 524305
è¯»å–åœ°å€ 0x800010b8
0x800010b8: 00 25 15 13 slli	a0, a0, 2
è¯»å–åœ°å€ 0x800010bc
0x800010bc: 9f 87 87 93 addi	a5, a5, -1544
è¯»å–åœ°å€ 0x800010c0
0x800010c0: 00 a7 87 b3 add	a5, a5, a0
è¯»å–åœ°å€ 0x800010c4
è¯»å–åœ°å€ 0x80010a18
0x800010c4: 00 07 a7 83 lw	a5, 0(a5)
è¯»å–åœ°å€ 0x800010c8
0x800010c8: 00 05 85 13 addi	a0, a1, 0
è¯»å–åœ°å€ 0x800010cc
0x800010cc: 00 07 80 67 jalr	zero, 0(a5)
è¯»å–åœ°å€ 0x80001134
0x80001134: a0 00 07 b7 lui	a5, 655360
è¯»å–åœ°å€ 0x80001138
read device name = keyboard 	 addr = 0xa0000060 
0x80001138: 06 07 a7 83 lw	a5, 96(a5)
è¯»å–åœ°å€ 0x8000113c
0x8000113c: 00 00 87 37 lui	a4, 8
è¯»å–åœ°å€ 0x80001140
å†™å…¥åœ°å€ 0x8009cfac
0x80001140: 00 f5 22 23 sw	a5, 4(a0)
è¯»å–åœ°å€ 0x80001144
0x80001144: 00 e7 f6 b3 and	a3, a5, a4
è¯»å–åœ°å€ 0x80001148
0x80001148: 00 06 8c 63 beq	a3, zero, 0x80001160
è¯»å–åœ°å€ 0x80001160
å†™å…¥åœ°å€ 0x8009cfa8
0x80001160: 00 05 00 23 sb	zero, 0(a0)
è¯»å–åœ°å€ 0x80001164
0x80001164: 00 00 80 67 jalr	zero, 0(ra)
è¯»å–åœ°å€ 0x80000da8
è¯»å–åœ°å€ 0x8009cfac
0x80000da8: 00 c1 26 03 lw	a2, 12(sp)
è¯»å–åœ°å€ 0x80000dac
è¯»å–åœ°å€ 0x8009cfa8
0x80000dac: 00 81 47 03 lbu	a4, 8(sp)
è¯»å–åœ°å€ 0x80000db0
0x80000db0: 18 09 05 13 addi	a0, s2, 384
è¯»å–åœ°å€ 0x80000db4
0x80000db4: 00 26 17 93 slli	a5, a2, 2
è¯»å–åœ°å€ 0x80000db8
0x80000db8: 00 f4 07 b3 add	a5, s0, a5
è¯»å–åœ°å€ 0x80000dbc
0x80000dbc: fc 06 16 e3 bne	a2, zero, 0x80000d88
è¯»å–åœ°å€ 0x80000dc0
è¯»å–åœ°å€ 0x80094e28
0x80000dc0: 00 0a c7 83 lbu	a5, 0(s5)
è¯»å–åœ°å€ 0x80000dc4
0x80000dc4: f9 1f f0 6f jal	zero, 0x80000d54
è¯»å–åœ°å€ 0x80000d54
è¯»å–åœ°å€ 0x80094e29
0x80000d54: 00 09 c7 03 lbu	a4, 0(s3)
è¯»å–åœ°å€ 0x80000d58
0x80000d58: 02 07 04 63 beq	a4, zero, 0x80000d80
è¯»å–åœ°å€ 0x80000d80
0x80000d80: 00 07 9e 63 bne	a5, zero, 0x80000d9c
è¯»å–åœ°å€ 0x80000d9c
0x80000d9c: 00 80 05 13 addi	a0, zero, 8
è¯»å–åœ°å€ 0x80000da0
0x80000da0: 00 81 05 93 addi	a1, sp, 8
è¯»å–åœ°å€ 0x80000da4
0x80000da4: 31 00 00 ef jal	ra, 0x800010b4
è¯»å–åœ°å€ 0x800010b4
0x800010b4: 80 01 17 b7 lui	a5, 524305
è¯»å–åœ°å€ 0x800010b8
0x800010b8: 00 25 15 13 slli	a0, a0, 2
è¯»å–åœ°å€ 0x800010bc
0x800010bc: 9f 87 87 93 addi	a5, a5, -1544
è¯»å–åœ°å€ 0x800010c0
0x800010c0: 00 a7 87 b3 add	a5, a5, a0
è¯»å–åœ°å€ 0x800010c4
è¯»å–åœ°å€ 0x80010a18
0x800010c4: 00 07 a7 83 lw	a5, 0(a5)
è¯»å–åœ°å€ 0x800010c8
0x800010c8: 00 05 85 13 addi	a0, a1, 0
è¯»å–åœ°å€ 0x800010cc
0x800010cc: 00 07 80 67 jalr	zero, 0(a5)
è¯»å–åœ°å€ 0x80001134
0x80001134: a0 00 07 b7 lui	a5, 655360
è¯»å–åœ°å€ 0x80001138
read device name = keyboard 	 addr = 0xa0000060 
0x80001138: 06 07 a7 83 lw	a5, 96(a5)
è¯»å–åœ°å€ 0x8000113c
0x8000113c: 00 00 87 37 lui	a4, 8
è¯»å–åœ°å€ 0x80001140
å†™å…¥åœ°å€ 0x8009cfac
0x80001140: 00 f5 22 23 sw	a5, 4(a0)
è¯»å–åœ°å€ 0x80001144
0x80001144: 00 e7 f6 b3 and	a3, a5, a4
è¯»å–åœ°å€ 0x80001148
0x80001148: 00 06 8c 63 beq	a3, zero, 0x80001160
è¯»å–åœ°å€ 0x80001160
å†™å…¥åœ°å€ 0x8009cfa8
0x80001160: 00 05 00 23 sb	zero, 0(a0)
è¯»å–åœ°å€ 0x80001164
0x80001164: 00 00 80 67 jalr	zero, 0(ra)
è¯»å–åœ°å€ 0x80000da8
è¯»å–åœ°å€ 0x8009cfac
0x80000da8: 00 c1 26 03 lw	a2, 12(sp)
è¯»å–åœ°å€ 0x80000dac
è¯»å–åœ°å€ 0x8009cfa8
0x80000dac: 00 81 47 03 lbu	a4, 8(sp)
è¯»å–åœ°å€ 0x80000db0
0x80000db0: 18 09 05 13 addi	a0, s2, 384
è¯»å–åœ°å€ 0x80000db4
0x80000db4: 00 26 17 93 slli	a5, a2, 2
è¯»å–åœ°å€ 0x80000db8
0x80000db8: 00 f4 07 b3 add	a5, s0, a5
è¯»å–åœ°å€ 0x80000dbc
0x80000dbc: fc 06 16 e3 bne	a2, zero, 0x80000d88
è¯»å–åœ°å€ 0x80000dc0
è¯»å–åœ°å€ 0x80094e28
0x80000dc0: 00 0a c7 83 lbu	a5, 0(s5)
è¯»å–åœ°å€ 0x80000dc4
0x80000dc4: f9 1f f0 6f jal	zero, 0x80000d54
è¯»å–åœ°å€ 0x80000d54
è¯»å–åœ°å€ 0x80094e29
0x80000d54: 00 09 c7 03 lbu	a4, 0(s3)
è¯»å–åœ°å€ 0x80000d58
0x80000d58: 02 07 04 63 beq	a4, zero, 0x80000d80
è¯»å–åœ°å€ 0x80000d80
0x80000d80: 00 07 9e 63 bne	a5, zero, 0x80000d9c
è¯»å–åœ°å€ 0x80000d9c
0x80000d9c: 00 80 05 13 addi	a0, zero, 8
è¯»å–åœ°å€ 0x80000da0
0x80000da0: 00 81 05 93 addi	a1, sp, 8
è¯»å–åœ°å€ 0x80000da4
0x80000da4: 31 00 00 ef jal	ra, 0x800010b4
è¯»å–åœ°å€ 0x800010b4
0x800010b4: 80 01 17 b7 lui	a5, 524305
è¯»å–åœ°å€ 0x800010b8
0x800010b8: 00 25 15 13 slli	a0, a0, 2
è¯»å–åœ°å€ 0x800010bc
0x800010bc: 9f 87 87 93 addi	a5, a5, -1544
è¯»å–åœ°å€ 0x800010c0
0x800010c0: 00 a7 87 b3 add	a5, a5, a0
è¯»å–åœ°å€ 0x800010c4
è¯»å–åœ°å€ 0x80010a18
0x800010c4: 00 07 a7 83 lw	a5, 0(a5)
è¯»å–åœ°å€ 0x800010c8
0x800010c8: 00 05 85 13 addi	a0, a1, 0
è¯»å–åœ°å€ 0x800010cc
0x800010cc: 00 07 80 67 jalr	zero, 0(a5)
è¯»å–åœ°å€ 0x80001134
0x80001134: a0 00 07 b7 lui	a5, 655360
è¯»å–åœ°å€ 0x80001138
read device name = keyboard 	 addr = 0xa0000060 
0x80001138: 06 07 a7 83 lw	a5, 96(a5)
è¯»å–åœ°å€ 0x8000113c
0x8000113c: 00 00 87 37 lui	a4, 8
è¯»å–åœ°å€ 0x80001140
å†™å…¥åœ°å€ 0x8009cfac
0x80001140: 00 f5 22 23 sw	a5, 4(a0)
è¯»å–åœ°å€ 0x80001144
0x80001144: 00 e7 f6 b3 and	a3, a5, a4
è¯»å–åœ°å€ 0x80001148
0x80001148: 00 06 8c 63 beq	a3, zero, 0x80001160
è¯»å–åœ°å€ 0x80001160
å†™å…¥åœ°å€ 0x8009cfa8
0x80001160: 00 05 00 23 sb	zero, 0(a0)
è¯»å–åœ°å€ 0x80001164
0x80001164: 00 00 80 67 jalr	zero, 0(ra)
è¯»å–åœ°å€ 0x80000da8
è¯»å–åœ°å€ 0x8009cfac
0x80000da8: 00 c1 26 03 lw	a2, 12(sp)
è¯»å–åœ°å€ 0x80000dac
è¯»å–åœ°å€ 0x8009cfa8
0x80000dac: 00 81 47 03 lbu	a4, 8(sp)
è¯»å–åœ°å€ 0x80000db0
0x80000db0: 18 09 05 13 addi	a0, s2, 384
è¯»å–åœ°å€ 0x80000db4
0x80000db4: 00 26 17 93 slli	a5, a2, 2
è¯»å–åœ°å€ 0x80000db8
0x80000db8: 00 f4 07 b3 add	a5, s0, a5
è¯»å–åœ°å€ 0x80000dbc
0x80000dbc: fc 06 16 e3 bne	a2, zero, 0x80000d88
è¯»å–åœ°å€ 0x80000dc0
è¯»å–åœ°å€ 0x80094e28
0x80000dc0: 00 0a c7 83 lbu	a5, 0(s5)
è¯»å–åœ°å€ 0x80000dc4
0x80000dc4: f9 1f f0 6f jal	zero, 0x80000d54
è¯»å–åœ°å€ 0x80000d54
è¯»å–åœ°å€ 0x80094e29
0x80000d54: 00 09 c7 03 lbu	a4, 0(s3)
è¯»å–åœ°å€ 0x80000d58
0x80000d58: 02 07 04 63 beq	a4, zero, 0x80000d80
è¯»å–åœ°å€ 0x80000d80
0x80000d80: 00 07 9e 63 bne	a5, zero, 0x80000d9c
è¯»å–åœ°å€ 0x80000d9c
0x80000d9c: 00 80 05 13 addi	a0, zero, 8
è¯»å–åœ°å€ 0x80000da0
0x80000da0: 00 81 05 93 addi	a1, sp, 8
è¯»å–åœ°å€ 0x80000da4
0x80000da4: 31 00 00 ef jal	ra, 0x800010b4
è¯»å–åœ°å€ 0x800010b4
0x800010b4: 80 01 17 b7 lui	a5, 524305
è¯»å–åœ°å€ 0x800010b8
0x800010b8: 00 25 15 13 slli	a0, a0, 2
è¯»å–åœ°å€ 0x800010bc
0x800010bc: 9f 87 87 93 addi	a5, a5, -1544
è¯»å–åœ°å€ 0x800010c0
0x800010c0: 00 a7 87 b3 add	a5, a5, a0
è¯»å–åœ°å€ 0x800010c4
è¯»å–åœ°å€ 0x80010a18
0x800010c4: 00 07 a7 83 lw	a5, 0(a5)
è¯»å–åœ°å€ 0x800010c8
0x800010c8: 00 05 85 13 addi	a0, a1, 0
è¯»å–åœ°å€ 0x800010cc
0x800010cc: 00 07 80 67 jalr	zero, 0(a5)
è¯»å–åœ°å€ 0x80001134
0x80001134: a0 00 07 b7 lui	a5, 655360
è¯»å–åœ°å€ 0x80001138
read device name = keyboard 	 addr = 0xa0000060 
0x80001138: 06 07 a7 83 lw	a5, 96(a5)
è¯»å–åœ°å€ 0x8000113c
0x8000113c: 00 00 87 37 lui	a4, 8
è¯»å–åœ°å€ 0x80001140
å†™å…¥åœ°å€ 0x8009cfac
0x80001140: 00 f5 22 23 sw	a5, 4(a0)
è¯»å–åœ°å€ 0x80001144
0x80001144: 00 e7 f6 b3 and	a3, a5, a4
è¯»å–åœ°å€ 0x80001148
0x80001148: 00 06 8c 63 beq	a3, zero, 0x80001160
è¯»å–åœ°å€ 0x80001160
å†™å…¥åœ°å€ 0x8009cfa8
0x80001160: 00 05 00 23 sb	zero, 0(a0)
è¯»å–åœ°å€ 0x80001164
0x80001164: 00 00 80 67 jalr	zero, 0(ra)
è¯»å–åœ°å€ 0x80000da8
è¯»å–åœ°å€ 0x8009cfac
0x80000da8: 00 c1 26 03 lw	a2, 12(sp)
è¯»å–åœ°å€ 0x80000dac
è¯»å–åœ°å€ 0x8009cfa8
0x80000dac: 00 81 47 03 lbu	a4, 8(sp)
è¯»å–åœ°å€ 0x80000db0
0x80000db0: 18 09 05 13 addi	a0, s2, 384
è¯»å–åœ°å€ 0x80000db4
0x80000db4: 00 26 17 93 slli	a5, a2, 2
è¯»å–åœ°å€ 0x80000db8
0x80000db8: 00 f4 07 b3 add	a5, s0, a5
è¯»å–åœ°å€ 0x80000dbc
0x80000dbc: fc 06 16 e3 bne	a2, zero, 0x80000d88
è¯»å–åœ°å€ 0x80000dc0
è¯»å–åœ°å€ 0x80094e28
0x80000dc0: 00 0a c7 83 lbu	a5, 0(s5)
è¯»å–åœ°å€ 0x80000dc4
0x80000dc4: f9 1f f0 6f jal	zero, 0x80000d54
è¯»å–åœ°å€ 0x80000d54
è¯»å–åœ°å€ 0x80094e29
0x80000d54: 00 09 c7 03 lbu	a4, 0(s3)
è¯»å–åœ°å€ 0x80000d58
0x80000d58: 02 07 04 63 beq	a4, zero, 0x80000d80
è¯»å–åœ°å€ 0x80000d80
0x80000d80: 00 07 9e 63 bne	a5, zero, 0x80000d9c
è¯»å–åœ°å€ 0x80000d9c
0x80000d9c: 00 80 05 13 addi	a0, zero, 8
è¯»å–åœ°å€ 0x80000da0
0x80000da0: 00 81 05 93 addi	a1, sp, 8
è¯»å–åœ°å€ 0x80000da4
0x80000da4: 31 00 00 ef jal	ra, 0x800010b4
è¯»å–åœ°å€ 0x800010b4
0x800010b4: 80 01 17 b7 lui	a5, 524305
è¯»å–åœ°å€ 0x800010b8
0x800010b8: 00 25 15 13 slli	a0, a0, 2
è¯»å–åœ°å€ 0x800010bc
0x800010bc: 9f 87 87 93 addi	a5, a5, -1544
è¯»å–åœ°å€ 0x800010c0
0x800010c0: 00 a7 87 b3 add	a5, a5, a0
è¯»å–åœ°å€ 0x800010c4
è¯»å–åœ°å€ 0x80010a18
0x800010c4: 00 07 a7 83 lw	a5, 0(a5)
è¯»å–åœ°å€ 0x800010c8
0x800010c8: 00 05 85 13 addi	a0, a1, 0
è¯»å–åœ°å€ 0x800010cc
0x800010cc: 00 07 80 67 jalr	zero, 0(a5)
è¯»å–åœ°å€ 0x80001134
0x80001134: a0 00 07 b7 lui	a5, 655360
è¯»å–åœ°å€ 0x80001138
read device name = keyboard 	 addr = 0xa0000060 
0x80001138: 06 07 a7 83 lw	a5, 96(a5)
è¯»å–åœ°å€ 0x8000113c
0x8000113c: 00 00 87 37 lui	a4, 8
è¯»å–åœ°å€ 0x80001140
å†™å…¥åœ°å€ 0x8009cfac
0x80001140: 00 f5 22 23 sw	a5, 4(a0)
è¯»å–åœ°å€ 0x80001144
0x80001144: 00 e7 f6 b3 and	a3, a5, a4
è¯»å–åœ°å€ 0x80001148
0x80001148: 00 06 8c 63 beq	a3, zero, 0x80001160
è¯»å–åœ°å€ 0x80001160
å†™å…¥åœ°å€ 0x8009cfa8
0x80001160: 00 05 00 23 sb	zero, 0(a0)
è¯»å–åœ°å€ 0x80001164
0x80001164: 00 00 80 67 jalr	zero, 0(ra)
è¯»å–åœ°å€ 0x80000da8
è¯»å–åœ°å€ 0x8009cfac
0x80000da8: 00 c1 26 03 lw	a2, 12(sp)
è¯»å–åœ°å€ 0x80000dac
è¯»å–åœ°å€ 0x8009cfa8
0x80000dac: 00 81 47 03 lbu	a4, 8(sp)
è¯»å–åœ°å€ 0x80000db0
0x80000db0: 18 09 05 13 addi	a0, s2, 384
è¯»å–åœ°å€ 0x80000db4
0x80000db4: 00 26 17 93 slli	a5, a2, 2
è¯»å–åœ°å€ 0x80000db8
0x80000db8: 00 f4 07 b3 add	a5, s0, a5
è¯»å–åœ°å€ 0x80000dbc
0x80000dbc: fc 06 16 e3 bne	a2, zero, 0x80000d88
è¯»å–åœ°å€ 0x80000dc0
è¯»å–åœ°å€ 0x80094e28
0x80000dc0: 00 0a c7 83 lbu	a5, 0(s5)
è¯»å–åœ°å€ 0x80000dc4
0x80000dc4: f9 1f f0 6f jal	zero, 0x80000d54
è¯»å–åœ°å€ 0x80000d54
è¯»å–åœ°å€ 0x80094e29
0x80000d54: 00 09 c7 03 lbu	a4, 0(s3)
è¯»å–åœ°å€ 0x80000d58
0x80000d58: 02 07 04 63 beq	a4, zero, 0x80000d80
è¯»å–åœ°å€ 0x80000d80
0x80000d80: 00 07 9e 63 bne	a5, zero, 0x80000d9c
è¯»å–åœ°å€ 0x80000d9c
0x80000d9c: 00 80 05 13 addi	a0, zero, 8
è¯»å–åœ°å€ 0x80000da0
0x80000da0: 00 81 05 93 addi	a1, sp, 8
è¯»å–åœ°å€ 0x80000da4
0x80000da4: 31 00 00 ef jal	ra, 0x800010b4
è¯»å–åœ°å€ 0x800010b4
0x800010b4: 80 01 17 b7 lui	a5, 524305
è¯»å–åœ°å€ 0x800010b8
0x800010b8: 00 25 15 13 slli	a0, a0, 2
è¯»å–åœ°å€ 0x800010bc
0x800010bc: 9f 87 87 93 addi	a5, a5, -1544
è¯»å–åœ°å€ 0x800010c0
0x800010c0: 00 a7 87 b3 add	a5, a5, a0
è¯»å–åœ°å€ 0x800010c4
è¯»å–åœ°å€ 0x80010a18
0x800010c4: 00 07 a7 83 lw	a5, 0(a5)
è¯»å–åœ°å€ 0x800010c8
0x800010c8: 00 05 85 13 addi	a0, a1, 0
è¯»å–åœ°å€ 0x800010cc
0x800010cc: 00 07 80 67 jalr	zero, 0(a5)
è¯»å–åœ°å€ 0x80001134
0x80001134: a0 00 07 b7 lui	a5, 655360
è¯»å–åœ°å€ 0x80001138
read device name = keyboard 	 addr = 0xa0000060 
0x80001138: 06 07 a7 83 lw	a5, 96(a5)
è¯»å–åœ°å€ 0x8000113c
0x8000113c: 00 00 87 37 lui	a4, 8
è¯»å–åœ°å€ 0x80001140
å†™å…¥åœ°å€ 0x8009cfac
0x80001140: 00 f5 22 23 sw	a5, 4(a0)
è¯»å–åœ°å€ 0x80001144
0x80001144: 00 e7 f6 b3 and	a3, a5, a4
è¯»å–åœ°å€ 0x80001148
0x80001148: 00 06 8c 63 beq	a3, zero, 0x80001160
è¯»å–åœ°å€ 0x80001160
å†™å…¥åœ°å€ 0x8009cfa8
0x80001160: 00 05 00 23 sb	zero, 0(a0)
è¯»å–åœ°å€ 0x80001164
0x80001164: 00 00 80 67 jalr	zero, 0(ra)
è¯»å–åœ°å€ 0x80000da8
è¯»å–åœ°å€ 0x8009cfac
0x80000da8: 00 c1 26 03 lw	a2, 12(sp)
è¯»å–åœ°å€ 0x80000dac
è¯»å–åœ°å€ 0x8009cfa8
0x80000dac: 00 81 47 03 lbu	a4, 8(sp)
è¯»å–åœ°å€ 0x80000db0
0x80000db0: 18 09 05 13 addi	a0, s2, 384
è¯»å–åœ°å€ 0x80000db4
0x80000db4: 00 26 17 93 slli	a5, a2, 2
è¯»å–åœ°å€ 0x80000db8
0x80000db8: 00 f4 07 b3 add	a5, s0, a5
è¯»å–åœ°å€ 0x80000dbc
0x80000dbc: fc 06 16 e3 bne	a2, zero, 0x80000d88
è¯»å–åœ°å€ 0x80000dc0
è¯»å–åœ°å€ 0x80094e28
0x80000dc0: 00 0a c7 83 lbu	a5, 0(s5)
è¯»å–åœ°å€ 0x80000dc4
0x80000dc4: f9 1f f0 6f jal	zero, 0x80000d54
è¯»å–åœ°å€ 0x80000d54
è¯»å–åœ°å€ 0x80094e29
0x80000d54: 00 09 c7 03 lbu	a4, 0(s3)
è¯»å–åœ°å€ 0x80000d58
0x80000d58: 02 07 04 63 beq	a4, zero, 0x80000d80
è¯»å–åœ°å€ 0x80000d80
0x80000d80: 00 07 9e 63 bne	a5, zero, 0x80000d9c
è¯»å–åœ°å€ 0x80000d9c
0x80000d9c: 00 80 05 13 addi	a0, zero, 8
è¯»å–åœ°å€ 0x80000da0
0x80000da0: 00 81 05 93 addi	a1, sp, 8
è¯»å–åœ°å€ 0x80000da4
0x80000da4: 31 00 00 ef jal	ra, 0x800010b4
è¯»å–åœ°å€ 0x800010b4
0x800010b4: 80 01 17 b7 lui	a5, 524305
è¯»å–åœ°å€ 0x800010b8
0x800010b8: 00 25 15 13 slli	a0, a0, 2
è¯»å–åœ°å€ 0x800010bc
0x800010bc: 9f 87 87 93 addi	a5, a5, -1544
è¯»å–åœ°å€ 0x800010c0
0x800010c0: 00 a7 87 b3 add	a5, a5, a0
è¯»å–åœ°å€ 0x800010c4
è¯»å–åœ°å€ 0x80010a18
0x800010c4: 00 07 a7 83 lw	a5, 0(a5)
è¯»å–åœ°å€ 0x800010c8
0x800010c8: 00 05 85 13 addi	a0, a1, 0
è¯»å–åœ°å€ 0x800010cc
0x800010cc: 00 07 80 67 jalr	zero, 0(a5)
è¯»å–åœ°å€ 0x80001134
0x80001134: a0 00 07 b7 lui	a5, 655360
è¯»å–åœ°å€ 0x80001138
read device name = keyboard 	 addr = 0xa0000060 
0x80001138: 06 07 a7 83 lw	a5, 96(a5)
è¯»å–åœ°å€ 0x8000113c
0x8000113c: 00 00 87 37 lui	a4, 8
è¯»å–åœ°å€ 0x80001140
å†™å…¥åœ°å€ 0x8009cfac
0x80001140: 00 f5 22 23 sw	a5, 4(a0)
è¯»å–åœ°å€ 0x80001144
0x80001144: 00 e7 f6 b3 and	a3, a5, a4
è¯»å–åœ°å€ 0x80001148
0x80001148: 00 06 8c 63 beq	a3, zero, 0x80001160
è¯»å–åœ°å€ 0x80001160
å†™å…¥åœ°å€ 0x8009cfa8
0x80001160: 00 05 00 23 sb	zero, 0(a0)
è¯»å–åœ°å€ 0x80001164
0x80001164: 00 00 80 67 jalr	zero, 0(ra)
è¯»å–åœ°å€ 0x80000da8
è¯»å–åœ°å€ 0x8009cfac
0x80000da8: 00 c1 26 03 lw	a2, 12(sp)
è¯»å–åœ°å€ 0x80000dac
è¯»å–åœ°å€ 0x8009cfa8
0x80000dac: 00 81 47 03 lbu	a4, 8(sp)
è¯»å–åœ°å€ 0x80000db0
0x80000db0: 18 09 05 13 addi	a0, s2, 384
è¯»å–åœ°å€ 0x80000db4
0x80000db4: 00 26 17 93 slli	a5, a2, 2
è¯»å–åœ°å€ 0x80000db8
0x80000db8: 00 f4 07 b3 add	a5, s0, a5
è¯»å–åœ°å€ 0x80000dbc
0x80000dbc: fc 06 16 e3 bne	a2, zero, 0x80000d88
è¯»å–åœ°å€ 0x80000dc0
è¯»å–åœ°å€ 0x80094e28
0x80000dc0: 00 0a c7 83 lbu	a5, 0(s5)
è¯»å–åœ°å€ 0x80000dc4
0x80000dc4: f9 1f f0 6f jal	zero, 0x80000d54
è¯»å–åœ°å€ 0x80000d54
è¯»å–åœ°å€ 0x80094e29
0x80000d54: 00 09 c7 03 lbu	a4, 0(s3)
è¯»å–åœ°å€ 0x80000d58
0x80000d58: 02 07 04 63 beq	a4, zero, 0x80000d80
è¯»å–åœ°å€ 0x80000d80
0x80000d80: 00 07 9e 63 bne	a5, zero, 0x80000d9c
è¯»å–åœ°å€ 0x80000d9c
0x80000d9c: 00 80 05 13 addi	a0, zero, 8
è¯»å–åœ°å€ 0x80000da0
0x80000da0: 00 81 05 93 addi	a1, sp, 8
è¯»å–åœ°å€ 0x80000da4
0x80000da4: 31 00 00 ef jal	ra, 0x800010b4
è¯»å–åœ°å€ 0x800010b4
0x800010b4: 80 01 17 b7 lui	a5, 524305
è¯»å–åœ°å€ 0x800010b8
0x800010b8: 00 25 15 13 slli	a0, a0, 2
è¯»å–åœ°å€ 0x800010bc
0x800010bc: 9f 87 87 93 addi	a5, a5, -1544
è¯»å–åœ°å€ 0x800010c0
0x800010c0: 00 a7 87 b3 add	a5, a5, a0
è¯»å–åœ°å€ 0x800010c4
è¯»å–åœ°å€ 0x80010a18
0x800010c4: 00 07 a7 83 lw	a5, 0(a5)
è¯»å–åœ°å€ 0x800010c8
0x800010c8: 00 05 85 13 addi	a0, a1, 0
è¯»å–åœ°å€ 0x800010cc
0x800010cc: 00 07 80 67 jalr	zero, 0(a5)
è¯»å–åœ°å€ 0x80001134
0x80001134: a0 00 07 b7 lui	a5, 655360
è¯»å–åœ°å€ 0x80001138
read device name = keyboard 	 addr = 0xa0000060 
0x80001138: 06 07 a7 83 lw	a5, 96(a5)
è¯»å–åœ°å€ 0x8000113c
0x8000113c: 00 00 87 37 lui	a4, 8
è¯»å–åœ°å€ 0x80001140
å†™å…¥åœ°å€ 0x8009cfac
0x80001140: 00 f5 22 23 sw	a5, 4(a0)
è¯»å–åœ°å€ 0x80001144
0x80001144: 00 e7 f6 b3 and	a3, a5, a4
è¯»å–åœ°å€ 0x80001148
0x80001148: 00 06 8c 63 beq	a3, zero, 0x80001160
è¯»å–åœ°å€ 0x80001160
å†™å…¥åœ°å€ 0x8009cfa8
0x80001160: 00 05 00 23 sb	zero, 0(a0)
è¯»å–åœ°å€ 0x80001164
0x80001164: 00 00 80 67 jalr	zero, 0(ra)
è¯»å–åœ°å€ 0x80000da8
è¯»å–åœ°å€ 0x8009cfac
0x80000da8: 00 c1 26 03 lw	a2, 12(sp)
è¯»å–åœ°å€ 0x80000dac
è¯»å–åœ°å€ 0x8009cfa8
0x80000dac: 00 81 47 03 lbu	a4, 8(sp)
è¯»å–åœ°å€ 0x80000db0
0x80000db0: 18 09 05 13 addi	a0, s2, 384
è¯»å–åœ°å€ 0x80000db4
0x80000db4: 00 26 17 93 slli	a5, a2, 2
è¯»å–åœ°å€ 0x80000db8
0x80000db8: 00 f4 07 b3 add	a5, s0, a5
è¯»å–åœ°å€ 0x80000dbc
0x80000dbc: fc 06 16 e3 bne	a2, zero, 0x80000d88
è¯»å–åœ°å€ 0x80000dc0
è¯»å–åœ°å€ 0x80094e28
0x80000dc0: 00 0a c7 83 lbu	a5, 0(s5)
è¯»å–åœ°å€ 0x80000dc4
0x80000dc4: f9 1f f0 6f jal	zero, 0x80000d54
è¯»å–åœ°å€ 0x80000d54
è¯»å–åœ°å€ 0x80094e29
0x80000d54: 00 09 c7 03 lbu	a4, 0(s3)
è¯»å–åœ°å€ 0x80000d58
0x80000d58: 02 07 04 63 beq	a4, zero, 0x80000d80
è¯»å–åœ°å€ 0x80000d80
0x80000d80: 00 07 9e 63 bne	a5, zero, 0x80000d9c
è¯»å–åœ°å€ 0x80000d9c
0x80000d9c: 00 80 05 13 addi	a0, zero, 8
è¯»å–åœ°å€ 0x80000da0
0x80000da0: 00 81 05 93 addi	a1, sp, 8
è¯»å–åœ°å€ 0x80000da4
0x80000da4: 31 00 00 ef jal	ra, 0x800010b4
è¯»å–åœ°å€ 0x800010b4
0x800010b4: 80 01 17 b7 lui	a5, 524305
è¯»å–åœ°å€ 0x800010b8
0x800010b8: 00 25 15 13 slli	a0, a0, 2
è¯»å–åœ°å€ 0x800010bc
0x800010bc: 9f 87 87 93 addi	a5, a5, -1544
è¯»å–åœ°å€ 0x800010c0
0x800010c0: 00 a7 87 b3 add	a5, a5, a0
è¯»å–åœ°å€ 0x800010c4
è¯»å–åœ°å€ 0x80010a18
0x800010c4: 00 07 a7 83 lw	a5, 0(a5)
è¯»å–åœ°å€ 0x800010c8
0x800010c8: 00 05 85 13 addi	a0, a1, 0
è¯»å–åœ°å€ 0x800010cc
0x800010cc: 00 07 80 67 jalr	zero, 0(a5)
è¯»å–åœ°å€ 0x80001134
0x80001134: a0 00 07 b7 lui	a5, 655360
è¯»å–åœ°å€ 0x80001138
read device name = keyboard 	 addr = 0xa0000060 
0x80001138: 06 07 a7 83 lw	a5, 96(a5)
è¯»å–åœ°å€ 0x8000113c
0x8000113c: 00 00 87 37 lui	a4, 8
è¯»å–åœ°å€ 0x80001140
å†™å…¥åœ°å€ 0x8009cfac
0x80001140: 00 f5 22 23 sw	a5, 4(a0)
è¯»å–åœ°å€ 0x80001144
0x80001144: 00 e7 f6 b3 and	a3, a5, a4
è¯»å–åœ°å€ 0x80001148
0x80001148: 00 06 8c 63 beq	a3, zero, 0x80001160
è¯»å–åœ°å€ 0x80001160
å†™å…¥åœ°å€ 0x8009cfa8
0x80001160: 00 05 00 23 sb	zero, 0(a0)
è¯»å–åœ°å€ 0x80001164
0x80001164: 00 00 80 67 jalr	zero, 0(ra)
è¯»å–åœ°å€ 0x80000da8
è¯»å–åœ°å€ 0x8009cfac
0x80000da8: 00 c1 26 03 lw	a2, 12(sp)
è¯»å–åœ°å€ 0x80000dac
è¯»å–åœ°å€ 0x8009cfa8
0x80000dac: 00 81 47 03 lbu	a4, 8(sp)
è¯»å–åœ°å€ 0x80000db0
0x80000db0: 18 09 05 13 addi	a0, s2, 384
è¯»å–åœ°å€ 0x80000db4
0x80000db4: 00 26 17 93 slli	a5, a2, 2
è¯»å–åœ°å€ 0x80000db8
0x80000db8: 00 f4 07 b3 add	a5, s0, a5
è¯»å–åœ°å€ 0x80000dbc
0x80000dbc: fc 06 16 e3 bne	a2, zero, 0x80000d88
è¯»å–åœ°å€ 0x80000dc0
è¯»å–åœ°å€ 0x80094e28
0x80000dc0: 00 0a c7 83 lbu	a5, 0(s5)
è¯»å–åœ°å€ 0x80000dc4
0x80000dc4: f9 1f f0 6f jal	zero, 0x80000d54
è¯»å–åœ°å€ 0x80000d54
è¯»å–åœ°å€ 0x80094e29
0x80000d54: 00 09 c7 03 lbu	a4, 0(s3)
è¯»å–åœ°å€ 0x80000d58
0x80000d58: 02 07 04 63 beq	a4, zero, 0x80000d80
è¯»å–åœ°å€ 0x80000d80
0x80000d80: 00 07 9e 63 bne	a5, zero, 0x80000d9c
è¯»å–åœ°å€ 0x80000d9c
0x80000d9c: 00 80 05 13 addi	a0, zero, 8
è¯»å–åœ°å€ 0x80000da0
0x80000da0: 00 81 05 93 addi	a1, sp, 8
è¯»å–åœ°å€ 0x80000da4
0x80000da4: 31 00 00 ef jal	ra, 0x800010b4
è¯»å–åœ°å€ 0x800010b4
0x800010b4: 80 01 17 b7 lui	a5, 524305
è¯»å–åœ°å€ 0x800010b8
0x800010b8: 00 25 15 13 slli	a0, a0, 2
è¯»å–åœ°å€ 0x800010bc
0x800010bc: 9f 87 87 93 addi	a5, a5, -1544
è¯»å–åœ°å€ 0x800010c0
0x800010c0: 00 a7 87 b3 add	a5, a5, a0
è¯»å–åœ°å€ 0x800010c4
è¯»å–åœ°å€ 0x80010a18
0x800010c4: 00 07 a7 83 lw	a5, 0(a5)
è¯»å–åœ°å€ 0x800010c8
0x800010c8: 00 05 85 13 addi	a0, a1, 0
è¯»å–åœ°å€ 0x800010cc
0x800010cc: 00 07 80 67 jalr	zero, 0(a5)
è¯»å–åœ°å€ 0x80001134
0x80001134: a0 00 07 b7 lui	a5, 655360
è¯»å–åœ°å€ 0x80001138
read device name = keyboard 	 addr = 0xa0000060 
0x80001138: 06 07 a7 83 lw	a5, 96(a5)
è¯»å–åœ°å€ 0x8000113c
0x8000113c: 00 00 87 37 lui	a4, 8
è¯»å–åœ°å€ 0x80001140
å†™å…¥åœ°å€ 0x8009cfac
0x80001140: 00 f5 22 23 sw	a5, 4(a0)
è¯»å–åœ°å€ 0x80001144
0x80001144: 00 e7 f6 b3 and	a3, a5, a4
è¯»å–åœ°å€ 0x80001148
0x80001148: 00 06 8c 63 beq	a3, zero, 0x80001160
è¯»å–åœ°å€ 0x80001160
å†™å…¥åœ°å€ 0x8009cfa8
0x80001160: 00 05 00 23 sb	zero, 0(a0)
è¯»å–åœ°å€ 0x80001164
0x80001164: 00 00 80 67 jalr	zero, 0(ra)
è¯»å–åœ°å€ 0x80000da8
è¯»å–åœ°å€ 0x8009cfac
0x80000da8: 00 c1 26 03 lw	a2, 12(sp)
è¯»å–åœ°å€ 0x80000dac
è¯»å–åœ°å€ 0x8009cfa8
0x80000dac: 00 81 47 03 lbu	a4, 8(sp)
è¯»å–åœ°å€ 0x80000db0
0x80000db0: 18 09 05 13 addi	a0, s2, 384
è¯»å–åœ°å€ 0x80000db4
0x80000db4: 00 26 17 93 slli	a5, a2, 2
è¯»å–åœ°å€ 0x80000db8
0x80000db8: 00 f4 07 b3 add	a5, s0, a5
è¯»å–åœ°å€ 0x80000dbc
0x80000dbc: fc 06 16 e3 bne	a2, zero, 0x80000d88
è¯»å–åœ°å€ 0x80000dc0
è¯»å–åœ°å€ 0x80094e28
0x80000dc0: 00 0a c7 83 lbu	a5, 0(s5)
è¯»å–åœ°å€ 0x80000dc4
0x80000dc4: f9 1f f0 6f jal	zero, 0x80000d54
è¯»å–åœ°å€ 0x80000d54
è¯»å–åœ°å€ 0x80094e29
0x80000d54: 00 09 c7 03 lbu	a4, 0(s3)
è¯»å–åœ°å€ 0x80000d58
0x80000d58: 02 07 04 63 beq	a4, zero, 0x80000d80
è¯»å–åœ°å€ 0x80000d80
0x80000d80: 00 07 9e 63 bne	a5, zero, 0x80000d9c
è¯»å–åœ°å€ 0x80000d9c
0x80000d9c: 00 80 05 13 addi	a0, zero, 8
è¯»å–åœ°å€ 0x80000da0
0x80000da0: 00 81 05 93 addi	a1, sp, 8
è¯»å–åœ°å€ 0x80000da4
0x80000da4: 31 00 00 ef jal	ra, 0x800010b4
è¯»å–åœ°å€ 0x800010b4
0x800010b4: 80 01 17 b7 lui	a5, 524305
è¯»å–åœ°å€ 0x800010b8
0x800010b8: 00 25 15 13 slli	a0, a0, 2
è¯»å–åœ°å€ 0x800010bc
0x800010bc: 9f 87 87 93 addi	a5, a5, -1544
è¯»å–åœ°å€ 0x800010c0
0x800010c0: 00 a7 87 b3 add	a5, a5, a0
è¯»å–åœ°å€ 0x800010c4
è¯»å–åœ°å€ 0x80010a18
0x800010c4: 00 07 a7 83 lw	a5, 0(a5)
è¯»å–åœ°å€ 0x800010c8
0x800010c8: 00 05 85 13 addi	a0, a1, 0
è¯»å–åœ°å€ 0x800010cc
0x800010cc: 00 07 80 67 jalr	zero, 0(a5)
è¯»å–åœ°å€ 0x80001134
0x80001134: a0 00 07 b7 lui	a5, 655360
è¯»å–åœ°å€ 0x80001138
read device name = keyboard 	 addr = 0xa0000060 
0x80001138: 06 07 a7 83 lw	a5, 96(a5)
è¯»å–åœ°å€ 0x8000113c
0x8000113c: 00 00 87 37 lui	a4, 8
è¯»å–åœ°å€ 0x80001140
å†™å…¥åœ°å€ 0x8009cfac
0x80001140: 00 f5 22 23 sw	a5, 4(a0)
è¯»å–åœ°å€ 0x80001144
0x80001144: 00 e7 f6 b3 and	a3, a5, a4
è¯»å–åœ°å€ 0x80001148
0x80001148: 00 06 8c 63 beq	a3, zero, 0x80001160
è¯»å–åœ°å€ 0x80001160
å†™å…¥åœ°å€ 0x8009cfa8
0x80001160: 00 05 00 23 sb	zero, 0(a0)
è¯»å–åœ°å€ 0x80001164
0x80001164: 00 00 80 67 jalr	zero, 0(ra)
è¯»å–åœ°å€ 0x80000da8
è¯»å–åœ°å€ 0x8009cfac
0x80000da8: 00 c1 26 03 lw	a2, 12(sp)
è¯»å–åœ°å€ 0x80000dac
è¯»å–åœ°å€ 0x8009cfa8
0x80000dac: 00 81 47 03 lbu	a4, 8(sp)
è¯»å–åœ°å€ 0x80000db0
0x80000db0: 18 09 05 13 addi	a0, s2, 384
è¯»å–åœ°å€ 0x80000db4
0x80000db4: 00 26 17 93 slli	a5, a2, 2
è¯»å–åœ°å€ 0x80000db8
0x80000db8: 00 f4 07 b3 add	a5, s0, a5
è¯»å–åœ°å€ 0x80000dbc
0x80000dbc: fc 06 16 e3 bne	a2, zero, 0x80000d88
è¯»å–åœ°å€ 0x80000dc0
è¯»å–åœ°å€ 0x80094e28
0x80000dc0: 00 0a c7 83 lbu	a5, 0(s5)
è¯»å–åœ°å€ 0x80000dc4
0x80000dc4: f9 1f f0 6f jal	zero, 0x80000d54
è¯»å–åœ°å€ 0x80000d54
è¯»å–åœ°å€ 0x80094e29
0x80000d54: 00 09 c7 03 lbu	a4, 0(s3)
è¯»å–åœ°å€ 0x80000d58
0x80000d58: 02 07 04 63 beq	a4, zero, 0x80000d80
è¯»å–åœ°å€ 0x80000d80
0x80000d80: 00 07 9e 63 bne	a5, zero, 0x80000d9c
è¯»å–åœ°å€ 0x80000d9c
0x80000d9c: 00 80 05 13 addi	a0, zero, 8
è¯»å–åœ°å€ 0x80000da0
0x80000da0: 00 81 05 93 addi	a1, sp, 8
è¯»å–åœ°å€ 0x80000da4
0x80000da4: 31 00 00 ef jal	ra, 0x800010b4
è¯»å–åœ°å€ 0x800010b4
0x800010b4: 80 01 17 b7 lui	a5, 524305
è¯»å–åœ°å€ 0x800010b8
0x800010b8: 00 25 15 13 slli	a0, a0, 2
è¯»å–åœ°å€ 0x800010bc
0x800010bc: 9f 87 87 93 addi	a5, a5, -1544
è¯»å–åœ°å€ 0x800010c0
0x800010c0: 00 a7 87 b3 add	a5, a5, a0
è¯»å–åœ°å€ 0x800010c4
è¯»å–åœ°å€ 0x80010a18
0x800010c4: 00 07 a7 83 lw	a5, 0(a5)
è¯»å–åœ°å€ 0x800010c8
0x800010c8: 00 05 85 13 addi	a0, a1, 0
è¯»å–åœ°å€ 0x800010cc
0x800010cc: 00 07 80 67 jalr	zero, 0(a5)
è¯»å–åœ°å€ 0x80001134
0x80001134: a0 00 07 b7 lui	a5, 655360
è¯»å–åœ°å€ 0x80001138
read device name = keyboard 	 addr = 0xa0000060 
0x80001138: 06 07 a7 83 lw	a5, 96(a5)
è¯»å–åœ°å€ 0x8000113c
0x8000113c: 00 00 87 37 lui	a4, 8
è¯»å–åœ°å€ 0x80001140
å†™å…¥åœ°å€ 0x8009cfac
0x80001140: 00 f5 22 23 sw	a5, 4(a0)
è¯»å–åœ°å€ 0x80001144
0x80001144: 00 e7 f6 b3 and	a3, a5, a4
è¯»å–åœ°å€ 0x80001148
0x80001148: 00 06 8c 63 beq	a3, zero, 0x80001160
è¯»å–åœ°å€ 0x80001160
å†™å…¥åœ°å€ 0x8009cfa8
0x80001160: 00 05 00 23 sb	zero, 0(a0)
è¯»å–åœ°å€ 0x80001164
0x80001164: 00 00 80 67 jalr	zero, 0(ra)
è¯»å–åœ°å€ 0x80000da8
è¯»å–åœ°å€ 0x8009cfac
0x80000da8: 00 c1 26 03 lw	a2, 12(sp)
è¯»å–åœ°å€ 0x80000dac
è¯»å–åœ°å€ 0x8009cfa8
0x80000dac: 00 81 47 03 lbu	a4, 8(sp)
è¯»å–åœ°å€ 0x80000db0
0x80000db0: 18 09 05 13 addi	a0, s2, 384
è¯»å–åœ°å€ 0x80000db4
0x80000db4: 00 26 17 93 slli	a5, a2, 2
è¯»å–åœ°å€ 0x80000db8
0x80000db8: 00 f4 07 b3 add	a5, s0, a5
è¯»å–åœ°å€ 0x80000dbc
0x80000dbc: fc 06 16 e3 bne	a2, zero, 0x80000d88
è¯»å–åœ°å€ 0x80000dc0
è¯»å–åœ°å€ 0x80094e28
0x80000dc0: 00 0a c7 83 lbu	a5, 0(s5)
è¯»å–åœ°å€ 0x80000dc4
0x80000dc4: f9 1f f0 6f jal	zero, 0x80000d54
è¯»å–åœ°å€ 0x80000d54
è¯»å–åœ°å€ 0x80094e29
0x80000d54: 00 09 c7 03 lbu	a4, 0(s3)
è¯»å–åœ°å€ 0x80000d58
0x80000d58: 02 07 04 63 beq	a4, zero, 0x80000d80
è¯»å–åœ°å€ 0x80000d80
0x80000d80: 00 07 9e 63 bne	a5, zero, 0x80000d9c
è¯»å–åœ°å€ 0x80000d9c
0x80000d9c: 00 80 05 13 addi	a0, zero, 8
è¯»å–åœ°å€ 0x80000da0
0x80000da0: 00 81 05 93 addi	a1, sp, 8
è¯»å–åœ°å€ 0x80000da4
0x80000da4: 31 00 00 ef jal	ra, 0x800010b4
è¯»å–åœ°å€ 0x800010b4
0x800010b4: 80 01 17 b7 lui	a5, 524305
è¯»å–åœ°å€ 0x800010b8
0x800010b8: 00 25 15 13 slli	a0, a0, 2
è¯»å–åœ°å€ 0x800010bc
0x800010bc: 9f 87 87 93 addi	a5, a5, -1544
è¯»å–åœ°å€ 0x800010c0
0x800010c0: 00 a7 87 b3 add	a5, a5, a0
è¯»å–åœ°å€ 0x800010c4
è¯»å–åœ°å€ 0x80010a18
0x800010c4: 00 07 a7 83 lw	a5, 0(a5)
è¯»å–åœ°å€ 0x800010c8
0x800010c8: 00 05 85 13 addi	a0, a1, 0
è¯»å–åœ°å€ 0x800010cc
0x800010cc: 00 07 80 67 jalr	zero, 0(a5)
è¯»å–åœ°å€ 0x80001134
0x80001134: a0 00 07 b7 lui	a5, 655360
è¯»å–åœ°å€ 0x80001138
read device name = keyboard 	 addr = 0xa0000060 
0x80001138: 06 07 a7 83 lw	a5, 96(a5)
è¯»å–åœ°å€ 0x8000113c
0x8000113c: 00 00 87 37 lui	a4, 8
è¯»å–åœ°å€ 0x80001140
å†™å…¥åœ°å€ 0x8009cfac
0x80001140: 00 f5 22 23 sw	a5, 4(a0)
è¯»å–åœ°å€ 0x80001144
0x80001144: 00 e7 f6 b3 and	a3, a5, a4
è¯»å–åœ°å€ 0x80001148
0x80001148: 00 06 8c 63 beq	a3, zero, 0x80001160
è¯»å–åœ°å€ 0x80001160
å†™å…¥åœ°å€ 0x8009cfa8
0x80001160: 00 05 00 23 sb	zero, 0(a0)
è¯»å–åœ°å€ 0x80001164
0x80001164: 00 00 80 67 jalr	zero, 0(ra)
è¯»å–åœ°å€ 0x80000da8
è¯»å–åœ°å€ 0x8009cfac
0x80000da8: 00 c1 26 03 lw	a2, 12(sp)
è¯»å–åœ°å€ 0x80000dac
è¯»å–åœ°å€ 0x8009cfa8
0x80000dac: 00 81 47 03 lbu	a4, 8(sp)
è¯»å–åœ°å€ 0x80000db0
0x80000db0: 18 09 05 13 addi	a0, s2, 384
è¯»å–åœ°å€ 0x80000db4
0x80000db4: 00 26 17 93 slli	a5, a2, 2
è¯»å–åœ°å€ 0x80000db8
0x80000db8: 00 f4 07 b3 add	a5, s0, a5
è¯»å–åœ°å€ 0x80000dbc
0x80000dbc: fc 06 16 e3 bne	a2, zero, 0x80000d88
è¯»å–åœ°å€ 0x80000dc0
è¯»å–åœ°å€ 0x80094e28
0x80000dc0: 00 0a c7 83 lbu	a5, 0(s5)
è¯»å–åœ°å€ 0x80000dc4
0x80000dc4: f9 1f f0 6f jal	zero, 0x80000d54
è¯»å–åœ°å€ 0x80000d54
è¯»å–åœ°å€ 0x80094e29
0x80000d54: 00 09 c7 03 lbu	a4, 0(s3)
è¯»å–åœ°å€ 0x80000d58
0x80000d58: 02 07 04 63 beq	a4, zero, 0x80000d80
è¯»å–åœ°å€ 0x80000d80
0x80000d80: 00 07 9e 63 bne	a5, zero, 0x80000d9c
è¯»å–åœ°å€ 0x80000d9c
0x80000d9c: 00 80 05 13 addi	a0, zero, 8
è¯»å–åœ°å€ 0x80000da0
0x80000da0: 00 81 05 93 addi	a1, sp, 8
è¯»å–åœ°å€ 0x80000da4
0x80000da4: 31 00 00 ef jal	ra, 0x800010b4
è¯»å–åœ°å€ 0x800010b4
0x800010b4: 80 01 17 b7 lui	a5, 524305
è¯»å–åœ°å€ 0x800010b8
0x800010b8: 00 25 15 13 slli	a0, a0, 2
è¯»å–åœ°å€ 0x800010bc
0x800010bc: 9f 87 87 93 addi	a5, a5, -1544
è¯»å–åœ°å€ 0x800010c0
0x800010c0: 00 a7 87 b3 add	a5, a5, a0
è¯»å–åœ°å€ 0x800010c4
è¯»å–åœ°å€ 0x80010a18
0x800010c4: 00 07 a7 83 lw	a5, 0(a5)
è¯»å–åœ°å€ 0x800010c8
0x800010c8: 00 05 85 13 addi	a0, a1, 0
è¯»å–åœ°å€ 0x800010cc
0x800010cc: 00 07 80 67 jalr	zero, 0(a5)
è¯»å–åœ°å€ 0x80001134
0x80001134: a0 00 07 b7 lui	a5, 655360
è¯»å–åœ°å€ 0x80001138
read device name = keyboard 	 addr = 0xa0000060 
0x80001138: 06 07 a7 83 lw	a5, 96(a5)
è¯»å–åœ°å€ 0x8000113c
0x8000113c: 00 00 87 37 lui	a4, 8
è¯»å–åœ°å€ 0x80001140
å†™å…¥åœ°å€ 0x8009cfac
0x80001140: 00 f5 22 23 sw	a5, 4(a0)
è¯»å–åœ°å€ 0x80001144
0x80001144: 00 e7 f6 b3 and	a3, a5, a4
è¯»å–åœ°å€ 0x80001148
0x80001148: 00 06 8c 63 beq	a3, zero, 0x80001160
è¯»å–åœ°å€ 0x80001160
å†™å…¥åœ°å€ 0x8009cfa8
0x80001160: 00 05 00 23 sb	zero, 0(a0)
è¯»å–åœ°å€ 0x80001164
0x80001164: 00 00 80 67 jalr	zero, 0(ra)
è¯»å–åœ°å€ 0x80000da8
è¯»å–åœ°å€ 0x8009cfac
0x80000da8: 00 c1 26 03 lw	a2, 12(sp)
è¯»å–åœ°å€ 0x80000dac
è¯»å–åœ°å€ 0x8009cfa8
0x80000dac: 00 81 47 03 lbu	a4, 8(sp)
è¯»å–åœ°å€ 0x80000db0
0x80000db0: 18 09 05 13 addi	a0, s2, 384
è¯»å–åœ°å€ 0x80000db4
0x80000db4: 00 26 17 93 slli	a5, a2, 2
è¯»å–åœ°å€ 0x80000db8
0x80000db8: 00 f4 07 b3 add	a5, s0, a5
è¯»å–åœ°å€ 0x80000dbc
0x80000dbc: fc 06 16 e3 bne	a2, zero, 0x80000d88
è¯»å–åœ°å€ 0x80000dc0
è¯»å–åœ°å€ 0x80094e28
0x80000dc0: 00 0a c7 83 lbu	a5, 0(s5)
è¯»å–åœ°å€ 0x80000dc4
0x80000dc4: f9 1f f0 6f jal	zero, 0x80000d54
è¯»å–åœ°å€ 0x80000d54
è¯»å–åœ°å€ 0x80094e29
0x80000d54: 00 09 c7 03 lbu	a4, 0(s3)
è¯»å–åœ°å€ 0x80000d58
0x80000d58: 02 07 04 63 beq	a4, zero, 0x80000d80
è¯»å–åœ°å€ 0x80000d80
0x80000d80: 00 07 9e 63 bne	a5, zero, 0x80000d9c
è¯»å–åœ°å€ 0x80000d9c
0x80000d9c: 00 80 05 13 addi	a0, zero, 8
è¯»å–åœ°å€ 0x80000da0
0x80000da0: 00 81 05 93 addi	a1, sp, 8
è¯»å–åœ°å€ 0x80000da4
0x80000da4: 31 00 00 ef jal	ra, 0x800010b4
è¯»å–åœ°å€ 0x800010b4
0x800010b4: 80 01 17 b7 lui	a5, 524305
è¯»å–åœ°å€ 0x800010b8
0x800010b8: 00 25 15 13 slli	a0, a0, 2
è¯»å–åœ°å€ 0x800010bc
0x800010bc: 9f 87 87 93 addi	a5, a5, -1544
è¯»å–åœ°å€ 0x800010c0
0x800010c0: 00 a7 87 b3 add	a5, a5, a0
è¯»å–åœ°å€ 0x800010c4
è¯»å–åœ°å€ 0x80010a18
0x800010c4: 00 07 a7 83 lw	a5, 0(a5)
è¯»å–åœ°å€ 0x800010c8
0x800010c8: 00 05 85 13 addi	a0, a1, 0
è¯»å–åœ°å€ 0x800010cc
0x800010cc: 00 07 80 67 jalr	zero, 0(a5)
è¯»å–åœ°å€ 0x80001134
0x80001134: a0 00 07 b7 lui	a5, 655360
è¯»å–åœ°å€ 0x80001138
read device name = keyboard 	 addr = 0xa0000060 
0x80001138: 06 07 a7 83 lw	a5, 96(a5)
è¯»å–åœ°å€ 0x8000113c
0x8000113c: 00 00 87 37 lui	a4, 8
è¯»å–åœ°å€ 0x80001140
å†™å…¥åœ°å€ 0x8009cfac
0x80001140: 00 f5 22 23 sw	a5, 4(a0)
è¯»å–åœ°å€ 0x80001144
0x80001144: 00 e7 f6 b3 and	a3, a5, a4
è¯»å–åœ°å€ 0x80001148
0x80001148: 00 06 8c 63 beq	a3, zero, 0x80001160
è¯»å–åœ°å€ 0x80001160
å†™å…¥åœ°å€ 0x8009cfa8
0x80001160: 00 05 00 23 sb	zero, 0(a0)
è¯»å–åœ°å€ 0x80001164
0x80001164: 00 00 80 67 jalr	zero, 0(ra)
è¯»å–åœ°å€ 0x80000da8
è¯»å–åœ°å€ 0x8009cfac
0x80000da8: 00 c1 26 03 lw	a2, 12(sp)
è¯»å–åœ°å€ 0x80000dac
è¯»å–åœ°å€ 0x8009cfa8
0x80000dac: 00 81 47 03 lbu	a4, 8(sp)
è¯»å–åœ°å€ 0x80000db0
0x80000db0: 18 09 05 13 addi	a0, s2, 384
è¯»å–åœ°å€ 0x80000db4
0x80000db4: 00 26 17 93 slli	a5, a2, 2
è¯»å–åœ°å€ 0x80000db8
0x80000db8: 00 f4 07 b3 add	a5, s0, a5
è¯»å–åœ°å€ 0x80000dbc
0x80000dbc: fc 06 16 e3 bne	a2, zero, 0x80000d88
è¯»å–åœ°å€ 0x80000dc0
è¯»å–åœ°å€ 0x80094e28
0x80000dc0: 00 0a c7 83 lbu	a5, 0(s5)
è¯»å–åœ°å€ 0x80000dc4
0x80000dc4: f9 1f f0 6f jal	zero, 0x80000d54
è¯»å–åœ°å€ 0x80000d54
è¯»å–åœ°å€ 0x80094e29
0x80000d54: 00 09 c7 03 lbu	a4, 0(s3)
è¯»å–åœ°å€ 0x80000d58
0x80000d58: 02 07 04 63 beq	a4, zero, 0x80000d80
è¯»å–åœ°å€ 0x80000d80
0x80000d80: 00 07 9e 63 bne	a5, zero, 0x80000d9c
è¯»å–åœ°å€ 0x80000d9c
0x80000d9c: 00 80 05 13 addi	a0, zero, 8
è¯»å–åœ°å€ 0x80000da0
0x80000da0: 00 81 05 93 addi	a1, sp, 8
è¯»å–åœ°å€ 0x80000da4
0x80000da4: 31 00 00 ef jal	ra, 0x800010b4
è¯»å–åœ°å€ 0x800010b4
0x800010b4: 80 01 17 b7 lui	a5, 524305
è¯»å–åœ°å€ 0x800010b8
0x800010b8: 00 25 15 13 slli	a0, a0, 2
è¯»å–åœ°å€ 0x800010bc
0x800010bc: 9f 87 87 93 addi	a5, a5, -1544
è¯»å–åœ°å€ 0x800010c0
0x800010c0: 00 a7 87 b3 add	a5, a5, a0
è¯»å–åœ°å€ 0x800010c4
è¯»å–åœ°å€ 0x80010a18
0x800010c4: 00 07 a7 83 lw	a5, 0(a5)
è¯»å–åœ°å€ 0x800010c8
0x800010c8: 00 05 85 13 addi	a0, a1, 0
è¯»å–åœ°å€ 0x800010cc
0x800010cc: 00 07 80 67 jalr	zero, 0(a5)
è¯»å–åœ°å€ 0x80001134
0x80001134: a0 00 07 b7 lui	a5, 655360
è¯»å–åœ°å€ 0x80001138
read device name = keyboard 	 addr = 0xa0000060 
0x80001138: 06 07 a7 83 lw	a5, 96(a5)
è¯»å–åœ°å€ 0x8000113c
0x8000113c: 00 00 87 37 lui	a4, 8
è¯»å–åœ°å€ 0x80001140
å†™å…¥åœ°å€ 0x8009cfac
0x80001140: 00 f5 22 23 sw	a5, 4(a0)
è¯»å–åœ°å€ 0x80001144
0x80001144: 00 e7 f6 b3 and	a3, a5, a4
è¯»å–åœ°å€ 0x80001148
0x80001148: 00 06 8c 63 beq	a3, zero, 0x80001160
è¯»å–åœ°å€ 0x80001160
å†™å…¥åœ°å€ 0x8009cfa8
0x80001160: 00 05 00 23 sb	zero, 0(a0)
è¯»å–åœ°å€ 0x80001164
0x80001164: 00 00 80 67 jalr	zero, 0(ra)
è¯»å–åœ°å€ 0x80000da8
è¯»å–åœ°å€ 0x8009cfac
0x80000da8: 00 c1 26 03 lw	a2, 12(sp)
è¯»å–åœ°å€ 0x80000dac
è¯»å–åœ°å€ 0x8009cfa8
0x80000dac: 00 81 47 03 lbu	a4, 8(sp)
è¯»å–åœ°å€ 0x80000db0
0x80000db0: 18 09 05 13 addi	a0, s2, 384
è¯»å–åœ°å€ 0x80000db4
0x80000db4: 00 26 17 93 slli	a5, a2, 2
è¯»å–åœ°å€ 0x80000db8
0x80000db8: 00 f4 07 b3 add	a5, s0, a5
è¯»å–åœ°å€ 0x80000dbc
0x80000dbc: fc 06 16 e3 bne	a2, zero, 0x80000d88
è¯»å–åœ°å€ 0x80000dc0
è¯»å–åœ°å€ 0x80094e28
0x80000dc0: 00 0a c7 83 lbu	a5, 0(s5)
è¯»å–åœ°å€ 0x80000dc4
0x80000dc4: f9 1f f0 6f jal	zero, 0x80000d54
è¯»å–åœ°å€ 0x80000d54
è¯»å–åœ°å€ 0x80094e29
0x80000d54: 00 09 c7 03 lbu	a4, 0(s3)
è¯»å–åœ°å€ 0x80000d58
0x80000d58: 02 07 04 63 beq	a4, zero, 0x80000d80
è¯»å–åœ°å€ 0x80000d80
0x80000d80: 00 07 9e 63 bne	a5, zero, 0x80000d9c
è¯»å–åœ°å€ 0x80000d9c
0x80000d9c: 00 80 05 13 addi	a0, zero, 8
è¯»å–åœ°å€ 0x80000da0
0x80000da0: 00 81 05 93 addi	a1, sp, 8
è¯»å–åœ°å€ 0x80000da4
0x80000da4: 31 00 00 ef jal	ra, 0x800010b4
è¯»å–åœ°å€ 0x800010b4
0x800010b4: 80 01 17 b7 lui	a5, 524305
è¯»å–åœ°å€ 0x800010b8
0x800010b8: 00 25 15 13 slli	a0, a0, 2
è¯»å–åœ°å€ 0x800010bc
0x800010bc: 9f 87 87 93 addi	a5, a5, -1544
è¯»å–åœ°å€ 0x800010c0
0x800010c0: 00 a7 87 b3 add	a5, a5, a0
è¯»å–åœ°å€ 0x800010c4
è¯»å–åœ°å€ 0x80010a18
0x800010c4: 00 07 a7 83 lw	a5, 0(a5)
è¯»å–åœ°å€ 0x800010c8
0x800010c8: 00 05 85 13 addi	a0, a1, 0
è¯»å–åœ°å€ 0x800010cc
0x800010cc: 00 07 80 67 jalr	zero, 0(a5)
è¯»å–åœ°å€ 0x80001134
0x80001134: a0 00 07 b7 lui	a5, 655360
è¯»å–åœ°å€ 0x80001138
read device name = keyboard 	 addr = 0xa0000060 
0x80001138: 06 07 a7 83 lw	a5, 96(a5)
è¯»å–åœ°å€ 0x8000113c
0x8000113c: 00 00 87 37 lui	a4, 8
è¯»å–åœ°å€ 0x80001140
å†™å…¥åœ°å€ 0x8009cfac
0x80001140: 00 f5 22 23 sw	a5, 4(a0)
è¯»å–åœ°å€ 0x80001144
0x80001144: 00 e7 f6 b3 and	a3, a5, a4
è¯»å–åœ°å€ 0x80001148
0x80001148: 00 06 8c 63 beq	a3, zero, 0x80001160
è¯»å–åœ°å€ 0x80001160
å†™å…¥åœ°å€ 0x8009cfa8
0x80001160: 00 05 00 23 sb	zero, 0(a0)
è¯»å–åœ°å€ 0x80001164
0x80001164: 00 00 80 67 jalr	zero, 0(ra)
è¯»å–åœ°å€ 0x80000da8
è¯»å–åœ°å€ 0x8009cfac
0x80000da8: 00 c1 26 03 lw	a2, 12(sp)
è¯»å–åœ°å€ 0x80000dac
è¯»å–åœ°å€ 0x8009cfa8
0x80000dac: 00 81 47 03 lbu	a4, 8(sp)
è¯»å–åœ°å€ 0x80000db0
0x80000db0: 18 09 05 13 addi	a0, s2, 384
è¯»å–åœ°å€ 0x80000db4
0x80000db4: 00 26 17 93 slli	a5, a2, 2
è¯»å–åœ°å€ 0x80000db8
0x80000db8: 00 f4 07 b3 add	a5, s0, a5
è¯»å–åœ°å€ 0x80000dbc
0x80000dbc: fc 06 16 e3 bne	a2, zero, 0x80000d88
è¯»å–åœ°å€ 0x80000dc0
è¯»å–åœ°å€ 0x80094e28
0x80000dc0: 00 0a c7 83 lbu	a5, 0(s5)
è¯»å–åœ°å€ 0x80000dc4
0x80000dc4: f9 1f f0 6f jal	zero, 0x80000d54
è¯»å–åœ°å€ 0x80000d54
è¯»å–åœ°å€ 0x80094e29
0x80000d54: 00 09 c7 03 lbu	a4, 0(s3)
è¯»å–åœ°å€ 0x80000d58
0x80000d58: 02 07 04 63 beq	a4, zero, 0x80000d80
è¯»å–åœ°å€ 0x80000d80
0x80000d80: 00 07 9e 63 bne	a5, zero, 0x80000d9c
è¯»å–åœ°å€ 0x80000d9c
0x80000d9c: 00 80 05 13 addi	a0, zero, 8
è¯»å–åœ°å€ 0x80000da0
0x80000da0: 00 81 05 93 addi	a1, sp, 8
è¯»å–åœ°å€ 0x80000da4
0x80000da4: 31 00 00 ef jal	ra, 0x800010b4
è¯»å–åœ°å€ 0x800010b4
0x800010b4: 80 01 17 b7 lui	a5, 524305
è¯»å–åœ°å€ 0x800010b8
0x800010b8: 00 25 15 13 slli	a0, a0, 2
è¯»å–åœ°å€ 0x800010bc
0x800010bc: 9f 87 87 93 addi	a5, a5, -1544
è¯»å–åœ°å€ 0x800010c0
0x800010c0: 00 a7 87 b3 add	a5, a5, a0
è¯»å–åœ°å€ 0x800010c4
è¯»å–åœ°å€ 0x80010a18
0x800010c4: 00 07 a7 83 lw	a5, 0(a5)
è¯»å–åœ°å€ 0x800010c8
0x800010c8: 00 05 85 13 addi	a0, a1, 0
è¯»å–åœ°å€ 0x800010cc
0x800010cc: 00 07 80 67 jalr	zero, 0(a5)
è¯»å–åœ°å€ 0x80001134
0x80001134: a0 00 07 b7 lui	a5, 655360
è¯»å–åœ°å€ 0x80001138
read device name = keyboard 	 addr = 0xa0000060 
0x80001138: 06 07 a7 83 lw	a5, 96(a5)
è¯»å–åœ°å€ 0x8000113c
0x8000113c: 00 00 87 37 lui	a4, 8
è¯»å–åœ°å€ 0x80001140
å†™å…¥åœ°å€ 0x8009cfac
0x80001140: 00 f5 22 23 sw	a5, 4(a0)
è¯»å–åœ°å€ 0x80001144
0x80001144: 00 e7 f6 b3 and	a3, a5, a4
è¯»å–åœ°å€ 0x80001148
0x80001148: 00 06 8c 63 beq	a3, zero, 0x80001160
è¯»å–åœ°å€ 0x80001160
å†™å…¥åœ°å€ 0x8009cfa8
0x80001160: 00 05 00 23 sb	zero, 0(a0)
è¯»å–åœ°å€ 0x80001164
0x80001164: 00 00 80 67 jalr	zero, 0(ra)
è¯»å–åœ°å€ 0x80000da8
è¯»å–åœ°å€ 0x8009cfac
0x80000da8: 00 c1 26 03 lw	a2, 12(sp)
è¯»å–åœ°å€ 0x80000dac
è¯»å–åœ°å€ 0x8009cfa8
0x80000dac: 00 81 47 03 lbu	a4, 8(sp)
è¯»å–åœ°å€ 0x80000db0
0x80000db0: 18 09 05 13 addi	a0, s2, 384
è¯»å–åœ°å€ 0x80000db4
0x80000db4: 00 26 17 93 slli	a5, a2, 2
è¯»å–åœ°å€ 0x80000db8
0x80000db8: 00 f4 07 b3 add	a5, s0, a5
è¯»å–åœ°å€ 0x80000dbc
0x80000dbc: fc 06 16 e3 bne	a2, zero, 0x80000d88
è¯»å–åœ°å€ 0x80000dc0
è¯»å–åœ°å€ 0x80094e28
0x80000dc0: 00 0a c7 83 lbu	a5, 0(s5)
è¯»å–åœ°å€ 0x80000dc4
0x80000dc4: f9 1f f0 6f jal	zero, 0x80000d54
è¯»å–åœ°å€ 0x80000d54
è¯»å–åœ°å€ 0x80094e29
0x80000d54: 00 09 c7 03 lbu	a4, 0(s3)
è¯»å–åœ°å€ 0x80000d58
0x80000d58: 02 07 04 63 beq	a4, zero, 0x80000d80
è¯»å–åœ°å€ 0x80000d80
0x80000d80: 00 07 9e 63 bne	a5, zero, 0x80000d9c
è¯»å–åœ°å€ 0x80000d9c
0x80000d9c: 00 80 05 13 addi	a0, zero, 8
è¯»å–åœ°å€ 0x80000da0
0x80000da0: 00 81 05 93 addi	a1, sp, 8
è¯»å–åœ°å€ 0x80000da4
0x80000da4: 31 00 00 ef jal	ra, 0x800010b4
è¯»å–åœ°å€ 0x800010b4
0x800010b4: 80 01 17 b7 lui	a5, 524305
è¯»å–åœ°å€ 0x800010b8
0x800010b8: 00 25 15 13 slli	a0, a0, 2
è¯»å–åœ°å€ 0x800010bc
0x800010bc: 9f 87 87 93 addi	a5, a5, -1544
è¯»å–åœ°å€ 0x800010c0
0x800010c0: 00 a7 87 b3 add	a5, a5, a0
è¯»å–åœ°å€ 0x800010c4
è¯»å–åœ°å€ 0x80010a18
0x800010c4: 00 07 a7 83 lw	a5, 0(a5)
è¯»å–åœ°å€ 0x800010c8
0x800010c8: 00 05 85 13 addi	a0, a1, 0
è¯»å–åœ°å€ 0x800010cc
0x800010cc: 00 07 80 67 jalr	zero, 0(a5)
è¯»å–åœ°å€ 0x80001134
0x80001134: a0 00 07 b7 lui	a5, 655360
è¯»å–åœ°å€ 0x80001138
read device name = keyboard 	 addr = 0xa0000060 
0x80001138: 06 07 a7 83 lw	a5, 96(a5)
è¯»å–åœ°å€ 0x8000113c
0x8000113c: 00 00 87 37 lui	a4, 8
è¯»å–åœ°å€ 0x80001140
å†™å…¥åœ°å€ 0x8009cfac
0x80001140: 00 f5 22 23 sw	a5, 4(a0)
è¯»å–åœ°å€ 0x80001144
0x80001144: 00 e7 f6 b3 and	a3, a5, a4
è¯»å–åœ°å€ 0x80001148
0x80001148: 00 06 8c 63 beq	a3, zero, 0x80001160
è¯»å–åœ°å€ 0x80001160
å†™å…¥åœ°å€ 0x8009cfa8
0x80001160: 00 05 00 23 sb	zero, 0(a0)
è¯»å–åœ°å€ 0x80001164
0x80001164: 00 00 80 67 jalr	zero, 0(ra)
è¯»å–åœ°å€ 0x80000da8
è¯»å–åœ°å€ 0x8009cfac
0x80000da8: 00 c1 26 03 lw	a2, 12(sp)
è¯»å–åœ°å€ 0x80000dac
è¯»å–åœ°å€ 0x8009cfa8
0x80000dac: 00 81 47 03 lbu	a4, 8(sp)
è¯»å–åœ°å€ 0x80000db0
0x80000db0: 18 09 05 13 addi	a0, s2, 384
è¯»å–åœ°å€ 0x80000db4
0x80000db4: 00 26 17 93 slli	a5, a2, 2
è¯»å–åœ°å€ 0x80000db8
0x80000db8: 00 f4 07 b3 add	a5, s0, a5
è¯»å–åœ°å€ 0x80000dbc
0x80000dbc: fc 06 16 e3 bne	a2, zero, 0x80000d88
è¯»å–åœ°å€ 0x80000dc0
è¯»å–åœ°å€ 0x80094e28
0x80000dc0: 00 0a c7 83 lbu	a5, 0(s5)
è¯»å–åœ°å€ 0x80000dc4
0x80000dc4: f9 1f f0 6f jal	zero, 0x80000d54
è¯»å–åœ°å€ 0x80000d54
è¯»å–åœ°å€ 0x80094e29
0x80000d54: 00 09 c7 03 lbu	a4, 0(s3)
è¯»å–åœ°å€ 0x80000d58
0x80000d58: 02 07 04 63 beq	a4, zero, 0x80000d80
è¯»å–åœ°å€ 0x80000d80
0x80000d80: 00 07 9e 63 bne	a5, zero, 0x80000d9c
è¯»å–åœ°å€ 0x80000d9c
0x80000d9c: 00 80 05 13 addi	a0, zero, 8
è¯»å–åœ°å€ 0x80000da0
0x80000da0: 00 81 05 93 addi	a1, sp, 8
è¯»å–åœ°å€ 0x80000da4
0x80000da4: 31 00 00 ef jal	ra, 0x800010b4
è¯»å–åœ°å€ 0x800010b4
0x800010b4: 80 01 17 b7 lui	a5, 524305
è¯»å–åœ°å€ 0x800010b8
0x800010b8: 00 25 15 13 slli	a0, a0, 2
è¯»å–åœ°å€ 0x800010bc
0x800010bc: 9f 87 87 93 addi	a5, a5, -1544
è¯»å–åœ°å€ 0x800010c0
0x800010c0: 00 a7 87 b3 add	a5, a5, a0
è¯»å–åœ°å€ 0x800010c4
è¯»å–åœ°å€ 0x80010a18
0x800010c4: 00 07 a7 83 lw	a5, 0(a5)
è¯»å–åœ°å€ 0x800010c8
0x800010c8: 00 05 85 13 addi	a0, a1, 0
è¯»å–åœ°å€ 0x800010cc
0x800010cc: 00 07 80 67 jalr	zero, 0(a5)
è¯»å–åœ°å€ 0x80001134
0x80001134: a0 00 07 b7 lui	a5, 655360
è¯»å–åœ°å€ 0x80001138
read device name = keyboard 	 addr = 0xa0000060 
0x80001138: 06 07 a7 83 lw	a5, 96(a5)
è¯»å–åœ°å€ 0x8000113c
0x8000113c: 00 00 87 37 lui	a4, 8
è¯»å–åœ°å€ 0x80001140
å†™å…¥åœ°å€ 0x8009cfac
0x80001140: 00 f5 22 23 sw	a5, 4(a0)
è¯»å–åœ°å€ 0x80001144
0x80001144: 00 e7 f6 b3 and	a3, a5, a4
è¯»å–åœ°å€ 0x80001148
0x80001148: 00 06 8c 63 beq	a3, zero, 0x80001160
è¯»å–åœ°å€ 0x80001160
å†™å…¥åœ°å€ 0x8009cfa8
0x80001160: 00 05 00 23 sb	zero, 0(a0)
è¯»å–åœ°å€ 0x80001164
0x80001164: 00 00 80 67 jalr	zero, 0(ra)
è¯»å–åœ°å€ 0x80000da8
è¯»å–åœ°å€ 0x8009cfac
0x80000da8: 00 c1 26 03 lw	a2, 12(sp)
è¯»å–åœ°å€ 0x80000dac
è¯»å–åœ°å€ 0x8009cfa8
0x80000dac: 00 81 47 03 lbu	a4, 8(sp)
è¯»å–åœ°å€ 0x80000db0
0x80000db0: 18 09 05 13 addi	a0, s2, 384
è¯»å–åœ°å€ 0x80000db4
0x80000db4: 00 26 17 93 slli	a5, a2, 2
è¯»å–åœ°å€ 0x80000db8
0x80000db8: 00 f4 07 b3 add	a5, s0, a5
è¯»å–åœ°å€ 0x80000dbc
0x80000dbc: fc 06 16 e3 bne	a2, zero, 0x80000d88
è¯»å–åœ°å€ 0x80000dc0
è¯»å–åœ°å€ 0x80094e28
0x80000dc0: 00 0a c7 83 lbu	a5, 0(s5)
è¯»å–åœ°å€ 0x80000dc4
0x80000dc4: f9 1f f0 6f jal	zero, 0x80000d54
è¯»å–åœ°å€ 0x80000d54
è¯»å–åœ°å€ 0x80094e29
0x80000d54: 00 09 c7 03 lbu	a4, 0(s3)
è¯»å–åœ°å€ 0x80000d58
0x80000d58: 02 07 04 63 beq	a4, zero, 0x80000d80
è¯»å–åœ°å€ 0x80000d80
0x80000d80: 00 07 9e 63 bne	a5, zero, 0x80000d9c
è¯»å–åœ°å€ 0x80000d9c
0x80000d9c: 00 80 05 13 addi	a0, zero, 8
è¯»å–åœ°å€ 0x80000da0
0x80000da0: 00 81 05 93 addi	a1, sp, 8
è¯»å–åœ°å€ 0x80000da4
0x80000da4: 31 00 00 ef jal	ra, 0x800010b4
è¯»å–åœ°å€ 0x800010b4
0x800010b4: 80 01 17 b7 lui	a5, 524305
è¯»å–åœ°å€ 0x800010b8
0x800010b8: 00 25 15 13 slli	a0, a0, 2
è¯»å–åœ°å€ 0x800010bc
0x800010bc: 9f 87 87 93 addi	a5, a5, -1544
è¯»å–åœ°å€ 0x800010c0
0x800010c0: 00 a7 87 b3 add	a5, a5, a0
è¯»å–åœ°å€ 0x800010c4
è¯»å–åœ°å€ 0x80010a18
0x800010c4: 00 07 a7 83 lw	a5, 0(a5)
è¯»å–åœ°å€ 0x800010c8
0x800010c8: 00 05 85 13 addi	a0, a1, 0
è¯»å–åœ°å€ 0x800010cc
0x800010cc: 00 07 80 67 jalr	zero, 0(a5)
è¯»å–åœ°å€ 0x80001134
0x80001134: a0 00 07 b7 lui	a5, 655360
è¯»å–åœ°å€ 0x80001138
read device name = keyboard 	 addr = 0xa0000060 
0x80001138: 06 07 a7 83 lw	a5, 96(a5)
è¯»å–åœ°å€ 0x8000113c
0x8000113c: 00 00 87 37 lui	a4, 8
è¯»å–åœ°å€ 0x80001140
å†™å…¥åœ°å€ 0x8009cfac
0x80001140: 00 f5 22 23 sw	a5, 4(a0)
è¯»å–åœ°å€ 0x80001144
0x80001144: 00 e7 f6 b3 and	a3, a5, a4
è¯»å–åœ°å€ 0x80001148
0x80001148: 00 06 8c 63 beq	a3, zero, 0x80001160
è¯»å–åœ°å€ 0x80001160
å†™å…¥åœ°å€ 0x8009cfa8
0x80001160: 00 05 00 23 sb	zero, 0(a0)
è¯»å–åœ°å€ 0x80001164
0x80001164: 00 00 80 67 jalr	zero, 0(ra)
è¯»å–åœ°å€ 0x80000da8
è¯»å–åœ°å€ 0x8009cfac
0x80000da8: 00 c1 26 03 lw	a2, 12(sp)
è¯»å–åœ°å€ 0x80000dac
è¯»å–åœ°å€ 0x8009cfa8
0x80000dac: 00 81 47 03 lbu	a4, 8(sp)
è¯»å–åœ°å€ 0x80000db0
0x80000db0: 18 09 05 13 addi	a0, s2, 384
è¯»å–åœ°å€ 0x80000db4
0x80000db4: 00 26 17 93 slli	a5, a2, 2
è¯»å–åœ°å€ 0x80000db8
0x80000db8: 00 f4 07 b3 add	a5, s0, a5
è¯»å–åœ°å€ 0x80000dbc
0x80000dbc: fc 06 16 e3 bne	a2, zero, 0x80000d88
è¯»å–åœ°å€ 0x80000dc0
è¯»å–åœ°å€ 0x80094e28
0x80000dc0: 00 0a c7 83 lbu	a5, 0(s5)
è¯»å–åœ°å€ 0x80000dc4
0x80000dc4: f9 1f f0 6f jal	zero, 0x80000d54
è¯»å–åœ°å€ 0x80000d54
è¯»å–åœ°å€ 0x80094e29
0x80000d54: 00 09 c7 03 lbu	a4, 0(s3)
è¯»å–åœ°å€ 0x80000d58
0x80000d58: 02 07 04 63 beq	a4, zero, 0x80000d80
è¯»å–åœ°å€ 0x80000d80
0x80000d80: 00 07 9e 63 bne	a5, zero, 0x80000d9c
è¯»å–åœ°å€ 0x80000d9c
0x80000d9c: 00 80 05 13 addi	a0, zero, 8
è¯»å–åœ°å€ 0x80000da0
0x80000da0: 00 81 05 93 addi	a1, sp, 8
è¯»å–åœ°å€ 0x80000da4
0x80000da4: 31 00 00 ef jal	ra, 0x800010b4
è¯»å–åœ°å€ 0x800010b4
0x800010b4: 80 01 17 b7 lui	a5, 524305
è¯»å–åœ°å€ 0x800010b8
0x800010b8: 00 25 15 13 slli	a0, a0, 2
è¯»å–åœ°å€ 0x800010bc
0x800010bc: 9f 87 87 93 addi	a5, a5, -1544
è¯»å–åœ°å€ 0x800010c0
0x800010c0: 00 a7 87 b3 add	a5, a5, a0
è¯»å–åœ°å€ 0x800010c4
è¯»å–åœ°å€ 0x80010a18
0x800010c4: 00 07 a7 83 lw	a5, 0(a5)
è¯»å–åœ°å€ 0x800010c8
0x800010c8: 00 05 85 13 addi	a0, a1, 0
è¯»å–åœ°å€ 0x800010cc
0x800010cc: 00 07 80 67 jalr	zero, 0(a5)
è¯»å–åœ°å€ 0x80001134
0x80001134: a0 00 07 b7 lui	a5, 655360
è¯»å–åœ°å€ 0x80001138
read device name = keyboard 	 addr = 0xa0000060 
0x80001138: 06 07 a7 83 lw	a5, 96(a5)
è¯»å–åœ°å€ 0x8000113c
0x8000113c: 00 00 87 37 lui	a4, 8
è¯»å–åœ°å€ 0x80001140
å†™å…¥åœ°å€ 0x8009cfac
0x80001140: 00 f5 22 23 sw	a5, 4(a0)
è¯»å–åœ°å€ 0x80001144
0x80001144: 00 e7 f6 b3 and	a3, a5, a4
è¯»å–åœ°å€ 0x80001148
0x80001148: 00 06 8c 63 beq	a3, zero, 0x80001160
è¯»å–åœ°å€ 0x80001160
å†™å…¥åœ°å€ 0x8009cfa8
0x80001160: 00 05 00 23 sb	zero, 0(a0)
è¯»å–åœ°å€ 0x80001164
0x80001164: 00 00 80 67 jalr	zero, 0(ra)
è¯»å–åœ°å€ 0x80000da8
è¯»å–åœ°å€ 0x8009cfac
0x80000da8: 00 c1 26 03 lw	a2, 12(sp)
è¯»å–åœ°å€ 0x80000dac
è¯»å–åœ°å€ 0x8009cfa8
0x80000dac: 00 81 47 03 lbu	a4, 8(sp)
è¯»å–åœ°å€ 0x80000db0
0x80000db0: 18 09 05 13 addi	a0, s2, 384
è¯»å–åœ°å€ 0x80000db4
0x80000db4: 00 26 17 93 slli	a5, a2, 2
è¯»å–åœ°å€ 0x80000db8
0x80000db8: 00 f4 07 b3 add	a5, s0, a5
è¯»å–åœ°å€ 0x80000dbc
0x80000dbc: fc 06 16 e3 bne	a2, zero, 0x80000d88
è¯»å–åœ°å€ 0x80000dc0
è¯»å–åœ°å€ 0x80094e28
0x80000dc0: 00 0a c7 83 lbu	a5, 0(s5)
è¯»å–åœ°å€ 0x80000dc4
0x80000dc4: f9 1f f0 6f jal	zero, 0x80000d54
è¯»å–åœ°å€ 0x80000d54
è¯»å–åœ°å€ 0x80094e29
0x80000d54: 00 09 c7 03 lbu	a4, 0(s3)
è¯»å–åœ°å€ 0x80000d58
0x80000d58: 02 07 04 63 beq	a4, zero, 0x80000d80
è¯»å–åœ°å€ 0x80000d80
0x80000d80: 00 07 9e 63 bne	a5, zero, 0x80000d9c
è¯»å–åœ°å€ 0x80000d9c
0x80000d9c: 00 80 05 13 addi	a0, zero, 8
è¯»å–åœ°å€ 0x80000da0
0x80000da0: 00 81 05 93 addi	a1, sp, 8
è¯»å–åœ°å€ 0x80000da4
0x80000da4: 31 00 00 ef jal	ra, 0x800010b4
è¯»å–åœ°å€ 0x800010b4
0x800010b4: 80 01 17 b7 lui	a5, 524305
è¯»å–åœ°å€ 0x800010b8
0x800010b8: 00 25 15 13 slli	a0, a0, 2
è¯»å–åœ°å€ 0x800010bc
0x800010bc: 9f 87 87 93 addi	a5, a5, -1544
è¯»å–åœ°å€ 0x800010c0
0x800010c0: 00 a7 87 b3 add	a5, a5, a0
è¯»å–åœ°å€ 0x800010c4
è¯»å–åœ°å€ 0x80010a18
0x800010c4: 00 07 a7 83 lw	a5, 0(a5)
è¯»å–åœ°å€ 0x800010c8
0x800010c8: 00 05 85 13 addi	a0, a1, 0
è¯»å–åœ°å€ 0x800010cc
0x800010cc: 00 07 80 67 jalr	zero, 0(a5)
è¯»å–åœ°å€ 0x80001134
0x80001134: a0 00 07 b7 lui	a5, 655360
è¯»å–åœ°å€ 0x80001138
read device name = keyboard 	 addr = 0xa0000060 
0x80001138: 06 07 a7 83 lw	a5, 96(a5)
è¯»å–åœ°å€ 0x8000113c
0x8000113c: 00 00 87 37 lui	a4, 8
è¯»å–åœ°å€ 0x80001140
å†™å…¥åœ°å€ 0x8009cfac
0x80001140: 00 f5 22 23 sw	a5, 4(a0)
è¯»å–åœ°å€ 0x80001144
0x80001144: 00 e7 f6 b3 and	a3, a5, a4
è¯»å–åœ°å€ 0x80001148
0x80001148: 00 06 8c 63 beq	a3, zero, 0x80001160
è¯»å–åœ°å€ 0x80001160
å†™å…¥åœ°å€ 0x8009cfa8
0x80001160: 00 05 00 23 sb	zero, 0(a0)
è¯»å–åœ°å€ 0x80001164
0x80001164: 00 00 80 67 jalr	zero, 0(ra)
è¯»å–åœ°å€ 0x80000da8
è¯»å–åœ°å€ 0x8009cfac
0x80000da8: 00 c1 26 03 lw	a2, 12(sp)
è¯»å–åœ°å€ 0x80000dac
è¯»å–åœ°å€ 0x8009cfa8
0x80000dac: 00 81 47 03 lbu	a4, 8(sp)
è¯»å–åœ°å€ 0x80000db0
0x80000db0: 18 09 05 13 addi	a0, s2, 384
è¯»å–åœ°å€ 0x80000db4
0x80000db4: 00 26 17 93 slli	a5, a2, 2
è¯»å–åœ°å€ 0x80000db8
0x80000db8: 00 f4 07 b3 add	a5, s0, a5
è¯»å–åœ°å€ 0x80000dbc
0x80000dbc: fc 06 16 e3 bne	a2, zero, 0x80000d88
è¯»å–åœ°å€ 0x80000dc0
è¯»å–åœ°å€ 0x80094e28
0x80000dc0: 00 0a c7 83 lbu	a5, 0(s5)
è¯»å–åœ°å€ 0x80000dc4
0x80000dc4: f9 1f f0 6f jal	zero, 0x80000d54
è¯»å–åœ°å€ 0x80000d54
è¯»å–åœ°å€ 0x80094e29
0x80000d54: 00 09 c7 03 lbu	a4, 0(s3)
è¯»å–åœ°å€ 0x80000d58
0x80000d58: 02 07 04 63 beq	a4, zero, 0x80000d80
è¯»å–åœ°å€ 0x80000d80
0x80000d80: 00 07 9e 63 bne	a5, zero, 0x80000d9c
è¯»å–åœ°å€ 0x80000d9c
0x80000d9c: 00 80 05 13 addi	a0, zero, 8
è¯»å–åœ°å€ 0x80000da0
0x80000da0: 00 81 05 93 addi	a1, sp, 8
è¯»å–åœ°å€ 0x80000da4
0x80000da4: 31 00 00 ef jal	ra, 0x800010b4
è¯»å–åœ°å€ 0x800010b4
0x800010b4: 80 01 17 b7 lui	a5, 524305
è¯»å–åœ°å€ 0x800010b8
0x800010b8: 00 25 15 13 slli	a0, a0, 2
è¯»å–åœ°å€ 0x800010bc
0x800010bc: 9f 87 87 93 addi	a5, a5, -1544
è¯»å–åœ°å€ 0x800010c0
0x800010c0: 00 a7 87 b3 add	a5, a5, a0
è¯»å–åœ°å€ 0x800010c4
è¯»å–åœ°å€ 0x80010a18
0x800010c4: 00 07 a7 83 lw	a5, 0(a5)
è¯»å–åœ°å€ 0x800010c8
0x800010c8: 00 05 85 13 addi	a0, a1, 0
è¯»å–åœ°å€ 0x800010cc
0x800010cc: 00 07 80 67 jalr	zero, 0(a5)
è¯»å–åœ°å€ 0x80001134
0x80001134: a0 00 07 b7 lui	a5, 655360
è¯»å–åœ°å€ 0x80001138
read device name = keyboard 	 addr = 0xa0000060 
0x80001138: 06 07 a7 83 lw	a5, 96(a5)
è¯»å–åœ°å€ 0x8000113c
0x8000113c: 00 00 87 37 lui	a4, 8
è¯»å–åœ°å€ 0x80001140
å†™å…¥åœ°å€ 0x8009cfac
0x80001140: 00 f5 22 23 sw	a5, 4(a0)
è¯»å–åœ°å€ 0x80001144
0x80001144: 00 e7 f6 b3 and	a3, a5, a4
è¯»å–åœ°å€ 0x80001148
0x80001148: 00 06 8c 63 beq	a3, zero, 0x80001160
è¯»å–åœ°å€ 0x80001160
å†™å…¥åœ°å€ 0x8009cfa8
0x80001160: 00 05 00 23 sb	zero, 0(a0)
è¯»å–åœ°å€ 0x80001164
0x80001164: 00 00 80 67 jalr	zero, 0(ra)
è¯»å–åœ°å€ 0x80000da8
è¯»å–åœ°å€ 0x8009cfac
0x80000da8: 00 c1 26 03 lw	a2, 12(sp)
è¯»å–åœ°å€ 0x80000dac
è¯»å–åœ°å€ 0x8009cfa8
0x80000dac: 00 81 47 03 lbu	a4, 8(sp)
è¯»å–åœ°å€ 0x80000db0
0x80000db0: 18 09 05 13 addi	a0, s2, 384
è¯»å–åœ°å€ 0x80000db4
0x80000db4: 00 26 17 93 slli	a5, a2, 2
è¯»å–åœ°å€ 0x80000db8
0x80000db8: 00 f4 07 b3 add	a5, s0, a5
è¯»å–åœ°å€ 0x80000dbc
0x80000dbc: fc 06 16 e3 bne	a2, zero, 0x80000d88
è¯»å–åœ°å€ 0x80000dc0
è¯»å–åœ°å€ 0x80094e28
0x80000dc0: 00 0a c7 83 lbu	a5, 0(s5)
è¯»å–åœ°å€ 0x80000dc4
0x80000dc4: f9 1f f0 6f jal	zero, 0x80000d54
è¯»å–åœ°å€ 0x80000d54
è¯»å–åœ°å€ 0x80094e29
0x80000d54: 00 09 c7 03 lbu	a4, 0(s3)
è¯»å–åœ°å€ 0x80000d58
0x80000d58: 02 07 04 63 beq	a4, zero, 0x80000d80
è¯»å–åœ°å€ 0x80000d80
0x80000d80: 00 07 9e 63 bne	a5, zero, 0x80000d9c
è¯»å–åœ°å€ 0x80000d9c
0x80000d9c: 00 80 05 13 addi	a0, zero, 8
è¯»å–åœ°å€ 0x80000da0
0x80000da0: 00 81 05 93 addi	a1, sp, 8
è¯»å–åœ°å€ 0x80000da4
0x80000da4: 31 00 00 ef jal	ra, 0x800010b4
è¯»å–åœ°å€ 0x800010b4
0x800010b4: 80 01 17 b7 lui	a5, 524305
è¯»å–åœ°å€ 0x800010b8
0x800010b8: 00 25 15 13 slli	a0, a0, 2
è¯»å–åœ°å€ 0x800010bc
0x800010bc: 9f 87 87 93 addi	a5, a5, -1544
è¯»å–åœ°å€ 0x800010c0
0x800010c0: 00 a7 87 b3 add	a5, a5, a0
è¯»å–åœ°å€ 0x800010c4
è¯»å–åœ°å€ 0x80010a18
0x800010c4: 00 07 a7 83 lw	a5, 0(a5)
è¯»å–åœ°å€ 0x800010c8
0x800010c8: 00 05 85 13 addi	a0, a1, 0
è¯»å–åœ°å€ 0x800010cc
0x800010cc: 00 07 80 67 jalr	zero, 0(a5)
è¯»å–åœ°å€ 0x80001134
0x80001134: a0 00 07 b7 lui	a5, 655360
è¯»å–åœ°å€ 0x80001138
read device name = keyboard 	 addr = 0xa0000060 
0x80001138: 06 07 a7 83 lw	a5, 96(a5)
è¯»å–åœ°å€ 0x8000113c
0x8000113c: 00 00 87 37 lui	a4, 8
è¯»å–åœ°å€ 0x80001140
å†™å…¥åœ°å€ 0x8009cfac
0x80001140: 00 f5 22 23 sw	a5, 4(a0)
è¯»å–åœ°å€ 0x80001144
0x80001144: 00 e7 f6 b3 and	a3, a5, a4
è¯»å–åœ°å€ 0x80001148
0x80001148: 00 06 8c 63 beq	a3, zero, 0x80001160
è¯»å–åœ°å€ 0x80001160
å†™å…¥åœ°å€ 0x8009cfa8
0x80001160: 00 05 00 23 sb	zero, 0(a0)
è¯»å–åœ°å€ 0x80001164
0x80001164: 00 00 80 67 jalr	zero, 0(ra)
è¯»å–åœ°å€ 0x80000da8
è¯»å–åœ°å€ 0x8009cfac
0x80000da8: 00 c1 26 03 lw	a2, 12(sp)
è¯»å–åœ°å€ 0x80000dac
è¯»å–åœ°å€ 0x8009cfa8
0x80000dac: 00 81 47 03 lbu	a4, 8(sp)
è¯»å–åœ°å€ 0x80000db0
0x80000db0: 18 09 05 13 addi	a0, s2, 384
è¯»å–åœ°å€ 0x80000db4
0x80000db4: 00 26 17 93 slli	a5, a2, 2
è¯»å–åœ°å€ 0x80000db8
0x80000db8: 00 f4 07 b3 add	a5, s0, a5
è¯»å–åœ°å€ 0x80000dbc
0x80000dbc: fc 06 16 e3 bne	a2, zero, 0x80000d88
è¯»å–åœ°å€ 0x80000dc0
è¯»å–åœ°å€ 0x80094e28
0x80000dc0: 00 0a c7 83 lbu	a5, 0(s5)
è¯»å–åœ°å€ 0x80000dc4
0x80000dc4: f9 1f f0 6f jal	zero, 0x80000d54
è¯»å–åœ°å€ 0x80000d54
è¯»å–åœ°å€ 0x80094e29
0x80000d54: 00 09 c7 03 lbu	a4, 0(s3)
è¯»å–åœ°å€ 0x80000d58
0x80000d58: 02 07 04 63 beq	a4, zero, 0x80000d80
è¯»å–åœ°å€ 0x80000d80
0x80000d80: 00 07 9e 63 bne	a5, zero, 0x80000d9c
è¯»å–åœ°å€ 0x80000d9c
0x80000d9c: 00 80 05 13 addi	a0, zero, 8
è¯»å–åœ°å€ 0x80000da0
0x80000da0: 00 81 05 93 addi	a1, sp, 8
è¯»å–åœ°å€ 0x80000da4
0x80000da4: 31 00 00 ef jal	ra, 0x800010b4
è¯»å–åœ°å€ 0x800010b4
0x800010b4: 80 01 17 b7 lui	a5, 524305
è¯»å–åœ°å€ 0x800010b8
0x800010b8: 00 25 15 13 slli	a0, a0, 2
è¯»å–åœ°å€ 0x800010bc
0x800010bc: 9f 87 87 93 addi	a5, a5, -1544
è¯»å–åœ°å€ 0x800010c0
0x800010c0: 00 a7 87 b3 add	a5, a5, a0
è¯»å–åœ°å€ 0x800010c4
è¯»å–åœ°å€ 0x80010a18
0x800010c4: 00 07 a7 83 lw	a5, 0(a5)
è¯»å–åœ°å€ 0x800010c8
0x800010c8: 00 05 85 13 addi	a0, a1, 0
è¯»å–åœ°å€ 0x800010cc
0x800010cc: 00 07 80 67 jalr	zero, 0(a5)
è¯»å–åœ°å€ 0x80001134
0x80001134: a0 00 07 b7 lui	a5, 655360
è¯»å–åœ°å€ 0x80001138
read device name = keyboard 	 addr = 0xa0000060 
0x80001138: 06 07 a7 83 lw	a5, 96(a5)
è¯»å–åœ°å€ 0x8000113c
0x8000113c: 00 00 87 37 lui	a4, 8
è¯»å–åœ°å€ 0x80001140
å†™å…¥åœ°å€ 0x8009cfac
0x80001140: 00 f5 22 23 sw	a5, 4(a0)
è¯»å–åœ°å€ 0x80001144
0x80001144: 00 e7 f6 b3 and	a3, a5, a4
è¯»å–åœ°å€ 0x80001148
0x80001148: 00 06 8c 63 beq	a3, zero, 0x80001160
è¯»å–åœ°å€ 0x80001160
å†™å…¥åœ°å€ 0x8009cfa8
0x80001160: 00 05 00 23 sb	zero, 0(a0)
è¯»å–åœ°å€ 0x80001164
0x80001164: 00 00 80 67 jalr	zero, 0(ra)
è¯»å–åœ°å€ 0x80000da8
è¯»å–åœ°å€ 0x8009cfac
0x80000da8: 00 c1 26 03 lw	a2, 12(sp)
è¯»å–åœ°å€ 0x80000dac
è¯»å–åœ°å€ 0x8009cfa8
0x80000dac: 00 81 47 03 lbu	a4, 8(sp)
è¯»å–åœ°å€ 0x80000db0
0x80000db0: 18 09 05 13 addi	a0, s2, 384
è¯»å–åœ°å€ 0x80000db4
0x80000db4: 00 26 17 93 slli	a5, a2, 2
è¯»å–åœ°å€ 0x80000db8
0x80000db8: 00 f4 07 b3 add	a5, s0, a5
è¯»å–åœ°å€ 0x80000dbc
0x80000dbc: fc 06 16 e3 bne	a2, zero, 0x80000d88
è¯»å–åœ°å€ 0x80000dc0
è¯»å–åœ°å€ 0x80094e28
0x80000dc0: 00 0a c7 83 lbu	a5, 0(s5)
è¯»å–åœ°å€ 0x80000dc4
0x80000dc4: f9 1f f0 6f jal	zero, 0x80000d54
è¯»å–åœ°å€ 0x80000d54
è¯»å–åœ°å€ 0x80094e29
0x80000d54: 00 09 c7 03 lbu	a4, 0(s3)
è¯»å–åœ°å€ 0x80000d58
0x80000d58: 02 07 04 63 beq	a4, zero, 0x80000d80
è¯»å–åœ°å€ 0x80000d80
0x80000d80: 00 07 9e 63 bne	a5, zero, 0x80000d9c
è¯»å–åœ°å€ 0x80000d9c
0x80000d9c: 00 80 05 13 addi	a0, zero, 8
è¯»å–åœ°å€ 0x80000da0
0x80000da0: 00 81 05 93 addi	a1, sp, 8
è¯»å–åœ°å€ 0x80000da4
0x80000da4: 31 00 00 ef jal	ra, 0x800010b4
è¯»å–åœ°å€ 0x800010b4
0x800010b4: 80 01 17 b7 lui	a5, 524305
è¯»å–åœ°å€ 0x800010b8
0x800010b8: 00 25 15 13 slli	a0, a0, 2
è¯»å–åœ°å€ 0x800010bc
0x800010bc: 9f 87 87 93 addi	a5, a5, -1544
è¯»å–åœ°å€ 0x800010c0
0x800010c0: 00 a7 87 b3 add	a5, a5, a0
è¯»å–åœ°å€ 0x800010c4
è¯»å–åœ°å€ 0x80010a18
0x800010c4: 00 07 a7 83 lw	a5, 0(a5)
è¯»å–åœ°å€ 0x800010c8
0x800010c8: 00 05 85 13 addi	a0, a1, 0
è¯»å–åœ°å€ 0x800010cc
0x800010cc: 00 07 80 67 jalr	zero, 0(a5)
è¯»å–åœ°å€ 0x80001134
0x80001134: a0 00 07 b7 lui	a5, 655360
è¯»å–åœ°å€ 0x80001138
read device name = keyboard 	 addr = 0xa0000060 
0x80001138: 06 07 a7 83 lw	a5, 96(a5)
è¯»å–åœ°å€ 0x8000113c
0x8000113c: 00 00 87 37 lui	a4, 8
è¯»å–åœ°å€ 0x80001140
å†™å…¥åœ°å€ 0x8009cfac
0x80001140: 00 f5 22 23 sw	a5, 4(a0)
è¯»å–åœ°å€ 0x80001144
0x80001144: 00 e7 f6 b3 and	a3, a5, a4
è¯»å–åœ°å€ 0x80001148
0x80001148: 00 06 8c 63 beq	a3, zero, 0x80001160
è¯»å–åœ°å€ 0x80001160
å†™å…¥åœ°å€ 0x8009cfa8
0x80001160: 00 05 00 23 sb	zero, 0(a0)
è¯»å–åœ°å€ 0x80001164
0x80001164: 00 00 80 67 jalr	zero, 0(ra)
è¯»å–åœ°å€ 0x80000da8
è¯»å–åœ°å€ 0x8009cfac
0x80000da8: 00 c1 26 03 lw	a2, 12(sp)
è¯»å–åœ°å€ 0x80000dac
è¯»å–åœ°å€ 0x8009cfa8
0x80000dac: 00 81 47 03 lbu	a4, 8(sp)
è¯»å–åœ°å€ 0x80000db0
0x80000db0: 18 09 05 13 addi	a0, s2, 384
è¯»å–åœ°å€ 0x80000db4
0x80000db4: 00 26 17 93 slli	a5, a2, 2
è¯»å–åœ°å€ 0x80000db8
0x80000db8: 00 f4 07 b3 add	a5, s0, a5
è¯»å–åœ°å€ 0x80000dbc
0x80000dbc: fc 06 16 e3 bne	a2, zero, 0x80000d88
è¯»å–åœ°å€ 0x80000dc0
è¯»å–åœ°å€ 0x80094e28
0x80000dc0: 00 0a c7 83 lbu	a5, 0(s5)
è¯»å–åœ°å€ 0x80000dc4
0x80000dc4: f9 1f f0 6f jal	zero, 0x80000d54
è¯»å–åœ°å€ 0x80000d54
è¯»å–åœ°å€ 0x80094e29
0x80000d54: 00 09 c7 03 lbu	a4, 0(s3)
è¯»å–åœ°å€ 0x80000d58
0x80000d58: 02 07 04 63 beq	a4, zero, 0x80000d80
è¯»å–åœ°å€ 0x80000d80
0x80000d80: 00 07 9e 63 bne	a5, zero, 0x80000d9c
è¯»å–åœ°å€ 0x80000d9c
0x80000d9c: 00 80 05 13 addi	a0, zero, 8
è¯»å–åœ°å€ 0x80000da0
0x80000da0: 00 81 05 93 addi	a1, sp, 8
è¯»å–åœ°å€ 0x80000da4
0x80000da4: 31 00 00 ef jal	ra, 0x800010b4
è¯»å–åœ°å€ 0x800010b4
0x800010b4: 80 01 17 b7 lui	a5, 524305
è¯»å–åœ°å€ 0x800010b8
0x800010b8: 00 25 15 13 slli	a0, a0, 2
è¯»å–åœ°å€ 0x800010bc
0x800010bc: 9f 87 87 93 addi	a5, a5, -1544
è¯»å–åœ°å€ 0x800010c0
0x800010c0: 00 a7 87 b3 add	a5, a5, a0
è¯»å–åœ°å€ 0x800010c4
è¯»å–åœ°å€ 0x80010a18
0x800010c4: 00 07 a7 83 lw	a5, 0(a5)
è¯»å–åœ°å€ 0x800010c8
0x800010c8: 00 05 85 13 addi	a0, a1, 0
è¯»å–åœ°å€ 0x800010cc
0x800010cc: 00 07 80 67 jalr	zero, 0(a5)
è¯»å–åœ°å€ 0x80001134
0x80001134: a0 00 07 b7 lui	a5, 655360
è¯»å–åœ°å€ 0x80001138
read device name = keyboard 	 addr = 0xa0000060 
0x80001138: 06 07 a7 83 lw	a5, 96(a5)
è¯»å–åœ°å€ 0x8000113c
0x8000113c: 00 00 87 37 lui	a4, 8
è¯»å–åœ°å€ 0x80001140
å†™å…¥åœ°å€ 0x8009cfac
0x80001140: 00 f5 22 23 sw	a5, 4(a0)
è¯»å–åœ°å€ 0x80001144
0x80001144: 00 e7 f6 b3 and	a3, a5, a4
è¯»å–åœ°å€ 0x80001148
0x80001148: 00 06 8c 63 beq	a3, zero, 0x80001160
è¯»å–åœ°å€ 0x80001160
å†™å…¥åœ°å€ 0x8009cfa8
0x80001160: 00 05 00 23 sb	zero, 0(a0)
è¯»å–åœ°å€ 0x80001164
0x80001164: 00 00 80 67 jalr	zero, 0(ra)
è¯»å–åœ°å€ 0x80000da8
è¯»å–åœ°å€ 0x8009cfac
0x80000da8: 00 c1 26 03 lw	a2, 12(sp)
è¯»å–åœ°å€ 0x80000dac
è¯»å–åœ°å€ 0x8009cfa8
0x80000dac: 00 81 47 03 lbu	a4, 8(sp)
è¯»å–åœ°å€ 0x80000db0
0x80000db0: 18 09 05 13 addi	a0, s2, 384
è¯»å–åœ°å€ 0x80000db4
0x80000db4: 00 26 17 93 slli	a5, a2, 2
è¯»å–åœ°å€ 0x80000db8
0x80000db8: 00 f4 07 b3 add	a5, s0, a5
è¯»å–åœ°å€ 0x80000dbc
0x80000dbc: fc 06 16 e3 bne	a2, zero, 0x80000d88
è¯»å–åœ°å€ 0x80000dc0
è¯»å–åœ°å€ 0x80094e28
0x80000dc0: 00 0a c7 83 lbu	a5, 0(s5)
è¯»å–åœ°å€ 0x80000dc4
0x80000dc4: f9 1f f0 6f jal	zero, 0x80000d54
è¯»å–åœ°å€ 0x80000d54
è¯»å–åœ°å€ 0x80094e29
0x80000d54: 00 09 c7 03 lbu	a4, 0(s3)
è¯»å–åœ°å€ 0x80000d58
0x80000d58: 02 07 04 63 beq	a4, zero, 0x80000d80
è¯»å–åœ°å€ 0x80000d80
0x80000d80: 00 07 9e 63 bne	a5, zero, 0x80000d9c
è¯»å–åœ°å€ 0x80000d9c
0x80000d9c: 00 80 05 13 addi	a0, zero, 8
è¯»å–åœ°å€ 0x80000da0
0x80000da0: 00 81 05 93 addi	a1, sp, 8
è¯»å–åœ°å€ 0x80000da4
0x80000da4: 31 00 00 ef jal	ra, 0x800010b4
è¯»å–åœ°å€ 0x800010b4
0x800010b4: 80 01 17 b7 lui	a5, 524305
è¯»å–åœ°å€ 0x800010b8
0x800010b8: 00 25 15 13 slli	a0, a0, 2
è¯»å–åœ°å€ 0x800010bc
0x800010bc: 9f 87 87 93 addi	a5, a5, -1544
è¯»å–åœ°å€ 0x800010c0
0x800010c0: 00 a7 87 b3 add	a5, a5, a0
è¯»å–åœ°å€ 0x800010c4
è¯»å–åœ°å€ 0x80010a18
0x800010c4: 00 07 a7 83 lw	a5, 0(a5)
è¯»å–åœ°å€ 0x800010c8
0x800010c8: 00 05 85 13 addi	a0, a1, 0
è¯»å–åœ°å€ 0x800010cc
0x800010cc: 00 07 80 67 jalr	zero, 0(a5)
è¯»å–åœ°å€ 0x80001134
0x80001134: a0 00 07 b7 lui	a5, 655360
è¯»å–åœ°å€ 0x80001138
read device name = keyboard 	 addr = 0xa0000060 
0x80001138: 06 07 a7 83 lw	a5, 96(a5)
è¯»å–åœ°å€ 0x8000113c
0x8000113c: 00 00 87 37 lui	a4, 8
è¯»å–åœ°å€ 0x80001140
å†™å…¥åœ°å€ 0x8009cfac
0x80001140: 00 f5 22 23 sw	a5, 4(a0)
è¯»å–åœ°å€ 0x80001144
0x80001144: 00 e7 f6 b3 and	a3, a5, a4
è¯»å–åœ°å€ 0x80001148
0x80001148: 00 06 8c 63 beq	a3, zero, 0x80001160
è¯»å–åœ°å€ 0x80001160
å†™å…¥åœ°å€ 0x8009cfa8
0x80001160: 00 05 00 23 sb	zero, 0(a0)
è¯»å–åœ°å€ 0x80001164
0x80001164: 00 00 80 67 jalr	zero, 0(ra)
è¯»å–åœ°å€ 0x80000da8
è¯»å–åœ°å€ 0x8009cfac
0x80000da8: 00 c1 26 03 lw	a2, 12(sp)
è¯»å–åœ°å€ 0x80000dac
è¯»å–åœ°å€ 0x8009cfa8
0x80000dac: 00 81 47 03 lbu	a4, 8(sp)
è¯»å–åœ°å€ 0x80000db0
0x80000db0: 18 09 05 13 addi	a0, s2, 384
è¯»å–åœ°å€ 0x80000db4
0x80000db4: 00 26 17 93 slli	a5, a2, 2
è¯»å–åœ°å€ 0x80000db8
0x80000db8: 00 f4 07 b3 add	a5, s0, a5
è¯»å–åœ°å€ 0x80000dbc
0x80000dbc: fc 06 16 e3 bne	a2, zero, 0x80000d88
è¯»å–åœ°å€ 0x80000dc0
è¯»å–åœ°å€ 0x80094e28
0x80000dc0: 00 0a c7 83 lbu	a5, 0(s5)
è¯»å–åœ°å€ 0x80000dc4
0x80000dc4: f9 1f f0 6f jal	zero, 0x80000d54
è¯»å–åœ°å€ 0x80000d54
è¯»å–åœ°å€ 0x80094e29
0x80000d54: 00 09 c7 03 lbu	a4, 0(s3)
è¯»å–åœ°å€ 0x80000d58
0x80000d58: 02 07 04 63 beq	a4, zero, 0x80000d80
è¯»å–åœ°å€ 0x80000d80
0x80000d80: 00 07 9e 63 bne	a5, zero, 0x80000d9c
è¯»å–åœ°å€ 0x80000d9c
0x80000d9c: 00 80 05 13 addi	a0, zero, 8
è¯»å–åœ°å€ 0x80000da0
0x80000da0: 00 81 05 93 addi	a1, sp, 8
è¯»å–åœ°å€ 0x80000da4
0x80000da4: 31 00 00 ef jal	ra, 0x800010b4
è¯»å–åœ°å€ 0x800010b4
0x800010b4: 80 01 17 b7 lui	a5, 524305
è¯»å–åœ°å€ 0x800010b8
0x800010b8: 00 25 15 13 slli	a0, a0, 2
è¯»å–åœ°å€ 0x800010bc
0x800010bc: 9f 87 87 93 addi	a5, a5, -1544
è¯»å–åœ°å€ 0x800010c0
0x800010c0: 00 a7 87 b3 add	a5, a5, a0
è¯»å–åœ°å€ 0x800010c4
è¯»å–åœ°å€ 0x80010a18
0x800010c4: 00 07 a7 83 lw	a5, 0(a5)
è¯»å–åœ°å€ 0x800010c8
0x800010c8: 00 05 85 13 addi	a0, a1, 0
è¯»å–åœ°å€ 0x800010cc
0x800010cc: 00 07 80 67 jalr	zero, 0(a5)
è¯»å–åœ°å€ 0x80001134
0x80001134: a0 00 07 b7 lui	a5, 655360
è¯»å–åœ°å€ 0x80001138
read device name = keyboard 	 addr = 0xa0000060 
0x80001138: 06 07 a7 83 lw	a5, 96(a5)
è¯»å–åœ°å€ 0x8000113c
0x8000113c: 00 00 87 37 lui	a4, 8
è¯»å–åœ°å€ 0x80001140
å†™å…¥åœ°å€ 0x8009cfac
0x80001140: 00 f5 22 23 sw	a5, 4(a0)
è¯»å–åœ°å€ 0x80001144
0x80001144: 00 e7 f6 b3 and	a3, a5, a4
è¯»å–åœ°å€ 0x80001148
0x80001148: 00 06 8c 63 beq	a3, zero, 0x80001160
è¯»å–åœ°å€ 0x80001160
å†™å…¥åœ°å€ 0x8009cfa8
0x80001160: 00 05 00 23 sb	zero, 0(a0)
è¯»å–åœ°å€ 0x80001164
0x80001164: 00 00 80 67 jalr	zero, 0(ra)
è¯»å–åœ°å€ 0x80000da8
è¯»å–åœ°å€ 0x8009cfac
0x80000da8: 00 c1 26 03 lw	a2, 12(sp)
è¯»å–åœ°å€ 0x80000dac
è¯»å–åœ°å€ 0x8009cfa8
0x80000dac: 00 81 47 03 lbu	a4, 8(sp)
è¯»å–åœ°å€ 0x80000db0
0x80000db0: 18 09 05 13 addi	a0, s2, 384
è¯»å–åœ°å€ 0x80000db4
0x80000db4: 00 26 17 93 slli	a5, a2, 2
è¯»å–åœ°å€ 0x80000db8
0x80000db8: 00 f4 07 b3 add	a5, s0, a5
è¯»å–åœ°å€ 0x80000dbc
0x80000dbc: fc 06 16 e3 bne	a2, zero, 0x80000d88
è¯»å–åœ°å€ 0x80000dc0
è¯»å–åœ°å€ 0x80094e28
0x80000dc0: 00 0a c7 83 lbu	a5, 0(s5)
è¯»å–åœ°å€ 0x80000dc4
0x80000dc4: f9 1f f0 6f jal	zero, 0x80000d54
è¯»å–åœ°å€ 0x80000d54
è¯»å–åœ°å€ 0x80094e29
0x80000d54: 00 09 c7 03 lbu	a4, 0(s3)
è¯»å–åœ°å€ 0x80000d58
0x80000d58: 02 07 04 63 beq	a4, zero, 0x80000d80
è¯»å–åœ°å€ 0x80000d80
0x80000d80: 00 07 9e 63 bne	a5, zero, 0x80000d9c
è¯»å–åœ°å€ 0x80000d9c
0x80000d9c: 00 80 05 13 addi	a0, zero, 8
è¯»å–åœ°å€ 0x80000da0
0x80000da0: 00 81 05 93 addi	a1, sp, 8
è¯»å–åœ°å€ 0x80000da4
0x80000da4: 31 00 00 ef jal	ra, 0x800010b4
è¯»å–åœ°å€ 0x800010b4
0x800010b4: 80 01 17 b7 lui	a5, 524305
è¯»å–åœ°å€ 0x800010b8
0x800010b8: 00 25 15 13 slli	a0, a0, 2
è¯»å–åœ°å€ 0x800010bc
0x800010bc: 9f 87 87 93 addi	a5, a5, -1544
è¯»å–åœ°å€ 0x800010c0
0x800010c0: 00 a7 87 b3 add	a5, a5, a0
è¯»å–åœ°å€ 0x800010c4
è¯»å–åœ°å€ 0x80010a18
0x800010c4: 00 07 a7 83 lw	a5, 0(a5)
è¯»å–åœ°å€ 0x800010c8
0x800010c8: 00 05 85 13 addi	a0, a1, 0
è¯»å–åœ°å€ 0x800010cc
0x800010cc: 00 07 80 67 jalr	zero, 0(a5)
è¯»å–åœ°å€ 0x80001134
0x80001134: a0 00 07 b7 lui	a5, 655360
è¯»å–åœ°å€ 0x80001138
read device name = keyboard 	 addr = 0xa0000060 
0x80001138: 06 07 a7 83 lw	a5, 96(a5)
è¯»å–åœ°å€ 0x8000113c
0x8000113c: 00 00 87 37 lui	a4, 8
è¯»å–åœ°å€ 0x80001140
å†™å…¥åœ°å€ 0x8009cfac
0x80001140: 00 f5 22 23 sw	a5, 4(a0)
è¯»å–åœ°å€ 0x80001144
0x80001144: 00 e7 f6 b3 and	a3, a5, a4
è¯»å–åœ°å€ 0x80001148
0x80001148: 00 06 8c 63 beq	a3, zero, 0x80001160
è¯»å–åœ°å€ 0x80001160
å†™å…¥åœ°å€ 0x8009cfa8
0x80001160: 00 05 00 23 sb	zero, 0(a0)
è¯»å–åœ°å€ 0x80001164
0x80001164: 00 00 80 67 jalr	zero, 0(ra)
è¯»å–åœ°å€ 0x80000da8
è¯»å–åœ°å€ 0x8009cfac
0x80000da8: 00 c1 26 03 lw	a2, 12(sp)
è¯»å–åœ°å€ 0x80000dac
è¯»å–åœ°å€ 0x8009cfa8
0x80000dac: 00 81 47 03 lbu	a4, 8(sp)
è¯»å–åœ°å€ 0x80000db0
0x80000db0: 18 09 05 13 addi	a0, s2, 384
è¯»å–åœ°å€ 0x80000db4
0x80000db4: 00 26 17 93 slli	a5, a2, 2
è¯»å–åœ°å€ 0x80000db8
0x80000db8: 00 f4 07 b3 add	a5, s0, a5
è¯»å–åœ°å€ 0x80000dbc
0x80000dbc: fc 06 16 e3 bne	a2, zero, 0x80000d88
è¯»å–åœ°å€ 0x80000dc0
è¯»å–åœ°å€ 0x80094e28
0x80000dc0: 00 0a c7 83 lbu	a5, 0(s5)
è¯»å–åœ°å€ 0x80000dc4
0x80000dc4: f9 1f f0 6f jal	zero, 0x80000d54
è¯»å–åœ°å€ 0x80000d54
è¯»å–åœ°å€ 0x80094e29
0x80000d54: 00 09 c7 03 lbu	a4, 0(s3)
è¯»å–åœ°å€ 0x80000d58
0x80000d58: 02 07 04 63 beq	a4, zero, 0x80000d80
è¯»å–åœ°å€ 0x80000d80
0x80000d80: 00 07 9e 63 bne	a5, zero, 0x80000d9c
è¯»å–åœ°å€ 0x80000d9c
0x80000d9c: 00 80 05 13 addi	a0, zero, 8
è¯»å–åœ°å€ 0x80000da0
0x80000da0: 00 81 05 93 addi	a1, sp, 8
è¯»å–åœ°å€ 0x80000da4
0x80000da4: 31 00 00 ef jal	ra, 0x800010b4
è¯»å–åœ°å€ 0x800010b4
0x800010b4: 80 01 17 b7 lui	a5, 524305
è¯»å–åœ°å€ 0x800010b8
0x800010b8: 00 25 15 13 slli	a0, a0, 2
è¯»å–åœ°å€ 0x800010bc
0x800010bc: 9f 87 87 93 addi	a5, a5, -1544
è¯»å–åœ°å€ 0x800010c0
0x800010c0: 00 a7 87 b3 add	a5, a5, a0
è¯»å–åœ°å€ 0x800010c4
è¯»å–åœ°å€ 0x80010a18
0x800010c4: 00 07 a7 83 lw	a5, 0(a5)
è¯»å–åœ°å€ 0x800010c8
0x800010c8: 00 05 85 13 addi	a0, a1, 0
è¯»å–åœ°å€ 0x800010cc
0x800010cc: 00 07 80 67 jalr	zero, 0(a5)
è¯»å–åœ°å€ 0x80001134
0x80001134: a0 00 07 b7 lui	a5, 655360
è¯»å–åœ°å€ 0x80001138
read device name = keyboard 	 addr = 0xa0000060 
0x80001138: 06 07 a7 83 lw	a5, 96(a5)
è¯»å–åœ°å€ 0x8000113c
0x8000113c: 00 00 87 37 lui	a4, 8
è¯»å–åœ°å€ 0x80001140
å†™å…¥åœ°å€ 0x8009cfac
0x80001140: 00 f5 22 23 sw	a5, 4(a0)
è¯»å–åœ°å€ 0x80001144
0x80001144: 00 e7 f6 b3 and	a3, a5, a4
è¯»å–åœ°å€ 0x80001148
0x80001148: 00 06 8c 63 beq	a3, zero, 0x80001160
è¯»å–åœ°å€ 0x80001160
å†™å…¥åœ°å€ 0x8009cfa8
0x80001160: 00 05 00 23 sb	zero, 0(a0)
è¯»å–åœ°å€ 0x80001164
0x80001164: 00 00 80 67 jalr	zero, 0(ra)
è¯»å–åœ°å€ 0x80000da8
è¯»å–åœ°å€ 0x8009cfac
0x80000da8: 00 c1 26 03 lw	a2, 12(sp)
è¯»å–åœ°å€ 0x80000dac
è¯»å–åœ°å€ 0x8009cfa8
0x80000dac: 00 81 47 03 lbu	a4, 8(sp)
è¯»å–åœ°å€ 0x80000db0
0x80000db0: 18 09 05 13 addi	a0, s2, 384
è¯»å–åœ°å€ 0x80000db4
0x80000db4: 00 26 17 93 slli	a5, a2, 2
è¯»å–åœ°å€ 0x80000db8
0x80000db8: 00 f4 07 b3 add	a5, s0, a5
è¯»å–åœ°å€ 0x80000dbc
0x80000dbc: fc 06 16 e3 bne	a2, zero, 0x80000d88
è¯»å–åœ°å€ 0x80000dc0
è¯»å–åœ°å€ 0x80094e28
0x80000dc0: 00 0a c7 83 lbu	a5, 0(s5)
è¯»å–åœ°å€ 0x80000dc4
0x80000dc4: f9 1f f0 6f jal	zero, 0x80000d54
è¯»å–åœ°å€ 0x80000d54
è¯»å–åœ°å€ 0x80094e29
0x80000d54: 00 09 c7 03 lbu	a4, 0(s3)
è¯»å–åœ°å€ 0x80000d58
0x80000d58: 02 07 04 63 beq	a4, zero, 0x80000d80
è¯»å–åœ°å€ 0x80000d80
0x80000d80: 00 07 9e 63 bne	a5, zero, 0x80000d9c
è¯»å–åœ°å€ 0x80000d9c
0x80000d9c: 00 80 05 13 addi	a0, zero, 8
è¯»å–åœ°å€ 0x80000da0
0x80000da0: 00 81 05 93 addi	a1, sp, 8
è¯»å–åœ°å€ 0x80000da4
0x80000da4: 31 00 00 ef jal	ra, 0x800010b4
è¯»å–åœ°å€ 0x800010b4
0x800010b4: 80 01 17 b7 lui	a5, 524305
è¯»å–åœ°å€ 0x800010b8
0x800010b8: 00 25 15 13 slli	a0, a0, 2
è¯»å–åœ°å€ 0x800010bc
0x800010bc: 9f 87 87 93 addi	a5, a5, -1544
è¯»å–åœ°å€ 0x800010c0
0x800010c0: 00 a7 87 b3 add	a5, a5, a0
è¯»å–åœ°å€ 0x800010c4
è¯»å–åœ°å€ 0x80010a18
0x800010c4: 00 07 a7 83 lw	a5, 0(a5)
è¯»å–åœ°å€ 0x800010c8
0x800010c8: 00 05 85 13 addi	a0, a1, 0
è¯»å–åœ°å€ 0x800010cc
0x800010cc: 00 07 80 67 jalr	zero, 0(a5)
è¯»å–åœ°å€ 0x80001134
0x80001134: a0 00 07 b7 lui	a5, 655360
è¯»å–åœ°å€ 0x80001138
read device name = keyboard 	 addr = 0xa0000060 
0x80001138: 06 07 a7 83 lw	a5, 96(a5)
è¯»å–åœ°å€ 0x8000113c
0x8000113c: 00 00 87 37 lui	a4, 8
è¯»å–åœ°å€ 0x80001140
å†™å…¥åœ°å€ 0x8009cfac
0x80001140: 00 f5 22 23 sw	a5, 4(a0)
è¯»å–åœ°å€ 0x80001144
0x80001144: 00 e7 f6 b3 and	a3, a5, a4
è¯»å–åœ°å€ 0x80001148
0x80001148: 00 06 8c 63 beq	a3, zero, 0x80001160
è¯»å–åœ°å€ 0x80001160
å†™å…¥åœ°å€ 0x8009cfa8
0x80001160: 00 05 00 23 sb	zero, 0(a0)
è¯»å–åœ°å€ 0x80001164
0x80001164: 00 00 80 67 jalr	zero, 0(ra)
è¯»å–åœ°å€ 0x80000da8
è¯»å–åœ°å€ 0x8009cfac
0x80000da8: 00 c1 26 03 lw	a2, 12(sp)
è¯»å–åœ°å€ 0x80000dac
è¯»å–åœ°å€ 0x8009cfa8
0x80000dac: 00 81 47 03 lbu	a4, 8(sp)
è¯»å–åœ°å€ 0x80000db0
0x80000db0: 18 09 05 13 addi	a0, s2, 384
è¯»å–åœ°å€ 0x80000db4
0x80000db4: 00 26 17 93 slli	a5, a2, 2
è¯»å–åœ°å€ 0x80000db8
0x80000db8: 00 f4 07 b3 add	a5, s0, a5
è¯»å–åœ°å€ 0x80000dbc
0x80000dbc: fc 06 16 e3 bne	a2, zero, 0x80000d88
è¯»å–åœ°å€ 0x80000dc0
è¯»å–åœ°å€ 0x80094e28
0x80000dc0: 00 0a c7 83 lbu	a5, 0(s5)
è¯»å–åœ°å€ 0x80000dc4
0x80000dc4: f9 1f f0 6f jal	zero, 0x80000d54
è¯»å–åœ°å€ 0x80000d54
è¯»å–åœ°å€ 0x80094e29
0x80000d54: 00 09 c7 03 lbu	a4, 0(s3)
è¯»å–åœ°å€ 0x80000d58
0x80000d58: 02 07 04 63 beq	a4, zero, 0x80000d80
è¯»å–åœ°å€ 0x80000d80
0x80000d80: 00 07 9e 63 bne	a5, zero, 0x80000d9c
è¯»å–åœ°å€ 0x80000d9c
0x80000d9c: 00 80 05 13 addi	a0, zero, 8
è¯»å–åœ°å€ 0x80000da0
0x80000da0: 00 81 05 93 addi	a1, sp, 8
è¯»å–åœ°å€ 0x80000da4
0x80000da4: 31 00 00 ef jal	ra, 0x800010b4
è¯»å–åœ°å€ 0x800010b4
0x800010b4: 80 01 17 b7 lui	a5, 524305
è¯»å–åœ°å€ 0x800010b8
0x800010b8: 00 25 15 13 slli	a0, a0, 2
è¯»å–åœ°å€ 0x800010bc
0x800010bc: 9f 87 87 93 addi	a5, a5, -1544
è¯»å–åœ°å€ 0x800010c0
0x800010c0: 00 a7 87 b3 add	a5, a5, a0
è¯»å–åœ°å€ 0x800010c4
è¯»å–åœ°å€ 0x80010a18
0x800010c4: 00 07 a7 83 lw	a5, 0(a5)
è¯»å–åœ°å€ 0x800010c8
0x800010c8: 00 05 85 13 addi	a0, a1, 0
è¯»å–åœ°å€ 0x800010cc
0x800010cc: 00 07 80 67 jalr	zero, 0(a5)
è¯»å–åœ°å€ 0x80001134
0x80001134: a0 00 07 b7 lui	a5, 655360
è¯»å–åœ°å€ 0x80001138
read device name = keyboard 	 addr = 0xa0000060 
0x80001138: 06 07 a7 83 lw	a5, 96(a5)
è¯»å–åœ°å€ 0x8000113c
0x8000113c: 00 00 87 37 lui	a4, 8
è¯»å–åœ°å€ 0x80001140
å†™å…¥åœ°å€ 0x8009cfac
0x80001140: 00 f5 22 23 sw	a5, 4(a0)
è¯»å–åœ°å€ 0x80001144
0x80001144: 00 e7 f6 b3 and	a3, a5, a4
è¯»å–åœ°å€ 0x80001148
0x80001148: 00 06 8c 63 beq	a3, zero, 0x80001160
è¯»å–åœ°å€ 0x80001160
å†™å…¥åœ°å€ 0x8009cfa8
0x80001160: 00 05 00 23 sb	zero, 0(a0)
è¯»å–åœ°å€ 0x80001164
0x80001164: 00 00 80 67 jalr	zero, 0(ra)
è¯»å–åœ°å€ 0x80000da8
è¯»å–åœ°å€ 0x8009cfac
0x80000da8: 00 c1 26 03 lw	a2, 12(sp)
è¯»å–åœ°å€ 0x80000dac
è¯»å–åœ°å€ 0x8009cfa8
0x80000dac: 00 81 47 03 lbu	a4, 8(sp)
è¯»å–åœ°å€ 0x80000db0
0x80000db0: 18 09 05 13 addi	a0, s2, 384
è¯»å–åœ°å€ 0x80000db4
0x80000db4: 00 26 17 93 slli	a5, a2, 2
è¯»å–åœ°å€ 0x80000db8
0x80000db8: 00 f4 07 b3 add	a5, s0, a5
è¯»å–åœ°å€ 0x80000dbc
0x80000dbc: fc 06 16 e3 bne	a2, zero, 0x80000d88
è¯»å–åœ°å€ 0x80000dc0
è¯»å–åœ°å€ 0x80094e28
0x80000dc0: 00 0a c7 83 lbu	a5, 0(s5)
è¯»å–åœ°å€ 0x80000dc4
0x80000dc4: f9 1f f0 6f jal	zero, 0x80000d54
è¯»å–åœ°å€ 0x80000d54
è¯»å–åœ°å€ 0x80094e29
0x80000d54: 00 09 c7 03 lbu	a4, 0(s3)
è¯»å–åœ°å€ 0x80000d58
0x80000d58: 02 07 04 63 beq	a4, zero, 0x80000d80
è¯»å–åœ°å€ 0x80000d80
0x80000d80: 00 07 9e 63 bne	a5, zero, 0x80000d9c
è¯»å–åœ°å€ 0x80000d9c
0x80000d9c: 00 80 05 13 addi	a0, zero, 8
è¯»å–åœ°å€ 0x80000da0
0x80000da0: 00 81 05 93 addi	a1, sp, 8
è¯»å–åœ°å€ 0x80000da4
0x80000da4: 31 00 00 ef jal	ra, 0x800010b4
è¯»å–åœ°å€ 0x800010b4
0x800010b4: 80 01 17 b7 lui	a5, 524305
è¯»å–åœ°å€ 0x800010b8
0x800010b8: 00 25 15 13 slli	a0, a0, 2
è¯»å–åœ°å€ 0x800010bc
0x800010bc: 9f 87 87 93 addi	a5, a5, -1544
è¯»å–åœ°å€ 0x800010c0
0x800010c0: 00 a7 87 b3 add	a5, a5, a0
è¯»å–åœ°å€ 0x800010c4
è¯»å–åœ°å€ 0x80010a18
0x800010c4: 00 07 a7 83 lw	a5, 0(a5)
è¯»å–åœ°å€ 0x800010c8
0x800010c8: 00 05 85 13 addi	a0, a1, 0
è¯»å–åœ°å€ 0x800010cc
0x800010cc: 00 07 80 67 jalr	zero, 0(a5)
è¯»å–åœ°å€ 0x80001134
0x80001134: a0 00 07 b7 lui	a5, 655360
è¯»å–åœ°å€ 0x80001138
read device name = keyboard 	 addr = 0xa0000060 
0x80001138: 06 07 a7 83 lw	a5, 96(a5)
è¯»å–åœ°å€ 0x8000113c
0x8000113c: 00 00 87 37 lui	a4, 8
è¯»å–åœ°å€ 0x80001140
å†™å…¥åœ°å€ 0x8009cfac
0x80001140: 00 f5 22 23 sw	a5, 4(a0)
è¯»å–åœ°å€ 0x80001144
0x80001144: 00 e7 f6 b3 and	a3, a5, a4
è¯»å–åœ°å€ 0x80001148
0x80001148: 00 06 8c 63 beq	a3, zero, 0x80001160
è¯»å–åœ°å€ 0x80001160
å†™å…¥åœ°å€ 0x8009cfa8
0x80001160: 00 05 00 23 sb	zero, 0(a0)
è¯»å–åœ°å€ 0x80001164
0x80001164: 00 00 80 67 jalr	zero, 0(ra)
è¯»å–åœ°å€ 0x80000da8
è¯»å–åœ°å€ 0x8009cfac
0x80000da8: 00 c1 26 03 lw	a2, 12(sp)
è¯»å–åœ°å€ 0x80000dac
è¯»å–åœ°å€ 0x8009cfa8
0x80000dac: 00 81 47 03 lbu	a4, 8(sp)
è¯»å–åœ°å€ 0x80000db0
0x80000db0: 18 09 05 13 addi	a0, s2, 384
è¯»å–åœ°å€ 0x80000db4
0x80000db4: 00 26 17 93 slli	a5, a2, 2
è¯»å–åœ°å€ 0x80000db8
0x80000db8: 00 f4 07 b3 add	a5, s0, a5
è¯»å–åœ°å€ 0x80000dbc
0x80000dbc: fc 06 16 e3 bne	a2, zero, 0x80000d88
è¯»å–åœ°å€ 0x80000dc0
è¯»å–åœ°å€ 0x80094e28
0x80000dc0: 00 0a c7 83 lbu	a5, 0(s5)
è¯»å–åœ°å€ 0x80000dc4
0x80000dc4: f9 1f f0 6f jal	zero, 0x80000d54
è¯»å–åœ°å€ 0x80000d54
è¯»å–åœ°å€ 0x80094e29
0x80000d54: 00 09 c7 03 lbu	a4, 0(s3)
è¯»å–åœ°å€ 0x80000d58
0x80000d58: 02 07 04 63 beq	a4, zero, 0x80000d80
è¯»å–åœ°å€ 0x80000d80
0x80000d80: 00 07 9e 63 bne	a5, zero, 0x80000d9c
è¯»å–åœ°å€ 0x80000d9c
0x80000d9c: 00 80 05 13 addi	a0, zero, 8
è¯»å–åœ°å€ 0x80000da0
0x80000da0: 00 81 05 93 addi	a1, sp, 8
è¯»å–åœ°å€ 0x80000da4
0x80000da4: 31 00 00 ef jal	ra, 0x800010b4
è¯»å–åœ°å€ 0x800010b4
0x800010b4: 80 01 17 b7 lui	a5, 524305
è¯»å–åœ°å€ 0x800010b8
0x800010b8: 00 25 15 13 slli	a0, a0, 2
è¯»å–åœ°å€ 0x800010bc
0x800010bc: 9f 87 87 93 addi	a5, a5, -1544
è¯»å–åœ°å€ 0x800010c0
0x800010c0: 00 a7 87 b3 add	a5, a5, a0
è¯»å–åœ°å€ 0x800010c4
è¯»å–åœ°å€ 0x80010a18
0x800010c4: 00 07 a7 83 lw	a5, 0(a5)
è¯»å–åœ°å€ 0x800010c8
0x800010c8: 00 05 85 13 addi	a0, a1, 0
è¯»å–åœ°å€ 0x800010cc
0x800010cc: 00 07 80 67 jalr	zero, 0(a5)
è¯»å–åœ°å€ 0x80001134
0x80001134: a0 00 07 b7 lui	a5, 655360
è¯»å–åœ°å€ 0x80001138
read device name = keyboard 	 addr = 0xa0000060 
0x80001138: 06 07 a7 83 lw	a5, 96(a5)
è¯»å–åœ°å€ 0x8000113c
0x8000113c: 00 00 87 37 lui	a4, 8
è¯»å–åœ°å€ 0x80001140
å†™å…¥åœ°å€ 0x8009cfac
0x80001140: 00 f5 22 23 sw	a5, 4(a0)
è¯»å–åœ°å€ 0x80001144
0x80001144: 00 e7 f6 b3 and	a3, a5, a4
è¯»å–åœ°å€ 0x80001148
0x80001148: 00 06 8c 63 beq	a3, zero, 0x80001160
è¯»å–åœ°å€ 0x80001160
å†™å…¥åœ°å€ 0x8009cfa8
0x80001160: 00 05 00 23 sb	zero, 0(a0)
è¯»å–åœ°å€ 0x80001164
0x80001164: 00 00 80 67 jalr	zero, 0(ra)
è¯»å–åœ°å€ 0x80000da8
è¯»å–åœ°å€ 0x8009cfac
0x80000da8: 00 c1 26 03 lw	a2, 12(sp)
è¯»å–åœ°å€ 0x80000dac
è¯»å–åœ°å€ 0x8009cfa8
0x80000dac: 00 81 47 03 lbu	a4, 8(sp)
è¯»å–åœ°å€ 0x80000db0
0x80000db0: 18 09 05 13 addi	a0, s2, 384
è¯»å–åœ°å€ 0x80000db4
0x80000db4: 00 26 17 93 slli	a5, a2, 2
è¯»å–åœ°å€ 0x80000db8
0x80000db8: 00 f4 07 b3 add	a5, s0, a5
è¯»å–åœ°å€ 0x80000dbc
0x80000dbc: fc 06 16 e3 bne	a2, zero, 0x80000d88
è¯»å–åœ°å€ 0x80000dc0
è¯»å–åœ°å€ 0x80094e28
0x80000dc0: 00 0a c7 83 lbu	a5, 0(s5)
è¯»å–åœ°å€ 0x80000dc4
0x80000dc4: f9 1f f0 6f jal	zero, 0x80000d54
è¯»å–åœ°å€ 0x80000d54
è¯»å–åœ°å€ 0x80094e29
0x80000d54: 00 09 c7 03 lbu	a4, 0(s3)
è¯»å–åœ°å€ 0x80000d58
0x80000d58: 02 07 04 63 beq	a4, zero, 0x80000d80
è¯»å–åœ°å€ 0x80000d80
0x80000d80: 00 07 9e 63 bne	a5, zero, 0x80000d9c
è¯»å–åœ°å€ 0x80000d9c
0x80000d9c: 00 80 05 13 addi	a0, zero, 8
è¯»å–åœ°å€ 0x80000da0
0x80000da0: 00 81 05 93 addi	a1, sp, 8
è¯»å–åœ°å€ 0x80000da4
0x80000da4: 31 00 00 ef jal	ra, 0x800010b4
è¯»å–åœ°å€ 0x800010b4
0x800010b4: 80 01 17 b7 lui	a5, 524305
è¯»å–åœ°å€ 0x800010b8
0x800010b8: 00 25 15 13 slli	a0, a0, 2
è¯»å–åœ°å€ 0x800010bc
0x800010bc: 9f 87 87 93 addi	a5, a5, -1544
è¯»å–åœ°å€ 0x800010c0
0x800010c0: 00 a7 87 b3 add	a5, a5, a0
è¯»å–åœ°å€ 0x800010c4
è¯»å–åœ°å€ 0x80010a18
0x800010c4: 00 07 a7 83 lw	a5, 0(a5)
è¯»å–åœ°å€ 0x800010c8
0x800010c8: 00 05 85 13 addi	a0, a1, 0
è¯»å–åœ°å€ 0x800010cc
0x800010cc: 00 07 80 67 jalr	zero, 0(a5)
è¯»å–åœ°å€ 0x80001134
0x80001134: a0 00 07 b7 lui	a5, 655360
è¯»å–åœ°å€ 0x80001138
read device name = keyboard 	 addr = 0xa0000060 
0x80001138: 06 07 a7 83 lw	a5, 96(a5)
è¯»å–åœ°å€ 0x8000113c
0x8000113c: 00 00 87 37 lui	a4, 8
è¯»å–åœ°å€ 0x80001140
å†™å…¥åœ°å€ 0x8009cfac
0x80001140: 00 f5 22 23 sw	a5, 4(a0)
è¯»å–åœ°å€ 0x80001144
0x80001144: 00 e7 f6 b3 and	a3, a5, a4
è¯»å–åœ°å€ 0x80001148
0x80001148: 00 06 8c 63 beq	a3, zero, 0x80001160
è¯»å–åœ°å€ 0x80001160
å†™å…¥åœ°å€ 0x8009cfa8
0x80001160: 00 05 00 23 sb	zero, 0(a0)
è¯»å–åœ°å€ 0x80001164
0x80001164: 00 00 80 67 jalr	zero, 0(ra)
è¯»å–åœ°å€ 0x80000da8
è¯»å–åœ°å€ 0x8009cfac
0x80000da8: 00 c1 26 03 lw	a2, 12(sp)
è¯»å–åœ°å€ 0x80000dac
è¯»å–åœ°å€ 0x8009cfa8
0x80000dac: 00 81 47 03 lbu	a4, 8(sp)
è¯»å–åœ°å€ 0x80000db0
0x80000db0: 18 09 05 13 addi	a0, s2, 384
è¯»å–åœ°å€ 0x80000db4
0x80000db4: 00 26 17 93 slli	a5, a2, 2
è¯»å–åœ°å€ 0x80000db8
0x80000db8: 00 f4 07 b3 add	a5, s0, a5
è¯»å–åœ°å€ 0x80000dbc
0x80000dbc: fc 06 16 e3 bne	a2, zero, 0x80000d88
è¯»å–åœ°å€ 0x80000dc0
è¯»å–åœ°å€ 0x80094e28
0x80000dc0: 00 0a c7 83 lbu	a5, 0(s5)
è¯»å–åœ°å€ 0x80000dc4
0x80000dc4: f9 1f f0 6f jal	zero, 0x80000d54
è¯»å–åœ°å€ 0x80000d54
è¯»å–åœ°å€ 0x80094e29
0x80000d54: 00 09 c7 03 lbu	a4, 0(s3)
è¯»å–åœ°å€ 0x80000d58
0x80000d58: 02 07 04 63 beq	a4, zero, 0x80000d80
è¯»å–åœ°å€ 0x80000d80
0x80000d80: 00 07 9e 63 bne	a5, zero, 0x80000d9c
è¯»å–åœ°å€ 0x80000d9c
0x80000d9c: 00 80 05 13 addi	a0, zero, 8
è¯»å–åœ°å€ 0x80000da0
0x80000da0: 00 81 05 93 addi	a1, sp, 8
è¯»å–åœ°å€ 0x80000da4
0x80000da4: 31 00 00 ef jal	ra, 0x800010b4
è¯»å–åœ°å€ 0x800010b4
0x800010b4: 80 01 17 b7 lui	a5, 524305
è¯»å–åœ°å€ 0x800010b8
0x800010b8: 00 25 15 13 slli	a0, a0, 2
è¯»å–åœ°å€ 0x800010bc
0x800010bc: 9f 87 87 93 addi	a5, a5, -1544
è¯»å–åœ°å€ 0x800010c0
0x800010c0: 00 a7 87 b3 add	a5, a5, a0
è¯»å–åœ°å€ 0x800010c4
è¯»å–åœ°å€ 0x80010a18
0x800010c4: 00 07 a7 83 lw	a5, 0(a5)
è¯»å–åœ°å€ 0x800010c8
0x800010c8: 00 05 85 13 addi	a0, a1, 0
è¯»å–åœ°å€ 0x800010cc
0x800010cc: 00 07 80 67 jalr	zero, 0(a5)
è¯»å–åœ°å€ 0x80001134
0x80001134: a0 00 07 b7 lui	a5, 655360
è¯»å–åœ°å€ 0x80001138
read device name = keyboard 	 addr = 0xa0000060 
0x80001138: 06 07 a7 83 lw	a5, 96(a5)
è¯»å–åœ°å€ 0x8000113c
0x8000113c: 00 00 87 37 lui	a4, 8
è¯»å–åœ°å€ 0x80001140
å†™å…¥åœ°å€ 0x8009cfac
0x80001140: 00 f5 22 23 sw	a5, 4(a0)
è¯»å–åœ°å€ 0x80001144
0x80001144: 00 e7 f6 b3 and	a3, a5, a4
è¯»å–åœ°å€ 0x80001148
0x80001148: 00 06 8c 63 beq	a3, zero, 0x80001160
è¯»å–åœ°å€ 0x80001160
å†™å…¥åœ°å€ 0x8009cfa8
0x80001160: 00 05 00 23 sb	zero, 0(a0)
è¯»å–åœ°å€ 0x80001164
0x80001164: 00 00 80 67 jalr	zero, 0(ra)
è¯»å–åœ°å€ 0x80000da8
è¯»å–åœ°å€ 0x8009cfac
0x80000da8: 00 c1 26 03 lw	a2, 12(sp)
è¯»å–åœ°å€ 0x80000dac
è¯»å–åœ°å€ 0x8009cfa8
0x80000dac: 00 81 47 03 lbu	a4, 8(sp)
è¯»å–åœ°å€ 0x80000db0
0x80000db0: 18 09 05 13 addi	a0, s2, 384
è¯»å–åœ°å€ 0x80000db4
0x80000db4: 00 26 17 93 slli	a5, a2, 2
è¯»å–åœ°å€ 0x80000db8
0x80000db8: 00 f4 07 b3 add	a5, s0, a5
è¯»å–åœ°å€ 0x80000dbc
0x80000dbc: fc 06 16 e3 bne	a2, zero, 0x80000d88
è¯»å–åœ°å€ 0x80000dc0
è¯»å–åœ°å€ 0x80094e28
0x80000dc0: 00 0a c7 83 lbu	a5, 0(s5)
è¯»å–åœ°å€ 0x80000dc4
0x80000dc4: f9 1f f0 6f jal	zero, 0x80000d54
è¯»å–åœ°å€ 0x80000d54
è¯»å–åœ°å€ 0x80094e29
0x80000d54: 00 09 c7 03 lbu	a4, 0(s3)
è¯»å–åœ°å€ 0x80000d58
0x80000d58: 02 07 04 63 beq	a4, zero, 0x80000d80
è¯»å–åœ°å€ 0x80000d80
0x80000d80: 00 07 9e 63 bne	a5, zero, 0x80000d9c
è¯»å–åœ°å€ 0x80000d9c
0x80000d9c: 00 80 05 13 addi	a0, zero, 8
è¯»å–åœ°å€ 0x80000da0
0x80000da0: 00 81 05 93 addi	a1, sp, 8
è¯»å–åœ°å€ 0x80000da4
0x80000da4: 31 00 00 ef jal	ra, 0x800010b4
è¯»å–åœ°å€ 0x800010b4
0x800010b4: 80 01 17 b7 lui	a5, 524305
è¯»å–åœ°å€ 0x800010b8
0x800010b8: 00 25 15 13 slli	a0, a0, 2
è¯»å–åœ°å€ 0x800010bc
0x800010bc: 9f 87 87 93 addi	a5, a5, -1544
è¯»å–åœ°å€ 0x800010c0
0x800010c0: 00 a7 87 b3 add	a5, a5, a0
è¯»å–åœ°å€ 0x800010c4
è¯»å–åœ°å€ 0x80010a18
0x800010c4: 00 07 a7 83 lw	a5, 0(a5)
è¯»å–åœ°å€ 0x800010c8
0x800010c8: 00 05 85 13 addi	a0, a1, 0
è¯»å–åœ°å€ 0x800010cc
0x800010cc: 00 07 80 67 jalr	zero, 0(a5)
è¯»å–åœ°å€ 0x80001134
0x80001134: a0 00 07 b7 lui	a5, 655360
è¯»å–åœ°å€ 0x80001138
read device name = keyboard 	 addr = 0xa0000060 
0x80001138: 06 07 a7 83 lw	a5, 96(a5)
è¯»å–åœ°å€ 0x8000113c
0x8000113c: 00 00 87 37 lui	a4, 8
è¯»å–åœ°å€ 0x80001140
å†™å…¥åœ°å€ 0x8009cfac
0x80001140: 00 f5 22 23 sw	a5, 4(a0)
è¯»å–åœ°å€ 0x80001144
0x80001144: 00 e7 f6 b3 and	a3, a5, a4
è¯»å–åœ°å€ 0x80001148
0x80001148: 00 06 8c 63 beq	a3, zero, 0x80001160
è¯»å–åœ°å€ 0x80001160
å†™å…¥åœ°å€ 0x8009cfa8
0x80001160: 00 05 00 23 sb	zero, 0(a0)
è¯»å–åœ°å€ 0x80001164
0x80001164: 00 00 80 67 jalr	zero, 0(ra)
è¯»å–åœ°å€ 0x80000da8
è¯»å–åœ°å€ 0x8009cfac
0x80000da8: 00 c1 26 03 lw	a2, 12(sp)
è¯»å–åœ°å€ 0x80000dac
è¯»å–åœ°å€ 0x8009cfa8
0x80000dac: 00 81 47 03 lbu	a4, 8(sp)
è¯»å–åœ°å€ 0x80000db0
0x80000db0: 18 09 05 13 addi	a0, s2, 384
è¯»å–åœ°å€ 0x80000db4
0x80000db4: 00 26 17 93 slli	a5, a2, 2
è¯»å–åœ°å€ 0x80000db8
0x80000db8: 00 f4 07 b3 add	a5, s0, a5
è¯»å–åœ°å€ 0x80000dbc
0x80000dbc: fc 06 16 e3 bne	a2, zero, 0x80000d88
è¯»å–åœ°å€ 0x80000dc0
è¯»å–åœ°å€ 0x80094e28
0x80000dc0: 00 0a c7 83 lbu	a5, 0(s5)
è¯»å–åœ°å€ 0x80000dc4
0x80000dc4: f9 1f f0 6f jal	zero, 0x80000d54
è¯»å–åœ°å€ 0x80000d54
è¯»å–åœ°å€ 0x80094e29
0x80000d54: 00 09 c7 03 lbu	a4, 0(s3)
è¯»å–åœ°å€ 0x80000d58
0x80000d58: 02 07 04 63 beq	a4, zero, 0x80000d80
è¯»å–åœ°å€ 0x80000d80
0x80000d80: 00 07 9e 63 bne	a5, zero, 0x80000d9c
è¯»å–åœ°å€ 0x80000d9c
0x80000d9c: 00 80 05 13 addi	a0, zero, 8
è¯»å–åœ°å€ 0x80000da0
0x80000da0: 00 81 05 93 addi	a1, sp, 8
è¯»å–åœ°å€ 0x80000da4
0x80000da4: 31 00 00 ef jal	ra, 0x800010b4
è¯»å–åœ°å€ 0x800010b4
0x800010b4: 80 01 17 b7 lui	a5, 524305
è¯»å–åœ°å€ 0x800010b8
0x800010b8: 00 25 15 13 slli	a0, a0, 2
è¯»å–åœ°å€ 0x800010bc
0x800010bc: 9f 87 87 93 addi	a5, a5, -1544
è¯»å–åœ°å€ 0x800010c0
0x800010c0: 00 a7 87 b3 add	a5, a5, a0
è¯»å–åœ°å€ 0x800010c4
è¯»å–åœ°å€ 0x80010a18
0x800010c4: 00 07 a7 83 lw	a5, 0(a5)
è¯»å–åœ°å€ 0x800010c8
0x800010c8: 00 05 85 13 addi	a0, a1, 0
è¯»å–åœ°å€ 0x800010cc
0x800010cc: 00 07 80 67 jalr	zero, 0(a5)
è¯»å–åœ°å€ 0x80001134
0x80001134: a0 00 07 b7 lui	a5, 655360
è¯»å–åœ°å€ 0x80001138
read device name = keyboard 	 addr = 0xa0000060 
0x80001138: 06 07 a7 83 lw	a5, 96(a5)
è¯»å–åœ°å€ 0x8000113c
0x8000113c: 00 00 87 37 lui	a4, 8
è¯»å–åœ°å€ 0x80001140
å†™å…¥åœ°å€ 0x8009cfac
0x80001140: 00 f5 22 23 sw	a5, 4(a0)
è¯»å–åœ°å€ 0x80001144
0x80001144: 00 e7 f6 b3 and	a3, a5, a4
è¯»å–åœ°å€ 0x80001148
0x80001148: 00 06 8c 63 beq	a3, zero, 0x80001160
è¯»å–åœ°å€ 0x80001160
å†™å…¥åœ°å€ 0x8009cfa8
0x80001160: 00 05 00 23 sb	zero, 0(a0)
è¯»å–åœ°å€ 0x80001164
0x80001164: 00 00 80 67 jalr	zero, 0(ra)
è¯»å–åœ°å€ 0x80000da8
è¯»å–åœ°å€ 0x8009cfac
0x80000da8: 00 c1 26 03 lw	a2, 12(sp)
è¯»å–åœ°å€ 0x80000dac
è¯»å–åœ°å€ 0x8009cfa8
0x80000dac: 00 81 47 03 lbu	a4, 8(sp)
è¯»å–åœ°å€ 0x80000db0
0x80000db0: 18 09 05 13 addi	a0, s2, 384
è¯»å–åœ°å€ 0x80000db4
0x80000db4: 00 26 17 93 slli	a5, a2, 2
è¯»å–åœ°å€ 0x80000db8
0x80000db8: 00 f4 07 b3 add	a5, s0, a5
è¯»å–åœ°å€ 0x80000dbc
0x80000dbc: fc 06 16 e3 bne	a2, zero, 0x80000d88
è¯»å–åœ°å€ 0x80000dc0
è¯»å–åœ°å€ 0x80094e28
0x80000dc0: 00 0a c7 83 lbu	a5, 0(s5)
è¯»å–åœ°å€ 0x80000dc4
0x80000dc4: f9 1f f0 6f jal	zero, 0x80000d54
è¯»å–åœ°å€ 0x80000d54
è¯»å–åœ°å€ 0x80094e29
0x80000d54: 00 09 c7 03 lbu	a4, 0(s3)
è¯»å–åœ°å€ 0x80000d58
0x80000d58: 02 07 04 63 beq	a4, zero, 0x80000d80
è¯»å–åœ°å€ 0x80000d80
0x80000d80: 00 07 9e 63 bne	a5, zero, 0x80000d9c
è¯»å–åœ°å€ 0x80000d9c
0x80000d9c: 00 80 05 13 addi	a0, zero, 8
è¯»å–åœ°å€ 0x80000da0
0x80000da0: 00 81 05 93 addi	a1, sp, 8
è¯»å–åœ°å€ 0x80000da4
0x80000da4: 31 00 00 ef jal	ra, 0x800010b4
è¯»å–åœ°å€ 0x800010b4
0x800010b4: 80 01 17 b7 lui	a5, 524305
è¯»å–åœ°å€ 0x800010b8
0x800010b8: 00 25 15 13 slli	a0, a0, 2
è¯»å–åœ°å€ 0x800010bc
0x800010bc: 9f 87 87 93 addi	a5, a5, -1544
è¯»å–åœ°å€ 0x800010c0
0x800010c0: 00 a7 87 b3 add	a5, a5, a0
è¯»å–åœ°å€ 0x800010c4
è¯»å–åœ°å€ 0x80010a18
0x800010c4: 00 07 a7 83 lw	a5, 0(a5)
è¯»å–åœ°å€ 0x800010c8
0x800010c8: 00 05 85 13 addi	a0, a1, 0
è¯»å–åœ°å€ 0x800010cc
0x800010cc: 00 07 80 67 jalr	zero, 0(a5)
è¯»å–åœ°å€ 0x80001134
0x80001134: a0 00 07 b7 lui	a5, 655360
è¯»å–åœ°å€ 0x80001138
read device name = keyboard 	 addr = 0xa0000060 
0x80001138: 06 07 a7 83 lw	a5, 96(a5)
è¯»å–åœ°å€ 0x8000113c
0x8000113c: 00 00 87 37 lui	a4, 8
è¯»å–åœ°å€ 0x80001140
å†™å…¥åœ°å€ 0x8009cfac
0x80001140: 00 f5 22 23 sw	a5, 4(a0)
è¯»å–åœ°å€ 0x80001144
0x80001144: 00 e7 f6 b3 and	a3, a5, a4
è¯»å–åœ°å€ 0x80001148
0x80001148: 00 06 8c 63 beq	a3, zero, 0x80001160
è¯»å–åœ°å€ 0x80001160
å†™å…¥åœ°å€ 0x8009cfa8
0x80001160: 00 05 00 23 sb	zero, 0(a0)
è¯»å–åœ°å€ 0x80001164
0x80001164: 00 00 80 67 jalr	zero, 0(ra)
è¯»å–åœ°å€ 0x80000da8
è¯»å–åœ°å€ 0x8009cfac
0x80000da8: 00 c1 26 03 lw	a2, 12(sp)
è¯»å–åœ°å€ 0x80000dac
è¯»å–åœ°å€ 0x8009cfa8
0x80000dac: 00 81 47 03 lbu	a4, 8(sp)
è¯»å–åœ°å€ 0x80000db0
0x80000db0: 18 09 05 13 addi	a0, s2, 384
è¯»å–åœ°å€ 0x80000db4
0x80000db4: 00 26 17 93 slli	a5, a2, 2
è¯»å–åœ°å€ 0x80000db8
0x80000db8: 00 f4 07 b3 add	a5, s0, a5
è¯»å–åœ°å€ 0x80000dbc
0x80000dbc: fc 06 16 e3 bne	a2, zero, 0x80000d88
è¯»å–åœ°å€ 0x80000dc0
è¯»å–åœ°å€ 0x80094e28
0x80000dc0: 00 0a c7 83 lbu	a5, 0(s5)
è¯»å–åœ°å€ 0x80000dc4
0x80000dc4: f9 1f f0 6f jal	zero, 0x80000d54
è¯»å–åœ°å€ 0x80000d54
è¯»å–åœ°å€ 0x80094e29
0x80000d54: 00 09 c7 03 lbu	a4, 0(s3)
è¯»å–åœ°å€ 0x80000d58
0x80000d58: 02 07 04 63 beq	a4, zero, 0x80000d80
è¯»å–åœ°å€ 0x80000d80
0x80000d80: 00 07 9e 63 bne	a5, zero, 0x80000d9c
è¯»å–åœ°å€ 0x80000d9c
0x80000d9c: 00 80 05 13 addi	a0, zero, 8
è¯»å–åœ°å€ 0x80000da0
0x80000da0: 00 81 05 93 addi	a1, sp, 8
è¯»å–åœ°å€ 0x80000da4
0x80000da4: 31 00 00 ef jal	ra, 0x800010b4
è¯»å–åœ°å€ 0x800010b4
0x800010b4: 80 01 17 b7 lui	a5, 524305
è¯»å–åœ°å€ 0x800010b8
0x800010b8: 00 25 15 13 slli	a0, a0, 2
è¯»å–åœ°å€ 0x800010bc
0x800010bc: 9f 87 87 93 addi	a5, a5, -1544
è¯»å–åœ°å€ 0x800010c0
0x800010c0: 00 a7 87 b3 add	a5, a5, a0
è¯»å–åœ°å€ 0x800010c4
è¯»å–åœ°å€ 0x80010a18
0x800010c4: 00 07 a7 83 lw	a5, 0(a5)
è¯»å–åœ°å€ 0x800010c8
0x800010c8: 00 05 85 13 addi	a0, a1, 0
è¯»å–åœ°å€ 0x800010cc
0x800010cc: 00 07 80 67 jalr	zero, 0(a5)
è¯»å–åœ°å€ 0x80001134
0x80001134: a0 00 07 b7 lui	a5, 655360
è¯»å–åœ°å€ 0x80001138
read device name = keyboard 	 addr = 0xa0000060 
0x80001138: 06 07 a7 83 lw	a5, 96(a5)
è¯»å–åœ°å€ 0x8000113c
0x8000113c: 00 00 87 37 lui	a4, 8
è¯»å–åœ°å€ 0x80001140
å†™å…¥åœ°å€ 0x8009cfac
0x80001140: 00 f5 22 23 sw	a5, 4(a0)
è¯»å–åœ°å€ 0x80001144
0x80001144: 00 e7 f6 b3 and	a3, a5, a4
è¯»å–åœ°å€ 0x80001148
0x80001148: 00 06 8c 63 beq	a3, zero, 0x80001160
è¯»å–åœ°å€ 0x80001160
å†™å…¥åœ°å€ 0x8009cfa8
0x80001160: 00 05 00 23 sb	zero, 0(a0)
è¯»å–åœ°å€ 0x80001164
0x80001164: 00 00 80 67 jalr	zero, 0(ra)
è¯»å–åœ°å€ 0x80000da8
è¯»å–åœ°å€ 0x8009cfac
0x80000da8: 00 c1 26 03 lw	a2, 12(sp)
è¯»å–åœ°å€ 0x80000dac
è¯»å–åœ°å€ 0x8009cfa8
0x80000dac: 00 81 47 03 lbu	a4, 8(sp)
è¯»å–åœ°å€ 0x80000db0
0x80000db0: 18 09 05 13 addi	a0, s2, 384
è¯»å–åœ°å€ 0x80000db4
0x80000db4: 00 26 17 93 slli	a5, a2, 2
è¯»å–åœ°å€ 0x80000db8
0x80000db8: 00 f4 07 b3 add	a5, s0, a5
è¯»å–åœ°å€ 0x80000dbc
0x80000dbc: fc 06 16 e3 bne	a2, zero, 0x80000d88
è¯»å–åœ°å€ 0x80000dc0
è¯»å–åœ°å€ 0x80094e28
0x80000dc0: 00 0a c7 83 lbu	a5, 0(s5)
è¯»å–åœ°å€ 0x80000dc4
0x80000dc4: f9 1f f0 6f jal	zero, 0x80000d54
è¯»å–åœ°å€ 0x80000d54
è¯»å–åœ°å€ 0x80094e29
0x80000d54: 00 09 c7 03 lbu	a4, 0(s3)
è¯»å–åœ°å€ 0x80000d58
0x80000d58: 02 07 04 63 beq	a4, zero, 0x80000d80
è¯»å–åœ°å€ 0x80000d80
0x80000d80: 00 07 9e 63 bne	a5, zero, 0x80000d9c
è¯»å–åœ°å€ 0x80000d9c
0x80000d9c: 00 80 05 13 addi	a0, zero, 8
è¯»å–åœ°å€ 0x80000da0
0x80000da0: 00 81 05 93 addi	a1, sp, 8
è¯»å–åœ°å€ 0x80000da4
0x80000da4: 31 00 00 ef jal	ra, 0x800010b4
è¯»å–åœ°å€ 0x800010b4
0x800010b4: 80 01 17 b7 lui	a5, 524305
è¯»å–åœ°å€ 0x800010b8
0x800010b8: 00 25 15 13 slli	a0, a0, 2
è¯»å–åœ°å€ 0x800010bc
0x800010bc: 9f 87 87 93 addi	a5, a5, -1544
è¯»å–åœ°å€ 0x800010c0
0x800010c0: 00 a7 87 b3 add	a5, a5, a0
è¯»å–åœ°å€ 0x800010c4
è¯»å–åœ°å€ 0x80010a18
0x800010c4: 00 07 a7 83 lw	a5, 0(a5)
è¯»å–åœ°å€ 0x800010c8
0x800010c8: 00 05 85 13 addi	a0, a1, 0
è¯»å–åœ°å€ 0x800010cc
0x800010cc: 00 07 80 67 jalr	zero, 0(a5)
è¯»å–åœ°å€ 0x80001134
0x80001134: a0 00 07 b7 lui	a5, 655360
è¯»å–åœ°å€ 0x80001138
read device name = keyboard 	 addr = 0xa0000060 
0x80001138: 06 07 a7 83 lw	a5, 96(a5)
è¯»å–åœ°å€ 0x8000113c
0x8000113c: 00 00 87 37 lui	a4, 8
è¯»å–åœ°å€ 0x80001140
å†™å…¥åœ°å€ 0x8009cfac
0x80001140: 00 f5 22 23 sw	a5, 4(a0)
è¯»å–åœ°å€ 0x80001144
0x80001144: 00 e7 f6 b3 and	a3, a5, a4
è¯»å–åœ°å€ 0x80001148
0x80001148: 00 06 8c 63 beq	a3, zero, 0x80001160
è¯»å–åœ°å€ 0x80001160
å†™å…¥åœ°å€ 0x8009cfa8
0x80001160: 00 05 00 23 sb	zero, 0(a0)
è¯»å–åœ°å€ 0x80001164
0x80001164: 00 00 80 67 jalr	zero, 0(ra)
è¯»å–åœ°å€ 0x80000da8
è¯»å–åœ°å€ 0x8009cfac
0x80000da8: 00 c1 26 03 lw	a2, 12(sp)
è¯»å–åœ°å€ 0x80000dac
è¯»å–åœ°å€ 0x8009cfa8
0x80000dac: 00 81 47 03 lbu	a4, 8(sp)
è¯»å–åœ°å€ 0x80000db0
0x80000db0: 18 09 05 13 addi	a0, s2, 384
è¯»å–åœ°å€ 0x80000db4
0x80000db4: 00 26 17 93 slli	a5, a2, 2
è¯»å–åœ°å€ 0x80000db8
0x80000db8: 00 f4 07 b3 add	a5, s0, a5
è¯»å–åœ°å€ 0x80000dbc
0x80000dbc: fc 06 16 e3 bne	a2, zero, 0x80000d88
è¯»å–åœ°å€ 0x80000dc0
è¯»å–åœ°å€ 0x80094e28
0x80000dc0: 00 0a c7 83 lbu	a5, 0(s5)
è¯»å–åœ°å€ 0x80000dc4
0x80000dc4: f9 1f f0 6f jal	zero, 0x80000d54
è¯»å–åœ°å€ 0x80000d54
è¯»å–åœ°å€ 0x80094e29
0x80000d54: 00 09 c7 03 lbu	a4, 0(s3)
è¯»å–åœ°å€ 0x80000d58
0x80000d58: 02 07 04 63 beq	a4, zero, 0x80000d80
è¯»å–åœ°å€ 0x80000d80
0x80000d80: 00 07 9e 63 bne	a5, zero, 0x80000d9c
è¯»å–åœ°å€ 0x80000d9c
0x80000d9c: 00 80 05 13 addi	a0, zero, 8
è¯»å–åœ°å€ 0x80000da0
0x80000da0: 00 81 05 93 addi	a1, sp, 8
è¯»å–åœ°å€ 0x80000da4
0x80000da4: 31 00 00 ef jal	ra, 0x800010b4
è¯»å–åœ°å€ 0x800010b4
0x800010b4: 80 01 17 b7 lui	a5, 524305
è¯»å–åœ°å€ 0x800010b8
0x800010b8: 00 25 15 13 slli	a0, a0, 2
è¯»å–åœ°å€ 0x800010bc
0x800010bc: 9f 87 87 93 addi	a5, a5, -1544
è¯»å–åœ°å€ 0x800010c0
0x800010c0: 00 a7 87 b3 add	a5, a5, a0
è¯»å–åœ°å€ 0x800010c4
è¯»å–åœ°å€ 0x80010a18
0x800010c4: 00 07 a7 83 lw	a5, 0(a5)
è¯»å–åœ°å€ 0x800010c8
0x800010c8: 00 05 85 13 addi	a0, a1, 0
è¯»å–åœ°å€ 0x800010cc
0x800010cc: 00 07 80 67 jalr	zero, 0(a5)
è¯»å–åœ°å€ 0x80001134
0x80001134: a0 00 07 b7 lui	a5, 655360
è¯»å–åœ°å€ 0x80001138
read device name = keyboard 	 addr = 0xa0000060 
0x80001138: 06 07 a7 83 lw	a5, 96(a5)
è¯»å–åœ°å€ 0x8000113c
0x8000113c: 00 00 87 37 lui	a4, 8
è¯»å–åœ°å€ 0x80001140
å†™å…¥åœ°å€ 0x8009cfac
0x80001140: 00 f5 22 23 sw	a5, 4(a0)
è¯»å–åœ°å€ 0x80001144
0x80001144: 00 e7 f6 b3 and	a3, a5, a4
è¯»å–åœ°å€ 0x80001148
0x80001148: 00 06 8c 63 beq	a3, zero, 0x80001160
è¯»å–åœ°å€ 0x80001160
å†™å…¥åœ°å€ 0x8009cfa8
0x80001160: 00 05 00 23 sb	zero, 0(a0)
è¯»å–åœ°å€ 0x80001164
0x80001164: 00 00 80 67 jalr	zero, 0(ra)
è¯»å–åœ°å€ 0x80000da8
è¯»å–åœ°å€ 0x8009cfac
0x80000da8: 00 c1 26 03 lw	a2, 12(sp)
è¯»å–åœ°å€ 0x80000dac
è¯»å–åœ°å€ 0x8009cfa8
0x80000dac: 00 81 47 03 lbu	a4, 8(sp)
è¯»å–åœ°å€ 0x80000db0
0x80000db0: 18 09 05 13 addi	a0, s2, 384
è¯»å–åœ°å€ 0x80000db4
0x80000db4: 00 26 17 93 slli	a5, a2, 2
è¯»å–åœ°å€ 0x80000db8
0x80000db8: 00 f4 07 b3 add	a5, s0, a5
è¯»å–åœ°å€ 0x80000dbc
0x80000dbc: fc 06 16 e3 bne	a2, zero, 0x80000d88
è¯»å–åœ°å€ 0x80000dc0
è¯»å–åœ°å€ 0x80094e28
0x80000dc0: 00 0a c7 83 lbu	a5, 0(s5)
è¯»å–åœ°å€ 0x80000dc4
0x80000dc4: f9 1f f0 6f jal	zero, 0x80000d54
è¯»å–åœ°å€ 0x80000d54
è¯»å–åœ°å€ 0x80094e29
0x80000d54: 00 09 c7 03 lbu	a4, 0(s3)
è¯»å–åœ°å€ 0x80000d58
0x80000d58: 02 07 04 63 beq	a4, zero, 0x80000d80
è¯»å–åœ°å€ 0x80000d80
0x80000d80: 00 07 9e 63 bne	a5, zero, 0x80000d9c
è¯»å–åœ°å€ 0x80000d9c
0x80000d9c: 00 80 05 13 addi	a0, zero, 8
è¯»å–åœ°å€ 0x80000da0
0x80000da0: 00 81 05 93 addi	a1, sp, 8
è¯»å–åœ°å€ 0x80000da4
0x80000da4: 31 00 00 ef jal	ra, 0x800010b4
è¯»å–åœ°å€ 0x800010b4
0x800010b4: 80 01 17 b7 lui	a5, 524305
è¯»å–åœ°å€ 0x800010b8
0x800010b8: 00 25 15 13 slli	a0, a0, 2
è¯»å–åœ°å€ 0x800010bc
0x800010bc: 9f 87 87 93 addi	a5, a5, -1544
è¯»å–åœ°å€ 0x800010c0
0x800010c0: 00 a7 87 b3 add	a5, a5, a0
è¯»å–åœ°å€ 0x800010c4
è¯»å–åœ°å€ 0x80010a18
0x800010c4: 00 07 a7 83 lw	a5, 0(a5)
è¯»å–åœ°å€ 0x800010c8
0x800010c8: 00 05 85 13 addi	a0, a1, 0
è¯»å–åœ°å€ 0x800010cc
0x800010cc: 00 07 80 67 jalr	zero, 0(a5)
è¯»å–åœ°å€ 0x80001134
0x80001134: a0 00 07 b7 lui	a5, 655360
è¯»å–åœ°å€ 0x80001138
read device name = keyboard 	 addr = 0xa0000060 
0x80001138: 06 07 a7 83 lw	a5, 96(a5)
è¯»å–åœ°å€ 0x8000113c
0x8000113c: 00 00 87 37 lui	a4, 8
è¯»å–åœ°å€ 0x80001140
å†™å…¥åœ°å€ 0x8009cfac
0x80001140: 00 f5 22 23 sw	a5, 4(a0)
è¯»å–åœ°å€ 0x80001144
0x80001144: 00 e7 f6 b3 and	a3, a5, a4
è¯»å–åœ°å€ 0x80001148
0x80001148: 00 06 8c 63 beq	a3, zero, 0x80001160
è¯»å–åœ°å€ 0x80001160
å†™å…¥åœ°å€ 0x8009cfa8
0x80001160: 00 05 00 23 sb	zero, 0(a0)
è¯»å–åœ°å€ 0x80001164
0x80001164: 00 00 80 67 jalr	zero, 0(ra)
è¯»å–åœ°å€ 0x80000da8
è¯»å–åœ°å€ 0x8009cfac
0x80000da8: 00 c1 26 03 lw	a2, 12(sp)
è¯»å–åœ°å€ 0x80000dac
è¯»å–åœ°å€ 0x8009cfa8
0x80000dac: 00 81 47 03 lbu	a4, 8(sp)
è¯»å–åœ°å€ 0x80000db0
0x80000db0: 18 09 05 13 addi	a0, s2, 384
è¯»å–åœ°å€ 0x80000db4
0x80000db4: 00 26 17 93 slli	a5, a2, 2
è¯»å–åœ°å€ 0x80000db8
0x80000db8: 00 f4 07 b3 add	a5, s0, a5
è¯»å–åœ°å€ 0x80000dbc
0x80000dbc: fc 06 16 e3 bne	a2, zero, 0x80000d88
è¯»å–åœ°å€ 0x80000dc0
è¯»å–åœ°å€ 0x80094e28
0x80000dc0: 00 0a c7 83 lbu	a5, 0(s5)
è¯»å–åœ°å€ 0x80000dc4
0x80000dc4: f9 1f f0 6f jal	zero, 0x80000d54
è¯»å–åœ°å€ 0x80000d54
è¯»å–åœ°å€ 0x80094e29
0x80000d54: 00 09 c7 03 lbu	a4, 0(s3)
è¯»å–åœ°å€ 0x80000d58
0x80000d58: 02 07 04 63 beq	a4, zero, 0x80000d80
è¯»å–åœ°å€ 0x80000d80
0x80000d80: 00 07 9e 63 bne	a5, zero, 0x80000d9c
è¯»å–åœ°å€ 0x80000d9c
0x80000d9c: 00 80 05 13 addi	a0, zero, 8
è¯»å–åœ°å€ 0x80000da0
0x80000da0: 00 81 05 93 addi	a1, sp, 8
è¯»å–åœ°å€ 0x80000da4
0x80000da4: 31 00 00 ef jal	ra, 0x800010b4
è¯»å–åœ°å€ 0x800010b4
0x800010b4: 80 01 17 b7 lui	a5, 524305
è¯»å–åœ°å€ 0x800010b8
0x800010b8: 00 25 15 13 slli	a0, a0, 2
è¯»å–åœ°å€ 0x800010bc
0x800010bc: 9f 87 87 93 addi	a5, a5, -1544
è¯»å–åœ°å€ 0x800010c0
0x800010c0: 00 a7 87 b3 add	a5, a5, a0
è¯»å–åœ°å€ 0x800010c4
è¯»å–åœ°å€ 0x80010a18
0x800010c4: 00 07 a7 83 lw	a5, 0(a5)
è¯»å–åœ°å€ 0x800010c8
0x800010c8: 00 05 85 13 addi	a0, a1, 0
è¯»å–åœ°å€ 0x800010cc
0x800010cc: 00 07 80 67 jalr	zero, 0(a5)
è¯»å–åœ°å€ 0x80001134
0x80001134: a0 00 07 b7 lui	a5, 655360
è¯»å–åœ°å€ 0x80001138
read device name = keyboard 	 addr = 0xa0000060 
0x80001138: 06 07 a7 83 lw	a5, 96(a5)
è¯»å–åœ°å€ 0x8000113c
0x8000113c: 00 00 87 37 lui	a4, 8
è¯»å–åœ°å€ 0x80001140
å†™å…¥åœ°å€ 0x8009cfac
0x80001140: 00 f5 22 23 sw	a5, 4(a0)
è¯»å–åœ°å€ 0x80001144
0x80001144: 00 e7 f6 b3 and	a3, a5, a4
è¯»å–åœ°å€ 0x80001148
0x80001148: 00 06 8c 63 beq	a3, zero, 0x80001160
è¯»å–åœ°å€ 0x80001160
å†™å…¥åœ°å€ 0x8009cfa8
0x80001160: 00 05 00 23 sb	zero, 0(a0)
è¯»å–åœ°å€ 0x80001164
0x80001164: 00 00 80 67 jalr	zero, 0(ra)
è¯»å–åœ°å€ 0x80000da8
è¯»å–åœ°å€ 0x8009cfac
0x80000da8: 00 c1 26 03 lw	a2, 12(sp)
è¯»å–åœ°å€ 0x80000dac
è¯»å–åœ°å€ 0x8009cfa8
0x80000dac: 00 81 47 03 lbu	a4, 8(sp)
è¯»å–åœ°å€ 0x80000db0
0x80000db0: 18 09 05 13 addi	a0, s2, 384
è¯»å–åœ°å€ 0x80000db4
0x80000db4: 00 26 17 93 slli	a5, a2, 2
è¯»å–åœ°å€ 0x80000db8
0x80000db8: 00 f4 07 b3 add	a5, s0, a5
è¯»å–åœ°å€ 0x80000dbc
0x80000dbc: fc 06 16 e3 bne	a2, zero, 0x80000d88
è¯»å–åœ°å€ 0x80000dc0
è¯»å–åœ°å€ 0x80094e28
0x80000dc0: 00 0a c7 83 lbu	a5, 0(s5)
è¯»å–åœ°å€ 0x80000dc4
0x80000dc4: f9 1f f0 6f jal	zero, 0x80000d54
è¯»å–åœ°å€ 0x80000d54
è¯»å–åœ°å€ 0x80094e29
0x80000d54: 00 09 c7 03 lbu	a4, 0(s3)
è¯»å–åœ°å€ 0x80000d58
0x80000d58: 02 07 04 63 beq	a4, zero, 0x80000d80
è¯»å–åœ°å€ 0x80000d80
0x80000d80: 00 07 9e 63 bne	a5, zero, 0x80000d9c
è¯»å–åœ°å€ 0x80000d9c
0x80000d9c: 00 80 05 13 addi	a0, zero, 8
è¯»å–åœ°å€ 0x80000da0
0x80000da0: 00 81 05 93 addi	a1, sp, 8
è¯»å–åœ°å€ 0x80000da4
0x80000da4: 31 00 00 ef jal	ra, 0x800010b4
è¯»å–åœ°å€ 0x800010b4
0x800010b4: 80 01 17 b7 lui	a5, 524305
è¯»å–åœ°å€ 0x800010b8
0x800010b8: 00 25 15 13 slli	a0, a0, 2
è¯»å–åœ°å€ 0x800010bc
0x800010bc: 9f 87 87 93 addi	a5, a5, -1544
è¯»å–åœ°å€ 0x800010c0
0x800010c0: 00 a7 87 b3 add	a5, a5, a0
è¯»å–åœ°å€ 0x800010c4
è¯»å–åœ°å€ 0x80010a18
0x800010c4: 00 07 a7 83 lw	a5, 0(a5)
è¯»å–åœ°å€ 0x800010c8
0x800010c8: 00 05 85 13 addi	a0, a1, 0
è¯»å–åœ°å€ 0x800010cc
0x800010cc: 00 07 80 67 jalr	zero, 0(a5)
è¯»å–åœ°å€ 0x80001134
0x80001134: a0 00 07 b7 lui	a5, 655360
è¯»å–åœ°å€ 0x80001138
read device name = keyboard 	 addr = 0xa0000060 
0x80001138: 06 07 a7 83 lw	a5, 96(a5)
è¯»å–åœ°å€ 0x8000113c
0x8000113c: 00 00 87 37 lui	a4, 8
è¯»å–åœ°å€ 0x80001140
å†™å…¥åœ°å€ 0x8009cfac
0x80001140: 00 f5 22 23 sw	a5, 4(a0)
è¯»å–åœ°å€ 0x80001144
0x80001144: 00 e7 f6 b3 and	a3, a5, a4
è¯»å–åœ°å€ 0x80001148
0x80001148: 00 06 8c 63 beq	a3, zero, 0x80001160
è¯»å–åœ°å€ 0x80001160
å†™å…¥åœ°å€ 0x8009cfa8
0x80001160: 00 05 00 23 sb	zero, 0(a0)
è¯»å–åœ°å€ 0x80001164
0x80001164: 00 00 80 67 jalr	zero, 0(ra)
è¯»å–åœ°å€ 0x80000da8
è¯»å–åœ°å€ 0x8009cfac
0x80000da8: 00 c1 26 03 lw	a2, 12(sp)
è¯»å–åœ°å€ 0x80000dac
è¯»å–åœ°å€ 0x8009cfa8
0x80000dac: 00 81 47 03 lbu	a4, 8(sp)
è¯»å–åœ°å€ 0x80000db0
0x80000db0: 18 09 05 13 addi	a0, s2, 384
è¯»å–åœ°å€ 0x80000db4
0x80000db4: 00 26 17 93 slli	a5, a2, 2
è¯»å–åœ°å€ 0x80000db8
0x80000db8: 00 f4 07 b3 add	a5, s0, a5
è¯»å–åœ°å€ 0x80000dbc
0x80000dbc: fc 06 16 e3 bne	a2, zero, 0x80000d88
è¯»å–åœ°å€ 0x80000dc0
è¯»å–åœ°å€ 0x80094e28
0x80000dc0: 00 0a c7 83 lbu	a5, 0(s5)
è¯»å–åœ°å€ 0x80000dc4
0x80000dc4: f9 1f f0 6f jal	zero, 0x80000d54
è¯»å–åœ°å€ 0x80000d54
è¯»å–åœ°å€ 0x80094e29
0x80000d54: 00 09 c7 03 lbu	a4, 0(s3)
è¯»å–åœ°å€ 0x80000d58
0x80000d58: 02 07 04 63 beq	a4, zero, 0x80000d80
è¯»å–åœ°å€ 0x80000d80
0x80000d80: 00 07 9e 63 bne	a5, zero, 0x80000d9c
è¯»å–åœ°å€ 0x80000d9c
0x80000d9c: 00 80 05 13 addi	a0, zero, 8
è¯»å–åœ°å€ 0x80000da0
0x80000da0: 00 81 05 93 addi	a1, sp, 8
è¯»å–åœ°å€ 0x80000da4
0x80000da4: 31 00 00 ef jal	ra, 0x800010b4
è¯»å–åœ°å€ 0x800010b4
0x800010b4: 80 01 17 b7 lui	a5, 524305
è¯»å–åœ°å€ 0x800010b8
0x800010b8: 00 25 15 13 slli	a0, a0, 2
è¯»å–åœ°å€ 0x800010bc
0x800010bc: 9f 87 87 93 addi	a5, a5, -1544
è¯»å–åœ°å€ 0x800010c0
0x800010c0: 00 a7 87 b3 add	a5, a5, a0
è¯»å–åœ°å€ 0x800010c4
è¯»å–åœ°å€ 0x80010a18
0x800010c4: 00 07 a7 83 lw	a5, 0(a5)
è¯»å–åœ°å€ 0x800010c8
0x800010c8: 00 05 85 13 addi	a0, a1, 0
è¯»å–åœ°å€ 0x800010cc
0x800010cc: 00 07 80 67 jalr	zero, 0(a5)
è¯»å–åœ°å€ 0x80001134
0x80001134: a0 00 07 b7 lui	a5, 655360
è¯»å–åœ°å€ 0x80001138
read device name = keyboard 	 addr = 0xa0000060 
0x80001138: 06 07 a7 83 lw	a5, 96(a5)
è¯»å–åœ°å€ 0x8000113c
0x8000113c: 00 00 87 37 lui	a4, 8
è¯»å–åœ°å€ 0x80001140
å†™å…¥åœ°å€ 0x8009cfac
0x80001140: 00 f5 22 23 sw	a5, 4(a0)
è¯»å–åœ°å€ 0x80001144
0x80001144: 00 e7 f6 b3 and	a3, a5, a4
è¯»å–åœ°å€ 0x80001148
0x80001148: 00 06 8c 63 beq	a3, zero, 0x80001160
è¯»å–åœ°å€ 0x80001160
å†™å…¥åœ°å€ 0x8009cfa8
0x80001160: 00 05 00 23 sb	zero, 0(a0)
è¯»å–åœ°å€ 0x80001164
0x80001164: 00 00 80 67 jalr	zero, 0(ra)
è¯»å–åœ°å€ 0x80000da8
è¯»å–åœ°å€ 0x8009cfac
0x80000da8: 00 c1 26 03 lw	a2, 12(sp)
è¯»å–åœ°å€ 0x80000dac
è¯»å–åœ°å€ 0x8009cfa8
0x80000dac: 00 81 47 03 lbu	a4, 8(sp)
è¯»å–åœ°å€ 0x80000db0
0x80000db0: 18 09 05 13 addi	a0, s2, 384
è¯»å–åœ°å€ 0x80000db4
0x80000db4: 00 26 17 93 slli	a5, a2, 2
è¯»å–åœ°å€ 0x80000db8
0x80000db8: 00 f4 07 b3 add	a5, s0, a5
è¯»å–åœ°å€ 0x80000dbc
0x80000dbc: fc 06 16 e3 bne	a2, zero, 0x80000d88
è¯»å–åœ°å€ 0x80000dc0
è¯»å–åœ°å€ 0x80094e28
0x80000dc0: 00 0a c7 83 lbu	a5, 0(s5)
è¯»å–åœ°å€ 0x80000dc4
0x80000dc4: f9 1f f0 6f jal	zero, 0x80000d54
è¯»å–åœ°å€ 0x80000d54
è¯»å–åœ°å€ 0x80094e29
0x80000d54: 00 09 c7 03 lbu	a4, 0(s3)
è¯»å–åœ°å€ 0x80000d58
0x80000d58: 02 07 04 63 beq	a4, zero, 0x80000d80
è¯»å–åœ°å€ 0x80000d80
0x80000d80: 00 07 9e 63 bne	a5, zero, 0x80000d9c
è¯»å–åœ°å€ 0x80000d9c
0x80000d9c: 00 80 05 13 addi	a0, zero, 8
è¯»å–åœ°å€ 0x80000da0
0x80000da0: 00 81 05 93 addi	a1, sp, 8
è¯»å–åœ°å€ 0x80000da4
0x80000da4: 31 00 00 ef jal	ra, 0x800010b4
è¯»å–åœ°å€ 0x800010b4
0x800010b4: 80 01 17 b7 lui	a5, 524305
è¯»å–åœ°å€ 0x800010b8
0x800010b8: 00 25 15 13 slli	a0, a0, 2
è¯»å–åœ°å€ 0x800010bc
0x800010bc: 9f 87 87 93 addi	a5, a5, -1544
è¯»å–åœ°å€ 0x800010c0
0x800010c0: 00 a7 87 b3 add	a5, a5, a0
è¯»å–åœ°å€ 0x800010c4
è¯»å–åœ°å€ 0x80010a18
0x800010c4: 00 07 a7 83 lw	a5, 0(a5)
è¯»å–åœ°å€ 0x800010c8
0x800010c8: 00 05 85 13 addi	a0, a1, 0
è¯»å–åœ°å€ 0x800010cc
0x800010cc: 00 07 80 67 jalr	zero, 0(a5)
è¯»å–åœ°å€ 0x80001134
0x80001134: a0 00 07 b7 lui	a5, 655360
è¯»å–åœ°å€ 0x80001138
read device name = keyboard 	 addr = 0xa0000060 
0x80001138: 06 07 a7 83 lw	a5, 96(a5)
è¯»å–åœ°å€ 0x8000113c
0x8000113c: 00 00 87 37 lui	a4, 8
è¯»å–åœ°å€ 0x80001140
å†™å…¥åœ°å€ 0x8009cfac
0x80001140: 00 f5 22 23 sw	a5, 4(a0)
è¯»å–åœ°å€ 0x80001144
0x80001144: 00 e7 f6 b3 and	a3, a5, a4
è¯»å–åœ°å€ 0x80001148
0x80001148: 00 06 8c 63 beq	a3, zero, 0x80001160
è¯»å–åœ°å€ 0x80001160
å†™å…¥åœ°å€ 0x8009cfa8
0x80001160: 00 05 00 23 sb	zero, 0(a0)
è¯»å–åœ°å€ 0x80001164
0x80001164: 00 00 80 67 jalr	zero, 0(ra)
è¯»å–åœ°å€ 0x80000da8
è¯»å–åœ°å€ 0x8009cfac
0x80000da8: 00 c1 26 03 lw	a2, 12(sp)
è¯»å–åœ°å€ 0x80000dac
è¯»å–åœ°å€ 0x8009cfa8
0x80000dac: 00 81 47 03 lbu	a4, 8(sp)
è¯»å–åœ°å€ 0x80000db0
0x80000db0: 18 09 05 13 addi	a0, s2, 384
è¯»å–åœ°å€ 0x80000db4
0x80000db4: 00 26 17 93 slli	a5, a2, 2
è¯»å–åœ°å€ 0x80000db8
0x80000db8: 00 f4 07 b3 add	a5, s0, a5
è¯»å–åœ°å€ 0x80000dbc
0x80000dbc: fc 06 16 e3 bne	a2, zero, 0x80000d88
è¯»å–åœ°å€ 0x80000dc0
è¯»å–åœ°å€ 0x80094e28
0x80000dc0: 00 0a c7 83 lbu	a5, 0(s5)
è¯»å–åœ°å€ 0x80000dc4
0x80000dc4: f9 1f f0 6f jal	zero, 0x80000d54
è¯»å–åœ°å€ 0x80000d54
è¯»å–åœ°å€ 0x80094e29
0x80000d54: 00 09 c7 03 lbu	a4, 0(s3)
è¯»å–åœ°å€ 0x80000d58
0x80000d58: 02 07 04 63 beq	a4, zero, 0x80000d80
è¯»å–åœ°å€ 0x80000d80
0x80000d80: 00 07 9e 63 bne	a5, zero, 0x80000d9c
è¯»å–åœ°å€ 0x80000d9c
0x80000d9c: 00 80 05 13 addi	a0, zero, 8
è¯»å–åœ°å€ 0x80000da0
0x80000da0: 00 81 05 93 addi	a1, sp, 8
è¯»å–åœ°å€ 0x80000da4
0x80000da4: 31 00 00 ef jal	ra, 0x800010b4
è¯»å–åœ°å€ 0x800010b4
0x800010b4: 80 01 17 b7 lui	a5, 524305
è¯»å–åœ°å€ 0x800010b8
0x800010b8: 00 25 15 13 slli	a0, a0, 2
è¯»å–åœ°å€ 0x800010bc
0x800010bc: 9f 87 87 93 addi	a5, a5, -1544
è¯»å–åœ°å€ 0x800010c0
0x800010c0: 00 a7 87 b3 add	a5, a5, a0
è¯»å–åœ°å€ 0x800010c4
è¯»å–åœ°å€ 0x80010a18
0x800010c4: 00 07 a7 83 lw	a5, 0(a5)
è¯»å–åœ°å€ 0x800010c8
0x800010c8: 00 05 85 13 addi	a0, a1, 0
è¯»å–åœ°å€ 0x800010cc
0x800010cc: 00 07 80 67 jalr	zero, 0(a5)
è¯»å–åœ°å€ 0x80001134
0x80001134: a0 00 07 b7 lui	a5, 655360
è¯»å–åœ°å€ 0x80001138
read device name = keyboard 	 addr = 0xa0000060 
0x80001138: 06 07 a7 83 lw	a5, 96(a5)
è¯»å–åœ°å€ 0x8000113c
0x8000113c: 00 00 87 37 lui	a4, 8
è¯»å–åœ°å€ 0x80001140
å†™å…¥åœ°å€ 0x8009cfac
0x80001140: 00 f5 22 23 sw	a5, 4(a0)
è¯»å–åœ°å€ 0x80001144
0x80001144: 00 e7 f6 b3 and	a3, a5, a4
è¯»å–åœ°å€ 0x80001148
0x80001148: 00 06 8c 63 beq	a3, zero, 0x80001160
è¯»å–åœ°å€ 0x80001160
å†™å…¥åœ°å€ 0x8009cfa8
0x80001160: 00 05 00 23 sb	zero, 0(a0)
è¯»å–åœ°å€ 0x80001164
0x80001164: 00 00 80 67 jalr	zero, 0(ra)
è¯»å–åœ°å€ 0x80000da8
è¯»å–åœ°å€ 0x8009cfac
0x80000da8: 00 c1 26 03 lw	a2, 12(sp)
è¯»å–åœ°å€ 0x80000dac
è¯»å–åœ°å€ 0x8009cfa8
0x80000dac: 00 81 47 03 lbu	a4, 8(sp)
è¯»å–åœ°å€ 0x80000db0
0x80000db0: 18 09 05 13 addi	a0, s2, 384
è¯»å–åœ°å€ 0x80000db4
0x80000db4: 00 26 17 93 slli	a5, a2, 2
è¯»å–åœ°å€ 0x80000db8
0x80000db8: 00 f4 07 b3 add	a5, s0, a5
è¯»å–åœ°å€ 0x80000dbc
0x80000dbc: fc 06 16 e3 bne	a2, zero, 0x80000d88
è¯»å–åœ°å€ 0x80000dc0
è¯»å–åœ°å€ 0x80094e28
0x80000dc0: 00 0a c7 83 lbu	a5, 0(s5)
è¯»å–åœ°å€ 0x80000dc4
0x80000dc4: f9 1f f0 6f jal	zero, 0x80000d54
è¯»å–åœ°å€ 0x80000d54
è¯»å–åœ°å€ 0x80094e29
0x80000d54: 00 09 c7 03 lbu	a4, 0(s3)
è¯»å–åœ°å€ 0x80000d58
0x80000d58: 02 07 04 63 beq	a4, zero, 0x80000d80
è¯»å–åœ°å€ 0x80000d80
0x80000d80: 00 07 9e 63 bne	a5, zero, 0x80000d9c
è¯»å–åœ°å€ 0x80000d9c
0x80000d9c: 00 80 05 13 addi	a0, zero, 8
è¯»å–åœ°å€ 0x80000da0
0x80000da0: 00 81 05 93 addi	a1, sp, 8
è¯»å–åœ°å€ 0x80000da4
0x80000da4: 31 00 00 ef jal	ra, 0x800010b4
è¯»å–åœ°å€ 0x800010b4
0x800010b4: 80 01 17 b7 lui	a5, 524305
è¯»å–åœ°å€ 0x800010b8
0x800010b8: 00 25 15 13 slli	a0, a0, 2
è¯»å–åœ°å€ 0x800010bc
0x800010bc: 9f 87 87 93 addi	a5, a5, -1544
è¯»å–åœ°å€ 0x800010c0
0x800010c0: 00 a7 87 b3 add	a5, a5, a0
è¯»å–åœ°å€ 0x800010c4
è¯»å–åœ°å€ 0x80010a18
0x800010c4: 00 07 a7 83 lw	a5, 0(a5)
è¯»å–åœ°å€ 0x800010c8
0x800010c8: 00 05 85 13 addi	a0, a1, 0
è¯»å–åœ°å€ 0x800010cc
0x800010cc: 00 07 80 67 jalr	zero, 0(a5)
è¯»å–åœ°å€ 0x80001134
0x80001134: a0 00 07 b7 lui	a5, 655360
è¯»å–åœ°å€ 0x80001138
read device name = keyboard 	 addr = 0xa0000060 
0x80001138: 06 07 a7 83 lw	a5, 96(a5)
è¯»å–åœ°å€ 0x8000113c
0x8000113c: 00 00 87 37 lui	a4, 8
è¯»å–åœ°å€ 0x80001140
å†™å…¥åœ°å€ 0x8009cfac
0x80001140: 00 f5 22 23 sw	a5, 4(a0)
è¯»å–åœ°å€ 0x80001144
0x80001144: 00 e7 f6 b3 and	a3, a5, a4
è¯»å–åœ°å€ 0x80001148
0x80001148: 00 06 8c 63 beq	a3, zero, 0x80001160
è¯»å–åœ°å€ 0x80001160
å†™å…¥åœ°å€ 0x8009cfa8
0x80001160: 00 05 00 23 sb	zero, 0(a0)
è¯»å–åœ°å€ 0x80001164
0x80001164: 00 00 80 67 jalr	zero, 0(ra)
è¯»å–åœ°å€ 0x80000da8
è¯»å–åœ°å€ 0x8009cfac
0x80000da8: 00 c1 26 03 lw	a2, 12(sp)
è¯»å–åœ°å€ 0x80000dac
è¯»å–åœ°å€ 0x8009cfa8
0x80000dac: 00 81 47 03 lbu	a4, 8(sp)
è¯»å–åœ°å€ 0x80000db0
0x80000db0: 18 09 05 13 addi	a0, s2, 384
è¯»å–åœ°å€ 0x80000db4
0x80000db4: 00 26 17 93 slli	a5, a2, 2
è¯»å–åœ°å€ 0x80000db8
0x80000db8: 00 f4 07 b3 add	a5, s0, a5
è¯»å–åœ°å€ 0x80000dbc
0x80000dbc: fc 06 16 e3 bne	a2, zero, 0x80000d88
è¯»å–åœ°å€ 0x80000dc0
è¯»å–åœ°å€ 0x80094e28
0x80000dc0: 00 0a c7 83 lbu	a5, 0(s5)
è¯»å–åœ°å€ 0x80000dc4
0x80000dc4: f9 1f f0 6f jal	zero, 0x80000d54
è¯»å–åœ°å€ 0x80000d54
è¯»å–åœ°å€ 0x80094e29
0x80000d54: 00 09 c7 03 lbu	a4, 0(s3)
è¯»å–åœ°å€ 0x80000d58
0x80000d58: 02 07 04 63 beq	a4, zero, 0x80000d80
è¯»å–åœ°å€ 0x80000d80
0x80000d80: 00 07 9e 63 bne	a5, zero, 0x80000d9c
è¯»å–åœ°å€ 0x80000d9c
0x80000d9c: 00 80 05 13 addi	a0, zero, 8
è¯»å–åœ°å€ 0x80000da0
0x80000da0: 00 81 05 93 addi	a1, sp, 8
è¯»å–åœ°å€ 0x80000da4
0x80000da4: 31 00 00 ef jal	ra, 0x800010b4
è¯»å–åœ°å€ 0x800010b4
0x800010b4: 80 01 17 b7 lui	a5, 524305
è¯»å–åœ°å€ 0x800010b8
0x800010b8: 00 25 15 13 slli	a0, a0, 2
è¯»å–åœ°å€ 0x800010bc
0x800010bc: 9f 87 87 93 addi	a5, a5, -1544
è¯»å–åœ°å€ 0x800010c0
0x800010c0: 00 a7 87 b3 add	a5, a5, a0
è¯»å–åœ°å€ 0x800010c4
è¯»å–åœ°å€ 0x80010a18
0x800010c4: 00 07 a7 83 lw	a5, 0(a5)
è¯»å–åœ°å€ 0x800010c8
0x800010c8: 00 05 85 13 addi	a0, a1, 0
è¯»å–åœ°å€ 0x800010cc
0x800010cc: 00 07 80 67 jalr	zero, 0(a5)
è¯»å–åœ°å€ 0x80001134
0x80001134: a0 00 07 b7 lui	a5, 655360
è¯»å–åœ°å€ 0x80001138
read device name = keyboard 	 addr = 0xa0000060 
0x80001138: 06 07 a7 83 lw	a5, 96(a5)
è¯»å–åœ°å€ 0x8000113c
0x8000113c: 00 00 87 37 lui	a4, 8
è¯»å–åœ°å€ 0x80001140
å†™å…¥åœ°å€ 0x8009cfac
0x80001140: 00 f5 22 23 sw	a5, 4(a0)
è¯»å–åœ°å€ 0x80001144
0x80001144: 00 e7 f6 b3 and	a3, a5, a4
è¯»å–åœ°å€ 0x80001148
0x80001148: 00 06 8c 63 beq	a3, zero, 0x80001160
è¯»å–åœ°å€ 0x80001160
å†™å…¥åœ°å€ 0x8009cfa8
0x80001160: 00 05 00 23 sb	zero, 0(a0)
è¯»å–åœ°å€ 0x80001164
0x80001164: 00 00 80 67 jalr	zero, 0(ra)
è¯»å–åœ°å€ 0x80000da8
è¯»å–åœ°å€ 0x8009cfac
0x80000da8: 00 c1 26 03 lw	a2, 12(sp)
è¯»å–åœ°å€ 0x80000dac
è¯»å–åœ°å€ 0x8009cfa8
0x80000dac: 00 81 47 03 lbu	a4, 8(sp)
è¯»å–åœ°å€ 0x80000db0
0x80000db0: 18 09 05 13 addi	a0, s2, 384
è¯»å–åœ°å€ 0x80000db4
0x80000db4: 00 26 17 93 slli	a5, a2, 2
è¯»å–åœ°å€ 0x80000db8
0x80000db8: 00 f4 07 b3 add	a5, s0, a5
è¯»å–åœ°å€ 0x80000dbc
0x80000dbc: fc 06 16 e3 bne	a2, zero, 0x80000d88
è¯»å–åœ°å€ 0x80000dc0
è¯»å–åœ°å€ 0x80094e28
0x80000dc0: 00 0a c7 83 lbu	a5, 0(s5)
è¯»å–åœ°å€ 0x80000dc4
0x80000dc4: f9 1f f0 6f jal	zero, 0x80000d54
è¯»å–åœ°å€ 0x80000d54
è¯»å–åœ°å€ 0x80094e29
0x80000d54: 00 09 c7 03 lbu	a4, 0(s3)
è¯»å–åœ°å€ 0x80000d58
0x80000d58: 02 07 04 63 beq	a4, zero, 0x80000d80
è¯»å–åœ°å€ 0x80000d80
0x80000d80: 00 07 9e 63 bne	a5, zero, 0x80000d9c
è¯»å–åœ°å€ 0x80000d9c
0x80000d9c: 00 80 05 13 addi	a0, zero, 8
è¯»å–åœ°å€ 0x80000da0
0x80000da0: 00 81 05 93 addi	a1, sp, 8
è¯»å–åœ°å€ 0x80000da4
0x80000da4: 31 00 00 ef jal	ra, 0x800010b4
è¯»å–åœ°å€ 0x800010b4
0x800010b4: 80 01 17 b7 lui	a5, 524305
è¯»å–åœ°å€ 0x800010b8
0x800010b8: 00 25 15 13 slli	a0, a0, 2
è¯»å–åœ°å€ 0x800010bc
0x800010bc: 9f 87 87 93 addi	a5, a5, -1544
è¯»å–åœ°å€ 0x800010c0
0x800010c0: 00 a7 87 b3 add	a5, a5, a0
è¯»å–åœ°å€ 0x800010c4
è¯»å–åœ°å€ 0x80010a18
0x800010c4: 00 07 a7 83 lw	a5, 0(a5)
è¯»å–åœ°å€ 0x800010c8
0x800010c8: 00 05 85 13 addi	a0, a1, 0
è¯»å–åœ°å€ 0x800010cc
0x800010cc: 00 07 80 67 jalr	zero, 0(a5)
è¯»å–åœ°å€ 0x80001134
0x80001134: a0 00 07 b7 lui	a5, 655360
è¯»å–åœ°å€ 0x80001138
read device name = keyboard 	 addr = 0xa0000060 
0x80001138: 06 07 a7 83 lw	a5, 96(a5)
è¯»å–åœ°å€ 0x8000113c
0x8000113c: 00 00 87 37 lui	a4, 8
è¯»å–åœ°å€ 0x80001140
å†™å…¥åœ°å€ 0x8009cfac
0x80001140: 00 f5 22 23 sw	a5, 4(a0)
è¯»å–åœ°å€ 0x80001144
0x80001144: 00 e7 f6 b3 and	a3, a5, a4
è¯»å–åœ°å€ 0x80001148
0x80001148: 00 06 8c 63 beq	a3, zero, 0x80001160
è¯»å–åœ°å€ 0x80001160
å†™å…¥åœ°å€ 0x8009cfa8
0x80001160: 00 05 00 23 sb	zero, 0(a0)
è¯»å–åœ°å€ 0x80001164
0x80001164: 00 00 80 67 jalr	zero, 0(ra)
è¯»å–åœ°å€ 0x80000da8
è¯»å–åœ°å€ 0x8009cfac
0x80000da8: 00 c1 26 03 lw	a2, 12(sp)
è¯»å–åœ°å€ 0x80000dac
è¯»å–åœ°å€ 0x8009cfa8
0x80000dac: 00 81 47 03 lbu	a4, 8(sp)
è¯»å–åœ°å€ 0x80000db0
0x80000db0: 18 09 05 13 addi	a0, s2, 384
è¯»å–åœ°å€ 0x80000db4
0x80000db4: 00 26 17 93 slli	a5, a2, 2
è¯»å–åœ°å€ 0x80000db8
0x80000db8: 00 f4 07 b3 add	a5, s0, a5
è¯»å–åœ°å€ 0x80000dbc
0x80000dbc: fc 06 16 e3 bne	a2, zero, 0x80000d88
è¯»å–åœ°å€ 0x80000dc0
è¯»å–åœ°å€ 0x80094e28
0x80000dc0: 00 0a c7 83 lbu	a5, 0(s5)
è¯»å–åœ°å€ 0x80000dc4
0x80000dc4: f9 1f f0 6f jal	zero, 0x80000d54
è¯»å–åœ°å€ 0x80000d54
è¯»å–åœ°å€ 0x80094e29
0x80000d54: 00 09 c7 03 lbu	a4, 0(s3)
è¯»å–åœ°å€ 0x80000d58
0x80000d58: 02 07 04 63 beq	a4, zero, 0x80000d80
è¯»å–åœ°å€ 0x80000d80
0x80000d80: 00 07 9e 63 bne	a5, zero, 0x80000d9c
è¯»å–åœ°å€ 0x80000d9c
0x80000d9c: 00 80 05 13 addi	a0, zero, 8
è¯»å–åœ°å€ 0x80000da0
0x80000da0: 00 81 05 93 addi	a1, sp, 8
è¯»å–åœ°å€ 0x80000da4
0x80000da4: 31 00 00 ef jal	ra, 0x800010b4
è¯»å–åœ°å€ 0x800010b4
0x800010b4: 80 01 17 b7 lui	a5, 524305
è¯»å–åœ°å€ 0x800010b8
0x800010b8: 00 25 15 13 slli	a0, a0, 2
è¯»å–åœ°å€ 0x800010bc
0x800010bc: 9f 87 87 93 addi	a5, a5, -1544
è¯»å–åœ°å€ 0x800010c0
0x800010c0: 00 a7 87 b3 add	a5, a5, a0
è¯»å–åœ°å€ 0x800010c4
è¯»å–åœ°å€ 0x80010a18
0x800010c4: 00 07 a7 83 lw	a5, 0(a5)
è¯»å–åœ°å€ 0x800010c8
0x800010c8: 00 05 85 13 addi	a0, a1, 0
è¯»å–åœ°å€ 0x800010cc
0x800010cc: 00 07 80 67 jalr	zero, 0(a5)
è¯»å–åœ°å€ 0x80001134
0x80001134: a0 00 07 b7 lui	a5, 655360
è¯»å–åœ°å€ 0x80001138
read device name = keyboard 	 addr = 0xa0000060 
0x80001138: 06 07 a7 83 lw	a5, 96(a5)
è¯»å–åœ°å€ 0x8000113c
0x8000113c: 00 00 87 37 lui	a4, 8
è¯»å–åœ°å€ 0x80001140
å†™å…¥åœ°å€ 0x8009cfac
0x80001140: 00 f5 22 23 sw	a5, 4(a0)
è¯»å–åœ°å€ 0x80001144
0x80001144: 00 e7 f6 b3 and	a3, a5, a4
è¯»å–åœ°å€ 0x80001148
0x80001148: 00 06 8c 63 beq	a3, zero, 0x80001160
è¯»å–åœ°å€ 0x80001160
å†™å…¥åœ°å€ 0x8009cfa8
0x80001160: 00 05 00 23 sb	zero, 0(a0)
è¯»å–åœ°å€ 0x80001164
0x80001164: 00 00 80 67 jalr	zero, 0(ra)
è¯»å–åœ°å€ 0x80000da8
è¯»å–åœ°å€ 0x8009cfac
0x80000da8: 00 c1 26 03 lw	a2, 12(sp)
è¯»å–åœ°å€ 0x80000dac
è¯»å–åœ°å€ 0x8009cfa8
0x80000dac: 00 81 47 03 lbu	a4, 8(sp)
è¯»å–åœ°å€ 0x80000db0
0x80000db0: 18 09 05 13 addi	a0, s2, 384
è¯»å–åœ°å€ 0x80000db4
0x80000db4: 00 26 17 93 slli	a5, a2, 2
è¯»å–åœ°å€ 0x80000db8
0x80000db8: 00 f4 07 b3 add	a5, s0, a5
è¯»å–åœ°å€ 0x80000dbc
0x80000dbc: fc 06 16 e3 bne	a2, zero, 0x80000d88
è¯»å–åœ°å€ 0x80000dc0
è¯»å–åœ°å€ 0x80094e28
0x80000dc0: 00 0a c7 83 lbu	a5, 0(s5)
è¯»å–åœ°å€ 0x80000dc4
0x80000dc4: f9 1f f0 6f jal	zero, 0x80000d54
è¯»å–åœ°å€ 0x80000d54
è¯»å–åœ°å€ 0x80094e29
0x80000d54: 00 09 c7 03 lbu	a4, 0(s3)
è¯»å–åœ°å€ 0x80000d58
0x80000d58: 02 07 04 63 beq	a4, zero, 0x80000d80
è¯»å–åœ°å€ 0x80000d80
0x80000d80: 00 07 9e 63 bne	a5, zero, 0x80000d9c
è¯»å–åœ°å€ 0x80000d9c
0x80000d9c: 00 80 05 13 addi	a0, zero, 8
è¯»å–åœ°å€ 0x80000da0
0x80000da0: 00 81 05 93 addi	a1, sp, 8
è¯»å–åœ°å€ 0x80000da4
0x80000da4: 31 00 00 ef jal	ra, 0x800010b4
è¯»å–åœ°å€ 0x800010b4
0x800010b4: 80 01 17 b7 lui	a5, 524305
è¯»å–åœ°å€ 0x800010b8
0x800010b8: 00 25 15 13 slli	a0, a0, 2
è¯»å–åœ°å€ 0x800010bc
0x800010bc: 9f 87 87 93 addi	a5, a5, -1544
è¯»å–åœ°å€ 0x800010c0
0x800010c0: 00 a7 87 b3 add	a5, a5, a0
è¯»å–åœ°å€ 0x800010c4
è¯»å–åœ°å€ 0x80010a18
0x800010c4: 00 07 a7 83 lw	a5, 0(a5)
è¯»å–åœ°å€ 0x800010c8
0x800010c8: 00 05 85 13 addi	a0, a1, 0
è¯»å–åœ°å€ 0x800010cc
0x800010cc: 00 07 80 67 jalr	zero, 0(a5)
è¯»å–åœ°å€ 0x80001134
0x80001134: a0 00 07 b7 lui	a5, 655360
è¯»å–åœ°å€ 0x80001138
read device name = keyboard 	 addr = 0xa0000060 
0x80001138: 06 07 a7 83 lw	a5, 96(a5)
è¯»å–åœ°å€ 0x8000113c
0x8000113c: 00 00 87 37 lui	a4, 8
è¯»å–åœ°å€ 0x80001140
å†™å…¥åœ°å€ 0x8009cfac
0x80001140: 00 f5 22 23 sw	a5, 4(a0)
è¯»å–åœ°å€ 0x80001144
0x80001144: 00 e7 f6 b3 and	a3, a5, a4
è¯»å–åœ°å€ 0x80001148
0x80001148: 00 06 8c 63 beq	a3, zero, 0x80001160
è¯»å–åœ°å€ 0x80001160
å†™å…¥åœ°å€ 0x8009cfa8
0x80001160: 00 05 00 23 sb	zero, 0(a0)
è¯»å–åœ°å€ 0x80001164
0x80001164: 00 00 80 67 jalr	zero, 0(ra)
è¯»å–åœ°å€ 0x80000da8
è¯»å–åœ°å€ 0x8009cfac
0x80000da8: 00 c1 26 03 lw	a2, 12(sp)
è¯»å–åœ°å€ 0x80000dac
è¯»å–åœ°å€ 0x8009cfa8
0x80000dac: 00 81 47 03 lbu	a4, 8(sp)
è¯»å–åœ°å€ 0x80000db0
0x80000db0: 18 09 05 13 addi	a0, s2, 384
è¯»å–åœ°å€ 0x80000db4
0x80000db4: 00 26 17 93 slli	a5, a2, 2
è¯»å–åœ°å€ 0x80000db8
0x80000db8: 00 f4 07 b3 add	a5, s0, a5
è¯»å–åœ°å€ 0x80000dbc
0x80000dbc: fc 06 16 e3 bne	a2, zero, 0x80000d88
è¯»å–åœ°å€ 0x80000dc0
è¯»å–åœ°å€ 0x80094e28
0x80000dc0: 00 0a c7 83 lbu	a5, 0(s5)
è¯»å–åœ°å€ 0x80000dc4
0x80000dc4: f9 1f f0 6f jal	zero, 0x80000d54
è¯»å–åœ°å€ 0x80000d54
è¯»å–åœ°å€ 0x80094e29
0x80000d54: 00 09 c7 03 lbu	a4, 0(s3)
è¯»å–åœ°å€ 0x80000d58
0x80000d58: 02 07 04 63 beq	a4, zero, 0x80000d80
è¯»å–åœ°å€ 0x80000d80
0x80000d80: 00 07 9e 63 bne	a5, zero, 0x80000d9c
è¯»å–åœ°å€ 0x80000d9c
0x80000d9c: 00 80 05 13 addi	a0, zero, 8
è¯»å–åœ°å€ 0x80000da0
0x80000da0: 00 81 05 93 addi	a1, sp, 8
è¯»å–åœ°å€ 0x80000da4
0x80000da4: 31 00 00 ef jal	ra, 0x800010b4
è¯»å–åœ°å€ 0x800010b4
0x800010b4: 80 01 17 b7 lui	a5, 524305
è¯»å–åœ°å€ 0x800010b8
0x800010b8: 00 25 15 13 slli	a0, a0, 2
è¯»å–åœ°å€ 0x800010bc
0x800010bc: 9f 87 87 93 addi	a5, a5, -1544
è¯»å–åœ°å€ 0x800010c0
0x800010c0: 00 a7 87 b3 add	a5, a5, a0
è¯»å–åœ°å€ 0x800010c4
è¯»å–åœ°å€ 0x80010a18
0x800010c4: 00 07 a7 83 lw	a5, 0(a5)
è¯»å–åœ°å€ 0x800010c8
0x800010c8: 00 05 85 13 addi	a0, a1, 0
è¯»å–åœ°å€ 0x800010cc
0x800010cc: 00 07 80 67 jalr	zero, 0(a5)
è¯»å–åœ°å€ 0x80001134
0x80001134: a0 00 07 b7 lui	a5, 655360
è¯»å–åœ°å€ 0x80001138
read device name = keyboard 	 addr = 0xa0000060 
0x80001138: 06 07 a7 83 lw	a5, 96(a5)
è¯»å–åœ°å€ 0x8000113c
0x8000113c: 00 00 87 37 lui	a4, 8
è¯»å–åœ°å€ 0x80001140
å†™å…¥åœ°å€ 0x8009cfac
0x80001140: 00 f5 22 23 sw	a5, 4(a0)
è¯»å–åœ°å€ 0x80001144
0x80001144: 00 e7 f6 b3 and	a3, a5, a4
è¯»å–åœ°å€ 0x80001148
0x80001148: 00 06 8c 63 beq	a3, zero, 0x80001160
è¯»å–åœ°å€ 0x80001160
å†™å…¥åœ°å€ 0x8009cfa8
0x80001160: 00 05 00 23 sb	zero, 0(a0)
è¯»å–åœ°å€ 0x80001164
0x80001164: 00 00 80 67 jalr	zero, 0(ra)
è¯»å–åœ°å€ 0x80000da8
è¯»å–åœ°å€ 0x8009cfac
0x80000da8: 00 c1 26 03 lw	a2, 12(sp)
è¯»å–åœ°å€ 0x80000dac
è¯»å–åœ°å€ 0x8009cfa8
0x80000dac: 00 81 47 03 lbu	a4, 8(sp)
è¯»å–åœ°å€ 0x80000db0
0x80000db0: 18 09 05 13 addi	a0, s2, 384
è¯»å–åœ°å€ 0x80000db4
0x80000db4: 00 26 17 93 slli	a5, a2, 2
è¯»å–åœ°å€ 0x80000db8
0x80000db8: 00 f4 07 b3 add	a5, s0, a5
è¯»å–åœ°å€ 0x80000dbc
0x80000dbc: fc 06 16 e3 bne	a2, zero, 0x80000d88
è¯»å–åœ°å€ 0x80000dc0
è¯»å–åœ°å€ 0x80094e28
0x80000dc0: 00 0a c7 83 lbu	a5, 0(s5)
è¯»å–åœ°å€ 0x80000dc4
0x80000dc4: f9 1f f0 6f jal	zero, 0x80000d54
è¯»å–åœ°å€ 0x80000d54
è¯»å–åœ°å€ 0x80094e29
0x80000d54: 00 09 c7 03 lbu	a4, 0(s3)
è¯»å–åœ°å€ 0x80000d58
0x80000d58: 02 07 04 63 beq	a4, zero, 0x80000d80
è¯»å–åœ°å€ 0x80000d80
0x80000d80: 00 07 9e 63 bne	a5, zero, 0x80000d9c
è¯»å–åœ°å€ 0x80000d9c
0x80000d9c: 00 80 05 13 addi	a0, zero, 8
è¯»å–åœ°å€ 0x80000da0
0x80000da0: 00 81 05 93 addi	a1, sp, 8
è¯»å–åœ°å€ 0x80000da4
0x80000da4: 31 00 00 ef jal	ra, 0x800010b4
è¯»å–åœ°å€ 0x800010b4
0x800010b4: 80 01 17 b7 lui	a5, 524305
è¯»å–åœ°å€ 0x800010b8
0x800010b8: 00 25 15 13 slli	a0, a0, 2
è¯»å–åœ°å€ 0x800010bc
0x800010bc: 9f 87 87 93 addi	a5, a5, -1544
è¯»å–åœ°å€ 0x800010c0
0x800010c0: 00 a7 87 b3 add	a5, a5, a0
è¯»å–åœ°å€ 0x800010c4
è¯»å–åœ°å€ 0x80010a18
0x800010c4: 00 07 a7 83 lw	a5, 0(a5)
è¯»å–åœ°å€ 0x800010c8
0x800010c8: 00 05 85 13 addi	a0, a1, 0
è¯»å–åœ°å€ 0x800010cc
0x800010cc: 00 07 80 67 jalr	zero, 0(a5)
è¯»å–åœ°å€ 0x80001134
0x80001134: a0 00 07 b7 lui	a5, 655360
è¯»å–åœ°å€ 0x80001138
read device name = keyboard 	 addr = 0xa0000060 
0x80001138: 06 07 a7 83 lw	a5, 96(a5)
è¯»å–åœ°å€ 0x8000113c
0x8000113c: 00 00 87 37 lui	a4, 8
è¯»å–åœ°å€ 0x80001140
å†™å…¥åœ°å€ 0x8009cfac
0x80001140: 00 f5 22 23 sw	a5, 4(a0)
è¯»å–åœ°å€ 0x80001144
0x80001144: 00 e7 f6 b3 and	a3, a5, a4
è¯»å–åœ°å€ 0x80001148
0x80001148: 00 06 8c 63 beq	a3, zero, 0x80001160
è¯»å–åœ°å€ 0x80001160
å†™å…¥åœ°å€ 0x8009cfa8
0x80001160: 00 05 00 23 sb	zero, 0(a0)
è¯»å–åœ°å€ 0x80001164
0x80001164: 00 00 80 67 jalr	zero, 0(ra)
è¯»å–åœ°å€ 0x80000da8
è¯»å–åœ°å€ 0x8009cfac
0x80000da8: 00 c1 26 03 lw	a2, 12(sp)
è¯»å–åœ°å€ 0x80000dac
è¯»å–åœ°å€ 0x8009cfa8
0x80000dac: 00 81 47 03 lbu	a4, 8(sp)
è¯»å–åœ°å€ 0x80000db0
0x80000db0: 18 09 05 13 addi	a0, s2, 384
è¯»å–åœ°å€ 0x80000db4
0x80000db4: 00 26 17 93 slli	a5, a2, 2
è¯»å–åœ°å€ 0x80000db8
0x80000db8: 00 f4 07 b3 add	a5, s0, a5
è¯»å–åœ°å€ 0x80000dbc
0x80000dbc: fc 06 16 e3 bne	a2, zero, 0x80000d88
è¯»å–åœ°å€ 0x80000dc0
è¯»å–åœ°å€ 0x80094e28
0x80000dc0: 00 0a c7 83 lbu	a5, 0(s5)
è¯»å–åœ°å€ 0x80000dc4
0x80000dc4: f9 1f f0 6f jal	zero, 0x80000d54
è¯»å–åœ°å€ 0x80000d54
è¯»å–åœ°å€ 0x80094e29
0x80000d54: 00 09 c7 03 lbu	a4, 0(s3)
è¯»å–åœ°å€ 0x80000d58
0x80000d58: 02 07 04 63 beq	a4, zero, 0x80000d80
è¯»å–åœ°å€ 0x80000d80
0x80000d80: 00 07 9e 63 bne	a5, zero, 0x80000d9c
è¯»å–åœ°å€ 0x80000d9c
0x80000d9c: 00 80 05 13 addi	a0, zero, 8
è¯»å–åœ°å€ 0x80000da0
0x80000da0: 00 81 05 93 addi	a1, sp, 8
è¯»å–åœ°å€ 0x80000da4
0x80000da4: 31 00 00 ef jal	ra, 0x800010b4
è¯»å–åœ°å€ 0x800010b4
0x800010b4: 80 01 17 b7 lui	a5, 524305
è¯»å–åœ°å€ 0x800010b8
0x800010b8: 00 25 15 13 slli	a0, a0, 2
è¯»å–åœ°å€ 0x800010bc
0x800010bc: 9f 87 87 93 addi	a5, a5, -1544
è¯»å–åœ°å€ 0x800010c0
0x800010c0: 00 a7 87 b3 add	a5, a5, a0
è¯»å–åœ°å€ 0x800010c4
è¯»å–åœ°å€ 0x80010a18
0x800010c4: 00 07 a7 83 lw	a5, 0(a5)
è¯»å–åœ°å€ 0x800010c8
0x800010c8: 00 05 85 13 addi	a0, a1, 0
è¯»å–åœ°å€ 0x800010cc
0x800010cc: 00 07 80 67 jalr	zero, 0(a5)
è¯»å–åœ°å€ 0x80001134
0x80001134: a0 00 07 b7 lui	a5, 655360
è¯»å–åœ°å€ 0x80001138
read device name = keyboard 	 addr = 0xa0000060 
0x80001138: 06 07 a7 83 lw	a5, 96(a5)
è¯»å–åœ°å€ 0x8000113c
0x8000113c: 00 00 87 37 lui	a4, 8
è¯»å–åœ°å€ 0x80001140
å†™å…¥åœ°å€ 0x8009cfac
0x80001140: 00 f5 22 23 sw	a5, 4(a0)
è¯»å–åœ°å€ 0x80001144
0x80001144: 00 e7 f6 b3 and	a3, a5, a4
è¯»å–åœ°å€ 0x80001148
0x80001148: 00 06 8c 63 beq	a3, zero, 0x80001160
è¯»å–åœ°å€ 0x80001160
å†™å…¥åœ°å€ 0x8009cfa8
0x80001160: 00 05 00 23 sb	zero, 0(a0)
è¯»å–åœ°å€ 0x80001164
0x80001164: 00 00 80 67 jalr	zero, 0(ra)
è¯»å–åœ°å€ 0x80000da8
è¯»å–åœ°å€ 0x8009cfac
0x80000da8: 00 c1 26 03 lw	a2, 12(sp)
è¯»å–åœ°å€ 0x80000dac
è¯»å–åœ°å€ 0x8009cfa8
0x80000dac: 00 81 47 03 lbu	a4, 8(sp)
è¯»å–åœ°å€ 0x80000db0
0x80000db0: 18 09 05 13 addi	a0, s2, 384
è¯»å–åœ°å€ 0x80000db4
0x80000db4: 00 26 17 93 slli	a5, a2, 2
è¯»å–åœ°å€ 0x80000db8
0x80000db8: 00 f4 07 b3 add	a5, s0, a5
è¯»å–åœ°å€ 0x80000dbc
0x80000dbc: fc 06 16 e3 bne	a2, zero, 0x80000d88
è¯»å–åœ°å€ 0x80000dc0
è¯»å–åœ°å€ 0x80094e28
0x80000dc0: 00 0a c7 83 lbu	a5, 0(s5)
è¯»å–åœ°å€ 0x80000dc4
0x80000dc4: f9 1f f0 6f jal	zero, 0x80000d54
è¯»å–åœ°å€ 0x80000d54
è¯»å–åœ°å€ 0x80094e29
0x80000d54: 00 09 c7 03 lbu	a4, 0(s3)
è¯»å–åœ°å€ 0x80000d58
0x80000d58: 02 07 04 63 beq	a4, zero, 0x80000d80
è¯»å–åœ°å€ 0x80000d80
0x80000d80: 00 07 9e 63 bne	a5, zero, 0x80000d9c
è¯»å–åœ°å€ 0x80000d9c
0x80000d9c: 00 80 05 13 addi	a0, zero, 8
è¯»å–åœ°å€ 0x80000da0
0x80000da0: 00 81 05 93 addi	a1, sp, 8
è¯»å–åœ°å€ 0x80000da4
0x80000da4: 31 00 00 ef jal	ra, 0x800010b4
è¯»å–åœ°å€ 0x800010b4
0x800010b4: 80 01 17 b7 lui	a5, 524305
è¯»å–åœ°å€ 0x800010b8
0x800010b8: 00 25 15 13 slli	a0, a0, 2
è¯»å–åœ°å€ 0x800010bc
0x800010bc: 9f 87 87 93 addi	a5, a5, -1544
è¯»å–åœ°å€ 0x800010c0
0x800010c0: 00 a7 87 b3 add	a5, a5, a0
è¯»å–åœ°å€ 0x800010c4
è¯»å–åœ°å€ 0x80010a18
0x800010c4: 00 07 a7 83 lw	a5, 0(a5)
è¯»å–åœ°å€ 0x800010c8
0x800010c8: 00 05 85 13 addi	a0, a1, 0
è¯»å–åœ°å€ 0x800010cc
0x800010cc: 00 07 80 67 jalr	zero, 0(a5)
è¯»å–åœ°å€ 0x80001134
0x80001134: a0 00 07 b7 lui	a5, 655360
è¯»å–åœ°å€ 0x80001138
read device name = keyboard 	 addr = 0xa0000060 
0x80001138: 06 07 a7 83 lw	a5, 96(a5)
è¯»å–åœ°å€ 0x8000113c
0x8000113c: 00 00 87 37 lui	a4, 8
è¯»å–åœ°å€ 0x80001140
å†™å…¥åœ°å€ 0x8009cfac
0x80001140: 00 f5 22 23 sw	a5, 4(a0)
è¯»å–åœ°å€ 0x80001144
0x80001144: 00 e7 f6 b3 and	a3, a5, a4
è¯»å–åœ°å€ 0x80001148
0x80001148: 00 06 8c 63 beq	a3, zero, 0x80001160
è¯»å–åœ°å€ 0x80001160
å†™å…¥åœ°å€ 0x8009cfa8
0x80001160: 00 05 00 23 sb	zero, 0(a0)
è¯»å–åœ°å€ 0x80001164
0x80001164: 00 00 80 67 jalr	zero, 0(ra)
è¯»å–åœ°å€ 0x80000da8
è¯»å–åœ°å€ 0x8009cfac
0x80000da8: 00 c1 26 03 lw	a2, 12(sp)
è¯»å–åœ°å€ 0x80000dac
è¯»å–åœ°å€ 0x8009cfa8
0x80000dac: 00 81 47 03 lbu	a4, 8(sp)
è¯»å–åœ°å€ 0x80000db0
0x80000db0: 18 09 05 13 addi	a0, s2, 384
è¯»å–åœ°å€ 0x80000db4
0x80000db4: 00 26 17 93 slli	a5, a2, 2
è¯»å–åœ°å€ 0x80000db8
0x80000db8: 00 f4 07 b3 add	a5, s0, a5
è¯»å–åœ°å€ 0x80000dbc
0x80000dbc: fc 06 16 e3 bne	a2, zero, 0x80000d88
è¯»å–åœ°å€ 0x80000dc0
è¯»å–åœ°å€ 0x80094e28
0x80000dc0: 00 0a c7 83 lbu	a5, 0(s5)
è¯»å–åœ°å€ 0x80000dc4
0x80000dc4: f9 1f f0 6f jal	zero, 0x80000d54
è¯»å–åœ°å€ 0x80000d54
è¯»å–åœ°å€ 0x80094e29
0x80000d54: 00 09 c7 03 lbu	a4, 0(s3)
è¯»å–åœ°å€ 0x80000d58
0x80000d58: 02 07 04 63 beq	a4, zero, 0x80000d80
è¯»å–åœ°å€ 0x80000d80
0x80000d80: 00 07 9e 63 bne	a5, zero, 0x80000d9c
è¯»å–åœ°å€ 0x80000d9c
0x80000d9c: 00 80 05 13 addi	a0, zero, 8
è¯»å–åœ°å€ 0x80000da0
0x80000da0: 00 81 05 93 addi	a1, sp, 8
è¯»å–åœ°å€ 0x80000da4
0x80000da4: 31 00 00 ef jal	ra, 0x800010b4
è¯»å–åœ°å€ 0x800010b4
0x800010b4: 80 01 17 b7 lui	a5, 524305
è¯»å–åœ°å€ 0x800010b8
0x800010b8: 00 25 15 13 slli	a0, a0, 2
è¯»å–åœ°å€ 0x800010bc
0x800010bc: 9f 87 87 93 addi	a5, a5, -1544
è¯»å–åœ°å€ 0x800010c0
0x800010c0: 00 a7 87 b3 add	a5, a5, a0
è¯»å–åœ°å€ 0x800010c4
è¯»å–åœ°å€ 0x80010a18
0x800010c4: 00 07 a7 83 lw	a5, 0(a5)
è¯»å–åœ°å€ 0x800010c8
0x800010c8: 00 05 85 13 addi	a0, a1, 0
è¯»å–åœ°å€ 0x800010cc
0x800010cc: 00 07 80 67 jalr	zero, 0(a5)
è¯»å–åœ°å€ 0x80001134
0x80001134: a0 00 07 b7 lui	a5, 655360
è¯»å–åœ°å€ 0x80001138
read device name = keyboard 	 addr = 0xa0000060 
0x80001138: 06 07 a7 83 lw	a5, 96(a5)
è¯»å–åœ°å€ 0x8000113c
0x8000113c: 00 00 87 37 lui	a4, 8
è¯»å–åœ°å€ 0x80001140
å†™å…¥åœ°å€ 0x8009cfac
0x80001140: 00 f5 22 23 sw	a5, 4(a0)
è¯»å–åœ°å€ 0x80001144
0x80001144: 00 e7 f6 b3 and	a3, a5, a4
è¯»å–åœ°å€ 0x80001148
0x80001148: 00 06 8c 63 beq	a3, zero, 0x80001160
è¯»å–åœ°å€ 0x80001160
å†™å…¥åœ°å€ 0x8009cfa8
0x80001160: 00 05 00 23 sb	zero, 0(a0)
è¯»å–åœ°å€ 0x80001164
0x80001164: 00 00 80 67 jalr	zero, 0(ra)
è¯»å–åœ°å€ 0x80000da8
è¯»å–åœ°å€ 0x8009cfac
0x80000da8: 00 c1 26 03 lw	a2, 12(sp)
è¯»å–åœ°å€ 0x80000dac
è¯»å–åœ°å€ 0x8009cfa8
0x80000dac: 00 81 47 03 lbu	a4, 8(sp)
è¯»å–åœ°å€ 0x80000db0
0x80000db0: 18 09 05 13 addi	a0, s2, 384
è¯»å–åœ°å€ 0x80000db4
0x80000db4: 00 26 17 93 slli	a5, a2, 2
è¯»å–åœ°å€ 0x80000db8
0x80000db8: 00 f4 07 b3 add	a5, s0, a5
è¯»å–åœ°å€ 0x80000dbc
0x80000dbc: fc 06 16 e3 bne	a2, zero, 0x80000d88
è¯»å–åœ°å€ 0x80000dc0
è¯»å–åœ°å€ 0x80094e28
0x80000dc0: 00 0a c7 83 lbu	a5, 0(s5)
è¯»å–åœ°å€ 0x80000dc4
0x80000dc4: f9 1f f0 6f jal	zero, 0x80000d54
è¯»å–åœ°å€ 0x80000d54
è¯»å–åœ°å€ 0x80094e29
0x80000d54: 00 09 c7 03 lbu	a4, 0(s3)
è¯»å–åœ°å€ 0x80000d58
0x80000d58: 02 07 04 63 beq	a4, zero, 0x80000d80
è¯»å–åœ°å€ 0x80000d80
0x80000d80: 00 07 9e 63 bne	a5, zero, 0x80000d9c
è¯»å–åœ°å€ 0x80000d9c
0x80000d9c: 00 80 05 13 addi	a0, zero, 8
è¯»å–åœ°å€ 0x80000da0
0x80000da0: 00 81 05 93 addi	a1, sp, 8
è¯»å–åœ°å€ 0x80000da4
0x80000da4: 31 00 00 ef jal	ra, 0x800010b4
è¯»å–åœ°å€ 0x800010b4
0x800010b4: 80 01 17 b7 lui	a5, 524305
è¯»å–åœ°å€ 0x800010b8
0x800010b8: 00 25 15 13 slli	a0, a0, 2
è¯»å–åœ°å€ 0x800010bc
0x800010bc: 9f 87 87 93 addi	a5, a5, -1544
è¯»å–åœ°å€ 0x800010c0
0x800010c0: 00 a7 87 b3 add	a5, a5, a0
è¯»å–åœ°å€ 0x800010c4
è¯»å–åœ°å€ 0x80010a18
0x800010c4: 00 07 a7 83 lw	a5, 0(a5)
è¯»å–åœ°å€ 0x800010c8
0x800010c8: 00 05 85 13 addi	a0, a1, 0
è¯»å–åœ°å€ 0x800010cc
0x800010cc: 00 07 80 67 jalr	zero, 0(a5)
è¯»å–åœ°å€ 0x80001134
0x80001134: a0 00 07 b7 lui	a5, 655360
è¯»å–åœ°å€ 0x80001138
read device name = keyboard 	 addr = 0xa0000060 
0x80001138: 06 07 a7 83 lw	a5, 96(a5)
è¯»å–åœ°å€ 0x8000113c
0x8000113c: 00 00 87 37 lui	a4, 8
è¯»å–åœ°å€ 0x80001140
å†™å…¥åœ°å€ 0x8009cfac
0x80001140: 00 f5 22 23 sw	a5, 4(a0)
è¯»å–åœ°å€ 0x80001144
0x80001144: 00 e7 f6 b3 and	a3, a5, a4
è¯»å–åœ°å€ 0x80001148
0x80001148: 00 06 8c 63 beq	a3, zero, 0x80001160
è¯»å–åœ°å€ 0x80001160
å†™å…¥åœ°å€ 0x8009cfa8
0x80001160: 00 05 00 23 sb	zero, 0(a0)
è¯»å–åœ°å€ 0x80001164
0x80001164: 00 00 80 67 jalr	zero, 0(ra)
è¯»å–åœ°å€ 0x80000da8
è¯»å–åœ°å€ 0x8009cfac
0x80000da8: 00 c1 26 03 lw	a2, 12(sp)
è¯»å–åœ°å€ 0x80000dac
è¯»å–åœ°å€ 0x8009cfa8
0x80000dac: 00 81 47 03 lbu	a4, 8(sp)
è¯»å–åœ°å€ 0x80000db0
0x80000db0: 18 09 05 13 addi	a0, s2, 384
è¯»å–åœ°å€ 0x80000db4
0x80000db4: 00 26 17 93 slli	a5, a2, 2
è¯»å–åœ°å€ 0x80000db8
0x80000db8: 00 f4 07 b3 add	a5, s0, a5
è¯»å–åœ°å€ 0x80000dbc
0x80000dbc: fc 06 16 e3 bne	a2, zero, 0x80000d88
è¯»å–åœ°å€ 0x80000dc0
è¯»å–åœ°å€ 0x80094e28
0x80000dc0: 00 0a c7 83 lbu	a5, 0(s5)
è¯»å–åœ°å€ 0x80000dc4
0x80000dc4: f9 1f f0 6f jal	zero, 0x80000d54
è¯»å–åœ°å€ 0x80000d54
è¯»å–åœ°å€ 0x80094e29
0x80000d54: 00 09 c7 03 lbu	a4, 0(s3)
è¯»å–åœ°å€ 0x80000d58
0x80000d58: 02 07 04 63 beq	a4, zero, 0x80000d80
è¯»å–åœ°å€ 0x80000d80
0x80000d80: 00 07 9e 63 bne	a5, zero, 0x80000d9c
è¯»å–åœ°å€ 0x80000d9c
0x80000d9c: 00 80 05 13 addi	a0, zero, 8
è¯»å–åœ°å€ 0x80000da0
0x80000da0: 00 81 05 93 addi	a1, sp, 8
è¯»å–åœ°å€ 0x80000da4
0x80000da4: 31 00 00 ef jal	ra, 0x800010b4
è¯»å–åœ°å€ 0x800010b4
0x800010b4: 80 01 17 b7 lui	a5, 524305
è¯»å–åœ°å€ 0x800010b8
0x800010b8: 00 25 15 13 slli	a0, a0, 2
è¯»å–åœ°å€ 0x800010bc
0x800010bc: 9f 87 87 93 addi	a5, a5, -1544
è¯»å–åœ°å€ 0x800010c0
0x800010c0: 00 a7 87 b3 add	a5, a5, a0
è¯»å–åœ°å€ 0x800010c4
è¯»å–åœ°å€ 0x80010a18
0x800010c4: 00 07 a7 83 lw	a5, 0(a5)
è¯»å–åœ°å€ 0x800010c8
0x800010c8: 00 05 85 13 addi	a0, a1, 0
è¯»å–åœ°å€ 0x800010cc
0x800010cc: 00 07 80 67 jalr	zero, 0(a5)
è¯»å–åœ°å€ 0x80001134
0x80001134: a0 00 07 b7 lui	a5, 655360
è¯»å–åœ°å€ 0x80001138
read device name = keyboard 	 addr = 0xa0000060 
0x80001138: 06 07 a7 83 lw	a5, 96(a5)
è¯»å–åœ°å€ 0x8000113c
0x8000113c: 00 00 87 37 lui	a4, 8
è¯»å–åœ°å€ 0x80001140
å†™å…¥åœ°å€ 0x8009cfac
0x80001140: 00 f5 22 23 sw	a5, 4(a0)
è¯»å–åœ°å€ 0x80001144
0x80001144: 00 e7 f6 b3 and	a3, a5, a4
è¯»å–åœ°å€ 0x80001148
0x80001148: 00 06 8c 63 beq	a3, zero, 0x80001160
è¯»å–åœ°å€ 0x80001160
å†™å…¥åœ°å€ 0x8009cfa8
0x80001160: 00 05 00 23 sb	zero, 0(a0)
è¯»å–åœ°å€ 0x80001164
0x80001164: 00 00 80 67 jalr	zero, 0(ra)
è¯»å–åœ°å€ 0x80000da8
è¯»å–åœ°å€ 0x8009cfac
0x80000da8: 00 c1 26 03 lw	a2, 12(sp)
è¯»å–åœ°å€ 0x80000dac
è¯»å–åœ°å€ 0x8009cfa8
0x80000dac: 00 81 47 03 lbu	a4, 8(sp)
è¯»å–åœ°å€ 0x80000db0
0x80000db0: 18 09 05 13 addi	a0, s2, 384
è¯»å–åœ°å€ 0x80000db4
0x80000db4: 00 26 17 93 slli	a5, a2, 2
è¯»å–åœ°å€ 0x80000db8
0x80000db8: 00 f4 07 b3 add	a5, s0, a5
è¯»å–åœ°å€ 0x80000dbc
0x80000dbc: fc 06 16 e3 bne	a2, zero, 0x80000d88
è¯»å–åœ°å€ 0x80000dc0
è¯»å–åœ°å€ 0x80094e28
0x80000dc0: 00 0a c7 83 lbu	a5, 0(s5)
è¯»å–åœ°å€ 0x80000dc4
0x80000dc4: f9 1f f0 6f jal	zero, 0x80000d54
è¯»å–åœ°å€ 0x80000d54
è¯»å–åœ°å€ 0x80094e29
0x80000d54: 00 09 c7 03 lbu	a4, 0(s3)
è¯»å–åœ°å€ 0x80000d58
0x80000d58: 02 07 04 63 beq	a4, zero, 0x80000d80
è¯»å–åœ°å€ 0x80000d80
0x80000d80: 00 07 9e 63 bne	a5, zero, 0x80000d9c
è¯»å–åœ°å€ 0x80000d9c
0x80000d9c: 00 80 05 13 addi	a0, zero, 8
è¯»å–åœ°å€ 0x80000da0
0x80000da0: 00 81 05 93 addi	a1, sp, 8
è¯»å–åœ°å€ 0x80000da4
0x80000da4: 31 00 00 ef jal	ra, 0x800010b4
è¯»å–åœ°å€ 0x800010b4
0x800010b4: 80 01 17 b7 lui	a5, 524305
è¯»å–åœ°å€ 0x800010b8
0x800010b8: 00 25 15 13 slli	a0, a0, 2
è¯»å–åœ°å€ 0x800010bc
0x800010bc: 9f 87 87 93 addi	a5, a5, -1544
è¯»å–åœ°å€ 0x800010c0
0x800010c0: 00 a7 87 b3 add	a5, a5, a0
è¯»å–åœ°å€ 0x800010c4
è¯»å–åœ°å€ 0x80010a18
0x800010c4: 00 07 a7 83 lw	a5, 0(a5)
è¯»å–åœ°å€ 0x800010c8
0x800010c8: 00 05 85 13 addi	a0, a1, 0
è¯»å–åœ°å€ 0x800010cc
0x800010cc: 00 07 80 67 jalr	zero, 0(a5)
è¯»å–åœ°å€ 0x80001134
0x80001134: a0 00 07 b7 lui	a5, 655360
è¯»å–åœ°å€ 0x80001138
read device name = keyboard 	 addr = 0xa0000060 
0x80001138: 06 07 a7 83 lw	a5, 96(a5)
è¯»å–åœ°å€ 0x8000113c
0x8000113c: 00 00 87 37 lui	a4, 8
è¯»å–åœ°å€ 0x80001140
å†™å…¥åœ°å€ 0x8009cfac
0x80001140: 00 f5 22 23 sw	a5, 4(a0)
è¯»å–åœ°å€ 0x80001144
0x80001144: 00 e7 f6 b3 and	a3, a5, a4
è¯»å–åœ°å€ 0x80001148
0x80001148: 00 06 8c 63 beq	a3, zero, 0x80001160
è¯»å–åœ°å€ 0x80001160
å†™å…¥åœ°å€ 0x8009cfa8
0x80001160: 00 05 00 23 sb	zero, 0(a0)
è¯»å–åœ°å€ 0x80001164
0x80001164: 00 00 80 67 jalr	zero, 0(ra)
è¯»å–åœ°å€ 0x80000da8
è¯»å–åœ°å€ 0x8009cfac
0x80000da8: 00 c1 26 03 lw	a2, 12(sp)
è¯»å–åœ°å€ 0x80000dac
è¯»å–åœ°å€ 0x8009cfa8
0x80000dac: 00 81 47 03 lbu	a4, 8(sp)
è¯»å–åœ°å€ 0x80000db0
0x80000db0: 18 09 05 13 addi	a0, s2, 384
è¯»å–åœ°å€ 0x80000db4
0x80000db4: 00 26 17 93 slli	a5, a2, 2
è¯»å–åœ°å€ 0x80000db8
0x80000db8: 00 f4 07 b3 add	a5, s0, a5
è¯»å–åœ°å€ 0x80000dbc
0x80000dbc: fc 06 16 e3 bne	a2, zero, 0x80000d88
è¯»å–åœ°å€ 0x80000dc0
è¯»å–åœ°å€ 0x80094e28
0x80000dc0: 00 0a c7 83 lbu	a5, 0(s5)
è¯»å–åœ°å€ 0x80000dc4
0x80000dc4: f9 1f f0 6f jal	zero, 0x80000d54
è¯»å–åœ°å€ 0x80000d54
è¯»å–åœ°å€ 0x80094e29
0x80000d54: 00 09 c7 03 lbu	a4, 0(s3)
è¯»å–åœ°å€ 0x80000d58
0x80000d58: 02 07 04 63 beq	a4, zero, 0x80000d80
è¯»å–åœ°å€ 0x80000d80
0x80000d80: 00 07 9e 63 bne	a5, zero, 0x80000d9c
è¯»å–åœ°å€ 0x80000d9c
0x80000d9c: 00 80 05 13 addi	a0, zero, 8
è¯»å–åœ°å€ 0x80000da0
0x80000da0: 00 81 05 93 addi	a1, sp, 8
è¯»å–åœ°å€ 0x80000da4
0x80000da4: 31 00 00 ef jal	ra, 0x800010b4
è¯»å–åœ°å€ 0x800010b4
0x800010b4: 80 01 17 b7 lui	a5, 524305
è¯»å–åœ°å€ 0x800010b8
0x800010b8: 00 25 15 13 slli	a0, a0, 2
è¯»å–åœ°å€ 0x800010bc
0x800010bc: 9f 87 87 93 addi	a5, a5, -1544
è¯»å–åœ°å€ 0x800010c0
0x800010c0: 00 a7 87 b3 add	a5, a5, a0
è¯»å–åœ°å€ 0x800010c4
è¯»å–åœ°å€ 0x80010a18
0x800010c4: 00 07 a7 83 lw	a5, 0(a5)
è¯»å–åœ°å€ 0x800010c8
0x800010c8: 00 05 85 13 addi	a0, a1, 0
è¯»å–åœ°å€ 0x800010cc
0x800010cc: 00 07 80 67 jalr	zero, 0(a5)
è¯»å–åœ°å€ 0x80001134
0x80001134: a0 00 07 b7 lui	a5, 655360
è¯»å–åœ°å€ 0x80001138
read device name = keyboard 	 addr = 0xa0000060 
0x80001138: 06 07 a7 83 lw	a5, 96(a5)
è¯»å–åœ°å€ 0x8000113c
0x8000113c: 00 00 87 37 lui	a4, 8
è¯»å–åœ°å€ 0x80001140
å†™å…¥åœ°å€ 0x8009cfac
0x80001140: 00 f5 22 23 sw	a5, 4(a0)
è¯»å–åœ°å€ 0x80001144
0x80001144: 00 e7 f6 b3 and	a3, a5, a4
è¯»å–åœ°å€ 0x80001148
0x80001148: 00 06 8c 63 beq	a3, zero, 0x80001160
è¯»å–åœ°å€ 0x80001160
å†™å…¥åœ°å€ 0x8009cfa8
0x80001160: 00 05 00 23 sb	zero, 0(a0)
è¯»å–åœ°å€ 0x80001164
0x80001164: 00 00 80 67 jalr	zero, 0(ra)
è¯»å–åœ°å€ 0x80000da8
è¯»å–åœ°å€ 0x8009cfac
0x80000da8: 00 c1 26 03 lw	a2, 12(sp)
è¯»å–åœ°å€ 0x80000dac
è¯»å–åœ°å€ 0x8009cfa8
0x80000dac: 00 81 47 03 lbu	a4, 8(sp)
è¯»å–åœ°å€ 0x80000db0
0x80000db0: 18 09 05 13 addi	a0, s2, 384
è¯»å–åœ°å€ 0x80000db4
0x80000db4: 00 26 17 93 slli	a5, a2, 2
è¯»å–åœ°å€ 0x80000db8
0x80000db8: 00 f4 07 b3 add	a5, s0, a5
è¯»å–åœ°å€ 0x80000dbc
0x80000dbc: fc 06 16 e3 bne	a2, zero, 0x80000d88
è¯»å–åœ°å€ 0x80000dc0
è¯»å–åœ°å€ 0x80094e28
0x80000dc0: 00 0a c7 83 lbu	a5, 0(s5)
è¯»å–åœ°å€ 0x80000dc4
0x80000dc4: f9 1f f0 6f jal	zero, 0x80000d54
è¯»å–åœ°å€ 0x80000d54
è¯»å–åœ°å€ 0x80094e29
0x80000d54: 00 09 c7 03 lbu	a4, 0(s3)
è¯»å–åœ°å€ 0x80000d58
0x80000d58: 02 07 04 63 beq	a4, zero, 0x80000d80
è¯»å–åœ°å€ 0x80000d80
0x80000d80: 00 07 9e 63 bne	a5, zero, 0x80000d9c
è¯»å–åœ°å€ 0x80000d9c
0x80000d9c: 00 80 05 13 addi	a0, zero, 8
è¯»å–åœ°å€ 0x80000da0
0x80000da0: 00 81 05 93 addi	a1, sp, 8
è¯»å–åœ°å€ 0x80000da4
0x80000da4: 31 00 00 ef jal	ra, 0x800010b4
è¯»å–åœ°å€ 0x800010b4
0x800010b4: 80 01 17 b7 lui	a5, 524305
è¯»å–åœ°å€ 0x800010b8
0x800010b8: 00 25 15 13 slli	a0, a0, 2
è¯»å–åœ°å€ 0x800010bc
0x800010bc: 9f 87 87 93 addi	a5, a5, -1544
è¯»å–åœ°å€ 0x800010c0
0x800010c0: 00 a7 87 b3 add	a5, a5, a0
è¯»å–åœ°å€ 0x800010c4
è¯»å–åœ°å€ 0x80010a18
0x800010c4: 00 07 a7 83 lw	a5, 0(a5)
è¯»å–åœ°å€ 0x800010c8
0x800010c8: 00 05 85 13 addi	a0, a1, 0
è¯»å–åœ°å€ 0x800010cc
0x800010cc: 00 07 80 67 jalr	zero, 0(a5)
è¯»å–åœ°å€ 0x80001134
0x80001134: a0 00 07 b7 lui	a5, 655360
è¯»å–åœ°å€ 0x80001138
read device name = keyboard 	 addr = 0xa0000060 
0x80001138: 06 07 a7 83 lw	a5, 96(a5)
è¯»å–åœ°å€ 0x8000113c
0x8000113c: 00 00 87 37 lui	a4, 8
è¯»å–åœ°å€ 0x80001140
å†™å…¥åœ°å€ 0x8009cfac
0x80001140: 00 f5 22 23 sw	a5, 4(a0)
è¯»å–åœ°å€ 0x80001144
0x80001144: 00 e7 f6 b3 and	a3, a5, a4
è¯»å–åœ°å€ 0x80001148
0x80001148: 00 06 8c 63 beq	a3, zero, 0x80001160
è¯»å–åœ°å€ 0x80001160
å†™å…¥åœ°å€ 0x8009cfa8
0x80001160: 00 05 00 23 sb	zero, 0(a0)
è¯»å–åœ°å€ 0x80001164
0x80001164: 00 00 80 67 jalr	zero, 0(ra)
è¯»å–åœ°å€ 0x80000da8
è¯»å–åœ°å€ 0x8009cfac
0x80000da8: 00 c1 26 03 lw	a2, 12(sp)
è¯»å–åœ°å€ 0x80000dac
è¯»å–åœ°å€ 0x8009cfa8
0x80000dac: 00 81 47 03 lbu	a4, 8(sp)
è¯»å–åœ°å€ 0x80000db0
0x80000db0: 18 09 05 13 addi	a0, s2, 384
è¯»å–åœ°å€ 0x80000db4
0x80000db4: 00 26 17 93 slli	a5, a2, 2
è¯»å–åœ°å€ 0x80000db8
0x80000db8: 00 f4 07 b3 add	a5, s0, a5
è¯»å–åœ°å€ 0x80000dbc
0x80000dbc: fc 06 16 e3 bne	a2, zero, 0x80000d88
è¯»å–åœ°å€ 0x80000dc0
è¯»å–åœ°å€ 0x80094e28
0x80000dc0: 00 0a c7 83 lbu	a5, 0(s5)
è¯»å–åœ°å€ 0x80000dc4
0x80000dc4: f9 1f f0 6f jal	zero, 0x80000d54
è¯»å–åœ°å€ 0x80000d54
è¯»å–åœ°å€ 0x80094e29
0x80000d54: 00 09 c7 03 lbu	a4, 0(s3)
è¯»å–åœ°å€ 0x80000d58
0x80000d58: 02 07 04 63 beq	a4, zero, 0x80000d80
è¯»å–åœ°å€ 0x80000d80
0x80000d80: 00 07 9e 63 bne	a5, zero, 0x80000d9c
è¯»å–åœ°å€ 0x80000d9c
0x80000d9c: 00 80 05 13 addi	a0, zero, 8
è¯»å–åœ°å€ 0x80000da0
0x80000da0: 00 81 05 93 addi	a1, sp, 8
è¯»å–åœ°å€ 0x80000da4
0x80000da4: 31 00 00 ef jal	ra, 0x800010b4
è¯»å–åœ°å€ 0x800010b4
0x800010b4: 80 01 17 b7 lui	a5, 524305
è¯»å–åœ°å€ 0x800010b8
0x800010b8: 00 25 15 13 slli	a0, a0, 2
è¯»å–åœ°å€ 0x800010bc
0x800010bc: 9f 87 87 93 addi	a5, a5, -1544
è¯»å–åœ°å€ 0x800010c0
0x800010c0: 00 a7 87 b3 add	a5, a5, a0
è¯»å–åœ°å€ 0x800010c4
è¯»å–åœ°å€ 0x80010a18
0x800010c4: 00 07 a7 83 lw	a5, 0(a5)
è¯»å–åœ°å€ 0x800010c8
0x800010c8: 00 05 85 13 addi	a0, a1, 0
è¯»å–åœ°å€ 0x800010cc
0x800010cc: 00 07 80 67 jalr	zero, 0(a5)
è¯»å–åœ°å€ 0x80001134
0x80001134: a0 00 07 b7 lui	a5, 655360
è¯»å–åœ°å€ 0x80001138
read device name = keyboard 	 addr = 0xa0000060 
0x80001138: 06 07 a7 83 lw	a5, 96(a5)
è¯»å–åœ°å€ 0x8000113c
0x8000113c: 00 00 87 37 lui	a4, 8
è¯»å–åœ°å€ 0x80001140
å†™å…¥åœ°å€ 0x8009cfac
0x80001140: 00 f5 22 23 sw	a5, 4(a0)
è¯»å–åœ°å€ 0x80001144
0x80001144: 00 e7 f6 b3 and	a3, a5, a4
è¯»å–åœ°å€ 0x80001148
0x80001148: 00 06 8c 63 beq	a3, zero, 0x80001160
è¯»å–åœ°å€ 0x80001160
å†™å…¥åœ°å€ 0x8009cfa8
0x80001160: 00 05 00 23 sb	zero, 0(a0)
è¯»å–åœ°å€ 0x80001164
0x80001164: 00 00 80 67 jalr	zero, 0(ra)
è¯»å–åœ°å€ 0x80000da8
è¯»å–åœ°å€ 0x8009cfac
0x80000da8: 00 c1 26 03 lw	a2, 12(sp)
è¯»å–åœ°å€ 0x80000dac
è¯»å–åœ°å€ 0x8009cfa8
0x80000dac: 00 81 47 03 lbu	a4, 8(sp)
è¯»å–åœ°å€ 0x80000db0
0x80000db0: 18 09 05 13 addi	a0, s2, 384
è¯»å–åœ°å€ 0x80000db4
0x80000db4: 00 26 17 93 slli	a5, a2, 2
è¯»å–åœ°å€ 0x80000db8
0x80000db8: 00 f4 07 b3 add	a5, s0, a5
è¯»å–åœ°å€ 0x80000dbc
0x80000dbc: fc 06 16 e3 bne	a2, zero, 0x80000d88
è¯»å–åœ°å€ 0x80000dc0
è¯»å–åœ°å€ 0x80094e28
0x80000dc0: 00 0a c7 83 lbu	a5, 0(s5)
è¯»å–åœ°å€ 0x80000dc4
0x80000dc4: f9 1f f0 6f jal	zero, 0x80000d54
è¯»å–åœ°å€ 0x80000d54
è¯»å–åœ°å€ 0x80094e29
0x80000d54: 00 09 c7 03 lbu	a4, 0(s3)
è¯»å–åœ°å€ 0x80000d58
0x80000d58: 02 07 04 63 beq	a4, zero, 0x80000d80
è¯»å–åœ°å€ 0x80000d80
0x80000d80: 00 07 9e 63 bne	a5, zero, 0x80000d9c
è¯»å–åœ°å€ 0x80000d9c
0x80000d9c: 00 80 05 13 addi	a0, zero, 8
è¯»å–åœ°å€ 0x80000da0
0x80000da0: 00 81 05 93 addi	a1, sp, 8
è¯»å–åœ°å€ 0x80000da4
0x80000da4: 31 00 00 ef jal	ra, 0x800010b4
è¯»å–åœ°å€ 0x800010b4
0x800010b4: 80 01 17 b7 lui	a5, 524305
è¯»å–åœ°å€ 0x800010b8
0x800010b8: 00 25 15 13 slli	a0, a0, 2
è¯»å–åœ°å€ 0x800010bc
0x800010bc: 9f 87 87 93 addi	a5, a5, -1544
è¯»å–åœ°å€ 0x800010c0
0x800010c0: 00 a7 87 b3 add	a5, a5, a0
è¯»å–åœ°å€ 0x800010c4
è¯»å–åœ°å€ 0x80010a18
0x800010c4: 00 07 a7 83 lw	a5, 0(a5)
è¯»å–åœ°å€ 0x800010c8
0x800010c8: 00 05 85 13 addi	a0, a1, 0
è¯»å–åœ°å€ 0x800010cc
0x800010cc: 00 07 80 67 jalr	zero, 0(a5)
è¯»å–åœ°å€ 0x80001134
0x80001134: a0 00 07 b7 lui	a5, 655360
è¯»å–åœ°å€ 0x80001138
read device name = keyboard 	 addr = 0xa0000060 
0x80001138: 06 07 a7 83 lw	a5, 96(a5)
è¯»å–åœ°å€ 0x8000113c
0x8000113c: 00 00 87 37 lui	a4, 8
è¯»å–åœ°å€ 0x80001140
å†™å…¥åœ°å€ 0x8009cfac
0x80001140: 00 f5 22 23 sw	a5, 4(a0)
è¯»å–åœ°å€ 0x80001144
0x80001144: 00 e7 f6 b3 and	a3, a5, a4
è¯»å–åœ°å€ 0x80001148
0x80001148: 00 06 8c 63 beq	a3, zero, 0x80001160
è¯»å–åœ°å€ 0x80001160
å†™å…¥åœ°å€ 0x8009cfa8
0x80001160: 00 05 00 23 sb	zero, 0(a0)
è¯»å–åœ°å€ 0x80001164
0x80001164: 00 00 80 67 jalr	zero, 0(ra)
è¯»å–åœ°å€ 0x80000da8
è¯»å–åœ°å€ 0x8009cfac
0x80000da8: 00 c1 26 03 lw	a2, 12(sp)
è¯»å–åœ°å€ 0x80000dac
è¯»å–åœ°å€ 0x8009cfa8
0x80000dac: 00 81 47 03 lbu	a4, 8(sp)
è¯»å–åœ°å€ 0x80000db0
0x80000db0: 18 09 05 13 addi	a0, s2, 384
è¯»å–åœ°å€ 0x80000db4
0x80000db4: 00 26 17 93 slli	a5, a2, 2
è¯»å–åœ°å€ 0x80000db8
0x80000db8: 00 f4 07 b3 add	a5, s0, a5
è¯»å–åœ°å€ 0x80000dbc
0x80000dbc: fc 06 16 e3 bne	a2, zero, 0x80000d88
è¯»å–åœ°å€ 0x80000dc0
è¯»å–åœ°å€ 0x80094e28
0x80000dc0: 00 0a c7 83 lbu	a5, 0(s5)
è¯»å–åœ°å€ 0x80000dc4
0x80000dc4: f9 1f f0 6f jal	zero, 0x80000d54
è¯»å–åœ°å€ 0x80000d54
è¯»å–åœ°å€ 0x80094e29
0x80000d54: 00 09 c7 03 lbu	a4, 0(s3)
è¯»å–åœ°å€ 0x80000d58
0x80000d58: 02 07 04 63 beq	a4, zero, 0x80000d80
è¯»å–åœ°å€ 0x80000d80
0x80000d80: 00 07 9e 63 bne	a5, zero, 0x80000d9c
è¯»å–åœ°å€ 0x80000d9c
0x80000d9c: 00 80 05 13 addi	a0, zero, 8
è¯»å–åœ°å€ 0x80000da0
0x80000da0: 00 81 05 93 addi	a1, sp, 8
è¯»å–åœ°å€ 0x80000da4
0x80000da4: 31 00 00 ef jal	ra, 0x800010b4
è¯»å–åœ°å€ 0x800010b4
0x800010b4: 80 01 17 b7 lui	a5, 524305
è¯»å–åœ°å€ 0x800010b8
0x800010b8: 00 25 15 13 slli	a0, a0, 2
è¯»å–åœ°å€ 0x800010bc
0x800010bc: 9f 87 87 93 addi	a5, a5, -1544
è¯»å–åœ°å€ 0x800010c0
0x800010c0: 00 a7 87 b3 add	a5, a5, a0
è¯»å–åœ°å€ 0x800010c4
è¯»å–åœ°å€ 0x80010a18
0x800010c4: 00 07 a7 83 lw	a5, 0(a5)
è¯»å–åœ°å€ 0x800010c8
0x800010c8: 00 05 85 13 addi	a0, a1, 0
è¯»å–åœ°å€ 0x800010cc
0x800010cc: 00 07 80 67 jalr	zero, 0(a5)
è¯»å–åœ°å€ 0x80001134
0x80001134: a0 00 07 b7 lui	a5, 655360
è¯»å–åœ°å€ 0x80001138
read device name = keyboard 	 addr = 0xa0000060 
0x80001138: 06 07 a7 83 lw	a5, 96(a5)
è¯»å–åœ°å€ 0x8000113c
0x8000113c: 00 00 87 37 lui	a4, 8
è¯»å–åœ°å€ 0x80001140
å†™å…¥åœ°å€ 0x8009cfac
0x80001140: 00 f5 22 23 sw	a5, 4(a0)
è¯»å–åœ°å€ 0x80001144
0x80001144: 00 e7 f6 b3 and	a3, a5, a4
è¯»å–åœ°å€ 0x80001148
0x80001148: 00 06 8c 63 beq	a3, zero, 0x80001160
è¯»å–åœ°å€ 0x80001160
å†™å…¥åœ°å€ 0x8009cfa8
0x80001160: 00 05 00 23 sb	zero, 0(a0)
è¯»å–åœ°å€ 0x80001164
0x80001164: 00 00 80 67 jalr	zero, 0(ra)
è¯»å–åœ°å€ 0x80000da8
è¯»å–åœ°å€ 0x8009cfac
0x80000da8: 00 c1 26 03 lw	a2, 12(sp)
è¯»å–åœ°å€ 0x80000dac
è¯»å–åœ°å€ 0x8009cfa8
0x80000dac: 00 81 47 03 lbu	a4, 8(sp)
è¯»å–åœ°å€ 0x80000db0
0x80000db0: 18 09 05 13 addi	a0, s2, 384
è¯»å–åœ°å€ 0x80000db4
0x80000db4: 00 26 17 93 slli	a5, a2, 2
è¯»å–åœ°å€ 0x80000db8
0x80000db8: 00 f4 07 b3 add	a5, s0, a5
è¯»å–åœ°å€ 0x80000dbc
0x80000dbc: fc 06 16 e3 bne	a2, zero, 0x80000d88
è¯»å–åœ°å€ 0x80000dc0
è¯»å–åœ°å€ 0x80094e28
0x80000dc0: 00 0a c7 83 lbu	a5, 0(s5)
è¯»å–åœ°å€ 0x80000dc4
0x80000dc4: f9 1f f0 6f jal	zero, 0x80000d54
è¯»å–åœ°å€ 0x80000d54
è¯»å–åœ°å€ 0x80094e29
0x80000d54: 00 09 c7 03 lbu	a4, 0(s3)
è¯»å–åœ°å€ 0x80000d58
0x80000d58: 02 07 04 63 beq	a4, zero, 0x80000d80
è¯»å–åœ°å€ 0x80000d80
0x80000d80: 00 07 9e 63 bne	a5, zero, 0x80000d9c
è¯»å–åœ°å€ 0x80000d9c
0x80000d9c: 00 80 05 13 addi	a0, zero, 8
è¯»å–åœ°å€ 0x80000da0
0x80000da0: 00 81 05 93 addi	a1, sp, 8
è¯»å–åœ°å€ 0x80000da4
0x80000da4: 31 00 00 ef jal	ra, 0x800010b4
è¯»å–åœ°å€ 0x800010b4
0x800010b4: 80 01 17 b7 lui	a5, 524305
è¯»å–åœ°å€ 0x800010b8
0x800010b8: 00 25 15 13 slli	a0, a0, 2
è¯»å–åœ°å€ 0x800010bc
0x800010bc: 9f 87 87 93 addi	a5, a5, -1544
è¯»å–åœ°å€ 0x800010c0
0x800010c0: 00 a7 87 b3 add	a5, a5, a0
è¯»å–åœ°å€ 0x800010c4
è¯»å–åœ°å€ 0x80010a18
0x800010c4: 00 07 a7 83 lw	a5, 0(a5)
è¯»å–åœ°å€ 0x800010c8
0x800010c8: 00 05 85 13 addi	a0, a1, 0
è¯»å–åœ°å€ 0x800010cc
0x800010cc: 00 07 80 67 jalr	zero, 0(a5)
è¯»å–åœ°å€ 0x80001134
0x80001134: a0 00 07 b7 lui	a5, 655360
è¯»å–åœ°å€ 0x80001138
read device name = keyboard 	 addr = 0xa0000060 
0x80001138: 06 07 a7 83 lw	a5, 96(a5)
è¯»å–åœ°å€ 0x8000113c
0x8000113c: 00 00 87 37 lui	a4, 8
è¯»å–åœ°å€ 0x80001140
å†™å…¥åœ°å€ 0x8009cfac
0x80001140: 00 f5 22 23 sw	a5, 4(a0)
è¯»å–åœ°å€ 0x80001144
0x80001144: 00 e7 f6 b3 and	a3, a5, a4
è¯»å–åœ°å€ 0x80001148
0x80001148: 00 06 8c 63 beq	a3, zero, 0x80001160
è¯»å–åœ°å€ 0x80001160
å†™å…¥åœ°å€ 0x8009cfa8
0x80001160: 00 05 00 23 sb	zero, 0(a0)
è¯»å–åœ°å€ 0x80001164
0x80001164: 00 00 80 67 jalr	zero, 0(ra)
è¯»å–åœ°å€ 0x80000da8
è¯»å–åœ°å€ 0x8009cfac
0x80000da8: 00 c1 26 03 lw	a2, 12(sp)
è¯»å–åœ°å€ 0x80000dac
è¯»å–åœ°å€ 0x8009cfa8
0x80000dac: 00 81 47 03 lbu	a4, 8(sp)
è¯»å–åœ°å€ 0x80000db0
0x80000db0: 18 09 05 13 addi	a0, s2, 384
è¯»å–åœ°å€ 0x80000db4
0x80000db4: 00 26 17 93 slli	a5, a2, 2
è¯»å–åœ°å€ 0x80000db8
0x80000db8: 00 f4 07 b3 add	a5, s0, a5
è¯»å–åœ°å€ 0x80000dbc
0x80000dbc: fc 06 16 e3 bne	a2, zero, 0x80000d88
è¯»å–åœ°å€ 0x80000dc0
è¯»å–åœ°å€ 0x80094e28
0x80000dc0: 00 0a c7 83 lbu	a5, 0(s5)
è¯»å–åœ°å€ 0x80000dc4
0x80000dc4: f9 1f f0 6f jal	zero, 0x80000d54
è¯»å–åœ°å€ 0x80000d54
è¯»å–åœ°å€ 0x80094e29
0x80000d54: 00 09 c7 03 lbu	a4, 0(s3)
è¯»å–åœ°å€ 0x80000d58
0x80000d58: 02 07 04 63 beq	a4, zero, 0x80000d80
è¯»å–åœ°å€ 0x80000d80
0x80000d80: 00 07 9e 63 bne	a5, zero, 0x80000d9c
è¯»å–åœ°å€ 0x80000d9c
0x80000d9c: 00 80 05 13 addi	a0, zero, 8
è¯»å–åœ°å€ 0x80000da0
0x80000da0: 00 81 05 93 addi	a1, sp, 8
è¯»å–åœ°å€ 0x80000da4
0x80000da4: 31 00 00 ef jal	ra, 0x800010b4
è¯»å–åœ°å€ 0x800010b4
0x800010b4: 80 01 17 b7 lui	a5, 524305
è¯»å–åœ°å€ 0x800010b8
0x800010b8: 00 25 15 13 slli	a0, a0, 2
è¯»å–åœ°å€ 0x800010bc
0x800010bc: 9f 87 87 93 addi	a5, a5, -1544
è¯»å–åœ°å€ 0x800010c0
0x800010c0: 00 a7 87 b3 add	a5, a5, a0
è¯»å–åœ°å€ 0x800010c4
è¯»å–åœ°å€ 0x80010a18
0x800010c4: 00 07 a7 83 lw	a5, 0(a5)
è¯»å–åœ°å€ 0x800010c8
0x800010c8: 00 05 85 13 addi	a0, a1, 0
è¯»å–åœ°å€ 0x800010cc
0x800010cc: 00 07 80 67 jalr	zero, 0(a5)
è¯»å–åœ°å€ 0x80001134
0x80001134: a0 00 07 b7 lui	a5, 655360
è¯»å–åœ°å€ 0x80001138
read device name = keyboard 	 addr = 0xa0000060 
0x80001138: 06 07 a7 83 lw	a5, 96(a5)
è¯»å–åœ°å€ 0x8000113c
0x8000113c: 00 00 87 37 lui	a4, 8
è¯»å–åœ°å€ 0x80001140
å†™å…¥åœ°å€ 0x8009cfac
0x80001140: 00 f5 22 23 sw	a5, 4(a0)
è¯»å–åœ°å€ 0x80001144
0x80001144: 00 e7 f6 b3 and	a3, a5, a4
è¯»å–åœ°å€ 0x80001148
0x80001148: 00 06 8c 63 beq	a3, zero, 0x80001160
è¯»å–åœ°å€ 0x80001160
å†™å…¥åœ°å€ 0x8009cfa8
0x80001160: 00 05 00 23 sb	zero, 0(a0)
è¯»å–åœ°å€ 0x80001164
0x80001164: 00 00 80 67 jalr	zero, 0(ra)
è¯»å–åœ°å€ 0x80000da8
è¯»å–åœ°å€ 0x8009cfac
0x80000da8: 00 c1 26 03 lw	a2, 12(sp)
è¯»å–åœ°å€ 0x80000dac
è¯»å–åœ°å€ 0x8009cfa8
0x80000dac: 00 81 47 03 lbu	a4, 8(sp)
è¯»å–åœ°å€ 0x80000db0
0x80000db0: 18 09 05 13 addi	a0, s2, 384
è¯»å–åœ°å€ 0x80000db4
0x80000db4: 00 26 17 93 slli	a5, a2, 2
è¯»å–åœ°å€ 0x80000db8
0x80000db8: 00 f4 07 b3 add	a5, s0, a5
è¯»å–åœ°å€ 0x80000dbc
0x80000dbc: fc 06 16 e3 bne	a2, zero, 0x80000d88
è¯»å–åœ°å€ 0x80000dc0
è¯»å–åœ°å€ 0x80094e28
0x80000dc0: 00 0a c7 83 lbu	a5, 0(s5)
è¯»å–åœ°å€ 0x80000dc4
0x80000dc4: f9 1f f0 6f jal	zero, 0x80000d54
è¯»å–åœ°å€ 0x80000d54
è¯»å–åœ°å€ 0x80094e29
0x80000d54: 00 09 c7 03 lbu	a4, 0(s3)
è¯»å–åœ°å€ 0x80000d58
0x80000d58: 02 07 04 63 beq	a4, zero, 0x80000d80
è¯»å–åœ°å€ 0x80000d80
0x80000d80: 00 07 9e 63 bne	a5, zero, 0x80000d9c
è¯»å–åœ°å€ 0x80000d9c
0x80000d9c: 00 80 05 13 addi	a0, zero, 8
è¯»å–åœ°å€ 0x80000da0
0x80000da0: 00 81 05 93 addi	a1, sp, 8
è¯»å–åœ°å€ 0x80000da4
0x80000da4: 31 00 00 ef jal	ra, 0x800010b4
è¯»å–åœ°å€ 0x800010b4
0x800010b4: 80 01 17 b7 lui	a5, 524305
è¯»å–åœ°å€ 0x800010b8
0x800010b8: 00 25 15 13 slli	a0, a0, 2
è¯»å–åœ°å€ 0x800010bc
0x800010bc: 9f 87 87 93 addi	a5, a5, -1544
è¯»å–åœ°å€ 0x800010c0
0x800010c0: 00 a7 87 b3 add	a5, a5, a0
è¯»å–åœ°å€ 0x800010c4
è¯»å–åœ°å€ 0x80010a18
0x800010c4: 00 07 a7 83 lw	a5, 0(a5)
è¯»å–åœ°å€ 0x800010c8
0x800010c8: 00 05 85 13 addi	a0, a1, 0
è¯»å–åœ°å€ 0x800010cc
0x800010cc: 00 07 80 67 jalr	zero, 0(a5)
è¯»å–åœ°å€ 0x80001134
0x80001134: a0 00 07 b7 lui	a5, 655360
è¯»å–åœ°å€ 0x80001138
read device name = keyboard 	 addr = 0xa0000060 
0x80001138: 06 07 a7 83 lw	a5, 96(a5)
è¯»å–åœ°å€ 0x8000113c
0x8000113c: 00 00 87 37 lui	a4, 8
è¯»å–åœ°å€ 0x80001140
å†™å…¥åœ°å€ 0x8009cfac
0x80001140: 00 f5 22 23 sw	a5, 4(a0)
è¯»å–åœ°å€ 0x80001144
0x80001144: 00 e7 f6 b3 and	a3, a5, a4
è¯»å–åœ°å€ 0x80001148
0x80001148: 00 06 8c 63 beq	a3, zero, 0x80001160
è¯»å–åœ°å€ 0x80001160
å†™å…¥åœ°å€ 0x8009cfa8
0x80001160: 00 05 00 23 sb	zero, 0(a0)
è¯»å–åœ°å€ 0x80001164
0x80001164: 00 00 80 67 jalr	zero, 0(ra)
è¯»å–åœ°å€ 0x80000da8
è¯»å–åœ°å€ 0x8009cfac
0x80000da8: 00 c1 26 03 lw	a2, 12(sp)
è¯»å–åœ°å€ 0x80000dac
è¯»å–åœ°å€ 0x8009cfa8
0x80000dac: 00 81 47 03 lbu	a4, 8(sp)
è¯»å–åœ°å€ 0x80000db0
0x80000db0: 18 09 05 13 addi	a0, s2, 384
è¯»å–åœ°å€ 0x80000db4
0x80000db4: 00 26 17 93 slli	a5, a2, 2
è¯»å–åœ°å€ 0x80000db8
0x80000db8: 00 f4 07 b3 add	a5, s0, a5
è¯»å–åœ°å€ 0x80000dbc
0x80000dbc: fc 06 16 e3 bne	a2, zero, 0x80000d88
è¯»å–åœ°å€ 0x80000dc0
è¯»å–åœ°å€ 0x80094e28
0x80000dc0: 00 0a c7 83 lbu	a5, 0(s5)
è¯»å–åœ°å€ 0x80000dc4
0x80000dc4: f9 1f f0 6f jal	zero, 0x80000d54
è¯»å–åœ°å€ 0x80000d54
è¯»å–åœ°å€ 0x80094e29
0x80000d54: 00 09 c7 03 lbu	a4, 0(s3)
è¯»å–åœ°å€ 0x80000d58
0x80000d58: 02 07 04 63 beq	a4, zero, 0x80000d80
è¯»å–åœ°å€ 0x80000d80
0x80000d80: 00 07 9e 63 bne	a5, zero, 0x80000d9c
è¯»å–åœ°å€ 0x80000d9c
0x80000d9c: 00 80 05 13 addi	a0, zero, 8
è¯»å–åœ°å€ 0x80000da0
0x80000da0: 00 81 05 93 addi	a1, sp, 8
è¯»å–åœ°å€ 0x80000da4
0x80000da4: 31 00 00 ef jal	ra, 0x800010b4
è¯»å–åœ°å€ 0x800010b4
0x800010b4: 80 01 17 b7 lui	a5, 524305
è¯»å–åœ°å€ 0x800010b8
0x800010b8: 00 25 15 13 slli	a0, a0, 2
è¯»å–åœ°å€ 0x800010bc
0x800010bc: 9f 87 87 93 addi	a5, a5, -1544
è¯»å–åœ°å€ 0x800010c0
0x800010c0: 00 a7 87 b3 add	a5, a5, a0
è¯»å–åœ°å€ 0x800010c4
è¯»å–åœ°å€ 0x80010a18
0x800010c4: 00 07 a7 83 lw	a5, 0(a5)
è¯»å–åœ°å€ 0x800010c8
0x800010c8: 00 05 85 13 addi	a0, a1, 0
è¯»å–åœ°å€ 0x800010cc
0x800010cc: 00 07 80 67 jalr	zero, 0(a5)
è¯»å–åœ°å€ 0x80001134
0x80001134: a0 00 07 b7 lui	a5, 655360
è¯»å–åœ°å€ 0x80001138
read device name = keyboard 	 addr = 0xa0000060 
0x80001138: 06 07 a7 83 lw	a5, 96(a5)
è¯»å–åœ°å€ 0x8000113c
0x8000113c: 00 00 87 37 lui	a4, 8
è¯»å–åœ°å€ 0x80001140
å†™å…¥åœ°å€ 0x8009cfac
0x80001140: 00 f5 22 23 sw	a5, 4(a0)
è¯»å–åœ°å€ 0x80001144
0x80001144: 00 e7 f6 b3 and	a3, a5, a4
è¯»å–åœ°å€ 0x80001148
0x80001148: 00 06 8c 63 beq	a3, zero, 0x80001160
è¯»å–åœ°å€ 0x80001160
å†™å…¥åœ°å€ 0x8009cfa8
0x80001160: 00 05 00 23 sb	zero, 0(a0)
è¯»å–åœ°å€ 0x80001164
0x80001164: 00 00 80 67 jalr	zero, 0(ra)
è¯»å–åœ°å€ 0x80000da8
è¯»å–åœ°å€ 0x8009cfac
0x80000da8: 00 c1 26 03 lw	a2, 12(sp)
è¯»å–åœ°å€ 0x80000dac
è¯»å–åœ°å€ 0x8009cfa8
0x80000dac: 00 81 47 03 lbu	a4, 8(sp)
è¯»å–åœ°å€ 0x80000db0
0x80000db0: 18 09 05 13 addi	a0, s2, 384
è¯»å–åœ°å€ 0x80000db4
0x80000db4: 00 26 17 93 slli	a5, a2, 2
è¯»å–åœ°å€ 0x80000db8
0x80000db8: 00 f4 07 b3 add	a5, s0, a5
è¯»å–åœ°å€ 0x80000dbc
0x80000dbc: fc 06 16 e3 bne	a2, zero, 0x80000d88
è¯»å–åœ°å€ 0x80000dc0
è¯»å–åœ°å€ 0x80094e28
0x80000dc0: 00 0a c7 83 lbu	a5, 0(s5)
è¯»å–åœ°å€ 0x80000dc4
0x80000dc4: f9 1f f0 6f jal	zero, 0x80000d54
è¯»å–åœ°å€ 0x80000d54
è¯»å–åœ°å€ 0x80094e29
0x80000d54: 00 09 c7 03 lbu	a4, 0(s3)
è¯»å–åœ°å€ 0x80000d58
0x80000d58: 02 07 04 63 beq	a4, zero, 0x80000d80
è¯»å–åœ°å€ 0x80000d80
0x80000d80: 00 07 9e 63 bne	a5, zero, 0x80000d9c
è¯»å–åœ°å€ 0x80000d9c
0x80000d9c: 00 80 05 13 addi	a0, zero, 8
è¯»å–åœ°å€ 0x80000da0
0x80000da0: 00 81 05 93 addi	a1, sp, 8
è¯»å–åœ°å€ 0x80000da4
0x80000da4: 31 00 00 ef jal	ra, 0x800010b4
è¯»å–åœ°å€ 0x800010b4
0x800010b4: 80 01 17 b7 lui	a5, 524305
è¯»å–åœ°å€ 0x800010b8
0x800010b8: 00 25 15 13 slli	a0, a0, 2
è¯»å–åœ°å€ 0x800010bc
0x800010bc: 9f 87 87 93 addi	a5, a5, -1544
è¯»å–åœ°å€ 0x800010c0
0x800010c0: 00 a7 87 b3 add	a5, a5, a0
è¯»å–åœ°å€ 0x800010c4
è¯»å–åœ°å€ 0x80010a18
0x800010c4: 00 07 a7 83 lw	a5, 0(a5)
è¯»å–åœ°å€ 0x800010c8
0x800010c8: 00 05 85 13 addi	a0, a1, 0
è¯»å–åœ°å€ 0x800010cc
0x800010cc: 00 07 80 67 jalr	zero, 0(a5)
è¯»å–åœ°å€ 0x80001134
0x80001134: a0 00 07 b7 lui	a5, 655360
è¯»å–åœ°å€ 0x80001138
read device name = keyboard 	 addr = 0xa0000060 
0x80001138: 06 07 a7 83 lw	a5, 96(a5)
è¯»å–åœ°å€ 0x8000113c
0x8000113c: 00 00 87 37 lui	a4, 8
è¯»å–åœ°å€ 0x80001140
å†™å…¥åœ°å€ 0x8009cfac
0x80001140: 00 f5 22 23 sw	a5, 4(a0)
è¯»å–åœ°å€ 0x80001144
0x80001144: 00 e7 f6 b3 and	a3, a5, a4
è¯»å–åœ°å€ 0x80001148
0x80001148: 00 06 8c 63 beq	a3, zero, 0x80001160
è¯»å–åœ°å€ 0x80001160
å†™å…¥åœ°å€ 0x8009cfa8
0x80001160: 00 05 00 23 sb	zero, 0(a0)
è¯»å–åœ°å€ 0x80001164
0x80001164: 00 00 80 67 jalr	zero, 0(ra)
è¯»å–åœ°å€ 0x80000da8
è¯»å–åœ°å€ 0x8009cfac
0x80000da8: 00 c1 26 03 lw	a2, 12(sp)
è¯»å–åœ°å€ 0x80000dac
è¯»å–åœ°å€ 0x8009cfa8
0x80000dac: 00 81 47 03 lbu	a4, 8(sp)
è¯»å–åœ°å€ 0x80000db0
0x80000db0: 18 09 05 13 addi	a0, s2, 384
è¯»å–åœ°å€ 0x80000db4
0x80000db4: 00 26 17 93 slli	a5, a2, 2
è¯»å–åœ°å€ 0x80000db8
0x80000db8: 00 f4 07 b3 add	a5, s0, a5
è¯»å–åœ°å€ 0x80000dbc
0x80000dbc: fc 06 16 e3 bne	a2, zero, 0x80000d88
è¯»å–åœ°å€ 0x80000dc0
è¯»å–åœ°å€ 0x80094e28
0x80000dc0: 00 0a c7 83 lbu	a5, 0(s5)
è¯»å–åœ°å€ 0x80000dc4
0x80000dc4: f9 1f f0 6f jal	zero, 0x80000d54
è¯»å–åœ°å€ 0x80000d54
è¯»å–åœ°å€ 0x80094e29
0x80000d54: 00 09 c7 03 lbu	a4, 0(s3)
è¯»å–åœ°å€ 0x80000d58
0x80000d58: 02 07 04 63 beq	a4, zero, 0x80000d80
è¯»å–åœ°å€ 0x80000d80
0x80000d80: 00 07 9e 63 bne	a5, zero, 0x80000d9c
è¯»å–åœ°å€ 0x80000d9c
0x80000d9c: 00 80 05 13 addi	a0, zero, 8
è¯»å–åœ°å€ 0x80000da0
0x80000da0: 00 81 05 93 addi	a1, sp, 8
è¯»å–åœ°å€ 0x80000da4
0x80000da4: 31 00 00 ef jal	ra, 0x800010b4
è¯»å–åœ°å€ 0x800010b4
0x800010b4: 80 01 17 b7 lui	a5, 524305
è¯»å–åœ°å€ 0x800010b8
0x800010b8: 00 25 15 13 slli	a0, a0, 2
è¯»å–åœ°å€ 0x800010bc
0x800010bc: 9f 87 87 93 addi	a5, a5, -1544
è¯»å–åœ°å€ 0x800010c0
0x800010c0: 00 a7 87 b3 add	a5, a5, a0
è¯»å–åœ°å€ 0x800010c4
è¯»å–åœ°å€ 0x80010a18
0x800010c4: 00 07 a7 83 lw	a5, 0(a5)
è¯»å–åœ°å€ 0x800010c8
0x800010c8: 00 05 85 13 addi	a0, a1, 0
è¯»å–åœ°å€ 0x800010cc
0x800010cc: 00 07 80 67 jalr	zero, 0(a5)
è¯»å–åœ°å€ 0x80001134
0x80001134: a0 00 07 b7 lui	a5, 655360
è¯»å–åœ°å€ 0x80001138
read device name = keyboard 	 addr = 0xa0000060 
0x80001138: 06 07 a7 83 lw	a5, 96(a5)
è¯»å–åœ°å€ 0x8000113c
0x8000113c: 00 00 87 37 lui	a4, 8
è¯»å–åœ°å€ 0x80001140
å†™å…¥åœ°å€ 0x8009cfac
0x80001140: 00 f5 22 23 sw	a5, 4(a0)
è¯»å–åœ°å€ 0x80001144
0x80001144: 00 e7 f6 b3 and	a3, a5, a4
è¯»å–åœ°å€ 0x80001148
0x80001148: 00 06 8c 63 beq	a3, zero, 0x80001160
è¯»å–åœ°å€ 0x80001160
å†™å…¥åœ°å€ 0x8009cfa8
0x80001160: 00 05 00 23 sb	zero, 0(a0)
è¯»å–åœ°å€ 0x80001164
0x80001164: 00 00 80 67 jalr	zero, 0(ra)
è¯»å–åœ°å€ 0x80000da8
è¯»å–åœ°å€ 0x8009cfac
0x80000da8: 00 c1 26 03 lw	a2, 12(sp)
è¯»å–åœ°å€ 0x80000dac
è¯»å–åœ°å€ 0x8009cfa8
0x80000dac: 00 81 47 03 lbu	a4, 8(sp)
è¯»å–åœ°å€ 0x80000db0
0x80000db0: 18 09 05 13 addi	a0, s2, 384
è¯»å–åœ°å€ 0x80000db4
0x80000db4: 00 26 17 93 slli	a5, a2, 2
è¯»å–åœ°å€ 0x80000db8
0x80000db8: 00 f4 07 b3 add	a5, s0, a5
è¯»å–åœ°å€ 0x80000dbc
0x80000dbc: fc 06 16 e3 bne	a2, zero, 0x80000d88
è¯»å–åœ°å€ 0x80000dc0
è¯»å–åœ°å€ 0x80094e28
0x80000dc0: 00 0a c7 83 lbu	a5, 0(s5)
è¯»å–åœ°å€ 0x80000dc4
0x80000dc4: f9 1f f0 6f jal	zero, 0x80000d54
è¯»å–åœ°å€ 0x80000d54
è¯»å–åœ°å€ 0x80094e29
0x80000d54: 00 09 c7 03 lbu	a4, 0(s3)
è¯»å–åœ°å€ 0x80000d58
0x80000d58: 02 07 04 63 beq	a4, zero, 0x80000d80
è¯»å–åœ°å€ 0x80000d80
0x80000d80: 00 07 9e 63 bne	a5, zero, 0x80000d9c
è¯»å–åœ°å€ 0x80000d9c
0x80000d9c: 00 80 05 13 addi	a0, zero, 8
è¯»å–åœ°å€ 0x80000da0
0x80000da0: 00 81 05 93 addi	a1, sp, 8
è¯»å–åœ°å€ 0x80000da4
0x80000da4: 31 00 00 ef jal	ra, 0x800010b4
è¯»å–åœ°å€ 0x800010b4
0x800010b4: 80 01 17 b7 lui	a5, 524305
è¯»å–åœ°å€ 0x800010b8
0x800010b8: 00 25 15 13 slli	a0, a0, 2
è¯»å–åœ°å€ 0x800010bc
0x800010bc: 9f 87 87 93 addi	a5, a5, -1544
è¯»å–åœ°å€ 0x800010c0
0x800010c0: 00 a7 87 b3 add	a5, a5, a0
è¯»å–åœ°å€ 0x800010c4
è¯»å–åœ°å€ 0x80010a18
0x800010c4: 00 07 a7 83 lw	a5, 0(a5)
è¯»å–åœ°å€ 0x800010c8
0x800010c8: 00 05 85 13 addi	a0, a1, 0
è¯»å–åœ°å€ 0x800010cc
0x800010cc: 00 07 80 67 jalr	zero, 0(a5)
è¯»å–åœ°å€ 0x80001134
0x80001134: a0 00 07 b7 lui	a5, 655360
è¯»å–åœ°å€ 0x80001138
read device name = keyboard 	 addr = 0xa0000060 
0x80001138: 06 07 a7 83 lw	a5, 96(a5)
è¯»å–åœ°å€ 0x8000113c
0x8000113c: 00 00 87 37 lui	a4, 8
è¯»å–åœ°å€ 0x80001140
å†™å…¥åœ°å€ 0x8009cfac
0x80001140: 00 f5 22 23 sw	a5, 4(a0)
è¯»å–åœ°å€ 0x80001144
0x80001144: 00 e7 f6 b3 and	a3, a5, a4
è¯»å–åœ°å€ 0x80001148
0x80001148: 00 06 8c 63 beq	a3, zero, 0x80001160
è¯»å–åœ°å€ 0x80001160
å†™å…¥åœ°å€ 0x8009cfa8
0x80001160: 00 05 00 23 sb	zero, 0(a0)
è¯»å–åœ°å€ 0x80001164
0x80001164: 00 00 80 67 jalr	zero, 0(ra)
è¯»å–åœ°å€ 0x80000da8
è¯»å–åœ°å€ 0x8009cfac
0x80000da8: 00 c1 26 03 lw	a2, 12(sp)
è¯»å–åœ°å€ 0x80000dac
è¯»å–åœ°å€ 0x8009cfa8
0x80000dac: 00 81 47 03 lbu	a4, 8(sp)
è¯»å–åœ°å€ 0x80000db0
0x80000db0: 18 09 05 13 addi	a0, s2, 384
è¯»å–åœ°å€ 0x80000db4
0x80000db4: 00 26 17 93 slli	a5, a2, 2
è¯»å–åœ°å€ 0x80000db8
0x80000db8: 00 f4 07 b3 add	a5, s0, a5
è¯»å–åœ°å€ 0x80000dbc
0x80000dbc: fc 06 16 e3 bne	a2, zero, 0x80000d88
è¯»å–åœ°å€ 0x80000dc0
è¯»å–åœ°å€ 0x80094e28
0x80000dc0: 00 0a c7 83 lbu	a5, 0(s5)
è¯»å–åœ°å€ 0x80000dc4
0x80000dc4: f9 1f f0 6f jal	zero, 0x80000d54
è¯»å–åœ°å€ 0x80000d54
è¯»å–åœ°å€ 0x80094e29
0x80000d54: 00 09 c7 03 lbu	a4, 0(s3)
è¯»å–åœ°å€ 0x80000d58
0x80000d58: 02 07 04 63 beq	a4, zero, 0x80000d80
è¯»å–åœ°å€ 0x80000d80
0x80000d80: 00 07 9e 63 bne	a5, zero, 0x80000d9c
è¯»å–åœ°å€ 0x80000d9c
0x80000d9c: 00 80 05 13 addi	a0, zero, 8
è¯»å–åœ°å€ 0x80000da0
0x80000da0: 00 81 05 93 addi	a1, sp, 8
è¯»å–åœ°å€ 0x80000da4
0x80000da4: 31 00 00 ef jal	ra, 0x800010b4
è¯»å–åœ°å€ 0x800010b4
0x800010b4: 80 01 17 b7 lui	a5, 524305
è¯»å–åœ°å€ 0x800010b8
0x800010b8: 00 25 15 13 slli	a0, a0, 2
è¯»å–åœ°å€ 0x800010bc
0x800010bc: 9f 87 87 93 addi	a5, a5, -1544
è¯»å–åœ°å€ 0x800010c0
0x800010c0: 00 a7 87 b3 add	a5, a5, a0
è¯»å–åœ°å€ 0x800010c4
è¯»å–åœ°å€ 0x80010a18
0x800010c4: 00 07 a7 83 lw	a5, 0(a5)
è¯»å–åœ°å€ 0x800010c8
0x800010c8: 00 05 85 13 addi	a0, a1, 0
è¯»å–åœ°å€ 0x800010cc
0x800010cc: 00 07 80 67 jalr	zero, 0(a5)
è¯»å–åœ°å€ 0x80001134
0x80001134: a0 00 07 b7 lui	a5, 655360
è¯»å–åœ°å€ 0x80001138
read device name = keyboard 	 addr = 0xa0000060 
0x80001138: 06 07 a7 83 lw	a5, 96(a5)
è¯»å–åœ°å€ 0x8000113c
0x8000113c: 00 00 87 37 lui	a4, 8
è¯»å–åœ°å€ 0x80001140
å†™å…¥åœ°å€ 0x8009cfac
0x80001140: 00 f5 22 23 sw	a5, 4(a0)
è¯»å–åœ°å€ 0x80001144
0x80001144: 00 e7 f6 b3 and	a3, a5, a4
è¯»å–åœ°å€ 0x80001148
0x80001148: 00 06 8c 63 beq	a3, zero, 0x80001160
è¯»å–åœ°å€ 0x80001160
å†™å…¥åœ°å€ 0x8009cfa8
0x80001160: 00 05 00 23 sb	zero, 0(a0)
è¯»å–åœ°å€ 0x80001164
0x80001164: 00 00 80 67 jalr	zero, 0(ra)
è¯»å–åœ°å€ 0x80000da8
è¯»å–åœ°å€ 0x8009cfac
0x80000da8: 00 c1 26 03 lw	a2, 12(sp)
è¯»å–åœ°å€ 0x80000dac
è¯»å–åœ°å€ 0x8009cfa8
0x80000dac: 00 81 47 03 lbu	a4, 8(sp)
è¯»å–åœ°å€ 0x80000db0
0x80000db0: 18 09 05 13 addi	a0, s2, 384
è¯»å–åœ°å€ 0x80000db4
0x80000db4: 00 26 17 93 slli	a5, a2, 2
è¯»å–åœ°å€ 0x80000db8
0x80000db8: 00 f4 07 b3 add	a5, s0, a5
è¯»å–åœ°å€ 0x80000dbc
0x80000dbc: fc 06 16 e3 bne	a2, zero, 0x80000d88
è¯»å–åœ°å€ 0x80000dc0
è¯»å–åœ°å€ 0x80094e28
0x80000dc0: 00 0a c7 83 lbu	a5, 0(s5)
è¯»å–åœ°å€ 0x80000dc4
0x80000dc4: f9 1f f0 6f jal	zero, 0x80000d54
è¯»å–åœ°å€ 0x80000d54
è¯»å–åœ°å€ 0x80094e29
0x80000d54: 00 09 c7 03 lbu	a4, 0(s3)
è¯»å–åœ°å€ 0x80000d58
0x80000d58: 02 07 04 63 beq	a4, zero, 0x80000d80
è¯»å–åœ°å€ 0x80000d80
0x80000d80: 00 07 9e 63 bne	a5, zero, 0x80000d9c
è¯»å–åœ°å€ 0x80000d9c
0x80000d9c: 00 80 05 13 addi	a0, zero, 8
è¯»å–åœ°å€ 0x80000da0
0x80000da0: 00 81 05 93 addi	a1, sp, 8
è¯»å–åœ°å€ 0x80000da4
0x80000da4: 31 00 00 ef jal	ra, 0x800010b4
è¯»å–åœ°å€ 0x800010b4
0x800010b4: 80 01 17 b7 lui	a5, 524305
è¯»å–åœ°å€ 0x800010b8
0x800010b8: 00 25 15 13 slli	a0, a0, 2
è¯»å–åœ°å€ 0x800010bc
0x800010bc: 9f 87 87 93 addi	a5, a5, -1544
è¯»å–åœ°å€ 0x800010c0
0x800010c0: 00 a7 87 b3 add	a5, a5, a0
è¯»å–åœ°å€ 0x800010c4
è¯»å–åœ°å€ 0x80010a18
0x800010c4: 00 07 a7 83 lw	a5, 0(a5)
è¯»å–åœ°å€ 0x800010c8
0x800010c8: 00 05 85 13 addi	a0, a1, 0
è¯»å–åœ°å€ 0x800010cc
0x800010cc: 00 07 80 67 jalr	zero, 0(a5)
è¯»å–åœ°å€ 0x80001134
0x80001134: a0 00 07 b7 lui	a5, 655360
è¯»å–åœ°å€ 0x80001138
read device name = keyboard 	 addr = 0xa0000060 
0x80001138: 06 07 a7 83 lw	a5, 96(a5)
è¯»å–åœ°å€ 0x8000113c
0x8000113c: 00 00 87 37 lui	a4, 8
è¯»å–åœ°å€ 0x80001140
å†™å…¥åœ°å€ 0x8009cfac
0x80001140: 00 f5 22 23 sw	a5, 4(a0)
è¯»å–åœ°å€ 0x80001144
0x80001144: 00 e7 f6 b3 and	a3, a5, a4
è¯»å–åœ°å€ 0x80001148
0x80001148: 00 06 8c 63 beq	a3, zero, 0x80001160
è¯»å–åœ°å€ 0x80001160
å†™å…¥åœ°å€ 0x8009cfa8
0x80001160: 00 05 00 23 sb	zero, 0(a0)
è¯»å–åœ°å€ 0x80001164
0x80001164: 00 00 80 67 jalr	zero, 0(ra)
è¯»å–åœ°å€ 0x80000da8
è¯»å–åœ°å€ 0x8009cfac
0x80000da8: 00 c1 26 03 lw	a2, 12(sp)
è¯»å–åœ°å€ 0x80000dac
è¯»å–åœ°å€ 0x8009cfa8
0x80000dac: 00 81 47 03 lbu	a4, 8(sp)
è¯»å–åœ°å€ 0x80000db0
0x80000db0: 18 09 05 13 addi	a0, s2, 384
è¯»å–åœ°å€ 0x80000db4
0x80000db4: 00 26 17 93 slli	a5, a2, 2
è¯»å–åœ°å€ 0x80000db8
0x80000db8: 00 f4 07 b3 add	a5, s0, a5
è¯»å–åœ°å€ 0x80000dbc
0x80000dbc: fc 06 16 e3 bne	a2, zero, 0x80000d88
è¯»å–åœ°å€ 0x80000dc0
è¯»å–åœ°å€ 0x80094e28
0x80000dc0: 00 0a c7 83 lbu	a5, 0(s5)
è¯»å–åœ°å€ 0x80000dc4
0x80000dc4: f9 1f f0 6f jal	zero, 0x80000d54
è¯»å–åœ°å€ 0x80000d54
è¯»å–åœ°å€ 0x80094e29
0x80000d54: 00 09 c7 03 lbu	a4, 0(s3)
è¯»å–åœ°å€ 0x80000d58
0x80000d58: 02 07 04 63 beq	a4, zero, 0x80000d80
è¯»å–åœ°å€ 0x80000d80
0x80000d80: 00 07 9e 63 bne	a5, zero, 0x80000d9c
è¯»å–åœ°å€ 0x80000d9c
0x80000d9c: 00 80 05 13 addi	a0, zero, 8
è¯»å–åœ°å€ 0x80000da0
0x80000da0: 00 81 05 93 addi	a1, sp, 8
è¯»å–åœ°å€ 0x80000da4
0x80000da4: 31 00 00 ef jal	ra, 0x800010b4
è¯»å–åœ°å€ 0x800010b4
0x800010b4: 80 01 17 b7 lui	a5, 524305
è¯»å–åœ°å€ 0x800010b8
0x800010b8: 00 25 15 13 slli	a0, a0, 2
è¯»å–åœ°å€ 0x800010bc
0x800010bc: 9f 87 87 93 addi	a5, a5, -1544
è¯»å–åœ°å€ 0x800010c0
0x800010c0: 00 a7 87 b3 add	a5, a5, a0
è¯»å–åœ°å€ 0x800010c4
è¯»å–åœ°å€ 0x80010a18
0x800010c4: 00 07 a7 83 lw	a5, 0(a5)
è¯»å–åœ°å€ 0x800010c8
0x800010c8: 00 05 85 13 addi	a0, a1, 0
è¯»å–åœ°å€ 0x800010cc
0x800010cc: 00 07 80 67 jalr	zero, 0(a5)
è¯»å–åœ°å€ 0x80001134
0x80001134: a0 00 07 b7 lui	a5, 655360
è¯»å–åœ°å€ 0x80001138
read device name = keyboard 	 addr = 0xa0000060 
0x80001138: 06 07 a7 83 lw	a5, 96(a5)
è¯»å–åœ°å€ 0x8000113c
0x8000113c: 00 00 87 37 lui	a4, 8
è¯»å–åœ°å€ 0x80001140
å†™å…¥åœ°å€ 0x8009cfac
0x80001140: 00 f5 22 23 sw	a5, 4(a0)
è¯»å–åœ°å€ 0x80001144
0x80001144: 00 e7 f6 b3 and	a3, a5, a4
è¯»å–åœ°å€ 0x80001148
0x80001148: 00 06 8c 63 beq	a3, zero, 0x80001160
è¯»å–åœ°å€ 0x80001160
å†™å…¥åœ°å€ 0x8009cfa8
0x80001160: 00 05 00 23 sb	zero, 0(a0)
è¯»å–åœ°å€ 0x80001164
0x80001164: 00 00 80 67 jalr	zero, 0(ra)
è¯»å–åœ°å€ 0x80000da8
è¯»å–åœ°å€ 0x8009cfac
0x80000da8: 00 c1 26 03 lw	a2, 12(sp)
è¯»å–åœ°å€ 0x80000dac
è¯»å–åœ°å€ 0x8009cfa8
0x80000dac: 00 81 47 03 lbu	a4, 8(sp)
è¯»å–åœ°å€ 0x80000db0
0x80000db0: 18 09 05 13 addi	a0, s2, 384
è¯»å–åœ°å€ 0x80000db4
0x80000db4: 00 26 17 93 slli	a5, a2, 2
è¯»å–åœ°å€ 0x80000db8
0x80000db8: 00 f4 07 b3 add	a5, s0, a5
è¯»å–åœ°å€ 0x80000dbc
0x80000dbc: fc 06 16 e3 bne	a2, zero, 0x80000d88
è¯»å–åœ°å€ 0x80000dc0
è¯»å–åœ°å€ 0x80094e28
0x80000dc0: 00 0a c7 83 lbu	a5, 0(s5)
è¯»å–åœ°å€ 0x80000dc4
0x80000dc4: f9 1f f0 6f jal	zero, 0x80000d54
è¯»å–åœ°å€ 0x80000d54
è¯»å–åœ°å€ 0x80094e29
0x80000d54: 00 09 c7 03 lbu	a4, 0(s3)
è¯»å–åœ°å€ 0x80000d58
0x80000d58: 02 07 04 63 beq	a4, zero, 0x80000d80
è¯»å–åœ°å€ 0x80000d80
0x80000d80: 00 07 9e 63 bne	a5, zero, 0x80000d9c
è¯»å–åœ°å€ 0x80000d9c
0x80000d9c: 00 80 05 13 addi	a0, zero, 8
è¯»å–åœ°å€ 0x80000da0
0x80000da0: 00 81 05 93 addi	a1, sp, 8
è¯»å–åœ°å€ 0x80000da4
0x80000da4: 31 00 00 ef jal	ra, 0x800010b4
è¯»å–åœ°å€ 0x800010b4
0x800010b4: 80 01 17 b7 lui	a5, 524305
è¯»å–åœ°å€ 0x800010b8
0x800010b8: 00 25 15 13 slli	a0, a0, 2
è¯»å–åœ°å€ 0x800010bc
0x800010bc: 9f 87 87 93 addi	a5, a5, -1544
è¯»å–åœ°å€ 0x800010c0
0x800010c0: 00 a7 87 b3 add	a5, a5, a0
è¯»å–åœ°å€ 0x800010c4
è¯»å–åœ°å€ 0x80010a18
0x800010c4: 00 07 a7 83 lw	a5, 0(a5)
è¯»å–åœ°å€ 0x800010c8
0x800010c8: 00 05 85 13 addi	a0, a1, 0
è¯»å–åœ°å€ 0x800010cc
0x800010cc: 00 07 80 67 jalr	zero, 0(a5)
è¯»å–åœ°å€ 0x80001134
0x80001134: a0 00 07 b7 lui	a5, 655360
è¯»å–åœ°å€ 0x80001138
read device name = keyboard 	 addr = 0xa0000060 
0x80001138: 06 07 a7 83 lw	a5, 96(a5)
è¯»å–åœ°å€ 0x8000113c
0x8000113c: 00 00 87 37 lui	a4, 8
è¯»å–åœ°å€ 0x80001140
å†™å…¥åœ°å€ 0x8009cfac
0x80001140: 00 f5 22 23 sw	a5, 4(a0)
è¯»å–åœ°å€ 0x80001144
0x80001144: 00 e7 f6 b3 and	a3, a5, a4
è¯»å–åœ°å€ 0x80001148
0x80001148: 00 06 8c 63 beq	a3, zero, 0x80001160
è¯»å–åœ°å€ 0x80001160
å†™å…¥åœ°å€ 0x8009cfa8
0x80001160: 00 05 00 23 sb	zero, 0(a0)
è¯»å–åœ°å€ 0x80001164
0x80001164: 00 00 80 67 jalr	zero, 0(ra)
è¯»å–åœ°å€ 0x80000da8
è¯»å–åœ°å€ 0x8009cfac
0x80000da8: 00 c1 26 03 lw	a2, 12(sp)
è¯»å–åœ°å€ 0x80000dac
è¯»å–åœ°å€ 0x8009cfa8
0x80000dac: 00 81 47 03 lbu	a4, 8(sp)
è¯»å–åœ°å€ 0x80000db0
0x80000db0: 18 09 05 13 addi	a0, s2, 384
è¯»å–åœ°å€ 0x80000db4
0x80000db4: 00 26 17 93 slli	a5, a2, 2
è¯»å–åœ°å€ 0x80000db8
0x80000db8: 00 f4 07 b3 add	a5, s0, a5
è¯»å–åœ°å€ 0x80000dbc
0x80000dbc: fc 06 16 e3 bne	a2, zero, 0x80000d88
è¯»å–åœ°å€ 0x80000dc0
è¯»å–åœ°å€ 0x80094e28
0x80000dc0: 00 0a c7 83 lbu	a5, 0(s5)
è¯»å–åœ°å€ 0x80000dc4
0x80000dc4: f9 1f f0 6f jal	zero, 0x80000d54
è¯»å–åœ°å€ 0x80000d54
è¯»å–åœ°å€ 0x80094e29
0x80000d54: 00 09 c7 03 lbu	a4, 0(s3)
è¯»å–åœ°å€ 0x80000d58
0x80000d58: 02 07 04 63 beq	a4, zero, 0x80000d80
è¯»å–åœ°å€ 0x80000d80
0x80000d80: 00 07 9e 63 bne	a5, zero, 0x80000d9c
è¯»å–åœ°å€ 0x80000d9c
0x80000d9c: 00 80 05 13 addi	a0, zero, 8
è¯»å–åœ°å€ 0x80000da0
0x80000da0: 00 81 05 93 addi	a1, sp, 8
è¯»å–åœ°å€ 0x80000da4
0x80000da4: 31 00 00 ef jal	ra, 0x800010b4
è¯»å–åœ°å€ 0x800010b4
0x800010b4: 80 01 17 b7 lui	a5, 524305
è¯»å–åœ°å€ 0x800010b8
0x800010b8: 00 25 15 13 slli	a0, a0, 2
è¯»å–åœ°å€ 0x800010bc
0x800010bc: 9f 87 87 93 addi	a5, a5, -1544
è¯»å–åœ°å€ 0x800010c0
0x800010c0: 00 a7 87 b3 add	a5, a5, a0
è¯»å–åœ°å€ 0x800010c4
è¯»å–åœ°å€ 0x80010a18
0x800010c4: 00 07 a7 83 lw	a5, 0(a5)
è¯»å–åœ°å€ 0x800010c8
0x800010c8: 00 05 85 13 addi	a0, a1, 0
è¯»å–åœ°å€ 0x800010cc
0x800010cc: 00 07 80 67 jalr	zero, 0(a5)
è¯»å–åœ°å€ 0x80001134
0x80001134: a0 00 07 b7 lui	a5, 655360
è¯»å–åœ°å€ 0x80001138
read device name = keyboard 	 addr = 0xa0000060 
0x80001138: 06 07 a7 83 lw	a5, 96(a5)
è¯»å–åœ°å€ 0x8000113c
0x8000113c: 00 00 87 37 lui	a4, 8
è¯»å–åœ°å€ 0x80001140
å†™å…¥åœ°å€ 0x8009cfac
0x80001140: 00 f5 22 23 sw	a5, 4(a0)
è¯»å–åœ°å€ 0x80001144
0x80001144: 00 e7 f6 b3 and	a3, a5, a4
è¯»å–åœ°å€ 0x80001148
0x80001148: 00 06 8c 63 beq	a3, zero, 0x80001160
è¯»å–åœ°å€ 0x80001160
å†™å…¥åœ°å€ 0x8009cfa8
0x80001160: 00 05 00 23 sb	zero, 0(a0)
è¯»å–åœ°å€ 0x80001164
0x80001164: 00 00 80 67 jalr	zero, 0(ra)
è¯»å–åœ°å€ 0x80000da8
è¯»å–åœ°å€ 0x8009cfac
0x80000da8: 00 c1 26 03 lw	a2, 12(sp)
è¯»å–åœ°å€ 0x80000dac
è¯»å–åœ°å€ 0x8009cfa8
0x80000dac: 00 81 47 03 lbu	a4, 8(sp)
è¯»å–åœ°å€ 0x80000db0
0x80000db0: 18 09 05 13 addi	a0, s2, 384
è¯»å–åœ°å€ 0x80000db4
0x80000db4: 00 26 17 93 slli	a5, a2, 2
è¯»å–åœ°å€ 0x80000db8
0x80000db8: 00 f4 07 b3 add	a5, s0, a5
è¯»å–åœ°å€ 0x80000dbc
0x80000dbc: fc 06 16 e3 bne	a2, zero, 0x80000d88
è¯»å–åœ°å€ 0x80000dc0
è¯»å–åœ°å€ 0x80094e28
0x80000dc0: 00 0a c7 83 lbu	a5, 0(s5)
è¯»å–åœ°å€ 0x80000dc4
0x80000dc4: f9 1f f0 6f jal	zero, 0x80000d54
è¯»å–åœ°å€ 0x80000d54
è¯»å–åœ°å€ 0x80094e29
0x80000d54: 00 09 c7 03 lbu	a4, 0(s3)
è¯»å–åœ°å€ 0x80000d58
0x80000d58: 02 07 04 63 beq	a4, zero, 0x80000d80
è¯»å–åœ°å€ 0x80000d80
0x80000d80: 00 07 9e 63 bne	a5, zero, 0x80000d9c
è¯»å–åœ°å€ 0x80000d9c
0x80000d9c: 00 80 05 13 addi	a0, zero, 8
è¯»å–åœ°å€ 0x80000da0
0x80000da0: 00 81 05 93 addi	a1, sp, 8
è¯»å–åœ°å€ 0x80000da4
0x80000da4: 31 00 00 ef jal	ra, 0x800010b4
è¯»å–åœ°å€ 0x800010b4
0x800010b4: 80 01 17 b7 lui	a5, 524305
è¯»å–åœ°å€ 0x800010b8
0x800010b8: 00 25 15 13 slli	a0, a0, 2
è¯»å–åœ°å€ 0x800010bc
0x800010bc: 9f 87 87 93 addi	a5, a5, -1544
è¯»å–åœ°å€ 0x800010c0
0x800010c0: 00 a7 87 b3 add	a5, a5, a0
è¯»å–åœ°å€ 0x800010c4
è¯»å–åœ°å€ 0x80010a18
0x800010c4: 00 07 a7 83 lw	a5, 0(a5)
è¯»å–åœ°å€ 0x800010c8
0x800010c8: 00 05 85 13 addi	a0, a1, 0
è¯»å–åœ°å€ 0x800010cc
0x800010cc: 00 07 80 67 jalr	zero, 0(a5)
è¯»å–åœ°å€ 0x80001134
0x80001134: a0 00 07 b7 lui	a5, 655360
è¯»å–åœ°å€ 0x80001138
read device name = keyboard 	 addr = 0xa0000060 
0x80001138: 06 07 a7 83 lw	a5, 96(a5)
è¯»å–åœ°å€ 0x8000113c
0x8000113c: 00 00 87 37 lui	a4, 8
è¯»å–åœ°å€ 0x80001140
å†™å…¥åœ°å€ 0x8009cfac
0x80001140: 00 f5 22 23 sw	a5, 4(a0)
è¯»å–åœ°å€ 0x80001144
0x80001144: 00 e7 f6 b3 and	a3, a5, a4
è¯»å–åœ°å€ 0x80001148
0x80001148: 00 06 8c 63 beq	a3, zero, 0x80001160
è¯»å–åœ°å€ 0x80001160
å†™å…¥åœ°å€ 0x8009cfa8
0x80001160: 00 05 00 23 sb	zero, 0(a0)
è¯»å–åœ°å€ 0x80001164
0x80001164: 00 00 80 67 jalr	zero, 0(ra)
è¯»å–åœ°å€ 0x80000da8
è¯»å–åœ°å€ 0x8009cfac
0x80000da8: 00 c1 26 03 lw	a2, 12(sp)
è¯»å–åœ°å€ 0x80000dac
è¯»å–åœ°å€ 0x8009cfa8
0x80000dac: 00 81 47 03 lbu	a4, 8(sp)
è¯»å–åœ°å€ 0x80000db0
0x80000db0: 18 09 05 13 addi	a0, s2, 384
è¯»å–åœ°å€ 0x80000db4
0x80000db4: 00 26 17 93 slli	a5, a2, 2
è¯»å–åœ°å€ 0x80000db8
0x80000db8: 00 f4 07 b3 add	a5, s0, a5
è¯»å–åœ°å€ 0x80000dbc
0x80000dbc: fc 06 16 e3 bne	a2, zero, 0x80000d88
è¯»å–åœ°å€ 0x80000dc0
è¯»å–åœ°å€ 0x80094e28
0x80000dc0: 00 0a c7 83 lbu	a5, 0(s5)
è¯»å–åœ°å€ 0x80000dc4
0x80000dc4: f9 1f f0 6f jal	zero, 0x80000d54
è¯»å–åœ°å€ 0x80000d54
è¯»å–åœ°å€ 0x80094e29
0x80000d54: 00 09 c7 03 lbu	a4, 0(s3)
è¯»å–åœ°å€ 0x80000d58
0x80000d58: 02 07 04 63 beq	a4, zero, 0x80000d80
è¯»å–åœ°å€ 0x80000d80
0x80000d80: 00 07 9e 63 bne	a5, zero, 0x80000d9c
è¯»å–åœ°å€ 0x80000d9c
0x80000d9c: 00 80 05 13 addi	a0, zero, 8
è¯»å–åœ°å€ 0x80000da0
0x80000da0: 00 81 05 93 addi	a1, sp, 8
è¯»å–åœ°å€ 0x80000da4
0x80000da4: 31 00 00 ef jal	ra, 0x800010b4
è¯»å–åœ°å€ 0x800010b4
0x800010b4: 80 01 17 b7 lui	a5, 524305
è¯»å–åœ°å€ 0x800010b8
0x800010b8: 00 25 15 13 slli	a0, a0, 2
è¯»å–åœ°å€ 0x800010bc
0x800010bc: 9f 87 87 93 addi	a5, a5, -1544
è¯»å–åœ°å€ 0x800010c0
0x800010c0: 00 a7 87 b3 add	a5, a5, a0
è¯»å–åœ°å€ 0x800010c4
è¯»å–åœ°å€ 0x80010a18
0x800010c4: 00 07 a7 83 lw	a5, 0(a5)
è¯»å–åœ°å€ 0x800010c8
0x800010c8: 00 05 85 13 addi	a0, a1, 0
è¯»å–åœ°å€ 0x800010cc
0x800010cc: 00 07 80 67 jalr	zero, 0(a5)
è¯»å–åœ°å€ 0x80001134
0x80001134: a0 00 07 b7 lui	a5, 655360
è¯»å–åœ°å€ 0x80001138
read device name = keyboard 	 addr = 0xa0000060 
0x80001138: 06 07 a7 83 lw	a5, 96(a5)
è¯»å–åœ°å€ 0x8000113c
0x8000113c: 00 00 87 37 lui	a4, 8
è¯»å–åœ°å€ 0x80001140
å†™å…¥åœ°å€ 0x8009cfac
0x80001140: 00 f5 22 23 sw	a5, 4(a0)
è¯»å–åœ°å€ 0x80001144
0x80001144: 00 e7 f6 b3 and	a3, a5, a4
è¯»å–åœ°å€ 0x80001148
0x80001148: 00 06 8c 63 beq	a3, zero, 0x80001160
è¯»å–åœ°å€ 0x80001160
å†™å…¥åœ°å€ 0x8009cfa8
0x80001160: 00 05 00 23 sb	zero, 0(a0)
è¯»å–åœ°å€ 0x80001164
0x80001164: 00 00 80 67 jalr	zero, 0(ra)
è¯»å–åœ°å€ 0x80000da8
è¯»å–åœ°å€ 0x8009cfac
0x80000da8: 00 c1 26 03 lw	a2, 12(sp)
è¯»å–åœ°å€ 0x80000dac
è¯»å–åœ°å€ 0x8009cfa8
0x80000dac: 00 81 47 03 lbu	a4, 8(sp)
è¯»å–åœ°å€ 0x80000db0
0x80000db0: 18 09 05 13 addi	a0, s2, 384
è¯»å–åœ°å€ 0x80000db4
0x80000db4: 00 26 17 93 slli	a5, a2, 2
è¯»å–åœ°å€ 0x80000db8
0x80000db8: 00 f4 07 b3 add	a5, s0, a5
è¯»å–åœ°å€ 0x80000dbc
0x80000dbc: fc 06 16 e3 bne	a2, zero, 0x80000d88
è¯»å–åœ°å€ 0x80000dc0
è¯»å–åœ°å€ 0x80094e28
0x80000dc0: 00 0a c7 83 lbu	a5, 0(s5)
è¯»å–åœ°å€ 0x80000dc4
0x80000dc4: f9 1f f0 6f jal	zero, 0x80000d54
è¯»å–åœ°å€ 0x80000d54
è¯»å–åœ°å€ 0x80094e29
0x80000d54: 00 09 c7 03 lbu	a4, 0(s3)
è¯»å–åœ°å€ 0x80000d58
0x80000d58: 02 07 04 63 beq	a4, zero, 0x80000d80
è¯»å–åœ°å€ 0x80000d80
0x80000d80: 00 07 9e 63 bne	a5, zero, 0x80000d9c
è¯»å–åœ°å€ 0x80000d9c
0x80000d9c: 00 80 05 13 addi	a0, zero, 8
è¯»å–åœ°å€ 0x80000da0
0x80000da0: 00 81 05 93 addi	a1, sp, 8
è¯»å–åœ°å€ 0x80000da4
0x80000da4: 31 00 00 ef jal	ra, 0x800010b4
è¯»å–åœ°å€ 0x800010b4
0x800010b4: 80 01 17 b7 lui	a5, 524305
è¯»å–åœ°å€ 0x800010b8
0x800010b8: 00 25 15 13 slli	a0, a0, 2
è¯»å–åœ°å€ 0x800010bc
0x800010bc: 9f 87 87 93 addi	a5, a5, -1544
è¯»å–åœ°å€ 0x800010c0
0x800010c0: 00 a7 87 b3 add	a5, a5, a0
è¯»å–åœ°å€ 0x800010c4
è¯»å–åœ°å€ 0x80010a18
0x800010c4: 00 07 a7 83 lw	a5, 0(a5)
è¯»å–åœ°å€ 0x800010c8
0x800010c8: 00 05 85 13 addi	a0, a1, 0
è¯»å–åœ°å€ 0x800010cc
0x800010cc: 00 07 80 67 jalr	zero, 0(a5)
è¯»å–åœ°å€ 0x80001134
0x80001134: a0 00 07 b7 lui	a5, 655360
è¯»å–åœ°å€ 0x80001138
read device name = keyboard 	 addr = 0xa0000060 
0x80001138: 06 07 a7 83 lw	a5, 96(a5)
è¯»å–åœ°å€ 0x8000113c
0x8000113c: 00 00 87 37 lui	a4, 8
è¯»å–åœ°å€ 0x80001140
å†™å…¥åœ°å€ 0x8009cfac
0x80001140: 00 f5 22 23 sw	a5, 4(a0)
è¯»å–åœ°å€ 0x80001144
0x80001144: 00 e7 f6 b3 and	a3, a5, a4
è¯»å–åœ°å€ 0x80001148
0x80001148: 00 06 8c 63 beq	a3, zero, 0x80001160
è¯»å–åœ°å€ 0x80001160
å†™å…¥åœ°å€ 0x8009cfa8
0x80001160: 00 05 00 23 sb	zero, 0(a0)
è¯»å–åœ°å€ 0x80001164
0x80001164: 00 00 80 67 jalr	zero, 0(ra)
è¯»å–åœ°å€ 0x80000da8
è¯»å–åœ°å€ 0x8009cfac
0x80000da8: 00 c1 26 03 lw	a2, 12(sp)
è¯»å–åœ°å€ 0x80000dac
è¯»å–åœ°å€ 0x8009cfa8
0x80000dac: 00 81 47 03 lbu	a4, 8(sp)
è¯»å–åœ°å€ 0x80000db0
0x80000db0: 18 09 05 13 addi	a0, s2, 384
è¯»å–åœ°å€ 0x80000db4
0x80000db4: 00 26 17 93 slli	a5, a2, 2
è¯»å–åœ°å€ 0x80000db8
0x80000db8: 00 f4 07 b3 add	a5, s0, a5
è¯»å–åœ°å€ 0x80000dbc
0x80000dbc: fc 06 16 e3 bne	a2, zero, 0x80000d88
è¯»å–åœ°å€ 0x80000dc0
è¯»å–åœ°å€ 0x80094e28
0x80000dc0: 00 0a c7 83 lbu	a5, 0(s5)
è¯»å–åœ°å€ 0x80000dc4
0x80000dc4: f9 1f f0 6f jal	zero, 0x80000d54
è¯»å–åœ°å€ 0x80000d54
è¯»å–åœ°å€ 0x80094e29
0x80000d54: 00 09 c7 03 lbu	a4, 0(s3)
è¯»å–åœ°å€ 0x80000d58
0x80000d58: 02 07 04 63 beq	a4, zero, 0x80000d80
è¯»å–åœ°å€ 0x80000d80
0x80000d80: 00 07 9e 63 bne	a5, zero, 0x80000d9c
è¯»å–åœ°å€ 0x80000d9c
0x80000d9c: 00 80 05 13 addi	a0, zero, 8
è¯»å–åœ°å€ 0x80000da0
0x80000da0: 00 81 05 93 addi	a1, sp, 8
è¯»å–åœ°å€ 0x80000da4
0x80000da4: 31 00 00 ef jal	ra, 0x800010b4
è¯»å–åœ°å€ 0x800010b4
0x800010b4: 80 01 17 b7 lui	a5, 524305
è¯»å–åœ°å€ 0x800010b8
0x800010b8: 00 25 15 13 slli	a0, a0, 2
è¯»å–åœ°å€ 0x800010bc
0x800010bc: 9f 87 87 93 addi	a5, a5, -1544
è¯»å–åœ°å€ 0x800010c0
0x800010c0: 00 a7 87 b3 add	a5, a5, a0
è¯»å–åœ°å€ 0x800010c4
è¯»å–åœ°å€ 0x80010a18
0x800010c4: 00 07 a7 83 lw	a5, 0(a5)
è¯»å–åœ°å€ 0x800010c8
0x800010c8: 00 05 85 13 addi	a0, a1, 0
è¯»å–åœ°å€ 0x800010cc
0x800010cc: 00 07 80 67 jalr	zero, 0(a5)
è¯»å–åœ°å€ 0x80001134
0x80001134: a0 00 07 b7 lui	a5, 655360
è¯»å–åœ°å€ 0x80001138
read device name = keyboard 	 addr = 0xa0000060 
0x80001138: 06 07 a7 83 lw	a5, 96(a5)
è¯»å–åœ°å€ 0x8000113c
0x8000113c: 00 00 87 37 lui	a4, 8
è¯»å–åœ°å€ 0x80001140
å†™å…¥åœ°å€ 0x8009cfac
0x80001140: 00 f5 22 23 sw	a5, 4(a0)
è¯»å–åœ°å€ 0x80001144
0x80001144: 00 e7 f6 b3 and	a3, a5, a4
è¯»å–åœ°å€ 0x80001148
0x80001148: 00 06 8c 63 beq	a3, zero, 0x80001160
è¯»å–åœ°å€ 0x80001160
å†™å…¥åœ°å€ 0x8009cfa8
0x80001160: 00 05 00 23 sb	zero, 0(a0)
è¯»å–åœ°å€ 0x80001164
0x80001164: 00 00 80 67 jalr	zero, 0(ra)
è¯»å–åœ°å€ 0x80000da8
è¯»å–åœ°å€ 0x8009cfac
0x80000da8: 00 c1 26 03 lw	a2, 12(sp)
è¯»å–åœ°å€ 0x80000dac
è¯»å–åœ°å€ 0x8009cfa8
0x80000dac: 00 81 47 03 lbu	a4, 8(sp)
è¯»å–åœ°å€ 0x80000db0
0x80000db0: 18 09 05 13 addi	a0, s2, 384
è¯»å–åœ°å€ 0x80000db4
0x80000db4: 00 26 17 93 slli	a5, a2, 2
è¯»å–åœ°å€ 0x80000db8
0x80000db8: 00 f4 07 b3 add	a5, s0, a5
è¯»å–åœ°å€ 0x80000dbc
0x80000dbc: fc 06 16 e3 bne	a2, zero, 0x80000d88
è¯»å–åœ°å€ 0x80000dc0
è¯»å–åœ°å€ 0x80094e28
0x80000dc0: 00 0a c7 83 lbu	a5, 0(s5)
è¯»å–åœ°å€ 0x80000dc4
0x80000dc4: f9 1f f0 6f jal	zero, 0x80000d54
è¯»å–åœ°å€ 0x80000d54
è¯»å–åœ°å€ 0x80094e29
0x80000d54: 00 09 c7 03 lbu	a4, 0(s3)
è¯»å–åœ°å€ 0x80000d58
0x80000d58: 02 07 04 63 beq	a4, zero, 0x80000d80
è¯»å–åœ°å€ 0x80000d80
0x80000d80: 00 07 9e 63 bne	a5, zero, 0x80000d9c
è¯»å–åœ°å€ 0x80000d9c
0x80000d9c: 00 80 05 13 addi	a0, zero, 8
è¯»å–åœ°å€ 0x80000da0
0x80000da0: 00 81 05 93 addi	a1, sp, 8
è¯»å–åœ°å€ 0x80000da4
0x80000da4: 31 00 00 ef jal	ra, 0x800010b4
è¯»å–åœ°å€ 0x800010b4
0x800010b4: 80 01 17 b7 lui	a5, 524305
è¯»å–åœ°å€ 0x800010b8
0x800010b8: 00 25 15 13 slli	a0, a0, 2
è¯»å–åœ°å€ 0x800010bc
0x800010bc: 9f 87 87 93 addi	a5, a5, -1544
è¯»å–åœ°å€ 0x800010c0
0x800010c0: 00 a7 87 b3 add	a5, a5, a0
è¯»å–åœ°å€ 0x800010c4
è¯»å–åœ°å€ 0x80010a18
0x800010c4: 00 07 a7 83 lw	a5, 0(a5)
è¯»å–åœ°å€ 0x800010c8
0x800010c8: 00 05 85 13 addi	a0, a1, 0
è¯»å–åœ°å€ 0x800010cc
0x800010cc: 00 07 80 67 jalr	zero, 0(a5)
è¯»å–åœ°å€ 0x80001134
0x80001134: a0 00 07 b7 lui	a5, 655360
è¯»å–åœ°å€ 0x80001138
read device name = keyboard 	 addr = 0xa0000060 
0x80001138: 06 07 a7 83 lw	a5, 96(a5)
è¯»å–åœ°å€ 0x8000113c
0x8000113c: 00 00 87 37 lui	a4, 8
è¯»å–åœ°å€ 0x80001140
å†™å…¥åœ°å€ 0x8009cfac
0x80001140: 00 f5 22 23 sw	a5, 4(a0)
è¯»å–åœ°å€ 0x80001144
0x80001144: 00 e7 f6 b3 and	a3, a5, a4
è¯»å–åœ°å€ 0x80001148
0x80001148: 00 06 8c 63 beq	a3, zero, 0x80001160
è¯»å–åœ°å€ 0x80001160
å†™å…¥åœ°å€ 0x8009cfa8
0x80001160: 00 05 00 23 sb	zero, 0(a0)
è¯»å–åœ°å€ 0x80001164
0x80001164: 00 00 80 67 jalr	zero, 0(ra)
è¯»å–åœ°å€ 0x80000da8
è¯»å–åœ°å€ 0x8009cfac
0x80000da8: 00 c1 26 03 lw	a2, 12(sp)
è¯»å–åœ°å€ 0x80000dac
è¯»å–åœ°å€ 0x8009cfa8
0x80000dac: 00 81 47 03 lbu	a4, 8(sp)
è¯»å–åœ°å€ 0x80000db0
0x80000db0: 18 09 05 13 addi	a0, s2, 384
è¯»å–åœ°å€ 0x80000db4
0x80000db4: 00 26 17 93 slli	a5, a2, 2
è¯»å–åœ°å€ 0x80000db8
0x80000db8: 00 f4 07 b3 add	a5, s0, a5
è¯»å–åœ°å€ 0x80000dbc
0x80000dbc: fc 06 16 e3 bne	a2, zero, 0x80000d88
è¯»å–åœ°å€ 0x80000dc0
è¯»å–åœ°å€ 0x80094e28
0x80000dc0: 00 0a c7 83 lbu	a5, 0(s5)
è¯»å–åœ°å€ 0x80000dc4
0x80000dc4: f9 1f f0 6f jal	zero, 0x80000d54
è¯»å–åœ°å€ 0x80000d54
è¯»å–åœ°å€ 0x80094e29
0x80000d54: 00 09 c7 03 lbu	a4, 0(s3)
è¯»å–åœ°å€ 0x80000d58
0x80000d58: 02 07 04 63 beq	a4, zero, 0x80000d80
è¯»å–åœ°å€ 0x80000d80
0x80000d80: 00 07 9e 63 bne	a5, zero, 0x80000d9c
è¯»å–åœ°å€ 0x80000d9c
0x80000d9c: 00 80 05 13 addi	a0, zero, 8
è¯»å–åœ°å€ 0x80000da0
0x80000da0: 00 81 05 93 addi	a1, sp, 8
è¯»å–åœ°å€ 0x80000da4
0x80000da4: 31 00 00 ef jal	ra, 0x800010b4
è¯»å–åœ°å€ 0x800010b4
0x800010b4: 80 01 17 b7 lui	a5, 524305
è¯»å–åœ°å€ 0x800010b8
0x800010b8: 00 25 15 13 slli	a0, a0, 2
è¯»å–åœ°å€ 0x800010bc
0x800010bc: 9f 87 87 93 addi	a5, a5, -1544
è¯»å–åœ°å€ 0x800010c0
0x800010c0: 00 a7 87 b3 add	a5, a5, a0
è¯»å–åœ°å€ 0x800010c4
è¯»å–åœ°å€ 0x80010a18
0x800010c4: 00 07 a7 83 lw	a5, 0(a5)
è¯»å–åœ°å€ 0x800010c8
0x800010c8: 00 05 85 13 addi	a0, a1, 0
è¯»å–åœ°å€ 0x800010cc
0x800010cc: 00 07 80 67 jalr	zero, 0(a5)
è¯»å–åœ°å€ 0x80001134
0x80001134: a0 00 07 b7 lui	a5, 655360
è¯»å–åœ°å€ 0x80001138
read device name = keyboard 	 addr = 0xa0000060 
0x80001138: 06 07 a7 83 lw	a5, 96(a5)
è¯»å–åœ°å€ 0x8000113c
0x8000113c: 00 00 87 37 lui	a4, 8
è¯»å–åœ°å€ 0x80001140
å†™å…¥åœ°å€ 0x8009cfac
0x80001140: 00 f5 22 23 sw	a5, 4(a0)
è¯»å–åœ°å€ 0x80001144
0x80001144: 00 e7 f6 b3 and	a3, a5, a4
è¯»å–åœ°å€ 0x80001148
0x80001148: 00 06 8c 63 beq	a3, zero, 0x80001160
è¯»å–åœ°å€ 0x80001160
å†™å…¥åœ°å€ 0x8009cfa8
0x80001160: 00 05 00 23 sb	zero, 0(a0)
è¯»å–åœ°å€ 0x80001164
0x80001164: 00 00 80 67 jalr	zero, 0(ra)
è¯»å–åœ°å€ 0x80000da8
è¯»å–åœ°å€ 0x8009cfac
0x80000da8: 00 c1 26 03 lw	a2, 12(sp)
è¯»å–åœ°å€ 0x80000dac
è¯»å–åœ°å€ 0x8009cfa8
0x80000dac: 00 81 47 03 lbu	a4, 8(sp)
è¯»å–åœ°å€ 0x80000db0
0x80000db0: 18 09 05 13 addi	a0, s2, 384
è¯»å–åœ°å€ 0x80000db4
0x80000db4: 00 26 17 93 slli	a5, a2, 2
è¯»å–åœ°å€ 0x80000db8
0x80000db8: 00 f4 07 b3 add	a5, s0, a5
è¯»å–åœ°å€ 0x80000dbc
0x80000dbc: fc 06 16 e3 bne	a2, zero, 0x80000d88
è¯»å–åœ°å€ 0x80000dc0
è¯»å–åœ°å€ 0x80094e28
0x80000dc0: 00 0a c7 83 lbu	a5, 0(s5)
è¯»å–åœ°å€ 0x80000dc4
0x80000dc4: f9 1f f0 6f jal	zero, 0x80000d54
è¯»å–åœ°å€ 0x80000d54
è¯»å–åœ°å€ 0x80094e29
0x80000d54: 00 09 c7 03 lbu	a4, 0(s3)
è¯»å–åœ°å€ 0x80000d58
0x80000d58: 02 07 04 63 beq	a4, zero, 0x80000d80
è¯»å–åœ°å€ 0x80000d80
0x80000d80: 00 07 9e 63 bne	a5, zero, 0x80000d9c
è¯»å–åœ°å€ 0x80000d9c
0x80000d9c: 00 80 05 13 addi	a0, zero, 8
è¯»å–åœ°å€ 0x80000da0
0x80000da0: 00 81 05 93 addi	a1, sp, 8
è¯»å–åœ°å€ 0x80000da4
0x80000da4: 31 00 00 ef jal	ra, 0x800010b4
è¯»å–åœ°å€ 0x800010b4
0x800010b4: 80 01 17 b7 lui	a5, 524305
è¯»å–åœ°å€ 0x800010b8
0x800010b8: 00 25 15 13 slli	a0, a0, 2
è¯»å–åœ°å€ 0x800010bc
0x800010bc: 9f 87 87 93 addi	a5, a5, -1544
è¯»å–åœ°å€ 0x800010c0
0x800010c0: 00 a7 87 b3 add	a5, a5, a0
è¯»å–åœ°å€ 0x800010c4
è¯»å–åœ°å€ 0x80010a18
0x800010c4: 00 07 a7 83 lw	a5, 0(a5)
è¯»å–åœ°å€ 0x800010c8
0x800010c8: 00 05 85 13 addi	a0, a1, 0
è¯»å–åœ°å€ 0x800010cc
0x800010cc: 00 07 80 67 jalr	zero, 0(a5)
è¯»å–åœ°å€ 0x80001134
0x80001134: a0 00 07 b7 lui	a5, 655360
è¯»å–åœ°å€ 0x80001138
read device name = keyboard 	 addr = 0xa0000060 
0x80001138: 06 07 a7 83 lw	a5, 96(a5)
è¯»å–åœ°å€ 0x8000113c
0x8000113c: 00 00 87 37 lui	a4, 8
è¯»å–åœ°å€ 0x80001140
å†™å…¥åœ°å€ 0x8009cfac
0x80001140: 00 f5 22 23 sw	a5, 4(a0)
è¯»å–åœ°å€ 0x80001144
0x80001144: 00 e7 f6 b3 and	a3, a5, a4
è¯»å–åœ°å€ 0x80001148
0x80001148: 00 06 8c 63 beq	a3, zero, 0x80001160
è¯»å–åœ°å€ 0x80001160
å†™å…¥åœ°å€ 0x8009cfa8
0x80001160: 00 05 00 23 sb	zero, 0(a0)
è¯»å–åœ°å€ 0x80001164
0x80001164: 00 00 80 67 jalr	zero, 0(ra)
è¯»å–åœ°å€ 0x80000da8
è¯»å–åœ°å€ 0x8009cfac
0x80000da8: 00 c1 26 03 lw	a2, 12(sp)
è¯»å–åœ°å€ 0x80000dac
è¯»å–åœ°å€ 0x8009cfa8
0x80000dac: 00 81 47 03 lbu	a4, 8(sp)
è¯»å–åœ°å€ 0x80000db0
0x80000db0: 18 09 05 13 addi	a0, s2, 384
è¯»å–åœ°å€ 0x80000db4
0x80000db4: 00 26 17 93 slli	a5, a2, 2
è¯»å–åœ°å€ 0x80000db8
0x80000db8: 00 f4 07 b3 add	a5, s0, a5
è¯»å–åœ°å€ 0x80000dbc
0x80000dbc: fc 06 16 e3 bne	a2, zero, 0x80000d88
è¯»å–åœ°å€ 0x80000dc0
è¯»å–åœ°å€ 0x80094e28
0x80000dc0: 00 0a c7 83 lbu	a5, 0(s5)
è¯»å–åœ°å€ 0x80000dc4
0x80000dc4: f9 1f f0 6f jal	zero, 0x80000d54
è¯»å–åœ°å€ 0x80000d54
è¯»å–åœ°å€ 0x80094e29
0x80000d54: 00 09 c7 03 lbu	a4, 0(s3)
è¯»å–åœ°å€ 0x80000d58
0x80000d58: 02 07 04 63 beq	a4, zero, 0x80000d80
è¯»å–åœ°å€ 0x80000d80
0x80000d80: 00 07 9e 63 bne	a5, zero, 0x80000d9c
è¯»å–åœ°å€ 0x80000d9c
0x80000d9c: 00 80 05 13 addi	a0, zero, 8
è¯»å–åœ°å€ 0x80000da0
0x80000da0: 00 81 05 93 addi	a1, sp, 8
è¯»å–åœ°å€ 0x80000da4
0x80000da4: 31 00 00 ef jal	ra, 0x800010b4
è¯»å–åœ°å€ 0x800010b4
0x800010b4: 80 01 17 b7 lui	a5, 524305
è¯»å–åœ°å€ 0x800010b8
0x800010b8: 00 25 15 13 slli	a0, a0, 2
è¯»å–åœ°å€ 0x800010bc
0x800010bc: 9f 87 87 93 addi	a5, a5, -1544
è¯»å–åœ°å€ 0x800010c0
0x800010c0: 00 a7 87 b3 add	a5, a5, a0
è¯»å–åœ°å€ 0x800010c4
è¯»å–åœ°å€ 0x80010a18
0x800010c4: 00 07 a7 83 lw	a5, 0(a5)
è¯»å–åœ°å€ 0x800010c8
0x800010c8: 00 05 85 13 addi	a0, a1, 0
è¯»å–åœ°å€ 0x800010cc
0x800010cc: 00 07 80 67 jalr	zero, 0(a5)
è¯»å–åœ°å€ 0x80001134
0x80001134: a0 00 07 b7 lui	a5, 655360
è¯»å–åœ°å€ 0x80001138
read device name = keyboard 	 addr = 0xa0000060 
0x80001138: 06 07 a7 83 lw	a5, 96(a5)
è¯»å–åœ°å€ 0x8000113c
0x8000113c: 00 00 87 37 lui	a4, 8
è¯»å–åœ°å€ 0x80001140
å†™å…¥åœ°å€ 0x8009cfac
0x80001140: 00 f5 22 23 sw	a5, 4(a0)
è¯»å–åœ°å€ 0x80001144
0x80001144: 00 e7 f6 b3 and	a3, a5, a4
è¯»å–åœ°å€ 0x80001148
0x80001148: 00 06 8c 63 beq	a3, zero, 0x80001160
è¯»å–åœ°å€ 0x80001160
å†™å…¥åœ°å€ 0x8009cfa8
0x80001160: 00 05 00 23 sb	zero, 0(a0)
è¯»å–åœ°å€ 0x80001164
0x80001164: 00 00 80 67 jalr	zero, 0(ra)
è¯»å–åœ°å€ 0x80000da8
è¯»å–åœ°å€ 0x8009cfac
0x80000da8: 00 c1 26 03 lw	a2, 12(sp)
è¯»å–åœ°å€ 0x80000dac
è¯»å–åœ°å€ 0x8009cfa8
0x80000dac: 00 81 47 03 lbu	a4, 8(sp)
è¯»å–åœ°å€ 0x80000db0
0x80000db0: 18 09 05 13 addi	a0, s2, 384
è¯»å–åœ°å€ 0x80000db4
0x80000db4: 00 26 17 93 slli	a5, a2, 2
è¯»å–åœ°å€ 0x80000db8
0x80000db8: 00 f4 07 b3 add	a5, s0, a5
è¯»å–åœ°å€ 0x80000dbc
0x80000dbc: fc 06 16 e3 bne	a2, zero, 0x80000d88
è¯»å–åœ°å€ 0x80000dc0
è¯»å–åœ°å€ 0x80094e28
0x80000dc0: 00 0a c7 83 lbu	a5, 0(s5)
è¯»å–åœ°å€ 0x80000dc4
0x80000dc4: f9 1f f0 6f jal	zero, 0x80000d54
è¯»å–åœ°å€ 0x80000d54
è¯»å–åœ°å€ 0x80094e29
0x80000d54: 00 09 c7 03 lbu	a4, 0(s3)
è¯»å–åœ°å€ 0x80000d58
0x80000d58: 02 07 04 63 beq	a4, zero, 0x80000d80
è¯»å–åœ°å€ 0x80000d80
0x80000d80: 00 07 9e 63 bne	a5, zero, 0x80000d9c
è¯»å–åœ°å€ 0x80000d9c
0x80000d9c: 00 80 05 13 addi	a0, zero, 8
è¯»å–åœ°å€ 0x80000da0
0x80000da0: 00 81 05 93 addi	a1, sp, 8
è¯»å–åœ°å€ 0x80000da4
0x80000da4: 31 00 00 ef jal	ra, 0x800010b4
è¯»å–åœ°å€ 0x800010b4
0x800010b4: 80 01 17 b7 lui	a5, 524305
è¯»å–åœ°å€ 0x800010b8
0x800010b8: 00 25 15 13 slli	a0, a0, 2
è¯»å–åœ°å€ 0x800010bc
0x800010bc: 9f 87 87 93 addi	a5, a5, -1544
è¯»å–åœ°å€ 0x800010c0
0x800010c0: 00 a7 87 b3 add	a5, a5, a0
è¯»å–åœ°å€ 0x800010c4
è¯»å–åœ°å€ 0x80010a18
0x800010c4: 00 07 a7 83 lw	a5, 0(a5)
è¯»å–åœ°å€ 0x800010c8
0x800010c8: 00 05 85 13 addi	a0, a1, 0
è¯»å–åœ°å€ 0x800010cc
0x800010cc: 00 07 80 67 jalr	zero, 0(a5)
è¯»å–åœ°å€ 0x80001134
0x80001134: a0 00 07 b7 lui	a5, 655360
è¯»å–åœ°å€ 0x80001138
read device name = keyboard 	 addr = 0xa0000060 
0x80001138: 06 07 a7 83 lw	a5, 96(a5)
è¯»å–åœ°å€ 0x8000113c
0x8000113c: 00 00 87 37 lui	a4, 8
è¯»å–åœ°å€ 0x80001140
å†™å…¥åœ°å€ 0x8009cfac
0x80001140: 00 f5 22 23 sw	a5, 4(a0)
è¯»å–åœ°å€ 0x80001144
0x80001144: 00 e7 f6 b3 and	a3, a5, a4
è¯»å–åœ°å€ 0x80001148
0x80001148: 00 06 8c 63 beq	a3, zero, 0x80001160
è¯»å–åœ°å€ 0x80001160
å†™å…¥åœ°å€ 0x8009cfa8
0x80001160: 00 05 00 23 sb	zero, 0(a0)
è¯»å–åœ°å€ 0x80001164
0x80001164: 00 00 80 67 jalr	zero, 0(ra)
è¯»å–åœ°å€ 0x80000da8
è¯»å–åœ°å€ 0x8009cfac
0x80000da8: 00 c1 26 03 lw	a2, 12(sp)
è¯»å–åœ°å€ 0x80000dac
è¯»å–åœ°å€ 0x8009cfa8
0x80000dac: 00 81 47 03 lbu	a4, 8(sp)
è¯»å–åœ°å€ 0x80000db0
0x80000db0: 18 09 05 13 addi	a0, s2, 384
è¯»å–åœ°å€ 0x80000db4
0x80000db4: 00 26 17 93 slli	a5, a2, 2
è¯»å–åœ°å€ 0x80000db8
0x80000db8: 00 f4 07 b3 add	a5, s0, a5
è¯»å–åœ°å€ 0x80000dbc
0x80000dbc: fc 06 16 e3 bne	a2, zero, 0x80000d88
è¯»å–åœ°å€ 0x80000dc0
è¯»å–åœ°å€ 0x80094e28
0x80000dc0: 00 0a c7 83 lbu	a5, 0(s5)
è¯»å–åœ°å€ 0x80000dc4
0x80000dc4: f9 1f f0 6f jal	zero, 0x80000d54
è¯»å–åœ°å€ 0x80000d54
è¯»å–åœ°å€ 0x80094e29
0x80000d54: 00 09 c7 03 lbu	a4, 0(s3)
è¯»å–åœ°å€ 0x80000d58
0x80000d58: 02 07 04 63 beq	a4, zero, 0x80000d80
è¯»å–åœ°å€ 0x80000d80
0x80000d80: 00 07 9e 63 bne	a5, zero, 0x80000d9c
è¯»å–åœ°å€ 0x80000d9c
0x80000d9c: 00 80 05 13 addi	a0, zero, 8
è¯»å–åœ°å€ 0x80000da0
0x80000da0: 00 81 05 93 addi	a1, sp, 8
è¯»å–åœ°å€ 0x80000da4
0x80000da4: 31 00 00 ef jal	ra, 0x800010b4
è¯»å–åœ°å€ 0x800010b4
0x800010b4: 80 01 17 b7 lui	a5, 524305
è¯»å–åœ°å€ 0x800010b8
0x800010b8: 00 25 15 13 slli	a0, a0, 2
è¯»å–åœ°å€ 0x800010bc
0x800010bc: 9f 87 87 93 addi	a5, a5, -1544
è¯»å–åœ°å€ 0x800010c0
0x800010c0: 00 a7 87 b3 add	a5, a5, a0
è¯»å–åœ°å€ 0x800010c4
è¯»å–åœ°å€ 0x80010a18
0x800010c4: 00 07 a7 83 lw	a5, 0(a5)
è¯»å–åœ°å€ 0x800010c8
0x800010c8: 00 05 85 13 addi	a0, a1, 0
è¯»å–åœ°å€ 0x800010cc
0x800010cc: 00 07 80 67 jalr	zero, 0(a5)
è¯»å–åœ°å€ 0x80001134
0x80001134: a0 00 07 b7 lui	a5, 655360
è¯»å–åœ°å€ 0x80001138
read device name = keyboard 	 addr = 0xa0000060 
0x80001138: 06 07 a7 83 lw	a5, 96(a5)
è¯»å–åœ°å€ 0x8000113c
0x8000113c: 00 00 87 37 lui	a4, 8
è¯»å–åœ°å€ 0x80001140
å†™å…¥åœ°å€ 0x8009cfac
0x80001140: 00 f5 22 23 sw	a5, 4(a0)
è¯»å–åœ°å€ 0x80001144
0x80001144: 00 e7 f6 b3 and	a3, a5, a4
è¯»å–åœ°å€ 0x80001148
0x80001148: 00 06 8c 63 beq	a3, zero, 0x80001160
è¯»å–åœ°å€ 0x80001160
å†™å…¥åœ°å€ 0x8009cfa8
0x80001160: 00 05 00 23 sb	zero, 0(a0)
è¯»å–åœ°å€ 0x80001164
0x80001164: 00 00 80 67 jalr	zero, 0(ra)
è¯»å–åœ°å€ 0x80000da8
è¯»å–åœ°å€ 0x8009cfac
0x80000da8: 00 c1 26 03 lw	a2, 12(sp)
è¯»å–åœ°å€ 0x80000dac
è¯»å–åœ°å€ 0x8009cfa8
0x80000dac: 00 81 47 03 lbu	a4, 8(sp)
è¯»å–åœ°å€ 0x80000db0
0x80000db0: 18 09 05 13 addi	a0, s2, 384
è¯»å–åœ°å€ 0x80000db4
0x80000db4: 00 26 17 93 slli	a5, a2, 2
è¯»å–åœ°å€ 0x80000db8
0x80000db8: 00 f4 07 b3 add	a5, s0, a5
è¯»å–åœ°å€ 0x80000dbc
0x80000dbc: fc 06 16 e3 bne	a2, zero, 0x80000d88
è¯»å–åœ°å€ 0x80000dc0
è¯»å–åœ°å€ 0x80094e28
0x80000dc0: 00 0a c7 83 lbu	a5, 0(s5)
è¯»å–åœ°å€ 0x80000dc4
0x80000dc4: f9 1f f0 6f jal	zero, 0x80000d54
è¯»å–åœ°å€ 0x80000d54
è¯»å–åœ°å€ 0x80094e29
0x80000d54: 00 09 c7 03 lbu	a4, 0(s3)
è¯»å–åœ°å€ 0x80000d58
0x80000d58: 02 07 04 63 beq	a4, zero, 0x80000d80
è¯»å–åœ°å€ 0x80000d80
0x80000d80: 00 07 9e 63 bne	a5, zero, 0x80000d9c
è¯»å–åœ°å€ 0x80000d9c
0x80000d9c: 00 80 05 13 addi	a0, zero, 8
è¯»å–åœ°å€ 0x80000da0
0x80000da0: 00 81 05 93 addi	a1, sp, 8
è¯»å–åœ°å€ 0x80000da4
0x80000da4: 31 00 00 ef jal	ra, 0x800010b4
è¯»å–åœ°å€ 0x800010b4
0x800010b4: 80 01 17 b7 lui	a5, 524305
è¯»å–åœ°å€ 0x800010b8
0x800010b8: 00 25 15 13 slli	a0, a0, 2
è¯»å–åœ°å€ 0x800010bc
0x800010bc: 9f 87 87 93 addi	a5, a5, -1544
è¯»å–åœ°å€ 0x800010c0
0x800010c0: 00 a7 87 b3 add	a5, a5, a0
è¯»å–åœ°å€ 0x800010c4
è¯»å–åœ°å€ 0x80010a18
0x800010c4: 00 07 a7 83 lw	a5, 0(a5)
è¯»å–åœ°å€ 0x800010c8
0x800010c8: 00 05 85 13 addi	a0, a1, 0
è¯»å–åœ°å€ 0x800010cc
0x800010cc: 00 07 80 67 jalr	zero, 0(a5)
è¯»å–åœ°å€ 0x80001134
0x80001134: a0 00 07 b7 lui	a5, 655360
è¯»å–åœ°å€ 0x80001138
read device name = keyboard 	 addr = 0xa0000060 
0x80001138: 06 07 a7 83 lw	a5, 96(a5)
è¯»å–åœ°å€ 0x8000113c
0x8000113c: 00 00 87 37 lui	a4, 8
è¯»å–åœ°å€ 0x80001140
å†™å…¥åœ°å€ 0x8009cfac
0x80001140: 00 f5 22 23 sw	a5, 4(a0)
è¯»å–åœ°å€ 0x80001144
0x80001144: 00 e7 f6 b3 and	a3, a5, a4
è¯»å–åœ°å€ 0x80001148
0x80001148: 00 06 8c 63 beq	a3, zero, 0x80001160
è¯»å–åœ°å€ 0x80001160
å†™å…¥åœ°å€ 0x8009cfa8
0x80001160: 00 05 00 23 sb	zero, 0(a0)
è¯»å–åœ°å€ 0x80001164
0x80001164: 00 00 80 67 jalr	zero, 0(ra)
è¯»å–åœ°å€ 0x80000da8
è¯»å–åœ°å€ 0x8009cfac
0x80000da8: 00 c1 26 03 lw	a2, 12(sp)
è¯»å–åœ°å€ 0x80000dac
è¯»å–åœ°å€ 0x8009cfa8
0x80000dac: 00 81 47 03 lbu	a4, 8(sp)
è¯»å–åœ°å€ 0x80000db0
0x80000db0: 18 09 05 13 addi	a0, s2, 384
è¯»å–åœ°å€ 0x80000db4
0x80000db4: 00 26 17 93 slli	a5, a2, 2
è¯»å–åœ°å€ 0x80000db8
0x80000db8: 00 f4 07 b3 add	a5, s0, a5
è¯»å–åœ°å€ 0x80000dbc
0x80000dbc: fc 06 16 e3 bne	a2, zero, 0x80000d88
è¯»å–åœ°å€ 0x80000dc0
è¯»å–åœ°å€ 0x80094e28
0x80000dc0: 00 0a c7 83 lbu	a5, 0(s5)
è¯»å–åœ°å€ 0x80000dc4
0x80000dc4: f9 1f f0 6f jal	zero, 0x80000d54
è¯»å–åœ°å€ 0x80000d54
è¯»å–åœ°å€ 0x80094e29
0x80000d54: 00 09 c7 03 lbu	a4, 0(s3)
è¯»å–åœ°å€ 0x80000d58
0x80000d58: 02 07 04 63 beq	a4, zero, 0x80000d80
è¯»å–åœ°å€ 0x80000d80
0x80000d80: 00 07 9e 63 bne	a5, zero, 0x80000d9c
è¯»å–åœ°å€ 0x80000d9c
0x80000d9c: 00 80 05 13 addi	a0, zero, 8
è¯»å–åœ°å€ 0x80000da0
0x80000da0: 00 81 05 93 addi	a1, sp, 8
è¯»å–åœ°å€ 0x80000da4
0x80000da4: 31 00 00 ef jal	ra, 0x800010b4
è¯»å–åœ°å€ 0x800010b4
0x800010b4: 80 01 17 b7 lui	a5, 524305
è¯»å–åœ°å€ 0x800010b8
0x800010b8: 00 25 15 13 slli	a0, a0, 2
è¯»å–åœ°å€ 0x800010bc
0x800010bc: 9f 87 87 93 addi	a5, a5, -1544
è¯»å–åœ°å€ 0x800010c0
0x800010c0: 00 a7 87 b3 add	a5, a5, a0
è¯»å–åœ°å€ 0x800010c4
è¯»å–åœ°å€ 0x80010a18
0x800010c4: 00 07 a7 83 lw	a5, 0(a5)
è¯»å–åœ°å€ 0x800010c8
0x800010c8: 00 05 85 13 addi	a0, a1, 0
è¯»å–åœ°å€ 0x800010cc
0x800010cc: 00 07 80 67 jalr	zero, 0(a5)
è¯»å–åœ°å€ 0x80001134
0x80001134: a0 00 07 b7 lui	a5, 655360
è¯»å–åœ°å€ 0x80001138
read device name = keyboard 	 addr = 0xa0000060 
0x80001138: 06 07 a7 83 lw	a5, 96(a5)
è¯»å–åœ°å€ 0x8000113c
0x8000113c: 00 00 87 37 lui	a4, 8
è¯»å–åœ°å€ 0x80001140
å†™å…¥åœ°å€ 0x8009cfac
0x80001140: 00 f5 22 23 sw	a5, 4(a0)
è¯»å–åœ°å€ 0x80001144
0x80001144: 00 e7 f6 b3 and	a3, a5, a4
è¯»å–åœ°å€ 0x80001148
0x80001148: 00 06 8c 63 beq	a3, zero, 0x80001160
è¯»å–åœ°å€ 0x80001160
å†™å…¥åœ°å€ 0x8009cfa8
0x80001160: 00 05 00 23 sb	zero, 0(a0)
è¯»å–åœ°å€ 0x80001164
0x80001164: 00 00 80 67 jalr	zero, 0(ra)
è¯»å–åœ°å€ 0x80000da8
è¯»å–åœ°å€ 0x8009cfac
0x80000da8: 00 c1 26 03 lw	a2, 12(sp)
è¯»å–åœ°å€ 0x80000dac
è¯»å–åœ°å€ 0x8009cfa8
0x80000dac: 00 81 47 03 lbu	a4, 8(sp)
è¯»å–åœ°å€ 0x80000db0
0x80000db0: 18 09 05 13 addi	a0, s2, 384
è¯»å–åœ°å€ 0x80000db4
0x80000db4: 00 26 17 93 slli	a5, a2, 2
è¯»å–åœ°å€ 0x80000db8
0x80000db8: 00 f4 07 b3 add	a5, s0, a5
è¯»å–åœ°å€ 0x80000dbc
0x80000dbc: fc 06 16 e3 bne	a2, zero, 0x80000d88
è¯»å–åœ°å€ 0x80000dc0
è¯»å–åœ°å€ 0x80094e28
0x80000dc0: 00 0a c7 83 lbu	a5, 0(s5)
è¯»å–åœ°å€ 0x80000dc4
0x80000dc4: f9 1f f0 6f jal	zero, 0x80000d54
è¯»å–åœ°å€ 0x80000d54
è¯»å–åœ°å€ 0x80094e29
0x80000d54: 00 09 c7 03 lbu	a4, 0(s3)
è¯»å–åœ°å€ 0x80000d58
0x80000d58: 02 07 04 63 beq	a4, zero, 0x80000d80
è¯»å–åœ°å€ 0x80000d80
0x80000d80: 00 07 9e 63 bne	a5, zero, 0x80000d9c
è¯»å–åœ°å€ 0x80000d9c
0x80000d9c: 00 80 05 13 addi	a0, zero, 8
è¯»å–åœ°å€ 0x80000da0
0x80000da0: 00 81 05 93 addi	a1, sp, 8
è¯»å–åœ°å€ 0x80000da4
0x80000da4: 31 00 00 ef jal	ra, 0x800010b4
è¯»å–åœ°å€ 0x800010b4
0x800010b4: 80 01 17 b7 lui	a5, 524305
è¯»å–åœ°å€ 0x800010b8
0x800010b8: 00 25 15 13 slli	a0, a0, 2
è¯»å–åœ°å€ 0x800010bc
0x800010bc: 9f 87 87 93 addi	a5, a5, -1544
è¯»å–åœ°å€ 0x800010c0
0x800010c0: 00 a7 87 b3 add	a5, a5, a0
è¯»å–åœ°å€ 0x800010c4
è¯»å–åœ°å€ 0x80010a18
0x800010c4: 00 07 a7 83 lw	a5, 0(a5)
è¯»å–åœ°å€ 0x800010c8
0x800010c8: 00 05 85 13 addi	a0, a1, 0
è¯»å–åœ°å€ 0x800010cc
0x800010cc: 00 07 80 67 jalr	zero, 0(a5)
è¯»å–åœ°å€ 0x80001134
0x80001134: a0 00 07 b7 lui	a5, 655360
è¯»å–åœ°å€ 0x80001138
read device name = keyboard 	 addr = 0xa0000060 
0x80001138: 06 07 a7 83 lw	a5, 96(a5)
è¯»å–åœ°å€ 0x8000113c
0x8000113c: 00 00 87 37 lui	a4, 8
è¯»å–åœ°å€ 0x80001140
å†™å…¥åœ°å€ 0x8009cfac
0x80001140: 00 f5 22 23 sw	a5, 4(a0)
è¯»å–åœ°å€ 0x80001144
0x80001144: 00 e7 f6 b3 and	a3, a5, a4
è¯»å–åœ°å€ 0x80001148
0x80001148: 00 06 8c 63 beq	a3, zero, 0x80001160
è¯»å–åœ°å€ 0x80001160
å†™å…¥åœ°å€ 0x8009cfa8
0x80001160: 00 05 00 23 sb	zero, 0(a0)
è¯»å–åœ°å€ 0x80001164
0x80001164: 00 00 80 67 jalr	zero, 0(ra)
è¯»å–åœ°å€ 0x80000da8
è¯»å–åœ°å€ 0x8009cfac
0x80000da8: 00 c1 26 03 lw	a2, 12(sp)
è¯»å–åœ°å€ 0x80000dac
è¯»å–åœ°å€ 0x8009cfa8
0x80000dac: 00 81 47 03 lbu	a4, 8(sp)
è¯»å–åœ°å€ 0x80000db0
0x80000db0: 18 09 05 13 addi	a0, s2, 384
è¯»å–åœ°å€ 0x80000db4
0x80000db4: 00 26 17 93 slli	a5, a2, 2
è¯»å–åœ°å€ 0x80000db8
0x80000db8: 00 f4 07 b3 add	a5, s0, a5
è¯»å–åœ°å€ 0x80000dbc
0x80000dbc: fc 06 16 e3 bne	a2, zero, 0x80000d88
è¯»å–åœ°å€ 0x80000dc0
è¯»å–åœ°å€ 0x80094e28
0x80000dc0: 00 0a c7 83 lbu	a5, 0(s5)
è¯»å–åœ°å€ 0x80000dc4
0x80000dc4: f9 1f f0 6f jal	zero, 0x80000d54
è¯»å–åœ°å€ 0x80000d54
è¯»å–åœ°å€ 0x80094e29
0x80000d54: 00 09 c7 03 lbu	a4, 0(s3)
è¯»å–åœ°å€ 0x80000d58
0x80000d58: 02 07 04 63 beq	a4, zero, 0x80000d80
è¯»å–åœ°å€ 0x80000d80
0x80000d80: 00 07 9e 63 bne	a5, zero, 0x80000d9c
è¯»å–åœ°å€ 0x80000d9c
0x80000d9c: 00 80 05 13 addi	a0, zero, 8
è¯»å–åœ°å€ 0x80000da0
0x80000da0: 00 81 05 93 addi	a1, sp, 8
è¯»å–åœ°å€ 0x80000da4
0x80000da4: 31 00 00 ef jal	ra, 0x800010b4
è¯»å–åœ°å€ 0x800010b4
0x800010b4: 80 01 17 b7 lui	a5, 524305
è¯»å–åœ°å€ 0x800010b8
0x800010b8: 00 25 15 13 slli	a0, a0, 2
è¯»å–åœ°å€ 0x800010bc
0x800010bc: 9f 87 87 93 addi	a5, a5, -1544
è¯»å–åœ°å€ 0x800010c0
0x800010c0: 00 a7 87 b3 add	a5, a5, a0
è¯»å–åœ°å€ 0x800010c4
è¯»å–åœ°å€ 0x80010a18
0x800010c4: 00 07 a7 83 lw	a5, 0(a5)
è¯»å–åœ°å€ 0x800010c8
0x800010c8: 00 05 85 13 addi	a0, a1, 0
è¯»å–åœ°å€ 0x800010cc
0x800010cc: 00 07 80 67 jalr	zero, 0(a5)
è¯»å–åœ°å€ 0x80001134
0x80001134: a0 00 07 b7 lui	a5, 655360
è¯»å–åœ°å€ 0x80001138
read device name = keyboard 	 addr = 0xa0000060 
0x80001138: 06 07 a7 83 lw	a5, 96(a5)
è¯»å–åœ°å€ 0x8000113c
0x8000113c: 00 00 87 37 lui	a4, 8
è¯»å–åœ°å€ 0x80001140
å†™å…¥åœ°å€ 0x8009cfac
0x80001140: 00 f5 22 23 sw	a5, 4(a0)
è¯»å–åœ°å€ 0x80001144
0x80001144: 00 e7 f6 b3 and	a3, a5, a4
è¯»å–åœ°å€ 0x80001148
0x80001148: 00 06 8c 63 beq	a3, zero, 0x80001160
è¯»å–åœ°å€ 0x80001160
å†™å…¥åœ°å€ 0x8009cfa8
0x80001160: 00 05 00 23 sb	zero, 0(a0)
è¯»å–åœ°å€ 0x80001164
0x80001164: 00 00 80 67 jalr	zero, 0(ra)
è¯»å–åœ°å€ 0x80000da8
è¯»å–åœ°å€ 0x8009cfac
0x80000da8: 00 c1 26 03 lw	a2, 12(sp)
è¯»å–åœ°å€ 0x80000dac
è¯»å–åœ°å€ 0x8009cfa8
0x80000dac: 00 81 47 03 lbu	a4, 8(sp)
è¯»å–åœ°å€ 0x80000db0
0x80000db0: 18 09 05 13 addi	a0, s2, 384
è¯»å–åœ°å€ 0x80000db4
0x80000db4: 00 26 17 93 slli	a5, a2, 2
è¯»å–åœ°å€ 0x80000db8
0x80000db8: 00 f4 07 b3 add	a5, s0, a5
è¯»å–åœ°å€ 0x80000dbc
0x80000dbc: fc 06 16 e3 bne	a2, zero, 0x80000d88
è¯»å–åœ°å€ 0x80000dc0
è¯»å–åœ°å€ 0x80094e28
0x80000dc0: 00 0a c7 83 lbu	a5, 0(s5)
è¯»å–åœ°å€ 0x80000dc4
0x80000dc4: f9 1f f0 6f jal	zero, 0x80000d54
è¯»å–åœ°å€ 0x80000d54
è¯»å–åœ°å€ 0x80094e29
0x80000d54: 00 09 c7 03 lbu	a4, 0(s3)
è¯»å–åœ°å€ 0x80000d58
0x80000d58: 02 07 04 63 beq	a4, zero, 0x80000d80
è¯»å–åœ°å€ 0x80000d80
0x80000d80: 00 07 9e 63 bne	a5, zero, 0x80000d9c
è¯»å–åœ°å€ 0x80000d9c
0x80000d9c: 00 80 05 13 addi	a0, zero, 8
è¯»å–åœ°å€ 0x80000da0
0x80000da0: 00 81 05 93 addi	a1, sp, 8
è¯»å–åœ°å€ 0x80000da4
0x80000da4: 31 00 00 ef jal	ra, 0x800010b4
è¯»å–åœ°å€ 0x800010b4
0x800010b4: 80 01 17 b7 lui	a5, 524305
è¯»å–åœ°å€ 0x800010b8
0x800010b8: 00 25 15 13 slli	a0, a0, 2
è¯»å–åœ°å€ 0x800010bc
0x800010bc: 9f 87 87 93 addi	a5, a5, -1544
è¯»å–åœ°å€ 0x800010c0
0x800010c0: 00 a7 87 b3 add	a5, a5, a0
è¯»å–åœ°å€ 0x800010c4
è¯»å–åœ°å€ 0x80010a18
0x800010c4: 00 07 a7 83 lw	a5, 0(a5)
è¯»å–åœ°å€ 0x800010c8
0x800010c8: 00 05 85 13 addi	a0, a1, 0
è¯»å–åœ°å€ 0x800010cc
0x800010cc: 00 07 80 67 jalr	zero, 0(a5)
è¯»å–åœ°å€ 0x80001134
0x80001134: a0 00 07 b7 lui	a5, 655360
è¯»å–åœ°å€ 0x80001138
read device name = keyboard 	 addr = 0xa0000060 
0x80001138: 06 07 a7 83 lw	a5, 96(a5)
è¯»å–åœ°å€ 0x8000113c
0x8000113c: 00 00 87 37 lui	a4, 8
è¯»å–åœ°å€ 0x80001140
å†™å…¥åœ°å€ 0x8009cfac
0x80001140: 00 f5 22 23 sw	a5, 4(a0)
è¯»å–åœ°å€ 0x80001144
0x80001144: 00 e7 f6 b3 and	a3, a5, a4
è¯»å–åœ°å€ 0x80001148
0x80001148: 00 06 8c 63 beq	a3, zero, 0x80001160
è¯»å–åœ°å€ 0x80001160
å†™å…¥åœ°å€ 0x8009cfa8
0x80001160: 00 05 00 23 sb	zero, 0(a0)
è¯»å–åœ°å€ 0x80001164
0x80001164: 00 00 80 67 jalr	zero, 0(ra)
è¯»å–åœ°å€ 0x80000da8
è¯»å–åœ°å€ 0x8009cfac
0x80000da8: 00 c1 26 03 lw	a2, 12(sp)
è¯»å–åœ°å€ 0x80000dac
è¯»å–åœ°å€ 0x8009cfa8
0x80000dac: 00 81 47 03 lbu	a4, 8(sp)
è¯»å–åœ°å€ 0x80000db0
0x80000db0: 18 09 05 13 addi	a0, s2, 384
è¯»å–åœ°å€ 0x80000db4
0x80000db4: 00 26 17 93 slli	a5, a2, 2
è¯»å–åœ°å€ 0x80000db8
0x80000db8: 00 f4 07 b3 add	a5, s0, a5
è¯»å–åœ°å€ 0x80000dbc
0x80000dbc: fc 06 16 e3 bne	a2, zero, 0x80000d88
è¯»å–åœ°å€ 0x80000dc0
è¯»å–åœ°å€ 0x80094e28
0x80000dc0: 00 0a c7 83 lbu	a5, 0(s5)
è¯»å–åœ°å€ 0x80000dc4
0x80000dc4: f9 1f f0 6f jal	zero, 0x80000d54
è¯»å–åœ°å€ 0x80000d54
è¯»å–åœ°å€ 0x80094e29
0x80000d54: 00 09 c7 03 lbu	a4, 0(s3)
è¯»å–åœ°å€ 0x80000d58
0x80000d58: 02 07 04 63 beq	a4, zero, 0x80000d80
è¯»å–åœ°å€ 0x80000d80
0x80000d80: 00 07 9e 63 bne	a5, zero, 0x80000d9c
è¯»å–åœ°å€ 0x80000d9c
0x80000d9c: 00 80 05 13 addi	a0, zero, 8
è¯»å–åœ°å€ 0x80000da0
0x80000da0: 00 81 05 93 addi	a1, sp, 8
è¯»å–åœ°å€ 0x80000da4
0x80000da4: 31 00 00 ef jal	ra, 0x800010b4
è¯»å–åœ°å€ 0x800010b4
0x800010b4: 80 01 17 b7 lui	a5, 524305
è¯»å–åœ°å€ 0x800010b8
0x800010b8: 00 25 15 13 slli	a0, a0, 2
è¯»å–åœ°å€ 0x800010bc
0x800010bc: 9f 87 87 93 addi	a5, a5, -1544
è¯»å–åœ°å€ 0x800010c0
0x800010c0: 00 a7 87 b3 add	a5, a5, a0
è¯»å–åœ°å€ 0x800010c4
è¯»å–åœ°å€ 0x80010a18
0x800010c4: 00 07 a7 83 lw	a5, 0(a5)
è¯»å–åœ°å€ 0x800010c8
0x800010c8: 00 05 85 13 addi	a0, a1, 0
è¯»å–åœ°å€ 0x800010cc
0x800010cc: 00 07 80 67 jalr	zero, 0(a5)
è¯»å–åœ°å€ 0x80001134
0x80001134: a0 00 07 b7 lui	a5, 655360
è¯»å–åœ°å€ 0x80001138
read device name = keyboard 	 addr = 0xa0000060 
0x80001138: 06 07 a7 83 lw	a5, 96(a5)
è¯»å–åœ°å€ 0x8000113c
0x8000113c: 00 00 87 37 lui	a4, 8
è¯»å–åœ°å€ 0x80001140
å†™å…¥åœ°å€ 0x8009cfac
0x80001140: 00 f5 22 23 sw	a5, 4(a0)
è¯»å–åœ°å€ 0x80001144
0x80001144: 00 e7 f6 b3 and	a3, a5, a4
è¯»å–åœ°å€ 0x80001148
0x80001148: 00 06 8c 63 beq	a3, zero, 0x80001160
è¯»å–åœ°å€ 0x80001160
å†™å…¥åœ°å€ 0x8009cfa8
0x80001160: 00 05 00 23 sb	zero, 0(a0)
è¯»å–åœ°å€ 0x80001164
0x80001164: 00 00 80 67 jalr	zero, 0(ra)
è¯»å–åœ°å€ 0x80000da8
è¯»å–åœ°å€ 0x8009cfac
0x80000da8: 00 c1 26 03 lw	a2, 12(sp)
è¯»å–åœ°å€ 0x80000dac
è¯»å–åœ°å€ 0x8009cfa8
0x80000dac: 00 81 47 03 lbu	a4, 8(sp)
è¯»å–åœ°å€ 0x80000db0
0x80000db0: 18 09 05 13 addi	a0, s2, 384
è¯»å–åœ°å€ 0x80000db4
0x80000db4: 00 26 17 93 slli	a5, a2, 2
è¯»å–åœ°å€ 0x80000db8
0x80000db8: 00 f4 07 b3 add	a5, s0, a5
è¯»å–åœ°å€ 0x80000dbc
0x80000dbc: fc 06 16 e3 bne	a2, zero, 0x80000d88
è¯»å–åœ°å€ 0x80000dc0
è¯»å–åœ°å€ 0x80094e28
0x80000dc0: 00 0a c7 83 lbu	a5, 0(s5)
è¯»å–åœ°å€ 0x80000dc4
0x80000dc4: f9 1f f0 6f jal	zero, 0x80000d54
è¯»å–åœ°å€ 0x80000d54
è¯»å–åœ°å€ 0x80094e29
0x80000d54: 00 09 c7 03 lbu	a4, 0(s3)
è¯»å–åœ°å€ 0x80000d58
0x80000d58: 02 07 04 63 beq	a4, zero, 0x80000d80
è¯»å–åœ°å€ 0x80000d80
0x80000d80: 00 07 9e 63 bne	a5, zero, 0x80000d9c
è¯»å–åœ°å€ 0x80000d9c
0x80000d9c: 00 80 05 13 addi	a0, zero, 8
è¯»å–åœ°å€ 0x80000da0
0x80000da0: 00 81 05 93 addi	a1, sp, 8
è¯»å–åœ°å€ 0x80000da4
0x80000da4: 31 00 00 ef jal	ra, 0x800010b4
è¯»å–åœ°å€ 0x800010b4
0x800010b4: 80 01 17 b7 lui	a5, 524305
è¯»å–åœ°å€ 0x800010b8
0x800010b8: 00 25 15 13 slli	a0, a0, 2
è¯»å–åœ°å€ 0x800010bc
0x800010bc: 9f 87 87 93 addi	a5, a5, -1544
è¯»å–åœ°å€ 0x800010c0
0x800010c0: 00 a7 87 b3 add	a5, a5, a0
è¯»å–åœ°å€ 0x800010c4
è¯»å–åœ°å€ 0x80010a18
0x800010c4: 00 07 a7 83 lw	a5, 0(a5)
è¯»å–åœ°å€ 0x800010c8
0x800010c8: 00 05 85 13 addi	a0, a1, 0
è¯»å–åœ°å€ 0x800010cc
0x800010cc: 00 07 80 67 jalr	zero, 0(a5)
è¯»å–åœ°å€ 0x80001134
0x80001134: a0 00 07 b7 lui	a5, 655360
è¯»å–åœ°å€ 0x80001138
read device name = keyboard 	 addr = 0xa0000060 
0x80001138: 06 07 a7 83 lw	a5, 96(a5)
è¯»å–åœ°å€ 0x8000113c
0x8000113c: 00 00 87 37 lui	a4, 8
è¯»å–åœ°å€ 0x80001140
å†™å…¥åœ°å€ 0x8009cfac
0x80001140: 00 f5 22 23 sw	a5, 4(a0)
è¯»å–åœ°å€ 0x80001144
0x80001144: 00 e7 f6 b3 and	a3, a5, a4
è¯»å–åœ°å€ 0x80001148
0x80001148: 00 06 8c 63 beq	a3, zero, 0x80001160
è¯»å–åœ°å€ 0x80001160
å†™å…¥åœ°å€ 0x8009cfa8
0x80001160: 00 05 00 23 sb	zero, 0(a0)
è¯»å–åœ°å€ 0x80001164
0x80001164: 00 00 80 67 jalr	zero, 0(ra)
è¯»å–åœ°å€ 0x80000da8
è¯»å–åœ°å€ 0x8009cfac
0x80000da8: 00 c1 26 03 lw	a2, 12(sp)
è¯»å–åœ°å€ 0x80000dac
è¯»å–åœ°å€ 0x8009cfa8
0x80000dac: 00 81 47 03 lbu	a4, 8(sp)
è¯»å–åœ°å€ 0x80000db0
0x80000db0: 18 09 05 13 addi	a0, s2, 384
è¯»å–åœ°å€ 0x80000db4
0x80000db4: 00 26 17 93 slli	a5, a2, 2
è¯»å–åœ°å€ 0x80000db8
0x80000db8: 00 f4 07 b3 add	a5, s0, a5
è¯»å–åœ°å€ 0x80000dbc
0x80000dbc: fc 06 16 e3 bne	a2, zero, 0x80000d88
è¯»å–åœ°å€ 0x80000dc0
è¯»å–åœ°å€ 0x80094e28
0x80000dc0: 00 0a c7 83 lbu	a5, 0(s5)
è¯»å–åœ°å€ 0x80000dc4
0x80000dc4: f9 1f f0 6f jal	zero, 0x80000d54
è¯»å–åœ°å€ 0x80000d54
è¯»å–åœ°å€ 0x80094e29
0x80000d54: 00 09 c7 03 lbu	a4, 0(s3)
è¯»å–åœ°å€ 0x80000d58
0x80000d58: 02 07 04 63 beq	a4, zero, 0x80000d80
è¯»å–åœ°å€ 0x80000d80
0x80000d80: 00 07 9e 63 bne	a5, zero, 0x80000d9c
è¯»å–åœ°å€ 0x80000d9c
0x80000d9c: 00 80 05 13 addi	a0, zero, 8
è¯»å–åœ°å€ 0x80000da0
0x80000da0: 00 81 05 93 addi	a1, sp, 8
è¯»å–åœ°å€ 0x80000da4
0x80000da4: 31 00 00 ef jal	ra, 0x800010b4
è¯»å–åœ°å€ 0x800010b4
0x800010b4: 80 01 17 b7 lui	a5, 524305
è¯»å–åœ°å€ 0x800010b8
0x800010b8: 00 25 15 13 slli	a0, a0, 2
è¯»å–åœ°å€ 0x800010bc
0x800010bc: 9f 87 87 93 addi	a5, a5, -1544
è¯»å–åœ°å€ 0x800010c0
0x800010c0: 00 a7 87 b3 add	a5, a5, a0
è¯»å–åœ°å€ 0x800010c4
è¯»å–åœ°å€ 0x80010a18
0x800010c4: 00 07 a7 83 lw	a5, 0(a5)
è¯»å–åœ°å€ 0x800010c8
0x800010c8: 00 05 85 13 addi	a0, a1, 0
è¯»å–åœ°å€ 0x800010cc
0x800010cc: 00 07 80 67 jalr	zero, 0(a5)
è¯»å–åœ°å€ 0x80001134
0x80001134: a0 00 07 b7 lui	a5, 655360
è¯»å–åœ°å€ 0x80001138
read device name = keyboard 	 addr = 0xa0000060 
0x80001138: 06 07 a7 83 lw	a5, 96(a5)
è¯»å–åœ°å€ 0x8000113c
0x8000113c: 00 00 87 37 lui	a4, 8
è¯»å–åœ°å€ 0x80001140
å†™å…¥åœ°å€ 0x8009cfac
0x80001140: 00 f5 22 23 sw	a5, 4(a0)
è¯»å–åœ°å€ 0x80001144
0x80001144: 00 e7 f6 b3 and	a3, a5, a4
è¯»å–åœ°å€ 0x80001148
0x80001148: 00 06 8c 63 beq	a3, zero, 0x80001160
è¯»å–åœ°å€ 0x80001160
å†™å…¥åœ°å€ 0x8009cfa8
0x80001160: 00 05 00 23 sb	zero, 0(a0)
è¯»å–åœ°å€ 0x80001164
0x80001164: 00 00 80 67 jalr	zero, 0(ra)
è¯»å–åœ°å€ 0x80000da8
è¯»å–åœ°å€ 0x8009cfac
0x80000da8: 00 c1 26 03 lw	a2, 12(sp)
è¯»å–åœ°å€ 0x80000dac
è¯»å–åœ°å€ 0x8009cfa8
0x80000dac: 00 81 47 03 lbu	a4, 8(sp)
è¯»å–åœ°å€ 0x80000db0
0x80000db0: 18 09 05 13 addi	a0, s2, 384
è¯»å–åœ°å€ 0x80000db4
0x80000db4: 00 26 17 93 slli	a5, a2, 2
è¯»å–åœ°å€ 0x80000db8
0x80000db8: 00 f4 07 b3 add	a5, s0, a5
è¯»å–åœ°å€ 0x80000dbc
0x80000dbc: fc 06 16 e3 bne	a2, zero, 0x80000d88
è¯»å–åœ°å€ 0x80000dc0
è¯»å–åœ°å€ 0x80094e28
0x80000dc0: 00 0a c7 83 lbu	a5, 0(s5)
è¯»å–åœ°å€ 0x80000dc4
0x80000dc4: f9 1f f0 6f jal	zero, 0x80000d54
è¯»å–åœ°å€ 0x80000d54
è¯»å–åœ°å€ 0x80094e29
0x80000d54: 00 09 c7 03 lbu	a4, 0(s3)
è¯»å–åœ°å€ 0x80000d58
0x80000d58: 02 07 04 63 beq	a4, zero, 0x80000d80
è¯»å–åœ°å€ 0x80000d80
0x80000d80: 00 07 9e 63 bne	a5, zero, 0x80000d9c
è¯»å–åœ°å€ 0x80000d9c
0x80000d9c: 00 80 05 13 addi	a0, zero, 8
è¯»å–åœ°å€ 0x80000da0
0x80000da0: 00 81 05 93 addi	a1, sp, 8
è¯»å–åœ°å€ 0x80000da4
0x80000da4: 31 00 00 ef jal	ra, 0x800010b4
è¯»å–åœ°å€ 0x800010b4
0x800010b4: 80 01 17 b7 lui	a5, 524305
è¯»å–åœ°å€ 0x800010b8
0x800010b8: 00 25 15 13 slli	a0, a0, 2
è¯»å–åœ°å€ 0x800010bc
0x800010bc: 9f 87 87 93 addi	a5, a5, -1544
è¯»å–åœ°å€ 0x800010c0
0x800010c0: 00 a7 87 b3 add	a5, a5, a0
è¯»å–åœ°å€ 0x800010c4
è¯»å–åœ°å€ 0x80010a18
0x800010c4: 00 07 a7 83 lw	a5, 0(a5)
è¯»å–åœ°å€ 0x800010c8
0x800010c8: 00 05 85 13 addi	a0, a1, 0
è¯»å–åœ°å€ 0x800010cc
0x800010cc: 00 07 80 67 jalr	zero, 0(a5)
è¯»å–åœ°å€ 0x80001134
0x80001134: a0 00 07 b7 lui	a5, 655360
è¯»å–åœ°å€ 0x80001138
read device name = keyboard 	 addr = 0xa0000060 
0x80001138: 06 07 a7 83 lw	a5, 96(a5)
è¯»å–åœ°å€ 0x8000113c
0x8000113c: 00 00 87 37 lui	a4, 8
è¯»å–åœ°å€ 0x80001140
å†™å…¥åœ°å€ 0x8009cfac
0x80001140: 00 f5 22 23 sw	a5, 4(a0)
è¯»å–åœ°å€ 0x80001144
0x80001144: 00 e7 f6 b3 and	a3, a5, a4
è¯»å–åœ°å€ 0x80001148
0x80001148: 00 06 8c 63 beq	a3, zero, 0x80001160
è¯»å–åœ°å€ 0x80001160
å†™å…¥åœ°å€ 0x8009cfa8
0x80001160: 00 05 00 23 sb	zero, 0(a0)
è¯»å–åœ°å€ 0x80001164
0x80001164: 00 00 80 67 jalr	zero, 0(ra)
è¯»å–åœ°å€ 0x80000da8
è¯»å–åœ°å€ 0x8009cfac
0x80000da8: 00 c1 26 03 lw	a2, 12(sp)
è¯»å–åœ°å€ 0x80000dac
è¯»å–åœ°å€ 0x8009cfa8
0x80000dac: 00 81 47 03 lbu	a4, 8(sp)
è¯»å–åœ°å€ 0x80000db0
0x80000db0: 18 09 05 13 addi	a0, s2, 384
è¯»å–åœ°å€ 0x80000db4
0x80000db4: 00 26 17 93 slli	a5, a2, 2
è¯»å–åœ°å€ 0x80000db8
0x80000db8: 00 f4 07 b3 add	a5, s0, a5
è¯»å–åœ°å€ 0x80000dbc
0x80000dbc: fc 06 16 e3 bne	a2, zero, 0x80000d88
è¯»å–åœ°å€ 0x80000dc0
è¯»å–åœ°å€ 0x80094e28
0x80000dc0: 00 0a c7 83 lbu	a5, 0(s5)
è¯»å–åœ°å€ 0x80000dc4
0x80000dc4: f9 1f f0 6f jal	zero, 0x80000d54
è¯»å–åœ°å€ 0x80000d54
è¯»å–åœ°å€ 0x80094e29
0x80000d54: 00 09 c7 03 lbu	a4, 0(s3)
è¯»å–åœ°å€ 0x80000d58
0x80000d58: 02 07 04 63 beq	a4, zero, 0x80000d80
è¯»å–åœ°å€ 0x80000d80
0x80000d80: 00 07 9e 63 bne	a5, zero, 0x80000d9c
è¯»å–åœ°å€ 0x80000d9c
0x80000d9c: 00 80 05 13 addi	a0, zero, 8
è¯»å–åœ°å€ 0x80000da0
0x80000da0: 00 81 05 93 addi	a1, sp, 8
è¯»å–åœ°å€ 0x80000da4
0x80000da4: 31 00 00 ef jal	ra, 0x800010b4
è¯»å–åœ°å€ 0x800010b4
0x800010b4: 80 01 17 b7 lui	a5, 524305
è¯»å–åœ°å€ 0x800010b8
0x800010b8: 00 25 15 13 slli	a0, a0, 2
è¯»å–åœ°å€ 0x800010bc
0x800010bc: 9f 87 87 93 addi	a5, a5, -1544
è¯»å–åœ°å€ 0x800010c0
0x800010c0: 00 a7 87 b3 add	a5, a5, a0
è¯»å–åœ°å€ 0x800010c4
è¯»å–åœ°å€ 0x80010a18
0x800010c4: 00 07 a7 83 lw	a5, 0(a5)
è¯»å–åœ°å€ 0x800010c8
0x800010c8: 00 05 85 13 addi	a0, a1, 0
è¯»å–åœ°å€ 0x800010cc
0x800010cc: 00 07 80 67 jalr	zero, 0(a5)
è¯»å–åœ°å€ 0x80001134
0x80001134: a0 00 07 b7 lui	a5, 655360
è¯»å–åœ°å€ 0x80001138
read device name = keyboard 	 addr = 0xa0000060 
0x80001138: 06 07 a7 83 lw	a5, 96(a5)
è¯»å–åœ°å€ 0x8000113c
0x8000113c: 00 00 87 37 lui	a4, 8
è¯»å–åœ°å€ 0x80001140
å†™å…¥åœ°å€ 0x8009cfac
0x80001140: 00 f5 22 23 sw	a5, 4(a0)
è¯»å–åœ°å€ 0x80001144
0x80001144: 00 e7 f6 b3 and	a3, a5, a4
è¯»å–åœ°å€ 0x80001148
0x80001148: 00 06 8c 63 beq	a3, zero, 0x80001160
è¯»å–åœ°å€ 0x80001160
å†™å…¥åœ°å€ 0x8009cfa8
0x80001160: 00 05 00 23 sb	zero, 0(a0)
è¯»å–åœ°å€ 0x80001164
0x80001164: 00 00 80 67 jalr	zero, 0(ra)
è¯»å–åœ°å€ 0x80000da8
è¯»å–åœ°å€ 0x8009cfac
0x80000da8: 00 c1 26 03 lw	a2, 12(sp)
è¯»å–åœ°å€ 0x80000dac
è¯»å–åœ°å€ 0x8009cfa8
0x80000dac: 00 81 47 03 lbu	a4, 8(sp)
è¯»å–åœ°å€ 0x80000db0
0x80000db0: 18 09 05 13 addi	a0, s2, 384
è¯»å–åœ°å€ 0x80000db4
0x80000db4: 00 26 17 93 slli	a5, a2, 2
è¯»å–åœ°å€ 0x80000db8
0x80000db8: 00 f4 07 b3 add	a5, s0, a5
è¯»å–åœ°å€ 0x80000dbc
0x80000dbc: fc 06 16 e3 bne	a2, zero, 0x80000d88
è¯»å–åœ°å€ 0x80000dc0
è¯»å–åœ°å€ 0x80094e28
0x80000dc0: 00 0a c7 83 lbu	a5, 0(s5)
è¯»å–åœ°å€ 0x80000dc4
0x80000dc4: f9 1f f0 6f jal	zero, 0x80000d54
è¯»å–åœ°å€ 0x80000d54
è¯»å–åœ°å€ 0x80094e29
0x80000d54: 00 09 c7 03 lbu	a4, 0(s3)
è¯»å–åœ°å€ 0x80000d58
0x80000d58: 02 07 04 63 beq	a4, zero, 0x80000d80
è¯»å–åœ°å€ 0x80000d80
0x80000d80: 00 07 9e 63 bne	a5, zero, 0x80000d9c
è¯»å–åœ°å€ 0x80000d9c
0x80000d9c: 00 80 05 13 addi	a0, zero, 8
è¯»å–åœ°å€ 0x80000da0
0x80000da0: 00 81 05 93 addi	a1, sp, 8
è¯»å–åœ°å€ 0x80000da4
0x80000da4: 31 00 00 ef jal	ra, 0x800010b4
è¯»å–åœ°å€ 0x800010b4
0x800010b4: 80 01 17 b7 lui	a5, 524305
è¯»å–åœ°å€ 0x800010b8
0x800010b8: 00 25 15 13 slli	a0, a0, 2
è¯»å–åœ°å€ 0x800010bc
0x800010bc: 9f 87 87 93 addi	a5, a5, -1544
è¯»å–åœ°å€ 0x800010c0
0x800010c0: 00 a7 87 b3 add	a5, a5, a0
è¯»å–åœ°å€ 0x800010c4
è¯»å–åœ°å€ 0x80010a18
0x800010c4: 00 07 a7 83 lw	a5, 0(a5)
è¯»å–åœ°å€ 0x800010c8
0x800010c8: 00 05 85 13 addi	a0, a1, 0
è¯»å–åœ°å€ 0x800010cc
0x800010cc: 00 07 80 67 jalr	zero, 0(a5)
è¯»å–åœ°å€ 0x80001134
0x80001134: a0 00 07 b7 lui	a5, 655360
è¯»å–åœ°å€ 0x80001138
read device name = keyboard 	 addr = 0xa0000060 
0x80001138: 06 07 a7 83 lw	a5, 96(a5)
è¯»å–åœ°å€ 0x8000113c
0x8000113c: 00 00 87 37 lui	a4, 8
è¯»å–åœ°å€ 0x80001140
å†™å…¥åœ°å€ 0x8009cfac
0x80001140: 00 f5 22 23 sw	a5, 4(a0)
è¯»å–åœ°å€ 0x80001144
0x80001144: 00 e7 f6 b3 and	a3, a5, a4
è¯»å–åœ°å€ 0x80001148
0x80001148: 00 06 8c 63 beq	a3, zero, 0x80001160
è¯»å–åœ°å€ 0x80001160
å†™å…¥åœ°å€ 0x8009cfa8
0x80001160: 00 05 00 23 sb	zero, 0(a0)
è¯»å–åœ°å€ 0x80001164
0x80001164: 00 00 80 67 jalr	zero, 0(ra)
è¯»å–åœ°å€ 0x80000da8
è¯»å–åœ°å€ 0x8009cfac
0x80000da8: 00 c1 26 03 lw	a2, 12(sp)
è¯»å–åœ°å€ 0x80000dac
è¯»å–åœ°å€ 0x8009cfa8
0x80000dac: 00 81 47 03 lbu	a4, 8(sp)
è¯»å–åœ°å€ 0x80000db0
0x80000db0: 18 09 05 13 addi	a0, s2, 384
è¯»å–åœ°å€ 0x80000db4
0x80000db4: 00 26 17 93 slli	a5, a2, 2
è¯»å–åœ°å€ 0x80000db8
0x80000db8: 00 f4 07 b3 add	a5, s0, a5
è¯»å–åœ°å€ 0x80000dbc
0x80000dbc: fc 06 16 e3 bne	a2, zero, 0x80000d88
è¯»å–åœ°å€ 0x80000dc0
è¯»å–åœ°å€ 0x80094e28
0x80000dc0: 00 0a c7 83 lbu	a5, 0(s5)
è¯»å–åœ°å€ 0x80000dc4
0x80000dc4: f9 1f f0 6f jal	zero, 0x80000d54
è¯»å–åœ°å€ 0x80000d54
è¯»å–åœ°å€ 0x80094e29
0x80000d54: 00 09 c7 03 lbu	a4, 0(s3)
è¯»å–åœ°å€ 0x80000d58
0x80000d58: 02 07 04 63 beq	a4, zero, 0x80000d80
è¯»å–åœ°å€ 0x80000d80
0x80000d80: 00 07 9e 63 bne	a5, zero, 0x80000d9c
è¯»å–åœ°å€ 0x80000d9c
0x80000d9c: 00 80 05 13 addi	a0, zero, 8
è¯»å–åœ°å€ 0x80000da0
0x80000da0: 00 81 05 93 addi	a1, sp, 8
è¯»å–åœ°å€ 0x80000da4
0x80000da4: 31 00 00 ef jal	ra, 0x800010b4
è¯»å–åœ°å€ 0x800010b4
0x800010b4: 80 01 17 b7 lui	a5, 524305
è¯»å–åœ°å€ 0x800010b8
0x800010b8: 00 25 15 13 slli	a0, a0, 2
è¯»å–åœ°å€ 0x800010bc
0x800010bc: 9f 87 87 93 addi	a5, a5, -1544
è¯»å–åœ°å€ 0x800010c0
0x800010c0: 00 a7 87 b3 add	a5, a5, a0
è¯»å–åœ°å€ 0x800010c4
è¯»å–åœ°å€ 0x80010a18
0x800010c4: 00 07 a7 83 lw	a5, 0(a5)
è¯»å–åœ°å€ 0x800010c8
0x800010c8: 00 05 85 13 addi	a0, a1, 0
è¯»å–åœ°å€ 0x800010cc
0x800010cc: 00 07 80 67 jalr	zero, 0(a5)
è¯»å–åœ°å€ 0x80001134
0x80001134: a0 00 07 b7 lui	a5, 655360
è¯»å–åœ°å€ 0x80001138
read device name = keyboard 	 addr = 0xa0000060 
0x80001138: 06 07 a7 83 lw	a5, 96(a5)
è¯»å–åœ°å€ 0x8000113c
0x8000113c: 00 00 87 37 lui	a4, 8
è¯»å–åœ°å€ 0x80001140
å†™å…¥åœ°å€ 0x8009cfac
0x80001140: 00 f5 22 23 sw	a5, 4(a0)
è¯»å–åœ°å€ 0x80001144
0x80001144: 00 e7 f6 b3 and	a3, a5, a4
è¯»å–åœ°å€ 0x80001148
0x80001148: 00 06 8c 63 beq	a3, zero, 0x80001160
è¯»å–åœ°å€ 0x80001160
å†™å…¥åœ°å€ 0x8009cfa8
0x80001160: 00 05 00 23 sb	zero, 0(a0)
è¯»å–åœ°å€ 0x80001164
0x80001164: 00 00 80 67 jalr	zero, 0(ra)
è¯»å–åœ°å€ 0x80000da8
è¯»å–åœ°å€ 0x8009cfac
0x80000da8: 00 c1 26 03 lw	a2, 12(sp)
è¯»å–åœ°å€ 0x80000dac
è¯»å–åœ°å€ 0x8009cfa8
0x80000dac: 00 81 47 03 lbu	a4, 8(sp)
è¯»å–åœ°å€ 0x80000db0
0x80000db0: 18 09 05 13 addi	a0, s2, 384
è¯»å–åœ°å€ 0x80000db4
0x80000db4: 00 26 17 93 slli	a5, a2, 2
è¯»å–åœ°å€ 0x80000db8
0x80000db8: 00 f4 07 b3 add	a5, s0, a5
è¯»å–åœ°å€ 0x80000dbc
0x80000dbc: fc 06 16 e3 bne	a2, zero, 0x80000d88
è¯»å–åœ°å€ 0x80000dc0
è¯»å–åœ°å€ 0x80094e28
0x80000dc0: 00 0a c7 83 lbu	a5, 0(s5)
è¯»å–åœ°å€ 0x80000dc4
0x80000dc4: f9 1f f0 6f jal	zero, 0x80000d54
è¯»å–åœ°å€ 0x80000d54
è¯»å–åœ°å€ 0x80094e29
0x80000d54: 00 09 c7 03 lbu	a4, 0(s3)
è¯»å–åœ°å€ 0x80000d58
0x80000d58: 02 07 04 63 beq	a4, zero, 0x80000d80
è¯»å–åœ°å€ 0x80000d80
0x80000d80: 00 07 9e 63 bne	a5, zero, 0x80000d9c
è¯»å–åœ°å€ 0x80000d9c
0x80000d9c: 00 80 05 13 addi	a0, zero, 8
è¯»å–åœ°å€ 0x80000da0
0x80000da0: 00 81 05 93 addi	a1, sp, 8
è¯»å–åœ°å€ 0x80000da4
0x80000da4: 31 00 00 ef jal	ra, 0x800010b4
è¯»å–åœ°å€ 0x800010b4
0x800010b4: 80 01 17 b7 lui	a5, 524305
è¯»å–åœ°å€ 0x800010b8
0x800010b8: 00 25 15 13 slli	a0, a0, 2
è¯»å–åœ°å€ 0x800010bc
0x800010bc: 9f 87 87 93 addi	a5, a5, -1544
è¯»å–åœ°å€ 0x800010c0
0x800010c0: 00 a7 87 b3 add	a5, a5, a0
è¯»å–åœ°å€ 0x800010c4
è¯»å–åœ°å€ 0x80010a18
0x800010c4: 00 07 a7 83 lw	a5, 0(a5)
è¯»å–åœ°å€ 0x800010c8
0x800010c8: 00 05 85 13 addi	a0, a1, 0
è¯»å–åœ°å€ 0x800010cc
0x800010cc: 00 07 80 67 jalr	zero, 0(a5)
è¯»å–åœ°å€ 0x80001134
0x80001134: a0 00 07 b7 lui	a5, 655360
è¯»å–åœ°å€ 0x80001138
read device name = keyboard 	 addr = 0xa0000060 
0x80001138: 06 07 a7 83 lw	a5, 96(a5)
è¯»å–åœ°å€ 0x8000113c
0x8000113c: 00 00 87 37 lui	a4, 8
è¯»å–åœ°å€ 0x80001140
å†™å…¥åœ°å€ 0x8009cfac
0x80001140: 00 f5 22 23 sw	a5, 4(a0)
è¯»å–åœ°å€ 0x80001144
0x80001144: 00 e7 f6 b3 and	a3, a5, a4
è¯»å–åœ°å€ 0x80001148
0x80001148: 00 06 8c 63 beq	a3, zero, 0x80001160
è¯»å–åœ°å€ 0x80001160
å†™å…¥åœ°å€ 0x8009cfa8
0x80001160: 00 05 00 23 sb	zero, 0(a0)
è¯»å–åœ°å€ 0x80001164
0x80001164: 00 00 80 67 jalr	zero, 0(ra)
è¯»å–åœ°å€ 0x80000da8
è¯»å–åœ°å€ 0x8009cfac
0x80000da8: 00 c1 26 03 lw	a2, 12(sp)
è¯»å–åœ°å€ 0x80000dac
è¯»å–åœ°å€ 0x8009cfa8
0x80000dac: 00 81 47 03 lbu	a4, 8(sp)
è¯»å–åœ°å€ 0x80000db0
0x80000db0: 18 09 05 13 addi	a0, s2, 384
è¯»å–åœ°å€ 0x80000db4
0x80000db4: 00 26 17 93 slli	a5, a2, 2
è¯»å–åœ°å€ 0x80000db8
0x80000db8: 00 f4 07 b3 add	a5, s0, a5
è¯»å–åœ°å€ 0x80000dbc
0x80000dbc: fc 06 16 e3 bne	a2, zero, 0x80000d88
è¯»å–åœ°å€ 0x80000dc0
è¯»å–åœ°å€ 0x80094e28
0x80000dc0: 00 0a c7 83 lbu	a5, 0(s5)
è¯»å–åœ°å€ 0x80000dc4
0x80000dc4: f9 1f f0 6f jal	zero, 0x80000d54
è¯»å–åœ°å€ 0x80000d54
è¯»å–åœ°å€ 0x80094e29
0x80000d54: 00 09 c7 03 lbu	a4, 0(s3)
è¯»å–åœ°å€ 0x80000d58
0x80000d58: 02 07 04 63 beq	a4, zero, 0x80000d80
è¯»å–åœ°å€ 0x80000d80
0x80000d80: 00 07 9e 63 bne	a5, zero, 0x80000d9c
è¯»å–åœ°å€ 0x80000d9c
0x80000d9c: 00 80 05 13 addi	a0, zero, 8
è¯»å–åœ°å€ 0x80000da0
0x80000da0: 00 81 05 93 addi	a1, sp, 8
è¯»å–åœ°å€ 0x80000da4
0x80000da4: 31 00 00 ef jal	ra, 0x800010b4
è¯»å–åœ°å€ 0x800010b4
0x800010b4: 80 01 17 b7 lui	a5, 524305
è¯»å–åœ°å€ 0x800010b8
0x800010b8: 00 25 15 13 slli	a0, a0, 2
è¯»å–åœ°å€ 0x800010bc
0x800010bc: 9f 87 87 93 addi	a5, a5, -1544
è¯»å–åœ°å€ 0x800010c0
0x800010c0: 00 a7 87 b3 add	a5, a5, a0
è¯»å–åœ°å€ 0x800010c4
è¯»å–åœ°å€ 0x80010a18
0x800010c4: 00 07 a7 83 lw	a5, 0(a5)
è¯»å–åœ°å€ 0x800010c8
0x800010c8: 00 05 85 13 addi	a0, a1, 0
è¯»å–åœ°å€ 0x800010cc
0x800010cc: 00 07 80 67 jalr	zero, 0(a5)
è¯»å–åœ°å€ 0x80001134
0x80001134: a0 00 07 b7 lui	a5, 655360
è¯»å–åœ°å€ 0x80001138
read device name = keyboard 	 addr = 0xa0000060 
0x80001138: 06 07 a7 83 lw	a5, 96(a5)
è¯»å–åœ°å€ 0x8000113c
0x8000113c: 00 00 87 37 lui	a4, 8
è¯»å–åœ°å€ 0x80001140
å†™å…¥åœ°å€ 0x8009cfac
0x80001140: 00 f5 22 23 sw	a5, 4(a0)
è¯»å–åœ°å€ 0x80001144
0x80001144: 00 e7 f6 b3 and	a3, a5, a4
è¯»å–åœ°å€ 0x80001148
0x80001148: 00 06 8c 63 beq	a3, zero, 0x80001160
è¯»å–åœ°å€ 0x80001160
å†™å…¥åœ°å€ 0x8009cfa8
0x80001160: 00 05 00 23 sb	zero, 0(a0)
è¯»å–åœ°å€ 0x80001164
0x80001164: 00 00 80 67 jalr	zero, 0(ra)
è¯»å–åœ°å€ 0x80000da8
è¯»å–åœ°å€ 0x8009cfac
0x80000da8: 00 c1 26 03 lw	a2, 12(sp)
è¯»å–åœ°å€ 0x80000dac
è¯»å–åœ°å€ 0x8009cfa8
0x80000dac: 00 81 47 03 lbu	a4, 8(sp)
è¯»å–åœ°å€ 0x80000db0
0x80000db0: 18 09 05 13 addi	a0, s2, 384
è¯»å–åœ°å€ 0x80000db4
0x80000db4: 00 26 17 93 slli	a5, a2, 2
è¯»å–åœ°å€ 0x80000db8
0x80000db8: 00 f4 07 b3 add	a5, s0, a5
è¯»å–åœ°å€ 0x80000dbc
0x80000dbc: fc 06 16 e3 bne	a2, zero, 0x80000d88
è¯»å–åœ°å€ 0x80000dc0
è¯»å–åœ°å€ 0x80094e28
0x80000dc0: 00 0a c7 83 lbu	a5, 0(s5)
è¯»å–åœ°å€ 0x80000dc4
0x80000dc4: f9 1f f0 6f jal	zero, 0x80000d54
è¯»å–åœ°å€ 0x80000d54
è¯»å–åœ°å€ 0x80094e29
0x80000d54: 00 09 c7 03 lbu	a4, 0(s3)
è¯»å–åœ°å€ 0x80000d58
0x80000d58: 02 07 04 63 beq	a4, zero, 0x80000d80
è¯»å–åœ°å€ 0x80000d80
0x80000d80: 00 07 9e 63 bne	a5, zero, 0x80000d9c
è¯»å–åœ°å€ 0x80000d9c
0x80000d9c: 00 80 05 13 addi	a0, zero, 8
è¯»å–åœ°å€ 0x80000da0
0x80000da0: 00 81 05 93 addi	a1, sp, 8
è¯»å–åœ°å€ 0x80000da4
0x80000da4: 31 00 00 ef jal	ra, 0x800010b4
è¯»å–åœ°å€ 0x800010b4
0x800010b4: 80 01 17 b7 lui	a5, 524305
è¯»å–åœ°å€ 0x800010b8
0x800010b8: 00 25 15 13 slli	a0, a0, 2
è¯»å–åœ°å€ 0x800010bc
0x800010bc: 9f 87 87 93 addi	a5, a5, -1544
è¯»å–åœ°å€ 0x800010c0
0x800010c0: 00 a7 87 b3 add	a5, a5, a0
è¯»å–åœ°å€ 0x800010c4
è¯»å–åœ°å€ 0x80010a18
0x800010c4: 00 07 a7 83 lw	a5, 0(a5)
è¯»å–åœ°å€ 0x800010c8
0x800010c8: 00 05 85 13 addi	a0, a1, 0
è¯»å–åœ°å€ 0x800010cc
0x800010cc: 00 07 80 67 jalr	zero, 0(a5)
è¯»å–åœ°å€ 0x80001134
0x80001134: a0 00 07 b7 lui	a5, 655360
è¯»å–åœ°å€ 0x80001138
read device name = keyboard 	 addr = 0xa0000060 
0x80001138: 06 07 a7 83 lw	a5, 96(a5)
è¯»å–åœ°å€ 0x8000113c
0x8000113c: 00 00 87 37 lui	a4, 8
è¯»å–åœ°å€ 0x80001140
å†™å…¥åœ°å€ 0x8009cfac
0x80001140: 00 f5 22 23 sw	a5, 4(a0)
è¯»å–åœ°å€ 0x80001144
0x80001144: 00 e7 f6 b3 and	a3, a5, a4
è¯»å–åœ°å€ 0x80001148
0x80001148: 00 06 8c 63 beq	a3, zero, 0x80001160
è¯»å–åœ°å€ 0x80001160
å†™å…¥åœ°å€ 0x8009cfa8
0x80001160: 00 05 00 23 sb	zero, 0(a0)
è¯»å–åœ°å€ 0x80001164
0x80001164: 00 00 80 67 jalr	zero, 0(ra)
è¯»å–åœ°å€ 0x80000da8
è¯»å–åœ°å€ 0x8009cfac
0x80000da8: 00 c1 26 03 lw	a2, 12(sp)
è¯»å–åœ°å€ 0x80000dac
è¯»å–åœ°å€ 0x8009cfa8
0x80000dac: 00 81 47 03 lbu	a4, 8(sp)
è¯»å–åœ°å€ 0x80000db0
0x80000db0: 18 09 05 13 addi	a0, s2, 384
è¯»å–åœ°å€ 0x80000db4
0x80000db4: 00 26 17 93 slli	a5, a2, 2
è¯»å–åœ°å€ 0x80000db8
0x80000db8: 00 f4 07 b3 add	a5, s0, a5
è¯»å–åœ°å€ 0x80000dbc
0x80000dbc: fc 06 16 e3 bne	a2, zero, 0x80000d88
è¯»å–åœ°å€ 0x80000dc0
è¯»å–åœ°å€ 0x80094e28
0x80000dc0: 00 0a c7 83 lbu	a5, 0(s5)
è¯»å–åœ°å€ 0x80000dc4
0x80000dc4: f9 1f f0 6f jal	zero, 0x80000d54
è¯»å–åœ°å€ 0x80000d54
è¯»å–åœ°å€ 0x80094e29
0x80000d54: 00 09 c7 03 lbu	a4, 0(s3)
è¯»å–åœ°å€ 0x80000d58
0x80000d58: 02 07 04 63 beq	a4, zero, 0x80000d80
è¯»å–åœ°å€ 0x80000d80
0x80000d80: 00 07 9e 63 bne	a5, zero, 0x80000d9c
è¯»å–åœ°å€ 0x80000d9c
0x80000d9c: 00 80 05 13 addi	a0, zero, 8
è¯»å–åœ°å€ 0x80000da0
0x80000da0: 00 81 05 93 addi	a1, sp, 8
è¯»å–åœ°å€ 0x80000da4
0x80000da4: 31 00 00 ef jal	ra, 0x800010b4
è¯»å–åœ°å€ 0x800010b4
0x800010b4: 80 01 17 b7 lui	a5, 524305
è¯»å–åœ°å€ 0x800010b8
0x800010b8: 00 25 15 13 slli	a0, a0, 2
è¯»å–åœ°å€ 0x800010bc
0x800010bc: 9f 87 87 93 addi	a5, a5, -1544
è¯»å–åœ°å€ 0x800010c0
0x800010c0: 00 a7 87 b3 add	a5, a5, a0
è¯»å–åœ°å€ 0x800010c4
è¯»å–åœ°å€ 0x80010a18
0x800010c4: 00 07 a7 83 lw	a5, 0(a5)
è¯»å–åœ°å€ 0x800010c8
0x800010c8: 00 05 85 13 addi	a0, a1, 0
è¯»å–åœ°å€ 0x800010cc
0x800010cc: 00 07 80 67 jalr	zero, 0(a5)
è¯»å–åœ°å€ 0x80001134
0x80001134: a0 00 07 b7 lui	a5, 655360
è¯»å–åœ°å€ 0x80001138
read device name = keyboard 	 addr = 0xa0000060 
0x80001138: 06 07 a7 83 lw	a5, 96(a5)
è¯»å–åœ°å€ 0x8000113c
0x8000113c: 00 00 87 37 lui	a4, 8
è¯»å–åœ°å€ 0x80001140
å†™å…¥åœ°å€ 0x8009cfac
0x80001140: 00 f5 22 23 sw	a5, 4(a0)
è¯»å–åœ°å€ 0x80001144
0x80001144: 00 e7 f6 b3 and	a3, a5, a4
è¯»å–åœ°å€ 0x80001148
0x80001148: 00 06 8c 63 beq	a3, zero, 0x80001160
è¯»å–åœ°å€ 0x80001160
å†™å…¥åœ°å€ 0x8009cfa8
0x80001160: 00 05 00 23 sb	zero, 0(a0)
è¯»å–åœ°å€ 0x80001164
0x80001164: 00 00 80 67 jalr	zero, 0(ra)
è¯»å–åœ°å€ 0x80000da8
è¯»å–åœ°å€ 0x8009cfac
0x80000da8: 00 c1 26 03 lw	a2, 12(sp)
è¯»å–åœ°å€ 0x80000dac
è¯»å–åœ°å€ 0x8009cfa8
0x80000dac: 00 81 47 03 lbu	a4, 8(sp)
è¯»å–åœ°å€ 0x80000db0
0x80000db0: 18 09 05 13 addi	a0, s2, 384
è¯»å–åœ°å€ 0x80000db4
0x80000db4: 00 26 17 93 slli	a5, a2, 2
è¯»å–åœ°å€ 0x80000db8
0x80000db8: 00 f4 07 b3 add	a5, s0, a5
è¯»å–åœ°å€ 0x80000dbc
0x80000dbc: fc 06 16 e3 bne	a2, zero, 0x80000d88
è¯»å–åœ°å€ 0x80000dc0
è¯»å–åœ°å€ 0x80094e28
0x80000dc0: 00 0a c7 83 lbu	a5, 0(s5)
è¯»å–åœ°å€ 0x80000dc4
0x80000dc4: f9 1f f0 6f jal	zero, 0x80000d54
è¯»å–åœ°å€ 0x80000d54
è¯»å–åœ°å€ 0x80094e29
0x80000d54: 00 09 c7 03 lbu	a4, 0(s3)
è¯»å–åœ°å€ 0x80000d58
0x80000d58: 02 07 04 63 beq	a4, zero, 0x80000d80
è¯»å–åœ°å€ 0x80000d80
0x80000d80: 00 07 9e 63 bne	a5, zero, 0x80000d9c
è¯»å–åœ°å€ 0x80000d9c
0x80000d9c: 00 80 05 13 addi	a0, zero, 8
è¯»å–åœ°å€ 0x80000da0
0x80000da0: 00 81 05 93 addi	a1, sp, 8
è¯»å–åœ°å€ 0x80000da4
0x80000da4: 31 00 00 ef jal	ra, 0x800010b4
è¯»å–åœ°å€ 0x800010b4
0x800010b4: 80 01 17 b7 lui	a5, 524305
è¯»å–åœ°å€ 0x800010b8
0x800010b8: 00 25 15 13 slli	a0, a0, 2
è¯»å–åœ°å€ 0x800010bc
0x800010bc: 9f 87 87 93 addi	a5, a5, -1544
è¯»å–åœ°å€ 0x800010c0
0x800010c0: 00 a7 87 b3 add	a5, a5, a0
è¯»å–åœ°å€ 0x800010c4
è¯»å–åœ°å€ 0x80010a18
0x800010c4: 00 07 a7 83 lw	a5, 0(a5)
è¯»å–åœ°å€ 0x800010c8
0x800010c8: 00 05 85 13 addi	a0, a1, 0
è¯»å–åœ°å€ 0x800010cc
0x800010cc: 00 07 80 67 jalr	zero, 0(a5)
è¯»å–åœ°å€ 0x80001134
0x80001134: a0 00 07 b7 lui	a5, 655360
è¯»å–åœ°å€ 0x80001138
read device name = keyboard 	 addr = 0xa0000060 
0x80001138: 06 07 a7 83 lw	a5, 96(a5)
è¯»å–åœ°å€ 0x8000113c
0x8000113c: 00 00 87 37 lui	a4, 8
è¯»å–åœ°å€ 0x80001140
å†™å…¥åœ°å€ 0x8009cfac
0x80001140: 00 f5 22 23 sw	a5, 4(a0)
è¯»å–åœ°å€ 0x80001144
0x80001144: 00 e7 f6 b3 and	a3, a5, a4
è¯»å–åœ°å€ 0x80001148
0x80001148: 00 06 8c 63 beq	a3, zero, 0x80001160
è¯»å–åœ°å€ 0x80001160
å†™å…¥åœ°å€ 0x8009cfa8
0x80001160: 00 05 00 23 sb	zero, 0(a0)
è¯»å–åœ°å€ 0x80001164
0x80001164: 00 00 80 67 jalr	zero, 0(ra)
è¯»å–åœ°å€ 0x80000da8
è¯»å–åœ°å€ 0x8009cfac
0x80000da8: 00 c1 26 03 lw	a2, 12(sp)
è¯»å–åœ°å€ 0x80000dac
è¯»å–åœ°å€ 0x8009cfa8
0x80000dac: 00 81 47 03 lbu	a4, 8(sp)
è¯»å–åœ°å€ 0x80000db0
0x80000db0: 18 09 05 13 addi	a0, s2, 384
è¯»å–åœ°å€ 0x80000db4
0x80000db4: 00 26 17 93 slli	a5, a2, 2
è¯»å–åœ°å€ 0x80000db8
0x80000db8: 00 f4 07 b3 add	a5, s0, a5
è¯»å–åœ°å€ 0x80000dbc
0x80000dbc: fc 06 16 e3 bne	a2, zero, 0x80000d88
è¯»å–åœ°å€ 0x80000dc0
è¯»å–åœ°å€ 0x80094e28
0x80000dc0: 00 0a c7 83 lbu	a5, 0(s5)
è¯»å–åœ°å€ 0x80000dc4
0x80000dc4: f9 1f f0 6f jal	zero, 0x80000d54
è¯»å–åœ°å€ 0x80000d54
è¯»å–åœ°å€ 0x80094e29
0x80000d54: 00 09 c7 03 lbu	a4, 0(s3)
è¯»å–åœ°å€ 0x80000d58
0x80000d58: 02 07 04 63 beq	a4, zero, 0x80000d80
è¯»å–åœ°å€ 0x80000d80
0x80000d80: 00 07 9e 63 bne	a5, zero, 0x80000d9c
è¯»å–åœ°å€ 0x80000d9c
0x80000d9c: 00 80 05 13 addi	a0, zero, 8
è¯»å–åœ°å€ 0x80000da0
0x80000da0: 00 81 05 93 addi	a1, sp, 8
è¯»å–åœ°å€ 0x80000da4
0x80000da4: 31 00 00 ef jal	ra, 0x800010b4
è¯»å–åœ°å€ 0x800010b4
0x800010b4: 80 01 17 b7 lui	a5, 524305
è¯»å–åœ°å€ 0x800010b8
0x800010b8: 00 25 15 13 slli	a0, a0, 2
è¯»å–åœ°å€ 0x800010bc
0x800010bc: 9f 87 87 93 addi	a5, a5, -1544
è¯»å–åœ°å€ 0x800010c0
0x800010c0: 00 a7 87 b3 add	a5, a5, a0
è¯»å–åœ°å€ 0x800010c4
è¯»å–åœ°å€ 0x80010a18
0x800010c4: 00 07 a7 83 lw	a5, 0(a5)
è¯»å–åœ°å€ 0x800010c8
0x800010c8: 00 05 85 13 addi	a0, a1, 0
è¯»å–åœ°å€ 0x800010cc
0x800010cc: 00 07 80 67 jalr	zero, 0(a5)
è¯»å–åœ°å€ 0x80001134
0x80001134: a0 00 07 b7 lui	a5, 655360
è¯»å–åœ°å€ 0x80001138
read device name = keyboard 	 addr = 0xa0000060 
0x80001138: 06 07 a7 83 lw	a5, 96(a5)
è¯»å–åœ°å€ 0x8000113c
0x8000113c: 00 00 87 37 lui	a4, 8
è¯»å–åœ°å€ 0x80001140
å†™å…¥åœ°å€ 0x8009cfac
0x80001140: 00 f5 22 23 sw	a5, 4(a0)
è¯»å–åœ°å€ 0x80001144
0x80001144: 00 e7 f6 b3 and	a3, a5, a4
è¯»å–åœ°å€ 0x80001148
0x80001148: 00 06 8c 63 beq	a3, zero, 0x80001160
è¯»å–åœ°å€ 0x80001160
å†™å…¥åœ°å€ 0x8009cfa8
0x80001160: 00 05 00 23 sb	zero, 0(a0)
è¯»å–åœ°å€ 0x80001164
0x80001164: 00 00 80 67 jalr	zero, 0(ra)
è¯»å–åœ°å€ 0x80000da8
è¯»å–åœ°å€ 0x8009cfac
0x80000da8: 00 c1 26 03 lw	a2, 12(sp)
è¯»å–åœ°å€ 0x80000dac
è¯»å–åœ°å€ 0x8009cfa8
0x80000dac: 00 81 47 03 lbu	a4, 8(sp)
è¯»å–åœ°å€ 0x80000db0
0x80000db0: 18 09 05 13 addi	a0, s2, 384
è¯»å–åœ°å€ 0x80000db4
0x80000db4: 00 26 17 93 slli	a5, a2, 2
è¯»å–åœ°å€ 0x80000db8
0x80000db8: 00 f4 07 b3 add	a5, s0, a5
è¯»å–åœ°å€ 0x80000dbc
0x80000dbc: fc 06 16 e3 bne	a2, zero, 0x80000d88
è¯»å–åœ°å€ 0x80000dc0
è¯»å–åœ°å€ 0x80094e28
0x80000dc0: 00 0a c7 83 lbu	a5, 0(s5)
è¯»å–åœ°å€ 0x80000dc4
0x80000dc4: f9 1f f0 6f jal	zero, 0x80000d54
è¯»å–åœ°å€ 0x80000d54
è¯»å–åœ°å€ 0x80094e29
0x80000d54: 00 09 c7 03 lbu	a4, 0(s3)
è¯»å–åœ°å€ 0x80000d58
0x80000d58: 02 07 04 63 beq	a4, zero, 0x80000d80
è¯»å–åœ°å€ 0x80000d80
0x80000d80: 00 07 9e 63 bne	a5, zero, 0x80000d9c
è¯»å–åœ°å€ 0x80000d9c
0x80000d9c: 00 80 05 13 addi	a0, zero, 8
è¯»å–åœ°å€ 0x80000da0
0x80000da0: 00 81 05 93 addi	a1, sp, 8
è¯»å–åœ°å€ 0x80000da4
0x80000da4: 31 00 00 ef jal	ra, 0x800010b4
è¯»å–åœ°å€ 0x800010b4
0x800010b4: 80 01 17 b7 lui	a5, 524305
è¯»å–åœ°å€ 0x800010b8
0x800010b8: 00 25 15 13 slli	a0, a0, 2
è¯»å–åœ°å€ 0x800010bc
0x800010bc: 9f 87 87 93 addi	a5, a5, -1544
è¯»å–åœ°å€ 0x800010c0
0x800010c0: 00 a7 87 b3 add	a5, a5, a0
è¯»å–åœ°å€ 0x800010c4
è¯»å–åœ°å€ 0x80010a18
0x800010c4: 00 07 a7 83 lw	a5, 0(a5)
è¯»å–åœ°å€ 0x800010c8
0x800010c8: 00 05 85 13 addi	a0, a1, 0
è¯»å–åœ°å€ 0x800010cc
0x800010cc: 00 07 80 67 jalr	zero, 0(a5)
è¯»å–åœ°å€ 0x80001134
0x80001134: a0 00 07 b7 lui	a5, 655360
è¯»å–åœ°å€ 0x80001138
read device name = keyboard 	 addr = 0xa0000060 
0x80001138: 06 07 a7 83 lw	a5, 96(a5)
è¯»å–åœ°å€ 0x8000113c
0x8000113c: 00 00 87 37 lui	a4, 8
è¯»å–åœ°å€ 0x80001140
å†™å…¥åœ°å€ 0x8009cfac
0x80001140: 00 f5 22 23 sw	a5, 4(a0)
è¯»å–åœ°å€ 0x80001144
0x80001144: 00 e7 f6 b3 and	a3, a5, a4
è¯»å–åœ°å€ 0x80001148
0x80001148: 00 06 8c 63 beq	a3, zero, 0x80001160
è¯»å–åœ°å€ 0x80001160
å†™å…¥åœ°å€ 0x8009cfa8
0x80001160: 00 05 00 23 sb	zero, 0(a0)
è¯»å–åœ°å€ 0x80001164
0x80001164: 00 00 80 67 jalr	zero, 0(ra)
è¯»å–åœ°å€ 0x80000da8
è¯»å–åœ°å€ 0x8009cfac
0x80000da8: 00 c1 26 03 lw	a2, 12(sp)
è¯»å–åœ°å€ 0x80000dac
è¯»å–åœ°å€ 0x8009cfa8
0x80000dac: 00 81 47 03 lbu	a4, 8(sp)
è¯»å–åœ°å€ 0x80000db0
0x80000db0: 18 09 05 13 addi	a0, s2, 384
è¯»å–åœ°å€ 0x80000db4
0x80000db4: 00 26 17 93 slli	a5, a2, 2
è¯»å–åœ°å€ 0x80000db8
0x80000db8: 00 f4 07 b3 add	a5, s0, a5
è¯»å–åœ°å€ 0x80000dbc
0x80000dbc: fc 06 16 e3 bne	a2, zero, 0x80000d88
è¯»å–åœ°å€ 0x80000dc0
è¯»å–åœ°å€ 0x80094e28
0x80000dc0: 00 0a c7 83 lbu	a5, 0(s5)
è¯»å–åœ°å€ 0x80000dc4
0x80000dc4: f9 1f f0 6f jal	zero, 0x80000d54
è¯»å–åœ°å€ 0x80000d54
è¯»å–åœ°å€ 0x80094e29
0x80000d54: 00 09 c7 03 lbu	a4, 0(s3)
è¯»å–åœ°å€ 0x80000d58
0x80000d58: 02 07 04 63 beq	a4, zero, 0x80000d80
è¯»å–åœ°å€ 0x80000d80
0x80000d80: 00 07 9e 63 bne	a5, zero, 0x80000d9c
è¯»å–åœ°å€ 0x80000d9c
0x80000d9c: 00 80 05 13 addi	a0, zero, 8
è¯»å–åœ°å€ 0x80000da0
0x80000da0: 00 81 05 93 addi	a1, sp, 8
è¯»å–åœ°å€ 0x80000da4
0x80000da4: 31 00 00 ef jal	ra, 0x800010b4
è¯»å–åœ°å€ 0x800010b4
0x800010b4: 80 01 17 b7 lui	a5, 524305
è¯»å–åœ°å€ 0x800010b8
0x800010b8: 00 25 15 13 slli	a0, a0, 2
è¯»å–åœ°å€ 0x800010bc
0x800010bc: 9f 87 87 93 addi	a5, a5, -1544
è¯»å–åœ°å€ 0x800010c0
0x800010c0: 00 a7 87 b3 add	a5, a5, a0
è¯»å–åœ°å€ 0x800010c4
è¯»å–åœ°å€ 0x80010a18
0x800010c4: 00 07 a7 83 lw	a5, 0(a5)
è¯»å–åœ°å€ 0x800010c8
0x800010c8: 00 05 85 13 addi	a0, a1, 0
è¯»å–åœ°å€ 0x800010cc
0x800010cc: 00 07 80 67 jalr	zero, 0(a5)
è¯»å–åœ°å€ 0x80001134
0x80001134: a0 00 07 b7 lui	a5, 655360
è¯»å–åœ°å€ 0x80001138
read device name = keyboard 	 addr = 0xa0000060 
0x80001138: 06 07 a7 83 lw	a5, 96(a5)
è¯»å–åœ°å€ 0x8000113c
0x8000113c: 00 00 87 37 lui	a4, 8
è¯»å–åœ°å€ 0x80001140
å†™å…¥åœ°å€ 0x8009cfac
0x80001140: 00 f5 22 23 sw	a5, 4(a0)
è¯»å–åœ°å€ 0x80001144
0x80001144: 00 e7 f6 b3 and	a3, a5, a4
è¯»å–åœ°å€ 0x80001148
0x80001148: 00 06 8c 63 beq	a3, zero, 0x80001160
è¯»å–åœ°å€ 0x80001160
å†™å…¥åœ°å€ 0x8009cfa8
0x80001160: 00 05 00 23 sb	zero, 0(a0)
è¯»å–åœ°å€ 0x80001164
0x80001164: 00 00 80 67 jalr	zero, 0(ra)
è¯»å–åœ°å€ 0x80000da8
è¯»å–åœ°å€ 0x8009cfac
0x80000da8: 00 c1 26 03 lw	a2, 12(sp)
è¯»å–åœ°å€ 0x80000dac
è¯»å–åœ°å€ 0x8009cfa8
0x80000dac: 00 81 47 03 lbu	a4, 8(sp)
è¯»å–åœ°å€ 0x80000db0
0x80000db0: 18 09 05 13 addi	a0, s2, 384
è¯»å–åœ°å€ 0x80000db4
0x80000db4: 00 26 17 93 slli	a5, a2, 2
è¯»å–åœ°å€ 0x80000db8
0x80000db8: 00 f4 07 b3 add	a5, s0, a5
è¯»å–åœ°å€ 0x80000dbc
0x80000dbc: fc 06 16 e3 bne	a2, zero, 0x80000d88
è¯»å–åœ°å€ 0x80000dc0
è¯»å–åœ°å€ 0x80094e28
0x80000dc0: 00 0a c7 83 lbu	a5, 0(s5)
è¯»å–åœ°å€ 0x80000dc4
0x80000dc4: f9 1f f0 6f jal	zero, 0x80000d54
è¯»å–åœ°å€ 0x80000d54
è¯»å–åœ°å€ 0x80094e29
0x80000d54: 00 09 c7 03 lbu	a4, 0(s3)
è¯»å–åœ°å€ 0x80000d58
0x80000d58: 02 07 04 63 beq	a4, zero, 0x80000d80
è¯»å–åœ°å€ 0x80000d80
0x80000d80: 00 07 9e 63 bne	a5, zero, 0x80000d9c
è¯»å–åœ°å€ 0x80000d9c
0x80000d9c: 00 80 05 13 addi	a0, zero, 8
è¯»å–åœ°å€ 0x80000da0
0x80000da0: 00 81 05 93 addi	a1, sp, 8
è¯»å–åœ°å€ 0x80000da4
0x80000da4: 31 00 00 ef jal	ra, 0x800010b4
è¯»å–åœ°å€ 0x800010b4
0x800010b4: 80 01 17 b7 lui	a5, 524305
è¯»å–åœ°å€ 0x800010b8
0x800010b8: 00 25 15 13 slli	a0, a0, 2
è¯»å–åœ°å€ 0x800010bc
0x800010bc: 9f 87 87 93 addi	a5, a5, -1544
è¯»å–åœ°å€ 0x800010c0
0x800010c0: 00 a7 87 b3 add	a5, a5, a0
è¯»å–åœ°å€ 0x800010c4
è¯»å–åœ°å€ 0x80010a18
0x800010c4: 00 07 a7 83 lw	a5, 0(a5)
è¯»å–åœ°å€ 0x800010c8
0x800010c8: 00 05 85 13 addi	a0, a1, 0
è¯»å–åœ°å€ 0x800010cc
0x800010cc: 00 07 80 67 jalr	zero, 0(a5)
è¯»å–åœ°å€ 0x80001134
0x80001134: a0 00 07 b7 lui	a5, 655360
è¯»å–åœ°å€ 0x80001138
read device name = keyboard 	 addr = 0xa0000060 
0x80001138: 06 07 a7 83 lw	a5, 96(a5)
è¯»å–åœ°å€ 0x8000113c
0x8000113c: 00 00 87 37 lui	a4, 8
è¯»å–åœ°å€ 0x80001140
å†™å…¥åœ°å€ 0x8009cfac
0x80001140: 00 f5 22 23 sw	a5, 4(a0)
è¯»å–åœ°å€ 0x80001144
0x80001144: 00 e7 f6 b3 and	a3, a5, a4
è¯»å–åœ°å€ 0x80001148
0x80001148: 00 06 8c 63 beq	a3, zero, 0x80001160
è¯»å–åœ°å€ 0x80001160
å†™å…¥åœ°å€ 0x8009cfa8
0x80001160: 00 05 00 23 sb	zero, 0(a0)
è¯»å–åœ°å€ 0x80001164
0x80001164: 00 00 80 67 jalr	zero, 0(ra)
è¯»å–åœ°å€ 0x80000da8
è¯»å–åœ°å€ 0x8009cfac
0x80000da8: 00 c1 26 03 lw	a2, 12(sp)
è¯»å–åœ°å€ 0x80000dac
è¯»å–åœ°å€ 0x8009cfa8
0x80000dac: 00 81 47 03 lbu	a4, 8(sp)
è¯»å–åœ°å€ 0x80000db0
0x80000db0: 18 09 05 13 addi	a0, s2, 384
è¯»å–åœ°å€ 0x80000db4
0x80000db4: 00 26 17 93 slli	a5, a2, 2
è¯»å–åœ°å€ 0x80000db8
0x80000db8: 00 f4 07 b3 add	a5, s0, a5
è¯»å–åœ°å€ 0x80000dbc
0x80000dbc: fc 06 16 e3 bne	a2, zero, 0x80000d88
è¯»å–åœ°å€ 0x80000dc0
è¯»å–åœ°å€ 0x80094e28
0x80000dc0: 00 0a c7 83 lbu	a5, 0(s5)
è¯»å–åœ°å€ 0x80000dc4
0x80000dc4: f9 1f f0 6f jal	zero, 0x80000d54
è¯»å–åœ°å€ 0x80000d54
è¯»å–åœ°å€ 0x80094e29
0x80000d54: 00 09 c7 03 lbu	a4, 0(s3)
è¯»å–åœ°å€ 0x80000d58
0x80000d58: 02 07 04 63 beq	a4, zero, 0x80000d80
è¯»å–åœ°å€ 0x80000d80
0x80000d80: 00 07 9e 63 bne	a5, zero, 0x80000d9c
è¯»å–åœ°å€ 0x80000d9c
0x80000d9c: 00 80 05 13 addi	a0, zero, 8
è¯»å–åœ°å€ 0x80000da0
0x80000da0: 00 81 05 93 addi	a1, sp, 8
è¯»å–åœ°å€ 0x80000da4
0x80000da4: 31 00 00 ef jal	ra, 0x800010b4
è¯»å–åœ°å€ 0x800010b4
0x800010b4: 80 01 17 b7 lui	a5, 524305
è¯»å–åœ°å€ 0x800010b8
0x800010b8: 00 25 15 13 slli	a0, a0, 2
è¯»å–åœ°å€ 0x800010bc
0x800010bc: 9f 87 87 93 addi	a5, a5, -1544
è¯»å–åœ°å€ 0x800010c0
0x800010c0: 00 a7 87 b3 add	a5, a5, a0
è¯»å–åœ°å€ 0x800010c4
è¯»å–åœ°å€ 0x80010a18
0x800010c4: 00 07 a7 83 lw	a5, 0(a5)
è¯»å–åœ°å€ 0x800010c8
0x800010c8: 00 05 85 13 addi	a0, a1, 0
è¯»å–åœ°å€ 0x800010cc
0x800010cc: 00 07 80 67 jalr	zero, 0(a5)
è¯»å–åœ°å€ 0x80001134
0x80001134: a0 00 07 b7 lui	a5, 655360
è¯»å–åœ°å€ 0x80001138
read device name = keyboard 	 addr = 0xa0000060 
0x80001138: 06 07 a7 83 lw	a5, 96(a5)
è¯»å–åœ°å€ 0x8000113c
0x8000113c: 00 00 87 37 lui	a4, 8
è¯»å–åœ°å€ 0x80001140
å†™å…¥åœ°å€ 0x8009cfac
0x80001140: 00 f5 22 23 sw	a5, 4(a0)
è¯»å–åœ°å€ 0x80001144
0x80001144: 00 e7 f6 b3 and	a3, a5, a4
è¯»å–åœ°å€ 0x80001148
0x80001148: 00 06 8c 63 beq	a3, zero, 0x80001160
è¯»å–åœ°å€ 0x80001160
å†™å…¥åœ°å€ 0x8009cfa8
0x80001160: 00 05 00 23 sb	zero, 0(a0)
è¯»å–åœ°å€ 0x80001164
0x80001164: 00 00 80 67 jalr	zero, 0(ra)
è¯»å–åœ°å€ 0x80000da8
è¯»å–åœ°å€ 0x8009cfac
0x80000da8: 00 c1 26 03 lw	a2, 12(sp)
è¯»å–åœ°å€ 0x80000dac
è¯»å–åœ°å€ 0x8009cfa8
0x80000dac: 00 81 47 03 lbu	a4, 8(sp)
è¯»å–åœ°å€ 0x80000db0
0x80000db0: 18 09 05 13 addi	a0, s2, 384
è¯»å–åœ°å€ 0x80000db4
0x80000db4: 00 26 17 93 slli	a5, a2, 2
è¯»å–åœ°å€ 0x80000db8
0x80000db8: 00 f4 07 b3 add	a5, s0, a5
è¯»å–åœ°å€ 0x80000dbc
0x80000dbc: fc 06 16 e3 bne	a2, zero, 0x80000d88
è¯»å–åœ°å€ 0x80000dc0
è¯»å–åœ°å€ 0x80094e28
0x80000dc0: 00 0a c7 83 lbu	a5, 0(s5)
è¯»å–åœ°å€ 0x80000dc4
0x80000dc4: f9 1f f0 6f jal	zero, 0x80000d54
è¯»å–åœ°å€ 0x80000d54
è¯»å–åœ°å€ 0x80094e29
0x80000d54: 00 09 c7 03 lbu	a4, 0(s3)
è¯»å–åœ°å€ 0x80000d58
0x80000d58: 02 07 04 63 beq	a4, zero, 0x80000d80
è¯»å–åœ°å€ 0x80000d80
0x80000d80: 00 07 9e 63 bne	a5, zero, 0x80000d9c
è¯»å–åœ°å€ 0x80000d9c
0x80000d9c: 00 80 05 13 addi	a0, zero, 8
è¯»å–åœ°å€ 0x80000da0
0x80000da0: 00 81 05 93 addi	a1, sp, 8
è¯»å–åœ°å€ 0x80000da4
0x80000da4: 31 00 00 ef jal	ra, 0x800010b4
è¯»å–åœ°å€ 0x800010b4
0x800010b4: 80 01 17 b7 lui	a5, 524305
è¯»å–åœ°å€ 0x800010b8
0x800010b8: 00 25 15 13 slli	a0, a0, 2
è¯»å–åœ°å€ 0x800010bc
0x800010bc: 9f 87 87 93 addi	a5, a5, -1544
è¯»å–åœ°å€ 0x800010c0
0x800010c0: 00 a7 87 b3 add	a5, a5, a0
è¯»å–åœ°å€ 0x800010c4
è¯»å–åœ°å€ 0x80010a18
0x800010c4: 00 07 a7 83 lw	a5, 0(a5)
è¯»å–åœ°å€ 0x800010c8
0x800010c8: 00 05 85 13 addi	a0, a1, 0
è¯»å–åœ°å€ 0x800010cc
0x800010cc: 00 07 80 67 jalr	zero, 0(a5)
è¯»å–åœ°å€ 0x80001134
0x80001134: a0 00 07 b7 lui	a5, 655360
è¯»å–åœ°å€ 0x80001138
read device name = keyboard 	 addr = 0xa0000060 
0x80001138: 06 07 a7 83 lw	a5, 96(a5)
è¯»å–åœ°å€ 0x8000113c
0x8000113c: 00 00 87 37 lui	a4, 8
è¯»å–åœ°å€ 0x80001140
å†™å…¥åœ°å€ 0x8009cfac
0x80001140: 00 f5 22 23 sw	a5, 4(a0)
è¯»å–åœ°å€ 0x80001144
0x80001144: 00 e7 f6 b3 and	a3, a5, a4
è¯»å–åœ°å€ 0x80001148
0x80001148: 00 06 8c 63 beq	a3, zero, 0x80001160
è¯»å–åœ°å€ 0x80001160
å†™å…¥åœ°å€ 0x8009cfa8
0x80001160: 00 05 00 23 sb	zero, 0(a0)
è¯»å–åœ°å€ 0x80001164
0x80001164: 00 00 80 67 jalr	zero, 0(ra)
è¯»å–åœ°å€ 0x80000da8
è¯»å–åœ°å€ 0x8009cfac
0x80000da8: 00 c1 26 03 lw	a2, 12(sp)
è¯»å–åœ°å€ 0x80000dac
è¯»å–åœ°å€ 0x8009cfa8
0x80000dac: 00 81 47 03 lbu	a4, 8(sp)
è¯»å–åœ°å€ 0x80000db0
0x80000db0: 18 09 05 13 addi	a0, s2, 384
è¯»å–åœ°å€ 0x80000db4
0x80000db4: 00 26 17 93 slli	a5, a2, 2
è¯»å–åœ°å€ 0x80000db8
0x80000db8: 00 f4 07 b3 add	a5, s0, a5
è¯»å–åœ°å€ 0x80000dbc
0x80000dbc: fc 06 16 e3 bne	a2, zero, 0x80000d88
è¯»å–åœ°å€ 0x80000dc0
è¯»å–åœ°å€ 0x80094e28
0x80000dc0: 00 0a c7 83 lbu	a5, 0(s5)
è¯»å–åœ°å€ 0x80000dc4
0x80000dc4: f9 1f f0 6f jal	zero, 0x80000d54
è¯»å–åœ°å€ 0x80000d54
è¯»å–åœ°å€ 0x80094e29
0x80000d54: 00 09 c7 03 lbu	a4, 0(s3)
è¯»å–åœ°å€ 0x80000d58
0x80000d58: 02 07 04 63 beq	a4, zero, 0x80000d80
è¯»å–åœ°å€ 0x80000d80
0x80000d80: 00 07 9e 63 bne	a5, zero, 0x80000d9c
è¯»å–åœ°å€ 0x80000d9c
0x80000d9c: 00 80 05 13 addi	a0, zero, 8
è¯»å–åœ°å€ 0x80000da0
0x80000da0: 00 81 05 93 addi	a1, sp, 8
è¯»å–åœ°å€ 0x80000da4
0x80000da4: 31 00 00 ef jal	ra, 0x800010b4
è¯»å–åœ°å€ 0x800010b4
0x800010b4: 80 01 17 b7 lui	a5, 524305
è¯»å–åœ°å€ 0x800010b8
0x800010b8: 00 25 15 13 slli	a0, a0, 2
è¯»å–åœ°å€ 0x800010bc
0x800010bc: 9f 87 87 93 addi	a5, a5, -1544
è¯»å–åœ°å€ 0x800010c0
0x800010c0: 00 a7 87 b3 add	a5, a5, a0
è¯»å–åœ°å€ 0x800010c4
è¯»å–åœ°å€ 0x80010a18
0x800010c4: 00 07 a7 83 lw	a5, 0(a5)
è¯»å–åœ°å€ 0x800010c8
0x800010c8: 00 05 85 13 addi	a0, a1, 0
è¯»å–åœ°å€ 0x800010cc
0x800010cc: 00 07 80 67 jalr	zero, 0(a5)
è¯»å–åœ°å€ 0x80001134
0x80001134: a0 00 07 b7 lui	a5, 655360
è¯»å–åœ°å€ 0x80001138
read device name = keyboard 	 addr = 0xa0000060 
0x80001138: 06 07 a7 83 lw	a5, 96(a5)
è¯»å–åœ°å€ 0x8000113c
0x8000113c: 00 00 87 37 lui	a4, 8
è¯»å–åœ°å€ 0x80001140
å†™å…¥åœ°å€ 0x8009cfac
0x80001140: 00 f5 22 23 sw	a5, 4(a0)
è¯»å–åœ°å€ 0x80001144
0x80001144: 00 e7 f6 b3 and	a3, a5, a4
è¯»å–åœ°å€ 0x80001148
0x80001148: 00 06 8c 63 beq	a3, zero, 0x80001160
è¯»å–åœ°å€ 0x80001160
å†™å…¥åœ°å€ 0x8009cfa8
0x80001160: 00 05 00 23 sb	zero, 0(a0)
è¯»å–åœ°å€ 0x80001164
0x80001164: 00 00 80 67 jalr	zero, 0(ra)
è¯»å–åœ°å€ 0x80000da8
è¯»å–åœ°å€ 0x8009cfac
0x80000da8: 00 c1 26 03 lw	a2, 12(sp)
è¯»å–åœ°å€ 0x80000dac
è¯»å–åœ°å€ 0x8009cfa8
0x80000dac: 00 81 47 03 lbu	a4, 8(sp)
è¯»å–åœ°å€ 0x80000db0
0x80000db0: 18 09 05 13 addi	a0, s2, 384
è¯»å–åœ°å€ 0x80000db4
0x80000db4: 00 26 17 93 slli	a5, a2, 2
è¯»å–åœ°å€ 0x80000db8
0x80000db8: 00 f4 07 b3 add	a5, s0, a5
è¯»å–åœ°å€ 0x80000dbc
0x80000dbc: fc 06 16 e3 bne	a2, zero, 0x80000d88
è¯»å–åœ°å€ 0x80000dc0
è¯»å–åœ°å€ 0x80094e28
0x80000dc0: 00 0a c7 83 lbu	a5, 0(s5)
è¯»å–åœ°å€ 0x80000dc4
0x80000dc4: f9 1f f0 6f jal	zero, 0x80000d54
è¯»å–åœ°å€ 0x80000d54
è¯»å–åœ°å€ 0x80094e29
0x80000d54: 00 09 c7 03 lbu	a4, 0(s3)
è¯»å–åœ°å€ 0x80000d58
0x80000d58: 02 07 04 63 beq	a4, zero, 0x80000d80
è¯»å–åœ°å€ 0x80000d80
0x80000d80: 00 07 9e 63 bne	a5, zero, 0x80000d9c
è¯»å–åœ°å€ 0x80000d9c
0x80000d9c: 00 80 05 13 addi	a0, zero, 8
è¯»å–åœ°å€ 0x80000da0
0x80000da0: 00 81 05 93 addi	a1, sp, 8
è¯»å–åœ°å€ 0x80000da4
0x80000da4: 31 00 00 ef jal	ra, 0x800010b4
è¯»å–åœ°å€ 0x800010b4
0x800010b4: 80 01 17 b7 lui	a5, 524305
è¯»å–åœ°å€ 0x800010b8
0x800010b8: 00 25 15 13 slli	a0, a0, 2
è¯»å–åœ°å€ 0x800010bc
0x800010bc: 9f 87 87 93 addi	a5, a5, -1544
è¯»å–åœ°å€ 0x800010c0
0x800010c0: 00 a7 87 b3 add	a5, a5, a0
è¯»å–åœ°å€ 0x800010c4
è¯»å–åœ°å€ 0x80010a18
0x800010c4: 00 07 a7 83 lw	a5, 0(a5)
è¯»å–åœ°å€ 0x800010c8
0x800010c8: 00 05 85 13 addi	a0, a1, 0
è¯»å–åœ°å€ 0x800010cc
0x800010cc: 00 07 80 67 jalr	zero, 0(a5)
è¯»å–åœ°å€ 0x80001134
0x80001134: a0 00 07 b7 lui	a5, 655360
è¯»å–åœ°å€ 0x80001138
read device name = keyboard 	 addr = 0xa0000060 
0x80001138: 06 07 a7 83 lw	a5, 96(a5)
è¯»å–åœ°å€ 0x8000113c
0x8000113c: 00 00 87 37 lui	a4, 8
è¯»å–åœ°å€ 0x80001140
å†™å…¥åœ°å€ 0x8009cfac
0x80001140: 00 f5 22 23 sw	a5, 4(a0)
è¯»å–åœ°å€ 0x80001144
0x80001144: 00 e7 f6 b3 and	a3, a5, a4
è¯»å–åœ°å€ 0x80001148
0x80001148: 00 06 8c 63 beq	a3, zero, 0x80001160
è¯»å–åœ°å€ 0x80001160
å†™å…¥åœ°å€ 0x8009cfa8
0x80001160: 00 05 00 23 sb	zero, 0(a0)
è¯»å–åœ°å€ 0x80001164
0x80001164: 00 00 80 67 jalr	zero, 0(ra)
è¯»å–åœ°å€ 0x80000da8
è¯»å–åœ°å€ 0x8009cfac
0x80000da8: 00 c1 26 03 lw	a2, 12(sp)
è¯»å–åœ°å€ 0x80000dac
è¯»å–åœ°å€ 0x8009cfa8
0x80000dac: 00 81 47 03 lbu	a4, 8(sp)
è¯»å–åœ°å€ 0x80000db0
0x80000db0: 18 09 05 13 addi	a0, s2, 384
è¯»å–åœ°å€ 0x80000db4
0x80000db4: 00 26 17 93 slli	a5, a2, 2
è¯»å–åœ°å€ 0x80000db8
0x80000db8: 00 f4 07 b3 add	a5, s0, a5
è¯»å–åœ°å€ 0x80000dbc
0x80000dbc: fc 06 16 e3 bne	a2, zero, 0x80000d88
è¯»å–åœ°å€ 0x80000dc0
è¯»å–åœ°å€ 0x80094e28
0x80000dc0: 00 0a c7 83 lbu	a5, 0(s5)
è¯»å–åœ°å€ 0x80000dc4
0x80000dc4: f9 1f f0 6f jal	zero, 0x80000d54
è¯»å–åœ°å€ 0x80000d54
è¯»å–åœ°å€ 0x80094e29
0x80000d54: 00 09 c7 03 lbu	a4, 0(s3)
è¯»å–åœ°å€ 0x80000d58
0x80000d58: 02 07 04 63 beq	a4, zero, 0x80000d80
è¯»å–åœ°å€ 0x80000d80
0x80000d80: 00 07 9e 63 bne	a5, zero, 0x80000d9c
è¯»å–åœ°å€ 0x80000d9c
0x80000d9c: 00 80 05 13 addi	a0, zero, 8
è¯»å–åœ°å€ 0x80000da0
0x80000da0: 00 81 05 93 addi	a1, sp, 8
è¯»å–åœ°å€ 0x80000da4
0x80000da4: 31 00 00 ef jal	ra, 0x800010b4
è¯»å–åœ°å€ 0x800010b4
0x800010b4: 80 01 17 b7 lui	a5, 524305
è¯»å–åœ°å€ 0x800010b8
0x800010b8: 00 25 15 13 slli	a0, a0, 2
è¯»å–åœ°å€ 0x800010bc
0x800010bc: 9f 87 87 93 addi	a5, a5, -1544
è¯»å–åœ°å€ 0x800010c0
0x800010c0: 00 a7 87 b3 add	a5, a5, a0
è¯»å–åœ°å€ 0x800010c4
è¯»å–åœ°å€ 0x80010a18
0x800010c4: 00 07 a7 83 lw	a5, 0(a5)
è¯»å–åœ°å€ 0x800010c8
0x800010c8: 00 05 85 13 addi	a0, a1, 0
è¯»å–åœ°å€ 0x800010cc
0x800010cc: 00 07 80 67 jalr	zero, 0(a5)
è¯»å–åœ°å€ 0x80001134
0x80001134: a0 00 07 b7 lui	a5, 655360
è¯»å–åœ°å€ 0x80001138
read device name = keyboard 	 addr = 0xa0000060 
0x80001138: 06 07 a7 83 lw	a5, 96(a5)
è¯»å–åœ°å€ 0x8000113c
0x8000113c: 00 00 87 37 lui	a4, 8
è¯»å–åœ°å€ 0x80001140
å†™å…¥åœ°å€ 0x8009cfac
0x80001140: 00 f5 22 23 sw	a5, 4(a0)
è¯»å–åœ°å€ 0x80001144
0x80001144: 00 e7 f6 b3 and	a3, a5, a4
è¯»å–åœ°å€ 0x80001148
0x80001148: 00 06 8c 63 beq	a3, zero, 0x80001160
è¯»å–åœ°å€ 0x80001160
å†™å…¥åœ°å€ 0x8009cfa8
0x80001160: 00 05 00 23 sb	zero, 0(a0)
è¯»å–åœ°å€ 0x80001164
0x80001164: 00 00 80 67 jalr	zero, 0(ra)
è¯»å–åœ°å€ 0x80000da8
è¯»å–åœ°å€ 0x8009cfac
0x80000da8: 00 c1 26 03 lw	a2, 12(sp)
è¯»å–åœ°å€ 0x80000dac
è¯»å–åœ°å€ 0x8009cfa8
0x80000dac: 00 81 47 03 lbu	a4, 8(sp)
è¯»å–åœ°å€ 0x80000db0
0x80000db0: 18 09 05 13 addi	a0, s2, 384
è¯»å–åœ°å€ 0x80000db4
0x80000db4: 00 26 17 93 slli	a5, a2, 2
è¯»å–åœ°å€ 0x80000db8
0x80000db8: 00 f4 07 b3 add	a5, s0, a5
è¯»å–åœ°å€ 0x80000dbc
0x80000dbc: fc 06 16 e3 bne	a2, zero, 0x80000d88
è¯»å–åœ°å€ 0x80000dc0
è¯»å–åœ°å€ 0x80094e28
0x80000dc0: 00 0a c7 83 lbu	a5, 0(s5)
è¯»å–åœ°å€ 0x80000dc4
0x80000dc4: f9 1f f0 6f jal	zero, 0x80000d54
è¯»å–åœ°å€ 0x80000d54
è¯»å–åœ°å€ 0x80094e29
0x80000d54: 00 09 c7 03 lbu	a4, 0(s3)
è¯»å–åœ°å€ 0x80000d58
0x80000d58: 02 07 04 63 beq	a4, zero, 0x80000d80
è¯»å–åœ°å€ 0x80000d80
0x80000d80: 00 07 9e 63 bne	a5, zero, 0x80000d9c
è¯»å–åœ°å€ 0x80000d9c
0x80000d9c: 00 80 05 13 addi	a0, zero, 8
è¯»å–åœ°å€ 0x80000da0
0x80000da0: 00 81 05 93 addi	a1, sp, 8
è¯»å–åœ°å€ 0x80000da4
0x80000da4: 31 00 00 ef jal	ra, 0x800010b4
è¯»å–åœ°å€ 0x800010b4
0x800010b4: 80 01 17 b7 lui	a5, 524305
è¯»å–åœ°å€ 0x800010b8
0x800010b8: 00 25 15 13 slli	a0, a0, 2
è¯»å–åœ°å€ 0x800010bc
0x800010bc: 9f 87 87 93 addi	a5, a5, -1544
è¯»å–åœ°å€ 0x800010c0
0x800010c0: 00 a7 87 b3 add	a5, a5, a0
è¯»å–åœ°å€ 0x800010c4
è¯»å–åœ°å€ 0x80010a18
0x800010c4: 00 07 a7 83 lw	a5, 0(a5)
è¯»å–åœ°å€ 0x800010c8
0x800010c8: 00 05 85 13 addi	a0, a1, 0
è¯»å–åœ°å€ 0x800010cc
0x800010cc: 00 07 80 67 jalr	zero, 0(a5)
è¯»å–åœ°å€ 0x80001134
0x80001134: a0 00 07 b7 lui	a5, 655360
è¯»å–åœ°å€ 0x80001138
read device name = keyboard 	 addr = 0xa0000060 
0x80001138: 06 07 a7 83 lw	a5, 96(a5)
è¯»å–åœ°å€ 0x8000113c
0x8000113c: 00 00 87 37 lui	a4, 8
è¯»å–åœ°å€ 0x80001140
å†™å…¥åœ°å€ 0x8009cfac
0x80001140: 00 f5 22 23 sw	a5, 4(a0)
è¯»å–åœ°å€ 0x80001144
0x80001144: 00 e7 f6 b3 and	a3, a5, a4
è¯»å–åœ°å€ 0x80001148
0x80001148: 00 06 8c 63 beq	a3, zero, 0x80001160
è¯»å–åœ°å€ 0x80001160
å†™å…¥åœ°å€ 0x8009cfa8
0x80001160: 00 05 00 23 sb	zero, 0(a0)
è¯»å–åœ°å€ 0x80001164
0x80001164: 00 00 80 67 jalr	zero, 0(ra)
è¯»å–åœ°å€ 0x80000da8
è¯»å–åœ°å€ 0x8009cfac
0x80000da8: 00 c1 26 03 lw	a2, 12(sp)
è¯»å–åœ°å€ 0x80000dac
è¯»å–åœ°å€ 0x8009cfa8
0x80000dac: 00 81 47 03 lbu	a4, 8(sp)
è¯»å–åœ°å€ 0x80000db0
0x80000db0: 18 09 05 13 addi	a0, s2, 384
è¯»å–åœ°å€ 0x80000db4
0x80000db4: 00 26 17 93 slli	a5, a2, 2
è¯»å–åœ°å€ 0x80000db8
0x80000db8: 00 f4 07 b3 add	a5, s0, a5
è¯»å–åœ°å€ 0x80000dbc
0x80000dbc: fc 06 16 e3 bne	a2, zero, 0x80000d88
è¯»å–åœ°å€ 0x80000dc0
è¯»å–åœ°å€ 0x80094e28
0x80000dc0: 00 0a c7 83 lbu	a5, 0(s5)
è¯»å–åœ°å€ 0x80000dc4
0x80000dc4: f9 1f f0 6f jal	zero, 0x80000d54
è¯»å–åœ°å€ 0x80000d54
è¯»å–åœ°å€ 0x80094e29
0x80000d54: 00 09 c7 03 lbu	a4, 0(s3)
è¯»å–åœ°å€ 0x80000d58
0x80000d58: 02 07 04 63 beq	a4, zero, 0x80000d80
è¯»å–åœ°å€ 0x80000d80
0x80000d80: 00 07 9e 63 bne	a5, zero, 0x80000d9c
è¯»å–åœ°å€ 0x80000d9c
0x80000d9c: 00 80 05 13 addi	a0, zero, 8
è¯»å–åœ°å€ 0x80000da0
0x80000da0: 00 81 05 93 addi	a1, sp, 8
è¯»å–åœ°å€ 0x80000da4
0x80000da4: 31 00 00 ef jal	ra, 0x800010b4
è¯»å–åœ°å€ 0x800010b4
0x800010b4: 80 01 17 b7 lui	a5, 524305
è¯»å–åœ°å€ 0x800010b8
0x800010b8: 00 25 15 13 slli	a0, a0, 2
è¯»å–åœ°å€ 0x800010bc
0x800010bc: 9f 87 87 93 addi	a5, a5, -1544
è¯»å–åœ°å€ 0x800010c0
0x800010c0: 00 a7 87 b3 add	a5, a5, a0
è¯»å–åœ°å€ 0x800010c4
è¯»å–åœ°å€ 0x80010a18
0x800010c4: 00 07 a7 83 lw	a5, 0(a5)
è¯»å–åœ°å€ 0x800010c8
0x800010c8: 00 05 85 13 addi	a0, a1, 0
è¯»å–åœ°å€ 0x800010cc
0x800010cc: 00 07 80 67 jalr	zero, 0(a5)
è¯»å–åœ°å€ 0x80001134
0x80001134: a0 00 07 b7 lui	a5, 655360
è¯»å–åœ°å€ 0x80001138
read device name = keyboard 	 addr = 0xa0000060 
0x80001138: 06 07 a7 83 lw	a5, 96(a5)
è¯»å–åœ°å€ 0x8000113c
0x8000113c: 00 00 87 37 lui	a4, 8
è¯»å–åœ°å€ 0x80001140
å†™å…¥åœ°å€ 0x8009cfac
0x80001140: 00 f5 22 23 sw	a5, 4(a0)
è¯»å–åœ°å€ 0x80001144
0x80001144: 00 e7 f6 b3 and	a3, a5, a4
è¯»å–åœ°å€ 0x80001148
0x80001148: 00 06 8c 63 beq	a3, zero, 0x80001160
è¯»å–åœ°å€ 0x80001160
å†™å…¥åœ°å€ 0x8009cfa8
0x80001160: 00 05 00 23 sb	zero, 0(a0)
è¯»å–åœ°å€ 0x80001164
0x80001164: 00 00 80 67 jalr	zero, 0(ra)
è¯»å–åœ°å€ 0x80000da8
è¯»å–åœ°å€ 0x8009cfac
0x80000da8: 00 c1 26 03 lw	a2, 12(sp)
è¯»å–åœ°å€ 0x80000dac
è¯»å–åœ°å€ 0x8009cfa8
0x80000dac: 00 81 47 03 lbu	a4, 8(sp)
è¯»å–åœ°å€ 0x80000db0
0x80000db0: 18 09 05 13 addi	a0, s2, 384
è¯»å–åœ°å€ 0x80000db4
0x80000db4: 00 26 17 93 slli	a5, a2, 2
è¯»å–åœ°å€ 0x80000db8
0x80000db8: 00 f4 07 b3 add	a5, s0, a5
è¯»å–åœ°å€ 0x80000dbc
0x80000dbc: fc 06 16 e3 bne	a2, zero, 0x80000d88
è¯»å–åœ°å€ 0x80000dc0
è¯»å–åœ°å€ 0x80094e28
0x80000dc0: 00 0a c7 83 lbu	a5, 0(s5)
è¯»å–åœ°å€ 0x80000dc4
0x80000dc4: f9 1f f0 6f jal	zero, 0x80000d54
è¯»å–åœ°å€ 0x80000d54
è¯»å–åœ°å€ 0x80094e29
0x80000d54: 00 09 c7 03 lbu	a4, 0(s3)
è¯»å–åœ°å€ 0x80000d58
0x80000d58: 02 07 04 63 beq	a4, zero, 0x80000d80
è¯»å–åœ°å€ 0x80000d80
0x80000d80: 00 07 9e 63 bne	a5, zero, 0x80000d9c
è¯»å–åœ°å€ 0x80000d9c
0x80000d9c: 00 80 05 13 addi	a0, zero, 8
è¯»å–åœ°å€ 0x80000da0
0x80000da0: 00 81 05 93 addi	a1, sp, 8
è¯»å–åœ°å€ 0x80000da4
0x80000da4: 31 00 00 ef jal	ra, 0x800010b4
è¯»å–åœ°å€ 0x800010b4
0x800010b4: 80 01 17 b7 lui	a5, 524305
è¯»å–åœ°å€ 0x800010b8
0x800010b8: 00 25 15 13 slli	a0, a0, 2
è¯»å–åœ°å€ 0x800010bc
0x800010bc: 9f 87 87 93 addi	a5, a5, -1544
è¯»å–åœ°å€ 0x800010c0
0x800010c0: 00 a7 87 b3 add	a5, a5, a0
è¯»å–åœ°å€ 0x800010c4
è¯»å–åœ°å€ 0x80010a18
0x800010c4: 00 07 a7 83 lw	a5, 0(a5)
è¯»å–åœ°å€ 0x800010c8
0x800010c8: 00 05 85 13 addi	a0, a1, 0
è¯»å–åœ°å€ 0x800010cc
0x800010cc: 00 07 80 67 jalr	zero, 0(a5)
è¯»å–åœ°å€ 0x80001134
0x80001134: a0 00 07 b7 lui	a5, 655360
è¯»å–åœ°å€ 0x80001138
read device name = keyboard 	 addr = 0xa0000060 
0x80001138: 06 07 a7 83 lw	a5, 96(a5)
è¯»å–åœ°å€ 0x8000113c
0x8000113c: 00 00 87 37 lui	a4, 8
è¯»å–åœ°å€ 0x80001140
å†™å…¥åœ°å€ 0x8009cfac
0x80001140: 00 f5 22 23 sw	a5, 4(a0)
è¯»å–åœ°å€ 0x80001144
0x80001144: 00 e7 f6 b3 and	a3, a5, a4
è¯»å–åœ°å€ 0x80001148
0x80001148: 00 06 8c 63 beq	a3, zero, 0x80001160
è¯»å–åœ°å€ 0x80001160
å†™å…¥åœ°å€ 0x8009cfa8
0x80001160: 00 05 00 23 sb	zero, 0(a0)
è¯»å–åœ°å€ 0x80001164
0x80001164: 00 00 80 67 jalr	zero, 0(ra)
è¯»å–åœ°å€ 0x80000da8
è¯»å–åœ°å€ 0x8009cfac
0x80000da8: 00 c1 26 03 lw	a2, 12(sp)
è¯»å–åœ°å€ 0x80000dac
è¯»å–åœ°å€ 0x8009cfa8
0x80000dac: 00 81 47 03 lbu	a4, 8(sp)
è¯»å–åœ°å€ 0x80000db0
0x80000db0: 18 09 05 13 addi	a0, s2, 384
è¯»å–åœ°å€ 0x80000db4
0x80000db4: 00 26 17 93 slli	a5, a2, 2
è¯»å–åœ°å€ 0x80000db8
0x80000db8: 00 f4 07 b3 add	a5, s0, a5
è¯»å–åœ°å€ 0x80000dbc
0x80000dbc: fc 06 16 e3 bne	a2, zero, 0x80000d88
è¯»å–åœ°å€ 0x80000dc0
è¯»å–åœ°å€ 0x80094e28
0x80000dc0: 00 0a c7 83 lbu	a5, 0(s5)
è¯»å–åœ°å€ 0x80000dc4
0x80000dc4: f9 1f f0 6f jal	zero, 0x80000d54
è¯»å–åœ°å€ 0x80000d54
è¯»å–åœ°å€ 0x80094e29
0x80000d54: 00 09 c7 03 lbu	a4, 0(s3)
è¯»å–åœ°å€ 0x80000d58
0x80000d58: 02 07 04 63 beq	a4, zero, 0x80000d80
è¯»å–åœ°å€ 0x80000d80
0x80000d80: 00 07 9e 63 bne	a5, zero, 0x80000d9c
è¯»å–åœ°å€ 0x80000d9c
0x80000d9c: 00 80 05 13 addi	a0, zero, 8
è¯»å–åœ°å€ 0x80000da0
0x80000da0: 00 81 05 93 addi	a1, sp, 8
è¯»å–åœ°å€ 0x80000da4
0x80000da4: 31 00 00 ef jal	ra, 0x800010b4
è¯»å–åœ°å€ 0x800010b4
0x800010b4: 80 01 17 b7 lui	a5, 524305
è¯»å–åœ°å€ 0x800010b8
0x800010b8: 00 25 15 13 slli	a0, a0, 2
è¯»å–åœ°å€ 0x800010bc
0x800010bc: 9f 87 87 93 addi	a5, a5, -1544
è¯»å–åœ°å€ 0x800010c0
0x800010c0: 00 a7 87 b3 add	a5, a5, a0
è¯»å–åœ°å€ 0x800010c4
è¯»å–åœ°å€ 0x80010a18
0x800010c4: 00 07 a7 83 lw	a5, 0(a5)
è¯»å–åœ°å€ 0x800010c8
0x800010c8: 00 05 85 13 addi	a0, a1, 0
è¯»å–åœ°å€ 0x800010cc
0x800010cc: 00 07 80 67 jalr	zero, 0(a5)
è¯»å–åœ°å€ 0x80001134
0x80001134: a0 00 07 b7 lui	a5, 655360
è¯»å–åœ°å€ 0x80001138
read device name = keyboard 	 addr = 0xa0000060 
0x80001138: 06 07 a7 83 lw	a5, 96(a5)
è¯»å–åœ°å€ 0x8000113c
0x8000113c: 00 00 87 37 lui	a4, 8
è¯»å–åœ°å€ 0x80001140
å†™å…¥åœ°å€ 0x8009cfac
0x80001140: 00 f5 22 23 sw	a5, 4(a0)
è¯»å–åœ°å€ 0x80001144
0x80001144: 00 e7 f6 b3 and	a3, a5, a4
è¯»å–åœ°å€ 0x80001148
0x80001148: 00 06 8c 63 beq	a3, zero, 0x80001160
è¯»å–åœ°å€ 0x80001160
å†™å…¥åœ°å€ 0x8009cfa8
0x80001160: 00 05 00 23 sb	zero, 0(a0)
è¯»å–åœ°å€ 0x80001164
0x80001164: 00 00 80 67 jalr	zero, 0(ra)
è¯»å–åœ°å€ 0x80000da8
è¯»å–åœ°å€ 0x8009cfac
0x80000da8: 00 c1 26 03 lw	a2, 12(sp)
è¯»å–åœ°å€ 0x80000dac
è¯»å–åœ°å€ 0x8009cfa8
0x80000dac: 00 81 47 03 lbu	a4, 8(sp)
è¯»å–åœ°å€ 0x80000db0
0x80000db0: 18 09 05 13 addi	a0, s2, 384
è¯»å–åœ°å€ 0x80000db4
0x80000db4: 00 26 17 93 slli	a5, a2, 2
è¯»å–åœ°å€ 0x80000db8
0x80000db8: 00 f4 07 b3 add	a5, s0, a5
è¯»å–åœ°å€ 0x80000dbc
0x80000dbc: fc 06 16 e3 bne	a2, zero, 0x80000d88
è¯»å–åœ°å€ 0x80000dc0
è¯»å–åœ°å€ 0x80094e28
0x80000dc0: 00 0a c7 83 lbu	a5, 0(s5)
è¯»å–åœ°å€ 0x80000dc4
0x80000dc4: f9 1f f0 6f jal	zero, 0x80000d54
è¯»å–åœ°å€ 0x80000d54
è¯»å–åœ°å€ 0x80094e29
0x80000d54: 00 09 c7 03 lbu	a4, 0(s3)
è¯»å–åœ°å€ 0x80000d58
0x80000d58: 02 07 04 63 beq	a4, zero, 0x80000d80
è¯»å–åœ°å€ 0x80000d80
0x80000d80: 00 07 9e 63 bne	a5, zero, 0x80000d9c
è¯»å–åœ°å€ 0x80000d9c
0x80000d9c: 00 80 05 13 addi	a0, zero, 8
è¯»å–åœ°å€ 0x80000da0
0x80000da0: 00 81 05 93 addi	a1, sp, 8
è¯»å–åœ°å€ 0x80000da4
0x80000da4: 31 00 00 ef jal	ra, 0x800010b4
è¯»å–åœ°å€ 0x800010b4
0x800010b4: 80 01 17 b7 lui	a5, 524305
è¯»å–åœ°å€ 0x800010b8
0x800010b8: 00 25 15 13 slli	a0, a0, 2
è¯»å–åœ°å€ 0x800010bc
0x800010bc: 9f 87 87 93 addi	a5, a5, -1544
è¯»å–åœ°å€ 0x800010c0
0x800010c0: 00 a7 87 b3 add	a5, a5, a0
è¯»å–åœ°å€ 0x800010c4
è¯»å–åœ°å€ 0x80010a18
0x800010c4: 00 07 a7 83 lw	a5, 0(a5)
è¯»å–åœ°å€ 0x800010c8
0x800010c8: 00 05 85 13 addi	a0, a1, 0
è¯»å–åœ°å€ 0x800010cc
0x800010cc: 00 07 80 67 jalr	zero, 0(a5)
è¯»å–åœ°å€ 0x80001134
0x80001134: a0 00 07 b7 lui	a5, 655360
è¯»å–åœ°å€ 0x80001138
read device name = keyboard 	 addr = 0xa0000060 
0x80001138: 06 07 a7 83 lw	a5, 96(a5)
è¯»å–åœ°å€ 0x8000113c
0x8000113c: 00 00 87 37 lui	a4, 8
è¯»å–åœ°å€ 0x80001140
å†™å…¥åœ°å€ 0x8009cfac
0x80001140: 00 f5 22 23 sw	a5, 4(a0)
è¯»å–åœ°å€ 0x80001144
0x80001144: 00 e7 f6 b3 and	a3, a5, a4
è¯»å–åœ°å€ 0x80001148
0x80001148: 00 06 8c 63 beq	a3, zero, 0x80001160
è¯»å–åœ°å€ 0x80001160
å†™å…¥åœ°å€ 0x8009cfa8
0x80001160: 00 05 00 23 sb	zero, 0(a0)
è¯»å–åœ°å€ 0x80001164
0x80001164: 00 00 80 67 jalr	zero, 0(ra)
è¯»å–åœ°å€ 0x80000da8
è¯»å–åœ°å€ 0x8009cfac
0x80000da8: 00 c1 26 03 lw	a2, 12(sp)
è¯»å–åœ°å€ 0x80000dac
è¯»å–åœ°å€ 0x8009cfa8
0x80000dac: 00 81 47 03 lbu	a4, 8(sp)
è¯»å–åœ°å€ 0x80000db0
0x80000db0: 18 09 05 13 addi	a0, s2, 384
è¯»å–åœ°å€ 0x80000db4
0x80000db4: 00 26 17 93 slli	a5, a2, 2
è¯»å–åœ°å€ 0x80000db8
0x80000db8: 00 f4 07 b3 add	a5, s0, a5
è¯»å–åœ°å€ 0x80000dbc
0x80000dbc: fc 06 16 e3 bne	a2, zero, 0x80000d88
è¯»å–åœ°å€ 0x80000dc0
è¯»å–åœ°å€ 0x80094e28
0x80000dc0: 00 0a c7 83 lbu	a5, 0(s5)
è¯»å–åœ°å€ 0x80000dc4
0x80000dc4: f9 1f f0 6f jal	zero, 0x80000d54
è¯»å–åœ°å€ 0x80000d54
è¯»å–åœ°å€ 0x80094e29
0x80000d54: 00 09 c7 03 lbu	a4, 0(s3)
è¯»å–åœ°å€ 0x80000d58
0x80000d58: 02 07 04 63 beq	a4, zero, 0x80000d80
è¯»å–åœ°å€ 0x80000d80
0x80000d80: 00 07 9e 63 bne	a5, zero, 0x80000d9c
è¯»å–åœ°å€ 0x80000d9c
0x80000d9c: 00 80 05 13 addi	a0, zero, 8
è¯»å–åœ°å€ 0x80000da0
0x80000da0: 00 81 05 93 addi	a1, sp, 8
è¯»å–åœ°å€ 0x80000da4
0x80000da4: 31 00 00 ef jal	ra, 0x800010b4
è¯»å–åœ°å€ 0x800010b4
0x800010b4: 80 01 17 b7 lui	a5, 524305
è¯»å–åœ°å€ 0x800010b8
0x800010b8: 00 25 15 13 slli	a0, a0, 2
è¯»å–åœ°å€ 0x800010bc
0x800010bc: 9f 87 87 93 addi	a5, a5, -1544
è¯»å–åœ°å€ 0x800010c0
0x800010c0: 00 a7 87 b3 add	a5, a5, a0
è¯»å–åœ°å€ 0x800010c4
è¯»å–åœ°å€ 0x80010a18
0x800010c4: 00 07 a7 83 lw	a5, 0(a5)
è¯»å–åœ°å€ 0x800010c8
0x800010c8: 00 05 85 13 addi	a0, a1, 0
è¯»å–åœ°å€ 0x800010cc
0x800010cc: 00 07 80 67 jalr	zero, 0(a5)
è¯»å–åœ°å€ 0x80001134
0x80001134: a0 00 07 b7 lui	a5, 655360
è¯»å–åœ°å€ 0x80001138
read device name = keyboard 	 addr = 0xa0000060 
0x80001138: 06 07 a7 83 lw	a5, 96(a5)
è¯»å–åœ°å€ 0x8000113c
0x8000113c: 00 00 87 37 lui	a4, 8
è¯»å–åœ°å€ 0x80001140
å†™å…¥åœ°å€ 0x8009cfac
0x80001140: 00 f5 22 23 sw	a5, 4(a0)
è¯»å–åœ°å€ 0x80001144
0x80001144: 00 e7 f6 b3 and	a3, a5, a4
è¯»å–åœ°å€ 0x80001148
0x80001148: 00 06 8c 63 beq	a3, zero, 0x80001160
è¯»å–åœ°å€ 0x80001160
å†™å…¥åœ°å€ 0x8009cfa8
0x80001160: 00 05 00 23 sb	zero, 0(a0)
è¯»å–åœ°å€ 0x80001164
0x80001164: 00 00 80 67 jalr	zero, 0(ra)
è¯»å–åœ°å€ 0x80000da8
è¯»å–åœ°å€ 0x8009cfac
0x80000da8: 00 c1 26 03 lw	a2, 12(sp)
è¯»å–åœ°å€ 0x80000dac
è¯»å–åœ°å€ 0x8009cfa8
0x80000dac: 00 81 47 03 lbu	a4, 8(sp)
è¯»å–åœ°å€ 0x80000db0
0x80000db0: 18 09 05 13 addi	a0, s2, 384
è¯»å–åœ°å€ 0x80000db4
0x80000db4: 00 26 17 93 slli	a5, a2, 2
è¯»å–åœ°å€ 0x80000db8
0x80000db8: 00 f4 07 b3 add	a5, s0, a5
è¯»å–åœ°å€ 0x80000dbc
0x80000dbc: fc 06 16 e3 bne	a2, zero, 0x80000d88
è¯»å–åœ°å€ 0x80000dc0
è¯»å–åœ°å€ 0x80094e28
0x80000dc0: 00 0a c7 83 lbu	a5, 0(s5)
è¯»å–åœ°å€ 0x80000dc4
0x80000dc4: f9 1f f0 6f jal	zero, 0x80000d54
è¯»å–åœ°å€ 0x80000d54
è¯»å–åœ°å€ 0x80094e29
0x80000d54: 00 09 c7 03 lbu	a4, 0(s3)
è¯»å–åœ°å€ 0x80000d58
0x80000d58: 02 07 04 63 beq	a4, zero, 0x80000d80
è¯»å–åœ°å€ 0x80000d80
0x80000d80: 00 07 9e 63 bne	a5, zero, 0x80000d9c
è¯»å–åœ°å€ 0x80000d9c
0x80000d9c: 00 80 05 13 addi	a0, zero, 8
è¯»å–åœ°å€ 0x80000da0
0x80000da0: 00 81 05 93 addi	a1, sp, 8
è¯»å–åœ°å€ 0x80000da4
0x80000da4: 31 00 00 ef jal	ra, 0x800010b4
è¯»å–åœ°å€ 0x800010b4
0x800010b4: 80 01 17 b7 lui	a5, 524305
è¯»å–åœ°å€ 0x800010b8
0x800010b8: 00 25 15 13 slli	a0, a0, 2
è¯»å–åœ°å€ 0x800010bc
0x800010bc: 9f 87 87 93 addi	a5, a5, -1544
è¯»å–åœ°å€ 0x800010c0
0x800010c0: 00 a7 87 b3 add	a5, a5, a0
è¯»å–åœ°å€ 0x800010c4
è¯»å–åœ°å€ 0x80010a18
0x800010c4: 00 07 a7 83 lw	a5, 0(a5)
è¯»å–åœ°å€ 0x800010c8
0x800010c8: 00 05 85 13 addi	a0, a1, 0
è¯»å–åœ°å€ 0x800010cc
0x800010cc: 00 07 80 67 jalr	zero, 0(a5)
è¯»å–åœ°å€ 0x80001134
0x80001134: a0 00 07 b7 lui	a5, 655360
è¯»å–åœ°å€ 0x80001138
read device name = keyboard 	 addr = 0xa0000060 
0x80001138: 06 07 a7 83 lw	a5, 96(a5)
è¯»å–åœ°å€ 0x8000113c
0x8000113c: 00 00 87 37 lui	a4, 8
è¯»å–åœ°å€ 0x80001140
å†™å…¥åœ°å€ 0x8009cfac
0x80001140: 00 f5 22 23 sw	a5, 4(a0)
è¯»å–åœ°å€ 0x80001144
0x80001144: 00 e7 f6 b3 and	a3, a5, a4
è¯»å–åœ°å€ 0x80001148
0x80001148: 00 06 8c 63 beq	a3, zero, 0x80001160
è¯»å–åœ°å€ 0x80001160
å†™å…¥åœ°å€ 0x8009cfa8
0x80001160: 00 05 00 23 sb	zero, 0(a0)
è¯»å–åœ°å€ 0x80001164
0x80001164: 00 00 80 67 jalr	zero, 0(ra)
è¯»å–åœ°å€ 0x80000da8
è¯»å–åœ°å€ 0x8009cfac
0x80000da8: 00 c1 26 03 lw	a2, 12(sp)
è¯»å–åœ°å€ 0x80000dac
è¯»å–åœ°å€ 0x8009cfa8
0x80000dac: 00 81 47 03 lbu	a4, 8(sp)
è¯»å–åœ°å€ 0x80000db0
0x80000db0: 18 09 05 13 addi	a0, s2, 384
è¯»å–åœ°å€ 0x80000db4
0x80000db4: 00 26 17 93 slli	a5, a2, 2
è¯»å–åœ°å€ 0x80000db8
0x80000db8: 00 f4 07 b3 add	a5, s0, a5
è¯»å–åœ°å€ 0x80000dbc
0x80000dbc: fc 06 16 e3 bne	a2, zero, 0x80000d88
è¯»å–åœ°å€ 0x80000dc0
è¯»å–åœ°å€ 0x80094e28
0x80000dc0: 00 0a c7 83 lbu	a5, 0(s5)
è¯»å–åœ°å€ 0x80000dc4
0x80000dc4: f9 1f f0 6f jal	zero, 0x80000d54
è¯»å–åœ°å€ 0x80000d54
è¯»å–åœ°å€ 0x80094e29
0x80000d54: 00 09 c7 03 lbu	a4, 0(s3)
è¯»å–åœ°å€ 0x80000d58
0x80000d58: 02 07 04 63 beq	a4, zero, 0x80000d80
è¯»å–åœ°å€ 0x80000d80
0x80000d80: 00 07 9e 63 bne	a5, zero, 0x80000d9c
è¯»å–åœ°å€ 0x80000d9c
0x80000d9c: 00 80 05 13 addi	a0, zero, 8
è¯»å–åœ°å€ 0x80000da0
0x80000da0: 00 81 05 93 addi	a1, sp, 8
è¯»å–åœ°å€ 0x80000da4
0x80000da4: 31 00 00 ef jal	ra, 0x800010b4
è¯»å–åœ°å€ 0x800010b4
0x800010b4: 80 01 17 b7 lui	a5, 524305
è¯»å–åœ°å€ 0x800010b8
0x800010b8: 00 25 15 13 slli	a0, a0, 2
è¯»å–åœ°å€ 0x800010bc
0x800010bc: 9f 87 87 93 addi	a5, a5, -1544
è¯»å–åœ°å€ 0x800010c0
0x800010c0: 00 a7 87 b3 add	a5, a5, a0
è¯»å–åœ°å€ 0x800010c4
è¯»å–åœ°å€ 0x80010a18
0x800010c4: 00 07 a7 83 lw	a5, 0(a5)
è¯»å–åœ°å€ 0x800010c8
0x800010c8: 00 05 85 13 addi	a0, a1, 0
è¯»å–åœ°å€ 0x800010cc
0x800010cc: 00 07 80 67 jalr	zero, 0(a5)
è¯»å–åœ°å€ 0x80001134
0x80001134: a0 00 07 b7 lui	a5, 655360
è¯»å–åœ°å€ 0x80001138
read device name = keyboard 	 addr = 0xa0000060 
0x80001138: 06 07 a7 83 lw	a5, 96(a5)
è¯»å–åœ°å€ 0x8000113c
0x8000113c: 00 00 87 37 lui	a4, 8
è¯»å–åœ°å€ 0x80001140
å†™å…¥åœ°å€ 0x8009cfac
0x80001140: 00 f5 22 23 sw	a5, 4(a0)
è¯»å–åœ°å€ 0x80001144
0x80001144: 00 e7 f6 b3 and	a3, a5, a4
è¯»å–åœ°å€ 0x80001148
0x80001148: 00 06 8c 63 beq	a3, zero, 0x80001160
è¯»å–åœ°å€ 0x80001160
å†™å…¥åœ°å€ 0x8009cfa8
0x80001160: 00 05 00 23 sb	zero, 0(a0)
è¯»å–åœ°å€ 0x80001164
0x80001164: 00 00 80 67 jalr	zero, 0(ra)
è¯»å–åœ°å€ 0x80000da8
è¯»å–åœ°å€ 0x8009cfac
0x80000da8: 00 c1 26 03 lw	a2, 12(sp)
è¯»å–åœ°å€ 0x80000dac
è¯»å–åœ°å€ 0x8009cfa8
0x80000dac: 00 81 47 03 lbu	a4, 8(sp)
è¯»å–åœ°å€ 0x80000db0
0x80000db0: 18 09 05 13 addi	a0, s2, 384
è¯»å–åœ°å€ 0x80000db4
0x80000db4: 00 26 17 93 slli	a5, a2, 2
è¯»å–åœ°å€ 0x80000db8
0x80000db8: 00 f4 07 b3 add	a5, s0, a5
è¯»å–åœ°å€ 0x80000dbc
0x80000dbc: fc 06 16 e3 bne	a2, zero, 0x80000d88
è¯»å–åœ°å€ 0x80000dc0
è¯»å–åœ°å€ 0x80094e28
0x80000dc0: 00 0a c7 83 lbu	a5, 0(s5)
è¯»å–åœ°å€ 0x80000dc4
0x80000dc4: f9 1f f0 6f jal	zero, 0x80000d54
è¯»å–åœ°å€ 0x80000d54
è¯»å–åœ°å€ 0x80094e29
0x80000d54: 00 09 c7 03 lbu	a4, 0(s3)
è¯»å–åœ°å€ 0x80000d58
0x80000d58: 02 07 04 63 beq	a4, zero, 0x80000d80
è¯»å–åœ°å€ 0x80000d80
0x80000d80: 00 07 9e 63 bne	a5, zero, 0x80000d9c
è¯»å–åœ°å€ 0x80000d9c
0x80000d9c: 00 80 05 13 addi	a0, zero, 8
è¯»å–åœ°å€ 0x80000da0
0x80000da0: 00 81 05 93 addi	a1, sp, 8
è¯»å–åœ°å€ 0x80000da4
0x80000da4: 31 00 00 ef jal	ra, 0x800010b4
è¯»å–åœ°å€ 0x800010b4
0x800010b4: 80 01 17 b7 lui	a5, 524305
è¯»å–åœ°å€ 0x800010b8
0x800010b8: 00 25 15 13 slli	a0, a0, 2
è¯»å–åœ°å€ 0x800010bc
0x800010bc: 9f 87 87 93 addi	a5, a5, -1544
è¯»å–åœ°å€ 0x800010c0
0x800010c0: 00 a7 87 b3 add	a5, a5, a0
è¯»å–åœ°å€ 0x800010c4
è¯»å–åœ°å€ 0x80010a18
0x800010c4: 00 07 a7 83 lw	a5, 0(a5)
è¯»å–åœ°å€ 0x800010c8
0x800010c8: 00 05 85 13 addi	a0, a1, 0
è¯»å–åœ°å€ 0x800010cc
0x800010cc: 00 07 80 67 jalr	zero, 0(a5)
è¯»å–åœ°å€ 0x80001134
0x80001134: a0 00 07 b7 lui	a5, 655360
è¯»å–åœ°å€ 0x80001138
read device name = keyboard 	 addr = 0xa0000060 
0x80001138: 06 07 a7 83 lw	a5, 96(a5)
è¯»å–åœ°å€ 0x8000113c
0x8000113c: 00 00 87 37 lui	a4, 8
è¯»å–åœ°å€ 0x80001140
å†™å…¥åœ°å€ 0x8009cfac
0x80001140: 00 f5 22 23 sw	a5, 4(a0)
è¯»å–åœ°å€ 0x80001144
0x80001144: 00 e7 f6 b3 and	a3, a5, a4
è¯»å–åœ°å€ 0x80001148
0x80001148: 00 06 8c 63 beq	a3, zero, 0x80001160
è¯»å–åœ°å€ 0x80001160
å†™å…¥åœ°å€ 0x8009cfa8
0x80001160: 00 05 00 23 sb	zero, 0(a0)
è¯»å–åœ°å€ 0x80001164
0x80001164: 00 00 80 67 jalr	zero, 0(ra)
è¯»å–åœ°å€ 0x80000da8
è¯»å–åœ°å€ 0x8009cfac
0x80000da8: 00 c1 26 03 lw	a2, 12(sp)
è¯»å–åœ°å€ 0x80000dac
è¯»å–åœ°å€ 0x8009cfa8
0x80000dac: 00 81 47 03 lbu	a4, 8(sp)
è¯»å–åœ°å€ 0x80000db0
0x80000db0: 18 09 05 13 addi	a0, s2, 384
è¯»å–åœ°å€ 0x80000db4
0x80000db4: 00 26 17 93 slli	a5, a2, 2
è¯»å–åœ°å€ 0x80000db8
0x80000db8: 00 f4 07 b3 add	a5, s0, a5
è¯»å–åœ°å€ 0x80000dbc
0x80000dbc: fc 06 16 e3 bne	a2, zero, 0x80000d88
è¯»å–åœ°å€ 0x80000dc0
è¯»å–åœ°å€ 0x80094e28
0x80000dc0: 00 0a c7 83 lbu	a5, 0(s5)
è¯»å–åœ°å€ 0x80000dc4
0x80000dc4: f9 1f f0 6f jal	zero, 0x80000d54
è¯»å–åœ°å€ 0x80000d54
è¯»å–åœ°å€ 0x80094e29
0x80000d54: 00 09 c7 03 lbu	a4, 0(s3)
è¯»å–åœ°å€ 0x80000d58
0x80000d58: 02 07 04 63 beq	a4, zero, 0x80000d80
è¯»å–åœ°å€ 0x80000d80
0x80000d80: 00 07 9e 63 bne	a5, zero, 0x80000d9c
è¯»å–åœ°å€ 0x80000d9c
0x80000d9c: 00 80 05 13 addi	a0, zero, 8
è¯»å–åœ°å€ 0x80000da0
0x80000da0: 00 81 05 93 addi	a1, sp, 8
è¯»å–åœ°å€ 0x80000da4
0x80000da4: 31 00 00 ef jal	ra, 0x800010b4
è¯»å–åœ°å€ 0x800010b4
0x800010b4: 80 01 17 b7 lui	a5, 524305
è¯»å–åœ°å€ 0x800010b8
0x800010b8: 00 25 15 13 slli	a0, a0, 2
è¯»å–åœ°å€ 0x800010bc
0x800010bc: 9f 87 87 93 addi	a5, a5, -1544
è¯»å–åœ°å€ 0x800010c0
0x800010c0: 00 a7 87 b3 add	a5, a5, a0
è¯»å–åœ°å€ 0x800010c4
è¯»å–åœ°å€ 0x80010a18
0x800010c4: 00 07 a7 83 lw	a5, 0(a5)
è¯»å–åœ°å€ 0x800010c8
0x800010c8: 00 05 85 13 addi	a0, a1, 0
è¯»å–åœ°å€ 0x800010cc
0x800010cc: 00 07 80 67 jalr	zero, 0(a5)
è¯»å–åœ°å€ 0x80001134
0x80001134: a0 00 07 b7 lui	a5, 655360
è¯»å–åœ°å€ 0x80001138
read device name = keyboard 	 addr = 0xa0000060 
0x80001138: 06 07 a7 83 lw	a5, 96(a5)
è¯»å–åœ°å€ 0x8000113c
0x8000113c: 00 00 87 37 lui	a4, 8
è¯»å–åœ°å€ 0x80001140
å†™å…¥åœ°å€ 0x8009cfac
0x80001140: 00 f5 22 23 sw	a5, 4(a0)
è¯»å–åœ°å€ 0x80001144
0x80001144: 00 e7 f6 b3 and	a3, a5, a4
è¯»å–åœ°å€ 0x80001148
0x80001148: 00 06 8c 63 beq	a3, zero, 0x80001160
è¯»å–åœ°å€ 0x80001160
å†™å…¥åœ°å€ 0x8009cfa8
0x80001160: 00 05 00 23 sb	zero, 0(a0)
è¯»å–åœ°å€ 0x80001164
0x80001164: 00 00 80 67 jalr	zero, 0(ra)
è¯»å–åœ°å€ 0x80000da8
è¯»å–åœ°å€ 0x8009cfac
0x80000da8: 00 c1 26 03 lw	a2, 12(sp)
è¯»å–åœ°å€ 0x80000dac
è¯»å–åœ°å€ 0x8009cfa8
0x80000dac: 00 81 47 03 lbu	a4, 8(sp)
è¯»å–åœ°å€ 0x80000db0
0x80000db0: 18 09 05 13 addi	a0, s2, 384
è¯»å–åœ°å€ 0x80000db4
0x80000db4: 00 26 17 93 slli	a5, a2, 2
è¯»å–åœ°å€ 0x80000db8
0x80000db8: 00 f4 07 b3 add	a5, s0, a5
è¯»å–åœ°å€ 0x80000dbc
0x80000dbc: fc 06 16 e3 bne	a2, zero, 0x80000d88
è¯»å–åœ°å€ 0x80000dc0
è¯»å–åœ°å€ 0x80094e28
0x80000dc0: 00 0a c7 83 lbu	a5, 0(s5)
è¯»å–åœ°å€ 0x80000dc4
0x80000dc4: f9 1f f0 6f jal	zero, 0x80000d54
è¯»å–åœ°å€ 0x80000d54
è¯»å–åœ°å€ 0x80094e29
0x80000d54: 00 09 c7 03 lbu	a4, 0(s3)
è¯»å–åœ°å€ 0x80000d58
0x80000d58: 02 07 04 63 beq	a4, zero, 0x80000d80
è¯»å–åœ°å€ 0x80000d80
0x80000d80: 00 07 9e 63 bne	a5, zero, 0x80000d9c
è¯»å–åœ°å€ 0x80000d9c
0x80000d9c: 00 80 05 13 addi	a0, zero, 8
è¯»å–åœ°å€ 0x80000da0
0x80000da0: 00 81 05 93 addi	a1, sp, 8
è¯»å–åœ°å€ 0x80000da4
0x80000da4: 31 00 00 ef jal	ra, 0x800010b4
è¯»å–åœ°å€ 0x800010b4
0x800010b4: 80 01 17 b7 lui	a5, 524305
è¯»å–åœ°å€ 0x800010b8
0x800010b8: 00 25 15 13 slli	a0, a0, 2
è¯»å–åœ°å€ 0x800010bc
0x800010bc: 9f 87 87 93 addi	a5, a5, -1544
è¯»å–åœ°å€ 0x800010c0
0x800010c0: 00 a7 87 b3 add	a5, a5, a0
è¯»å–åœ°å€ 0x800010c4
è¯»å–åœ°å€ 0x80010a18
0x800010c4: 00 07 a7 83 lw	a5, 0(a5)
è¯»å–åœ°å€ 0x800010c8
0x800010c8: 00 05 85 13 addi	a0, a1, 0
è¯»å–åœ°å€ 0x800010cc
0x800010cc: 00 07 80 67 jalr	zero, 0(a5)
è¯»å–åœ°å€ 0x80001134
0x80001134: a0 00 07 b7 lui	a5, 655360
è¯»å–åœ°å€ 0x80001138
read device name = keyboard 	 addr = 0xa0000060 
0x80001138: 06 07 a7 83 lw	a5, 96(a5)
è¯»å–åœ°å€ 0x8000113c
0x8000113c: 00 00 87 37 lui	a4, 8
è¯»å–åœ°å€ 0x80001140
å†™å…¥åœ°å€ 0x8009cfac
0x80001140: 00 f5 22 23 sw	a5, 4(a0)
è¯»å–åœ°å€ 0x80001144
0x80001144: 00 e7 f6 b3 and	a3, a5, a4
è¯»å–åœ°å€ 0x80001148
0x80001148: 00 06 8c 63 beq	a3, zero, 0x80001160
è¯»å–åœ°å€ 0x80001160
å†™å…¥åœ°å€ 0x8009cfa8
0x80001160: 00 05 00 23 sb	zero, 0(a0)
è¯»å–åœ°å€ 0x80001164
0x80001164: 00 00 80 67 jalr	zero, 0(ra)
è¯»å–åœ°å€ 0x80000da8
è¯»å–åœ°å€ 0x8009cfac
0x80000da8: 00 c1 26 03 lw	a2, 12(sp)
è¯»å–åœ°å€ 0x80000dac
è¯»å–åœ°å€ 0x8009cfa8
0x80000dac: 00 81 47 03 lbu	a4, 8(sp)
è¯»å–åœ°å€ 0x80000db0
0x80000db0: 18 09 05 13 addi	a0, s2, 384
è¯»å–åœ°å€ 0x80000db4
0x80000db4: 00 26 17 93 slli	a5, a2, 2
è¯»å–åœ°å€ 0x80000db8
0x80000db8: 00 f4 07 b3 add	a5, s0, a5
è¯»å–åœ°å€ 0x80000dbc
0x80000dbc: fc 06 16 e3 bne	a2, zero, 0x80000d88
è¯»å–åœ°å€ 0x80000dc0
è¯»å–åœ°å€ 0x80094e28
0x80000dc0: 00 0a c7 83 lbu	a5, 0(s5)
è¯»å–åœ°å€ 0x80000dc4
0x80000dc4: f9 1f f0 6f jal	zero, 0x80000d54
è¯»å–åœ°å€ 0x80000d54
è¯»å–åœ°å€ 0x80094e29
0x80000d54: 00 09 c7 03 lbu	a4, 0(s3)
è¯»å–åœ°å€ 0x80000d58
0x80000d58: 02 07 04 63 beq	a4, zero, 0x80000d80
è¯»å–åœ°å€ 0x80000d80
0x80000d80: 00 07 9e 63 bne	a5, zero, 0x80000d9c
è¯»å–åœ°å€ 0x80000d9c
0x80000d9c: 00 80 05 13 addi	a0, zero, 8
è¯»å–åœ°å€ 0x80000da0
0x80000da0: 00 81 05 93 addi	a1, sp, 8
è¯»å–åœ°å€ 0x80000da4
0x80000da4: 31 00 00 ef jal	ra, 0x800010b4
è¯»å–åœ°å€ 0x800010b4
0x800010b4: 80 01 17 b7 lui	a5, 524305
è¯»å–åœ°å€ 0x800010b8
0x800010b8: 00 25 15 13 slli	a0, a0, 2
è¯»å–åœ°å€ 0x800010bc
0x800010bc: 9f 87 87 93 addi	a5, a5, -1544
è¯»å–åœ°å€ 0x800010c0
0x800010c0: 00 a7 87 b3 add	a5, a5, a0
è¯»å–åœ°å€ 0x800010c4
è¯»å–åœ°å€ 0x80010a18
0x800010c4: 00 07 a7 83 lw	a5, 0(a5)
è¯»å–åœ°å€ 0x800010c8
0x800010c8: 00 05 85 13 addi	a0, a1, 0
è¯»å–åœ°å€ 0x800010cc
0x800010cc: 00 07 80 67 jalr	zero, 0(a5)
è¯»å–åœ°å€ 0x80001134
0x80001134: a0 00 07 b7 lui	a5, 655360
è¯»å–åœ°å€ 0x80001138
read device name = keyboard 	 addr = 0xa0000060 
0x80001138: 06 07 a7 83 lw	a5, 96(a5)
è¯»å–åœ°å€ 0x8000113c
0x8000113c: 00 00 87 37 lui	a4, 8
è¯»å–åœ°å€ 0x80001140
å†™å…¥åœ°å€ 0x8009cfac
0x80001140: 00 f5 22 23 sw	a5, 4(a0)
è¯»å–åœ°å€ 0x80001144
0x80001144: 00 e7 f6 b3 and	a3, a5, a4
è¯»å–åœ°å€ 0x80001148
0x80001148: 00 06 8c 63 beq	a3, zero, 0x80001160
è¯»å–åœ°å€ 0x80001160
å†™å…¥åœ°å€ 0x8009cfa8
0x80001160: 00 05 00 23 sb	zero, 0(a0)
è¯»å–åœ°å€ 0x80001164
0x80001164: 00 00 80 67 jalr	zero, 0(ra)
è¯»å–åœ°å€ 0x80000da8
è¯»å–åœ°å€ 0x8009cfac
0x80000da8: 00 c1 26 03 lw	a2, 12(sp)
è¯»å–åœ°å€ 0x80000dac
è¯»å–åœ°å€ 0x8009cfa8
0x80000dac: 00 81 47 03 lbu	a4, 8(sp)
è¯»å–åœ°å€ 0x80000db0
0x80000db0: 18 09 05 13 addi	a0, s2, 384
è¯»å–åœ°å€ 0x80000db4
0x80000db4: 00 26 17 93 slli	a5, a2, 2
è¯»å–åœ°å€ 0x80000db8
0x80000db8: 00 f4 07 b3 add	a5, s0, a5
è¯»å–åœ°å€ 0x80000dbc
0x80000dbc: fc 06 16 e3 bne	a2, zero, 0x80000d88
è¯»å–åœ°å€ 0x80000dc0
è¯»å–åœ°å€ 0x80094e28
0x80000dc0: 00 0a c7 83 lbu	a5, 0(s5)
è¯»å–åœ°å€ 0x80000dc4
0x80000dc4: f9 1f f0 6f jal	zero, 0x80000d54
è¯»å–åœ°å€ 0x80000d54
è¯»å–åœ°å€ 0x80094e29
0x80000d54: 00 09 c7 03 lbu	a4, 0(s3)
è¯»å–åœ°å€ 0x80000d58
0x80000d58: 02 07 04 63 beq	a4, zero, 0x80000d80
è¯»å–åœ°å€ 0x80000d80
0x80000d80: 00 07 9e 63 bne	a5, zero, 0x80000d9c
è¯»å–åœ°å€ 0x80000d9c
0x80000d9c: 00 80 05 13 addi	a0, zero, 8
è¯»å–åœ°å€ 0x80000da0
0x80000da0: 00 81 05 93 addi	a1, sp, 8
è¯»å–åœ°å€ 0x80000da4
0x80000da4: 31 00 00 ef jal	ra, 0x800010b4
è¯»å–åœ°å€ 0x800010b4
0x800010b4: 80 01 17 b7 lui	a5, 524305
è¯»å–åœ°å€ 0x800010b8
0x800010b8: 00 25 15 13 slli	a0, a0, 2
è¯»å–åœ°å€ 0x800010bc
0x800010bc: 9f 87 87 93 addi	a5, a5, -1544
è¯»å–åœ°å€ 0x800010c0
0x800010c0: 00 a7 87 b3 add	a5, a5, a0
è¯»å–åœ°å€ 0x800010c4
è¯»å–åœ°å€ 0x80010a18
0x800010c4: 00 07 a7 83 lw	a5, 0(a5)
è¯»å–åœ°å€ 0x800010c8
0x800010c8: 00 05 85 13 addi	a0, a1, 0
è¯»å–åœ°å€ 0x800010cc
0x800010cc: 00 07 80 67 jalr	zero, 0(a5)
è¯»å–åœ°å€ 0x80001134
0x80001134: a0 00 07 b7 lui	a5, 655360
è¯»å–åœ°å€ 0x80001138
read device name = keyboard 	 addr = 0xa0000060 
0x80001138: 06 07 a7 83 lw	a5, 96(a5)
è¯»å–åœ°å€ 0x8000113c
0x8000113c: 00 00 87 37 lui	a4, 8
è¯»å–åœ°å€ 0x80001140
å†™å…¥åœ°å€ 0x8009cfac
0x80001140: 00 f5 22 23 sw	a5, 4(a0)
è¯»å–åœ°å€ 0x80001144
0x80001144: 00 e7 f6 b3 and	a3, a5, a4
è¯»å–åœ°å€ 0x80001148
0x80001148: 00 06 8c 63 beq	a3, zero, 0x80001160
è¯»å–åœ°å€ 0x80001160
å†™å…¥åœ°å€ 0x8009cfa8
0x80001160: 00 05 00 23 sb	zero, 0(a0)
è¯»å–åœ°å€ 0x80001164
0x80001164: 00 00 80 67 jalr	zero, 0(ra)
è¯»å–åœ°å€ 0x80000da8
è¯»å–åœ°å€ 0x8009cfac
0x80000da8: 00 c1 26 03 lw	a2, 12(sp)
è¯»å–åœ°å€ 0x80000dac
è¯»å–åœ°å€ 0x8009cfa8
0x80000dac: 00 81 47 03 lbu	a4, 8(sp)
è¯»å–åœ°å€ 0x80000db0
0x80000db0: 18 09 05 13 addi	a0, s2, 384
è¯»å–åœ°å€ 0x80000db4
0x80000db4: 00 26 17 93 slli	a5, a2, 2
è¯»å–åœ°å€ 0x80000db8
0x80000db8: 00 f4 07 b3 add	a5, s0, a5
è¯»å–åœ°å€ 0x80000dbc
0x80000dbc: fc 06 16 e3 bne	a2, zero, 0x80000d88
è¯»å–åœ°å€ 0x80000dc0
è¯»å–åœ°å€ 0x80094e28
0x80000dc0: 00 0a c7 83 lbu	a5, 0(s5)
è¯»å–åœ°å€ 0x80000dc4
0x80000dc4: f9 1f f0 6f jal	zero, 0x80000d54
è¯»å–åœ°å€ 0x80000d54
è¯»å–åœ°å€ 0x80094e29
0x80000d54: 00 09 c7 03 lbu	a4, 0(s3)
è¯»å–åœ°å€ 0x80000d58
0x80000d58: 02 07 04 63 beq	a4, zero, 0x80000d80
è¯»å–åœ°å€ 0x80000d80
0x80000d80: 00 07 9e 63 bne	a5, zero, 0x80000d9c
è¯»å–åœ°å€ 0x80000d9c
0x80000d9c: 00 80 05 13 addi	a0, zero, 8
è¯»å–åœ°å€ 0x80000da0
0x80000da0: 00 81 05 93 addi	a1, sp, 8
è¯»å–åœ°å€ 0x80000da4
0x80000da4: 31 00 00 ef jal	ra, 0x800010b4
è¯»å–åœ°å€ 0x800010b4
0x800010b4: 80 01 17 b7 lui	a5, 524305
è¯»å–åœ°å€ 0x800010b8
0x800010b8: 00 25 15 13 slli	a0, a0, 2
è¯»å–åœ°å€ 0x800010bc
0x800010bc: 9f 87 87 93 addi	a5, a5, -1544
è¯»å–åœ°å€ 0x800010c0
0x800010c0: 00 a7 87 b3 add	a5, a5, a0
è¯»å–åœ°å€ 0x800010c4
è¯»å–åœ°å€ 0x80010a18
0x800010c4: 00 07 a7 83 lw	a5, 0(a5)
è¯»å–åœ°å€ 0x800010c8
0x800010c8: 00 05 85 13 addi	a0, a1, 0
è¯»å–åœ°å€ 0x800010cc
0x800010cc: 00 07 80 67 jalr	zero, 0(a5)
è¯»å–åœ°å€ 0x80001134
0x80001134: a0 00 07 b7 lui	a5, 655360
è¯»å–åœ°å€ 0x80001138
read device name = keyboard 	 addr = 0xa0000060 
0x80001138: 06 07 a7 83 lw	a5, 96(a5)
è¯»å–åœ°å€ 0x8000113c
0x8000113c: 00 00 87 37 lui	a4, 8
è¯»å–åœ°å€ 0x80001140
å†™å…¥åœ°å€ 0x8009cfac
0x80001140: 00 f5 22 23 sw	a5, 4(a0)
è¯»å–åœ°å€ 0x80001144
0x80001144: 00 e7 f6 b3 and	a3, a5, a4
è¯»å–åœ°å€ 0x80001148
0x80001148: 00 06 8c 63 beq	a3, zero, 0x80001160
è¯»å–åœ°å€ 0x80001160
å†™å…¥åœ°å€ 0x8009cfa8
0x80001160: 00 05 00 23 sb	zero, 0(a0)
è¯»å–åœ°å€ 0x80001164
0x80001164: 00 00 80 67 jalr	zero, 0(ra)
è¯»å–åœ°å€ 0x80000da8
è¯»å–åœ°å€ 0x8009cfac
0x80000da8: 00 c1 26 03 lw	a2, 12(sp)
è¯»å–åœ°å€ 0x80000dac
è¯»å–åœ°å€ 0x8009cfa8
0x80000dac: 00 81 47 03 lbu	a4, 8(sp)
è¯»å–åœ°å€ 0x80000db0
0x80000db0: 18 09 05 13 addi	a0, s2, 384
è¯»å–åœ°å€ 0x80000db4
0x80000db4: 00 26 17 93 slli	a5, a2, 2
è¯»å–åœ°å€ 0x80000db8
0x80000db8: 00 f4 07 b3 add	a5, s0, a5
è¯»å–åœ°å€ 0x80000dbc
0x80000dbc: fc 06 16 e3 bne	a2, zero, 0x80000d88
è¯»å–åœ°å€ 0x80000dc0
è¯»å–åœ°å€ 0x80094e28
0x80000dc0: 00 0a c7 83 lbu	a5, 0(s5)
è¯»å–åœ°å€ 0x80000dc4
0x80000dc4: f9 1f f0 6f jal	zero, 0x80000d54
è¯»å–åœ°å€ 0x80000d54
è¯»å–åœ°å€ 0x80094e29
0x80000d54: 00 09 c7 03 lbu	a4, 0(s3)
è¯»å–åœ°å€ 0x80000d58
0x80000d58: 02 07 04 63 beq	a4, zero, 0x80000d80
è¯»å–åœ°å€ 0x80000d80
0x80000d80: 00 07 9e 63 bne	a5, zero, 0x80000d9c
è¯»å–åœ°å€ 0x80000d9c
0x80000d9c: 00 80 05 13 addi	a0, zero, 8
è¯»å–åœ°å€ 0x80000da0
0x80000da0: 00 81 05 93 addi	a1, sp, 8
è¯»å–åœ°å€ 0x80000da4
0x80000da4: 31 00 00 ef jal	ra, 0x800010b4
è¯»å–åœ°å€ 0x800010b4
0x800010b4: 80 01 17 b7 lui	a5, 524305
è¯»å–åœ°å€ 0x800010b8
0x800010b8: 00 25 15 13 slli	a0, a0, 2
è¯»å–åœ°å€ 0x800010bc
0x800010bc: 9f 87 87 93 addi	a5, a5, -1544
è¯»å–åœ°å€ 0x800010c0
0x800010c0: 00 a7 87 b3 add	a5, a5, a0
è¯»å–åœ°å€ 0x800010c4
è¯»å–åœ°å€ 0x80010a18
0x800010c4: 00 07 a7 83 lw	a5, 0(a5)
è¯»å–åœ°å€ 0x800010c8
0x800010c8: 00 05 85 13 addi	a0, a1, 0
è¯»å–åœ°å€ 0x800010cc
0x800010cc: 00 07 80 67 jalr	zero, 0(a5)
è¯»å–åœ°å€ 0x80001134
0x80001134: a0 00 07 b7 lui	a5, 655360
è¯»å–åœ°å€ 0x80001138
read device name = keyboard 	 addr = 0xa0000060 
0x80001138: 06 07 a7 83 lw	a5, 96(a5)
è¯»å–åœ°å€ 0x8000113c
0x8000113c: 00 00 87 37 lui	a4, 8
è¯»å–åœ°å€ 0x80001140
å†™å…¥åœ°å€ 0x8009cfac
0x80001140: 00 f5 22 23 sw	a5, 4(a0)
è¯»å–åœ°å€ 0x80001144
0x80001144: 00 e7 f6 b3 and	a3, a5, a4
è¯»å–åœ°å€ 0x80001148
0x80001148: 00 06 8c 63 beq	a3, zero, 0x80001160
è¯»å–åœ°å€ 0x80001160
å†™å…¥åœ°å€ 0x8009cfa8
0x80001160: 00 05 00 23 sb	zero, 0(a0)
è¯»å–åœ°å€ 0x80001164
0x80001164: 00 00 80 67 jalr	zero, 0(ra)
è¯»å–åœ°å€ 0x80000da8
è¯»å–åœ°å€ 0x8009cfac
0x80000da8: 00 c1 26 03 lw	a2, 12(sp)
è¯»å–åœ°å€ 0x80000dac
è¯»å–åœ°å€ 0x8009cfa8
0x80000dac: 00 81 47 03 lbu	a4, 8(sp)
è¯»å–åœ°å€ 0x80000db0
0x80000db0: 18 09 05 13 addi	a0, s2, 384
è¯»å–åœ°å€ 0x80000db4
0x80000db4: 00 26 17 93 slli	a5, a2, 2
è¯»å–åœ°å€ 0x80000db8
0x80000db8: 00 f4 07 b3 add	a5, s0, a5
è¯»å–åœ°å€ 0x80000dbc
0x80000dbc: fc 06 16 e3 bne	a2, zero, 0x80000d88
è¯»å–åœ°å€ 0x80000dc0
è¯»å–åœ°å€ 0x80094e28
0x80000dc0: 00 0a c7 83 lbu	a5, 0(s5)
è¯»å–åœ°å€ 0x80000dc4
0x80000dc4: f9 1f f0 6f jal	zero, 0x80000d54
è¯»å–åœ°å€ 0x80000d54
è¯»å–åœ°å€ 0x80094e29
0x80000d54: 00 09 c7 03 lbu	a4, 0(s3)
è¯»å–åœ°å€ 0x80000d58
0x80000d58: 02 07 04 63 beq	a4, zero, 0x80000d80
è¯»å–åœ°å€ 0x80000d80
0x80000d80: 00 07 9e 63 bne	a5, zero, 0x80000d9c
è¯»å–åœ°å€ 0x80000d9c
0x80000d9c: 00 80 05 13 addi	a0, zero, 8
è¯»å–åœ°å€ 0x80000da0
0x80000da0: 00 81 05 93 addi	a1, sp, 8
è¯»å–åœ°å€ 0x80000da4
0x80000da4: 31 00 00 ef jal	ra, 0x800010b4
è¯»å–åœ°å€ 0x800010b4
0x800010b4: 80 01 17 b7 lui	a5, 524305
è¯»å–åœ°å€ 0x800010b8
0x800010b8: 00 25 15 13 slli	a0, a0, 2
è¯»å–åœ°å€ 0x800010bc
0x800010bc: 9f 87 87 93 addi	a5, a5, -1544
è¯»å–åœ°å€ 0x800010c0
0x800010c0: 00 a7 87 b3 add	a5, a5, a0
è¯»å–åœ°å€ 0x800010c4
è¯»å–åœ°å€ 0x80010a18
0x800010c4: 00 07 a7 83 lw	a5, 0(a5)
è¯»å–åœ°å€ 0x800010c8
0x800010c8: 00 05 85 13 addi	a0, a1, 0
è¯»å–åœ°å€ 0x800010cc
0x800010cc: 00 07 80 67 jalr	zero, 0(a5)
è¯»å–åœ°å€ 0x80001134
0x80001134: a0 00 07 b7 lui	a5, 655360
è¯»å–åœ°å€ 0x80001138
read device name = keyboard 	 addr = 0xa0000060 
0x80001138: 06 07 a7 83 lw	a5, 96(a5)
è¯»å–åœ°å€ 0x8000113c
0x8000113c: 00 00 87 37 lui	a4, 8
è¯»å–åœ°å€ 0x80001140
å†™å…¥åœ°å€ 0x8009cfac
0x80001140: 00 f5 22 23 sw	a5, 4(a0)
è¯»å–åœ°å€ 0x80001144
0x80001144: 00 e7 f6 b3 and	a3, a5, a4
è¯»å–åœ°å€ 0x80001148
0x80001148: 00 06 8c 63 beq	a3, zero, 0x80001160
è¯»å–åœ°å€ 0x80001160
å†™å…¥åœ°å€ 0x8009cfa8
0x80001160: 00 05 00 23 sb	zero, 0(a0)
è¯»å–åœ°å€ 0x80001164
0x80001164: 00 00 80 67 jalr	zero, 0(ra)
è¯»å–åœ°å€ 0x80000da8
è¯»å–åœ°å€ 0x8009cfac
0x80000da8: 00 c1 26 03 lw	a2, 12(sp)
è¯»å–åœ°å€ 0x80000dac
è¯»å–åœ°å€ 0x8009cfa8
0x80000dac: 00 81 47 03 lbu	a4, 8(sp)
è¯»å–åœ°å€ 0x80000db0
0x80000db0: 18 09 05 13 addi	a0, s2, 384
è¯»å–åœ°å€ 0x80000db4
0x80000db4: 00 26 17 93 slli	a5, a2, 2
è¯»å–åœ°å€ 0x80000db8
0x80000db8: 00 f4 07 b3 add	a5, s0, a5
è¯»å–åœ°å€ 0x80000dbc
0x80000dbc: fc 06 16 e3 bne	a2, zero, 0x80000d88
è¯»å–åœ°å€ 0x80000dc0
è¯»å–åœ°å€ 0x80094e28
0x80000dc0: 00 0a c7 83 lbu	a5, 0(s5)
è¯»å–åœ°å€ 0x80000dc4
0x80000dc4: f9 1f f0 6f jal	zero, 0x80000d54
è¯»å–åœ°å€ 0x80000d54
è¯»å–åœ°å€ 0x80094e29
0x80000d54: 00 09 c7 03 lbu	a4, 0(s3)
è¯»å–åœ°å€ 0x80000d58
0x80000d58: 02 07 04 63 beq	a4, zero, 0x80000d80
è¯»å–åœ°å€ 0x80000d80
0x80000d80: 00 07 9e 63 bne	a5, zero, 0x80000d9c
è¯»å–åœ°å€ 0x80000d9c
0x80000d9c: 00 80 05 13 addi	a0, zero, 8
è¯»å–åœ°å€ 0x80000da0
0x80000da0: 00 81 05 93 addi	a1, sp, 8
è¯»å–åœ°å€ 0x80000da4
0x80000da4: 31 00 00 ef jal	ra, 0x800010b4
è¯»å–åœ°å€ 0x800010b4
0x800010b4: 80 01 17 b7 lui	a5, 524305
è¯»å–åœ°å€ 0x800010b8
0x800010b8: 00 25 15 13 slli	a0, a0, 2
è¯»å–åœ°å€ 0x800010bc
0x800010bc: 9f 87 87 93 addi	a5, a5, -1544
è¯»å–åœ°å€ 0x800010c0
0x800010c0: 00 a7 87 b3 add	a5, a5, a0
è¯»å–åœ°å€ 0x800010c4
è¯»å–åœ°å€ 0x80010a18
0x800010c4: 00 07 a7 83 lw	a5, 0(a5)
è¯»å–åœ°å€ 0x800010c8
0x800010c8: 00 05 85 13 addi	a0, a1, 0
è¯»å–åœ°å€ 0x800010cc
0x800010cc: 00 07 80 67 jalr	zero, 0(a5)
è¯»å–åœ°å€ 0x80001134
0x80001134: a0 00 07 b7 lui	a5, 655360
è¯»å–åœ°å€ 0x80001138
read device name = keyboard 	 addr = 0xa0000060 
0x80001138: 06 07 a7 83 lw	a5, 96(a5)
è¯»å–åœ°å€ 0x8000113c
0x8000113c: 00 00 87 37 lui	a4, 8
è¯»å–åœ°å€ 0x80001140
å†™å…¥åœ°å€ 0x8009cfac
0x80001140: 00 f5 22 23 sw	a5, 4(a0)
è¯»å–åœ°å€ 0x80001144
0x80001144: 00 e7 f6 b3 and	a3, a5, a4
è¯»å–åœ°å€ 0x80001148
0x80001148: 00 06 8c 63 beq	a3, zero, 0x80001160
è¯»å–åœ°å€ 0x80001160
å†™å…¥åœ°å€ 0x8009cfa8
0x80001160: 00 05 00 23 sb	zero, 0(a0)
è¯»å–åœ°å€ 0x80001164
0x80001164: 00 00 80 67 jalr	zero, 0(ra)
è¯»å–åœ°å€ 0x80000da8
è¯»å–åœ°å€ 0x8009cfac
0x80000da8: 00 c1 26 03 lw	a2, 12(sp)
è¯»å–åœ°å€ 0x80000dac
è¯»å–åœ°å€ 0x8009cfa8
0x80000dac: 00 81 47 03 lbu	a4, 8(sp)
è¯»å–åœ°å€ 0x80000db0
0x80000db0: 18 09 05 13 addi	a0, s2, 384
è¯»å–åœ°å€ 0x80000db4
0x80000db4: 00 26 17 93 slli	a5, a2, 2
è¯»å–åœ°å€ 0x80000db8
0x80000db8: 00 f4 07 b3 add	a5, s0, a5
è¯»å–åœ°å€ 0x80000dbc
0x80000dbc: fc 06 16 e3 bne	a2, zero, 0x80000d88
è¯»å–åœ°å€ 0x80000dc0
è¯»å–åœ°å€ 0x80094e28
0x80000dc0: 00 0a c7 83 lbu	a5, 0(s5)
è¯»å–åœ°å€ 0x80000dc4
0x80000dc4: f9 1f f0 6f jal	zero, 0x80000d54
è¯»å–åœ°å€ 0x80000d54
è¯»å–åœ°å€ 0x80094e29
0x80000d54: 00 09 c7 03 lbu	a4, 0(s3)
è¯»å–åœ°å€ 0x80000d58
0x80000d58: 02 07 04 63 beq	a4, zero, 0x80000d80
è¯»å–åœ°å€ 0x80000d80
0x80000d80: 00 07 9e 63 bne	a5, zero, 0x80000d9c
è¯»å–åœ°å€ 0x80000d9c
0x80000d9c: 00 80 05 13 addi	a0, zero, 8
è¯»å–åœ°å€ 0x80000da0
0x80000da0: 00 81 05 93 addi	a1, sp, 8
è¯»å–åœ°å€ 0x80000da4
0x80000da4: 31 00 00 ef jal	ra, 0x800010b4
è¯»å–åœ°å€ 0x800010b4
0x800010b4: 80 01 17 b7 lui	a5, 524305
è¯»å–åœ°å€ 0x800010b8
0x800010b8: 00 25 15 13 slli	a0, a0, 2
è¯»å–åœ°å€ 0x800010bc
0x800010bc: 9f 87 87 93 addi	a5, a5, -1544
è¯»å–åœ°å€ 0x800010c0
0x800010c0: 00 a7 87 b3 add	a5, a5, a0
è¯»å–åœ°å€ 0x800010c4
è¯»å–åœ°å€ 0x80010a18
0x800010c4: 00 07 a7 83 lw	a5, 0(a5)
è¯»å–åœ°å€ 0x800010c8
0x800010c8: 00 05 85 13 addi	a0, a1, 0
è¯»å–åœ°å€ 0x800010cc
0x800010cc: 00 07 80 67 jalr	zero, 0(a5)
è¯»å–åœ°å€ 0x80001134
0x80001134: a0 00 07 b7 lui	a5, 655360
è¯»å–åœ°å€ 0x80001138
read device name = keyboard 	 addr = 0xa0000060 
0x80001138: 06 07 a7 83 lw	a5, 96(a5)
è¯»å–åœ°å€ 0x8000113c
0x8000113c: 00 00 87 37 lui	a4, 8
è¯»å–åœ°å€ 0x80001140
å†™å…¥åœ°å€ 0x8009cfac
0x80001140: 00 f5 22 23 sw	a5, 4(a0)
è¯»å–åœ°å€ 0x80001144
0x80001144: 00 e7 f6 b3 and	a3, a5, a4
è¯»å–åœ°å€ 0x80001148
0x80001148: 00 06 8c 63 beq	a3, zero, 0x80001160
è¯»å–åœ°å€ 0x80001160
å†™å…¥åœ°å€ 0x8009cfa8
0x80001160: 00 05 00 23 sb	zero, 0(a0)
è¯»å–åœ°å€ 0x80001164
0x80001164: 00 00 80 67 jalr	zero, 0(ra)
è¯»å–åœ°å€ 0x80000da8
è¯»å–åœ°å€ 0x8009cfac
0x80000da8: 00 c1 26 03 lw	a2, 12(sp)
è¯»å–åœ°å€ 0x80000dac
è¯»å–åœ°å€ 0x8009cfa8
0x80000dac: 00 81 47 03 lbu	a4, 8(sp)
è¯»å–åœ°å€ 0x80000db0
0x80000db0: 18 09 05 13 addi	a0, s2, 384
è¯»å–åœ°å€ 0x80000db4
0x80000db4: 00 26 17 93 slli	a5, a2, 2
è¯»å–åœ°å€ 0x80000db8
0x80000db8: 00 f4 07 b3 add	a5, s0, a5
è¯»å–åœ°å€ 0x80000dbc
0x80000dbc: fc 06 16 e3 bne	a2, zero, 0x80000d88
è¯»å–åœ°å€ 0x80000dc0
è¯»å–åœ°å€ 0x80094e28
0x80000dc0: 00 0a c7 83 lbu	a5, 0(s5)
è¯»å–åœ°å€ 0x80000dc4
0x80000dc4: f9 1f f0 6f jal	zero, 0x80000d54
è¯»å–åœ°å€ 0x80000d54
è¯»å–åœ°å€ 0x80094e29
0x80000d54: 00 09 c7 03 lbu	a4, 0(s3)
è¯»å–åœ°å€ 0x80000d58
0x80000d58: 02 07 04 63 beq	a4, zero, 0x80000d80
è¯»å–åœ°å€ 0x80000d80
0x80000d80: 00 07 9e 63 bne	a5, zero, 0x80000d9c
è¯»å–åœ°å€ 0x80000d9c
0x80000d9c: 00 80 05 13 addi	a0, zero, 8
è¯»å–åœ°å€ 0x80000da0
0x80000da0: 00 81 05 93 addi	a1, sp, 8
è¯»å–åœ°å€ 0x80000da4
0x80000da4: 31 00 00 ef jal	ra, 0x800010b4
è¯»å–åœ°å€ 0x800010b4
0x800010b4: 80 01 17 b7 lui	a5, 524305
è¯»å–åœ°å€ 0x800010b8
0x800010b8: 00 25 15 13 slli	a0, a0, 2
è¯»å–åœ°å€ 0x800010bc
0x800010bc: 9f 87 87 93 addi	a5, a5, -1544
è¯»å–åœ°å€ 0x800010c0
0x800010c0: 00 a7 87 b3 add	a5, a5, a0
è¯»å–åœ°å€ 0x800010c4
è¯»å–åœ°å€ 0x80010a18
0x800010c4: 00 07 a7 83 lw	a5, 0(a5)
è¯»å–åœ°å€ 0x800010c8
0x800010c8: 00 05 85 13 addi	a0, a1, 0
è¯»å–åœ°å€ 0x800010cc
0x800010cc: 00 07 80 67 jalr	zero, 0(a5)
è¯»å–åœ°å€ 0x80001134
0x80001134: a0 00 07 b7 lui	a5, 655360
è¯»å–åœ°å€ 0x80001138
read device name = keyboard 	 addr = 0xa0000060 
0x80001138: 06 07 a7 83 lw	a5, 96(a5)
è¯»å–åœ°å€ 0x8000113c
0x8000113c: 00 00 87 37 lui	a4, 8
è¯»å–åœ°å€ 0x80001140
å†™å…¥åœ°å€ 0x8009cfac
0x80001140: 00 f5 22 23 sw	a5, 4(a0)
è¯»å–åœ°å€ 0x80001144
0x80001144: 00 e7 f6 b3 and	a3, a5, a4
è¯»å–åœ°å€ 0x80001148
0x80001148: 00 06 8c 63 beq	a3, zero, 0x80001160
è¯»å–åœ°å€ 0x80001160
å†™å…¥åœ°å€ 0x8009cfa8
0x80001160: 00 05 00 23 sb	zero, 0(a0)
è¯»å–åœ°å€ 0x80001164
0x80001164: 00 00 80 67 jalr	zero, 0(ra)
è¯»å–åœ°å€ 0x80000da8
è¯»å–åœ°å€ 0x8009cfac
0x80000da8: 00 c1 26 03 lw	a2, 12(sp)
è¯»å–åœ°å€ 0x80000dac
è¯»å–åœ°å€ 0x8009cfa8
0x80000dac: 00 81 47 03 lbu	a4, 8(sp)
è¯»å–åœ°å€ 0x80000db0
0x80000db0: 18 09 05 13 addi	a0, s2, 384
è¯»å–åœ°å€ 0x80000db4
0x80000db4: 00 26 17 93 slli	a5, a2, 2
è¯»å–åœ°å€ 0x80000db8
0x80000db8: 00 f4 07 b3 add	a5, s0, a5
è¯»å–åœ°å€ 0x80000dbc
0x80000dbc: fc 06 16 e3 bne	a2, zero, 0x80000d88
è¯»å–åœ°å€ 0x80000dc0
è¯»å–åœ°å€ 0x80094e28
0x80000dc0: 00 0a c7 83 lbu	a5, 0(s5)
è¯»å–åœ°å€ 0x80000dc4
0x80000dc4: f9 1f f0 6f jal	zero, 0x80000d54
è¯»å–åœ°å€ 0x80000d54
è¯»å–åœ°å€ 0x80094e29
0x80000d54: 00 09 c7 03 lbu	a4, 0(s3)
è¯»å–åœ°å€ 0x80000d58
0x80000d58: 02 07 04 63 beq	a4, zero, 0x80000d80
è¯»å–åœ°å€ 0x80000d80
0x80000d80: 00 07 9e 63 bne	a5, zero, 0x80000d9c
è¯»å–åœ°å€ 0x80000d9c
0x80000d9c: 00 80 05 13 addi	a0, zero, 8
è¯»å–åœ°å€ 0x80000da0
0x80000da0: 00 81 05 93 addi	a1, sp, 8
è¯»å–åœ°å€ 0x80000da4
0x80000da4: 31 00 00 ef jal	ra, 0x800010b4
è¯»å–åœ°å€ 0x800010b4
0x800010b4: 80 01 17 b7 lui	a5, 524305
è¯»å–åœ°å€ 0x800010b8
0x800010b8: 00 25 15 13 slli	a0, a0, 2
è¯»å–åœ°å€ 0x800010bc
0x800010bc: 9f 87 87 93 addi	a5, a5, -1544
è¯»å–åœ°å€ 0x800010c0
0x800010c0: 00 a7 87 b3 add	a5, a5, a0
è¯»å–åœ°å€ 0x800010c4
è¯»å–åœ°å€ 0x80010a18
0x800010c4: 00 07 a7 83 lw	a5, 0(a5)
è¯»å–åœ°å€ 0x800010c8
0x800010c8: 00 05 85 13 addi	a0, a1, 0
è¯»å–åœ°å€ 0x800010cc
0x800010cc: 00 07 80 67 jalr	zero, 0(a5)
è¯»å–åœ°å€ 0x80001134
0x80001134: a0 00 07 b7 lui	a5, 655360
è¯»å–åœ°å€ 0x80001138
read device name = keyboard 	 addr = 0xa0000060 
0x80001138: 06 07 a7 83 lw	a5, 96(a5)
è¯»å–åœ°å€ 0x8000113c
0x8000113c: 00 00 87 37 lui	a4, 8
è¯»å–åœ°å€ 0x80001140
å†™å…¥åœ°å€ 0x8009cfac
0x80001140: 00 f5 22 23 sw	a5, 4(a0)
è¯»å–åœ°å€ 0x80001144
0x80001144: 00 e7 f6 b3 and	a3, a5, a4
è¯»å–åœ°å€ 0x80001148
0x80001148: 00 06 8c 63 beq	a3, zero, 0x80001160
è¯»å–åœ°å€ 0x80001160
å†™å…¥åœ°å€ 0x8009cfa8
0x80001160: 00 05 00 23 sb	zero, 0(a0)
è¯»å–åœ°å€ 0x80001164
0x80001164: 00 00 80 67 jalr	zero, 0(ra)
è¯»å–åœ°å€ 0x80000da8
è¯»å–åœ°å€ 0x8009cfac
0x80000da8: 00 c1 26 03 lw	a2, 12(sp)
è¯»å–åœ°å€ 0x80000dac
è¯»å–åœ°å€ 0x8009cfa8
0x80000dac: 00 81 47 03 lbu	a4, 8(sp)
è¯»å–åœ°å€ 0x80000db0
0x80000db0: 18 09 05 13 addi	a0, s2, 384
è¯»å–åœ°å€ 0x80000db4
0x80000db4: 00 26 17 93 slli	a5, a2, 2
è¯»å–åœ°å€ 0x80000db8
0x80000db8: 00 f4 07 b3 add	a5, s0, a5
è¯»å–åœ°å€ 0x80000dbc
0x80000dbc: fc 06 16 e3 bne	a2, zero, 0x80000d88
è¯»å–åœ°å€ 0x80000dc0
è¯»å–åœ°å€ 0x80094e28
0x80000dc0: 00 0a c7 83 lbu	a5, 0(s5)
è¯»å–åœ°å€ 0x80000dc4
0x80000dc4: f9 1f f0 6f jal	zero, 0x80000d54
è¯»å–åœ°å€ 0x80000d54
è¯»å–åœ°å€ 0x80094e29
0x80000d54: 00 09 c7 03 lbu	a4, 0(s3)
è¯»å–åœ°å€ 0x80000d58
0x80000d58: 02 07 04 63 beq	a4, zero, 0x80000d80
è¯»å–åœ°å€ 0x80000d80
0x80000d80: 00 07 9e 63 bne	a5, zero, 0x80000d9c
è¯»å–åœ°å€ 0x80000d9c
0x80000d9c: 00 80 05 13 addi	a0, zero, 8
è¯»å–åœ°å€ 0x80000da0
0x80000da0: 00 81 05 93 addi	a1, sp, 8
è¯»å–åœ°å€ 0x80000da4
0x80000da4: 31 00 00 ef jal	ra, 0x800010b4
è¯»å–åœ°å€ 0x800010b4
0x800010b4: 80 01 17 b7 lui	a5, 524305
è¯»å–åœ°å€ 0x800010b8
0x800010b8: 00 25 15 13 slli	a0, a0, 2
è¯»å–åœ°å€ 0x800010bc
0x800010bc: 9f 87 87 93 addi	a5, a5, -1544
è¯»å–åœ°å€ 0x800010c0
0x800010c0: 00 a7 87 b3 add	a5, a5, a0
è¯»å–åœ°å€ 0x800010c4
è¯»å–åœ°å€ 0x80010a18
0x800010c4: 00 07 a7 83 lw	a5, 0(a5)
è¯»å–åœ°å€ 0x800010c8
0x800010c8: 00 05 85 13 addi	a0, a1, 0
è¯»å–åœ°å€ 0x800010cc
0x800010cc: 00 07 80 67 jalr	zero, 0(a5)
è¯»å–åœ°å€ 0x80001134
0x80001134: a0 00 07 b7 lui	a5, 655360
è¯»å–åœ°å€ 0x80001138
read device name = keyboard 	 addr = 0xa0000060 
0x80001138: 06 07 a7 83 lw	a5, 96(a5)
è¯»å–åœ°å€ 0x8000113c
0x8000113c: 00 00 87 37 lui	a4, 8
è¯»å–åœ°å€ 0x80001140
å†™å…¥åœ°å€ 0x8009cfac
0x80001140: 00 f5 22 23 sw	a5, 4(a0)
è¯»å–åœ°å€ 0x80001144
0x80001144: 00 e7 f6 b3 and	a3, a5, a4
è¯»å–åœ°å€ 0x80001148
0x80001148: 00 06 8c 63 beq	a3, zero, 0x80001160
è¯»å–åœ°å€ 0x80001160
å†™å…¥åœ°å€ 0x8009cfa8
0x80001160: 00 05 00 23 sb	zero, 0(a0)
è¯»å–åœ°å€ 0x80001164
0x80001164: 00 00 80 67 jalr	zero, 0(ra)
è¯»å–åœ°å€ 0x80000da8
è¯»å–åœ°å€ 0x8009cfac
0x80000da8: 00 c1 26 03 lw	a2, 12(sp)
è¯»å–åœ°å€ 0x80000dac
è¯»å–åœ°å€ 0x8009cfa8
0x80000dac: 00 81 47 03 lbu	a4, 8(sp)
è¯»å–åœ°å€ 0x80000db0
0x80000db0: 18 09 05 13 addi	a0, s2, 384
è¯»å–åœ°å€ 0x80000db4
0x80000db4: 00 26 17 93 slli	a5, a2, 2
è¯»å–åœ°å€ 0x80000db8
0x80000db8: 00 f4 07 b3 add	a5, s0, a5
è¯»å–åœ°å€ 0x80000dbc
0x80000dbc: fc 06 16 e3 bne	a2, zero, 0x80000d88
è¯»å–åœ°å€ 0x80000dc0
è¯»å–åœ°å€ 0x80094e28
0x80000dc0: 00 0a c7 83 lbu	a5, 0(s5)
è¯»å–åœ°å€ 0x80000dc4
0x80000dc4: f9 1f f0 6f jal	zero, 0x80000d54
è¯»å–åœ°å€ 0x80000d54
è¯»å–åœ°å€ 0x80094e29
0x80000d54: 00 09 c7 03 lbu	a4, 0(s3)
è¯»å–åœ°å€ 0x80000d58
0x80000d58: 02 07 04 63 beq	a4, zero, 0x80000d80
è¯»å–åœ°å€ 0x80000d80
0x80000d80: 00 07 9e 63 bne	a5, zero, 0x80000d9c
è¯»å–åœ°å€ 0x80000d9c
0x80000d9c: 00 80 05 13 addi	a0, zero, 8
è¯»å–åœ°å€ 0x80000da0
0x80000da0: 00 81 05 93 addi	a1, sp, 8
è¯»å–åœ°å€ 0x80000da4
0x80000da4: 31 00 00 ef jal	ra, 0x800010b4
è¯»å–åœ°å€ 0x800010b4
0x800010b4: 80 01 17 b7 lui	a5, 524305
è¯»å–åœ°å€ 0x800010b8
0x800010b8: 00 25 15 13 slli	a0, a0, 2
è¯»å–åœ°å€ 0x800010bc
0x800010bc: 9f 87 87 93 addi	a5, a5, -1544
è¯»å–åœ°å€ 0x800010c0
0x800010c0: 00 a7 87 b3 add	a5, a5, a0
è¯»å–åœ°å€ 0x800010c4
è¯»å–åœ°å€ 0x80010a18
0x800010c4: 00 07 a7 83 lw	a5, 0(a5)
è¯»å–åœ°å€ 0x800010c8
0x800010c8: 00 05 85 13 addi	a0, a1, 0
è¯»å–åœ°å€ 0x800010cc
0x800010cc: 00 07 80 67 jalr	zero, 0(a5)
è¯»å–åœ°å€ 0x80001134
0x80001134: a0 00 07 b7 lui	a5, 655360
è¯»å–åœ°å€ 0x80001138
read device name = keyboard 	 addr = 0xa0000060 
0x80001138: 06 07 a7 83 lw	a5, 96(a5)
è¯»å–åœ°å€ 0x8000113c
0x8000113c: 00 00 87 37 lui	a4, 8
è¯»å–åœ°å€ 0x80001140
å†™å…¥åœ°å€ 0x8009cfac
0x80001140: 00 f5 22 23 sw	a5, 4(a0)
è¯»å–åœ°å€ 0x80001144
0x80001144: 00 e7 f6 b3 and	a3, a5, a4
è¯»å–åœ°å€ 0x80001148
0x80001148: 00 06 8c 63 beq	a3, zero, 0x80001160
è¯»å–åœ°å€ 0x80001160
å†™å…¥åœ°å€ 0x8009cfa8
0x80001160: 00 05 00 23 sb	zero, 0(a0)
è¯»å–åœ°å€ 0x80001164
0x80001164: 00 00 80 67 jalr	zero, 0(ra)
è¯»å–åœ°å€ 0x80000da8
è¯»å–åœ°å€ 0x8009cfac
0x80000da8: 00 c1 26 03 lw	a2, 12(sp)
è¯»å–åœ°å€ 0x80000dac
è¯»å–åœ°å€ 0x8009cfa8
0x80000dac: 00 81 47 03 lbu	a4, 8(sp)
è¯»å–åœ°å€ 0x80000db0
0x80000db0: 18 09 05 13 addi	a0, s2, 384
è¯»å–åœ°å€ 0x80000db4
0x80000db4: 00 26 17 93 slli	a5, a2, 2
è¯»å–åœ°å€ 0x80000db8
0x80000db8: 00 f4 07 b3 add	a5, s0, a5
è¯»å–åœ°å€ 0x80000dbc
0x80000dbc: fc 06 16 e3 bne	a2, zero, 0x80000d88
è¯»å–åœ°å€ 0x80000dc0
è¯»å–åœ°å€ 0x80094e28
0x80000dc0: 00 0a c7 83 lbu	a5, 0(s5)
è¯»å–åœ°å€ 0x80000dc4
0x80000dc4: f9 1f f0 6f jal	zero, 0x80000d54
è¯»å–åœ°å€ 0x80000d54
è¯»å–åœ°å€ 0x80094e29
0x80000d54: 00 09 c7 03 lbu	a4, 0(s3)
è¯»å–åœ°å€ 0x80000d58
0x80000d58: 02 07 04 63 beq	a4, zero, 0x80000d80
è¯»å–åœ°å€ 0x80000d80
0x80000d80: 00 07 9e 63 bne	a5, zero, 0x80000d9c
è¯»å–åœ°å€ 0x80000d9c
0x80000d9c: 00 80 05 13 addi	a0, zero, 8
è¯»å–åœ°å€ 0x80000da0
0x80000da0: 00 81 05 93 addi	a1, sp, 8
è¯»å–åœ°å€ 0x80000da4
0x80000da4: 31 00 00 ef jal	ra, 0x800010b4
è¯»å–åœ°å€ 0x800010b4
0x800010b4: 80 01 17 b7 lui	a5, 524305
è¯»å–åœ°å€ 0x800010b8
0x800010b8: 00 25 15 13 slli	a0, a0, 2
è¯»å–åœ°å€ 0x800010bc
0x800010bc: 9f 87 87 93 addi	a5, a5, -1544
è¯»å–åœ°å€ 0x800010c0
0x800010c0: 00 a7 87 b3 add	a5, a5, a0
è¯»å–åœ°å€ 0x800010c4
è¯»å–åœ°å€ 0x80010a18
0x800010c4: 00 07 a7 83 lw	a5, 0(a5)
è¯»å–åœ°å€ 0x800010c8
0x800010c8: 00 05 85 13 addi	a0, a1, 0
è¯»å–åœ°å€ 0x800010cc
0x800010cc: 00 07 80 67 jalr	zero, 0(a5)
è¯»å–åœ°å€ 0x80001134
0x80001134: a0 00 07 b7 lui	a5, 655360
è¯»å–åœ°å€ 0x80001138
read device name = keyboard 	 addr = 0xa0000060 
0x80001138: 06 07 a7 83 lw	a5, 96(a5)
è¯»å–åœ°å€ 0x8000113c
0x8000113c: 00 00 87 37 lui	a4, 8
è¯»å–åœ°å€ 0x80001140
å†™å…¥åœ°å€ 0x8009cfac
0x80001140: 00 f5 22 23 sw	a5, 4(a0)
è¯»å–åœ°å€ 0x80001144
0x80001144: 00 e7 f6 b3 and	a3, a5, a4
è¯»å–åœ°å€ 0x80001148
0x80001148: 00 06 8c 63 beq	a3, zero, 0x80001160
è¯»å–åœ°å€ 0x80001160
å†™å…¥åœ°å€ 0x8009cfa8
0x80001160: 00 05 00 23 sb	zero, 0(a0)
è¯»å–åœ°å€ 0x80001164
0x80001164: 00 00 80 67 jalr	zero, 0(ra)
è¯»å–åœ°å€ 0x80000da8
è¯»å–åœ°å€ 0x8009cfac
0x80000da8: 00 c1 26 03 lw	a2, 12(sp)
è¯»å–åœ°å€ 0x80000dac
è¯»å–åœ°å€ 0x8009cfa8
0x80000dac: 00 81 47 03 lbu	a4, 8(sp)
è¯»å–åœ°å€ 0x80000db0
0x80000db0: 18 09 05 13 addi	a0, s2, 384
è¯»å–åœ°å€ 0x80000db4
0x80000db4: 00 26 17 93 slli	a5, a2, 2
è¯»å–åœ°å€ 0x80000db8
0x80000db8: 00 f4 07 b3 add	a5, s0, a5
è¯»å–åœ°å€ 0x80000dbc
0x80000dbc: fc 06 16 e3 bne	a2, zero, 0x80000d88
è¯»å–åœ°å€ 0x80000dc0
è¯»å–åœ°å€ 0x80094e28
0x80000dc0: 00 0a c7 83 lbu	a5, 0(s5)
è¯»å–åœ°å€ 0x80000dc4
0x80000dc4: f9 1f f0 6f jal	zero, 0x80000d54
è¯»å–åœ°å€ 0x80000d54
è¯»å–åœ°å€ 0x80094e29
0x80000d54: 00 09 c7 03 lbu	a4, 0(s3)
è¯»å–åœ°å€ 0x80000d58
0x80000d58: 02 07 04 63 beq	a4, zero, 0x80000d80
è¯»å–åœ°å€ 0x80000d80
0x80000d80: 00 07 9e 63 bne	a5, zero, 0x80000d9c
è¯»å–åœ°å€ 0x80000d9c
0x80000d9c: 00 80 05 13 addi	a0, zero, 8
è¯»å–åœ°å€ 0x80000da0
0x80000da0: 00 81 05 93 addi	a1, sp, 8
è¯»å–åœ°å€ 0x80000da4
0x80000da4: 31 00 00 ef jal	ra, 0x800010b4
è¯»å–åœ°å€ 0x800010b4
0x800010b4: 80 01 17 b7 lui	a5, 524305
è¯»å–åœ°å€ 0x800010b8
0x800010b8: 00 25 15 13 slli	a0, a0, 2
è¯»å–åœ°å€ 0x800010bc
0x800010bc: 9f 87 87 93 addi	a5, a5, -1544
è¯»å–åœ°å€ 0x800010c0
0x800010c0: 00 a7 87 b3 add	a5, a5, a0
è¯»å–åœ°å€ 0x800010c4
è¯»å–åœ°å€ 0x80010a18
0x800010c4: 00 07 a7 83 lw	a5, 0(a5)
è¯»å–åœ°å€ 0x800010c8
0x800010c8: 00 05 85 13 addi	a0, a1, 0
è¯»å–åœ°å€ 0x800010cc
0x800010cc: 00 07 80 67 jalr	zero, 0(a5)
è¯»å–åœ°å€ 0x80001134
0x80001134: a0 00 07 b7 lui	a5, 655360
è¯»å–åœ°å€ 0x80001138
read device name = keyboard 	 addr = 0xa0000060 
0x80001138: 06 07 a7 83 lw	a5, 96(a5)
è¯»å–åœ°å€ 0x8000113c
0x8000113c: 00 00 87 37 lui	a4, 8
è¯»å–åœ°å€ 0x80001140
å†™å…¥åœ°å€ 0x8009cfac
0x80001140: 00 f5 22 23 sw	a5, 4(a0)
è¯»å–åœ°å€ 0x80001144
0x80001144: 00 e7 f6 b3 and	a3, a5, a4
è¯»å–åœ°å€ 0x80001148
0x80001148: 00 06 8c 63 beq	a3, zero, 0x80001160
è¯»å–åœ°å€ 0x80001160
å†™å…¥åœ°å€ 0x8009cfa8
0x80001160: 00 05 00 23 sb	zero, 0(a0)
è¯»å–åœ°å€ 0x80001164
0x80001164: 00 00 80 67 jalr	zero, 0(ra)
è¯»å–åœ°å€ 0x80000da8
è¯»å–åœ°å€ 0x8009cfac
0x80000da8: 00 c1 26 03 lw	a2, 12(sp)
è¯»å–åœ°å€ 0x80000dac
è¯»å–åœ°å€ 0x8009cfa8
0x80000dac: 00 81 47 03 lbu	a4, 8(sp)
è¯»å–åœ°å€ 0x80000db0
0x80000db0: 18 09 05 13 addi	a0, s2, 384
è¯»å–åœ°å€ 0x80000db4
0x80000db4: 00 26 17 93 slli	a5, a2, 2
è¯»å–åœ°å€ 0x80000db8
0x80000db8: 00 f4 07 b3 add	a5, s0, a5
è¯»å–åœ°å€ 0x80000dbc
0x80000dbc: fc 06 16 e3 bne	a2, zero, 0x80000d88
è¯»å–åœ°å€ 0x80000dc0
è¯»å–åœ°å€ 0x80094e28
0x80000dc0: 00 0a c7 83 lbu	a5, 0(s5)
è¯»å–åœ°å€ 0x80000dc4
0x80000dc4: f9 1f f0 6f jal	zero, 0x80000d54
è¯»å–åœ°å€ 0x80000d54
è¯»å–åœ°å€ 0x80094e29
0x80000d54: 00 09 c7 03 lbu	a4, 0(s3)
è¯»å–åœ°å€ 0x80000d58
0x80000d58: 02 07 04 63 beq	a4, zero, 0x80000d80
è¯»å–åœ°å€ 0x80000d80
0x80000d80: 00 07 9e 63 bne	a5, zero, 0x80000d9c
è¯»å–åœ°å€ 0x80000d9c
0x80000d9c: 00 80 05 13 addi	a0, zero, 8
è¯»å–åœ°å€ 0x80000da0
0x80000da0: 00 81 05 93 addi	a1, sp, 8
è¯»å–åœ°å€ 0x80000da4
0x80000da4: 31 00 00 ef jal	ra, 0x800010b4
è¯»å–åœ°å€ 0x800010b4
0x800010b4: 80 01 17 b7 lui	a5, 524305
è¯»å–åœ°å€ 0x800010b8
0x800010b8: 00 25 15 13 slli	a0, a0, 2
è¯»å–åœ°å€ 0x800010bc
0x800010bc: 9f 87 87 93 addi	a5, a5, -1544
è¯»å–åœ°å€ 0x800010c0
0x800010c0: 00 a7 87 b3 add	a5, a5, a0
è¯»å–åœ°å€ 0x800010c4
è¯»å–åœ°å€ 0x80010a18
0x800010c4: 00 07 a7 83 lw	a5, 0(a5)
è¯»å–åœ°å€ 0x800010c8
0x800010c8: 00 05 85 13 addi	a0, a1, 0
è¯»å–åœ°å€ 0x800010cc
0x800010cc: 00 07 80 67 jalr	zero, 0(a5)
è¯»å–åœ°å€ 0x80001134
0x80001134: a0 00 07 b7 lui	a5, 655360
è¯»å–åœ°å€ 0x80001138
read device name = keyboard 	 addr = 0xa0000060 
0x80001138: 06 07 a7 83 lw	a5, 96(a5)
è¯»å–åœ°å€ 0x8000113c
0x8000113c: 00 00 87 37 lui	a4, 8
è¯»å–åœ°å€ 0x80001140
å†™å…¥åœ°å€ 0x8009cfac
0x80001140: 00 f5 22 23 sw	a5, 4(a0)
è¯»å–åœ°å€ 0x80001144
0x80001144: 00 e7 f6 b3 and	a3, a5, a4
è¯»å–åœ°å€ 0x80001148
0x80001148: 00 06 8c 63 beq	a3, zero, 0x80001160
è¯»å–åœ°å€ 0x80001160
å†™å…¥åœ°å€ 0x8009cfa8
0x80001160: 00 05 00 23 sb	zero, 0(a0)
è¯»å–åœ°å€ 0x80001164
0x80001164: 00 00 80 67 jalr	zero, 0(ra)
è¯»å–åœ°å€ 0x80000da8
è¯»å–åœ°å€ 0x8009cfac
0x80000da8: 00 c1 26 03 lw	a2, 12(sp)
è¯»å–åœ°å€ 0x80000dac
è¯»å–åœ°å€ 0x8009cfa8
0x80000dac: 00 81 47 03 lbu	a4, 8(sp)
è¯»å–åœ°å€ 0x80000db0
0x80000db0: 18 09 05 13 addi	a0, s2, 384
è¯»å–åœ°å€ 0x80000db4
0x80000db4: 00 26 17 93 slli	a5, a2, 2
è¯»å–åœ°å€ 0x80000db8
0x80000db8: 00 f4 07 b3 add	a5, s0, a5
è¯»å–åœ°å€ 0x80000dbc
0x80000dbc: fc 06 16 e3 bne	a2, zero, 0x80000d88
è¯»å–åœ°å€ 0x80000dc0
è¯»å–åœ°å€ 0x80094e28
0x80000dc0: 00 0a c7 83 lbu	a5, 0(s5)
è¯»å–åœ°å€ 0x80000dc4
0x80000dc4: f9 1f f0 6f jal	zero, 0x80000d54
è¯»å–åœ°å€ 0x80000d54
è¯»å–åœ°å€ 0x80094e29
0x80000d54: 00 09 c7 03 lbu	a4, 0(s3)
è¯»å–åœ°å€ 0x80000d58
0x80000d58: 02 07 04 63 beq	a4, zero, 0x80000d80
è¯»å–åœ°å€ 0x80000d80
0x80000d80: 00 07 9e 63 bne	a5, zero, 0x80000d9c
è¯»å–åœ°å€ 0x80000d9c
0x80000d9c: 00 80 05 13 addi	a0, zero, 8
è¯»å–åœ°å€ 0x80000da0
0x80000da0: 00 81 05 93 addi	a1, sp, 8
è¯»å–åœ°å€ 0x80000da4
0x80000da4: 31 00 00 ef jal	ra, 0x800010b4
è¯»å–åœ°å€ 0x800010b4
0x800010b4: 80 01 17 b7 lui	a5, 524305
è¯»å–åœ°å€ 0x800010b8
0x800010b8: 00 25 15 13 slli	a0, a0, 2
è¯»å–åœ°å€ 0x800010bc
0x800010bc: 9f 87 87 93 addi	a5, a5, -1544
è¯»å–åœ°å€ 0x800010c0
0x800010c0: 00 a7 87 b3 add	a5, a5, a0
è¯»å–åœ°å€ 0x800010c4
è¯»å–åœ°å€ 0x80010a18
0x800010c4: 00 07 a7 83 lw	a5, 0(a5)
è¯»å–åœ°å€ 0x800010c8
0x800010c8: 00 05 85 13 addi	a0, a1, 0
è¯»å–åœ°å€ 0x800010cc
0x800010cc: 00 07 80 67 jalr	zero, 0(a5)
è¯»å–åœ°å€ 0x80001134
0x80001134: a0 00 07 b7 lui	a5, 655360
è¯»å–åœ°å€ 0x80001138
read device name = keyboard 	 addr = 0xa0000060 
0x80001138: 06 07 a7 83 lw	a5, 96(a5)
è¯»å–åœ°å€ 0x8000113c
0x8000113c: 00 00 87 37 lui	a4, 8
è¯»å–åœ°å€ 0x80001140
å†™å…¥åœ°å€ 0x8009cfac
0x80001140: 00 f5 22 23 sw	a5, 4(a0)
è¯»å–åœ°å€ 0x80001144
0x80001144: 00 e7 f6 b3 and	a3, a5, a4
è¯»å–åœ°å€ 0x80001148
0x80001148: 00 06 8c 63 beq	a3, zero, 0x80001160
è¯»å–åœ°å€ 0x80001160
å†™å…¥åœ°å€ 0x8009cfa8
0x80001160: 00 05 00 23 sb	zero, 0(a0)
è¯»å–åœ°å€ 0x80001164
0x80001164: 00 00 80 67 jalr	zero, 0(ra)
è¯»å–åœ°å€ 0x80000da8
è¯»å–åœ°å€ 0x8009cfac
0x80000da8: 00 c1 26 03 lw	a2, 12(sp)
è¯»å–åœ°å€ 0x80000dac
è¯»å–åœ°å€ 0x8009cfa8
0x80000dac: 00 81 47 03 lbu	a4, 8(sp)
è¯»å–åœ°å€ 0x80000db0
0x80000db0: 18 09 05 13 addi	a0, s2, 384
è¯»å–åœ°å€ 0x80000db4
0x80000db4: 00 26 17 93 slli	a5, a2, 2
è¯»å–åœ°å€ 0x80000db8
0x80000db8: 00 f4 07 b3 add	a5, s0, a5
è¯»å–åœ°å€ 0x80000dbc
0x80000dbc: fc 06 16 e3 bne	a2, zero, 0x80000d88
è¯»å–åœ°å€ 0x80000dc0
è¯»å–åœ°å€ 0x80094e28
0x80000dc0: 00 0a c7 83 lbu	a5, 0(s5)
è¯»å–åœ°å€ 0x80000dc4
0x80000dc4: f9 1f f0 6f jal	zero, 0x80000d54
è¯»å–åœ°å€ 0x80000d54
è¯»å–åœ°å€ 0x80094e29
0x80000d54: 00 09 c7 03 lbu	a4, 0(s3)
è¯»å–åœ°å€ 0x80000d58
0x80000d58: 02 07 04 63 beq	a4, zero, 0x80000d80
è¯»å–åœ°å€ 0x80000d80
0x80000d80: 00 07 9e 63 bne	a5, zero, 0x80000d9c
è¯»å–åœ°å€ 0x80000d9c
0x80000d9c: 00 80 05 13 addi	a0, zero, 8
è¯»å–åœ°å€ 0x80000da0
0x80000da0: 00 81 05 93 addi	a1, sp, 8
è¯»å–åœ°å€ 0x80000da4
0x80000da4: 31 00 00 ef jal	ra, 0x800010b4
è¯»å–åœ°å€ 0x800010b4
0x800010b4: 80 01 17 b7 lui	a5, 524305
è¯»å–åœ°å€ 0x800010b8
0x800010b8: 00 25 15 13 slli	a0, a0, 2
è¯»å–åœ°å€ 0x800010bc
0x800010bc: 9f 87 87 93 addi	a5, a5, -1544
è¯»å–åœ°å€ 0x800010c0
0x800010c0: 00 a7 87 b3 add	a5, a5, a0
è¯»å–åœ°å€ 0x800010c4
è¯»å–åœ°å€ 0x80010a18
0x800010c4: 00 07 a7 83 lw	a5, 0(a5)
è¯»å–åœ°å€ 0x800010c8
0x800010c8: 00 05 85 13 addi	a0, a1, 0
è¯»å–åœ°å€ 0x800010cc
0x800010cc: 00 07 80 67 jalr	zero, 0(a5)
è¯»å–åœ°å€ 0x80001134
0x80001134: a0 00 07 b7 lui	a5, 655360
è¯»å–åœ°å€ 0x80001138
read device name = keyboard 	 addr = 0xa0000060 
0x80001138: 06 07 a7 83 lw	a5, 96(a5)
è¯»å–åœ°å€ 0x8000113c
0x8000113c: 00 00 87 37 lui	a4, 8
è¯»å–åœ°å€ 0x80001140
å†™å…¥åœ°å€ 0x8009cfac
0x80001140: 00 f5 22 23 sw	a5, 4(a0)
è¯»å–åœ°å€ 0x80001144
0x80001144: 00 e7 f6 b3 and	a3, a5, a4
è¯»å–åœ°å€ 0x80001148
0x80001148: 00 06 8c 63 beq	a3, zero, 0x80001160
è¯»å–åœ°å€ 0x80001160
å†™å…¥åœ°å€ 0x8009cfa8
0x80001160: 00 05 00 23 sb	zero, 0(a0)
è¯»å–åœ°å€ 0x80001164
0x80001164: 00 00 80 67 jalr	zero, 0(ra)
è¯»å–åœ°å€ 0x80000da8
è¯»å–åœ°å€ 0x8009cfac
0x80000da8: 00 c1 26 03 lw	a2, 12(sp)
è¯»å–åœ°å€ 0x80000dac
è¯»å–åœ°å€ 0x8009cfa8
0x80000dac: 00 81 47 03 lbu	a4, 8(sp)
è¯»å–åœ°å€ 0x80000db0
0x80000db0: 18 09 05 13 addi	a0, s2, 384
è¯»å–åœ°å€ 0x80000db4
0x80000db4: 00 26 17 93 slli	a5, a2, 2
è¯»å–åœ°å€ 0x80000db8
0x80000db8: 00 f4 07 b3 add	a5, s0, a5
è¯»å–åœ°å€ 0x80000dbc
0x80000dbc: fc 06 16 e3 bne	a2, zero, 0x80000d88
è¯»å–åœ°å€ 0x80000dc0
è¯»å–åœ°å€ 0x80094e28
0x80000dc0: 00 0a c7 83 lbu	a5, 0(s5)
è¯»å–åœ°å€ 0x80000dc4
0x80000dc4: f9 1f f0 6f jal	zero, 0x80000d54
è¯»å–åœ°å€ 0x80000d54
è¯»å–åœ°å€ 0x80094e29
0x80000d54: 00 09 c7 03 lbu	a4, 0(s3)
è¯»å–åœ°å€ 0x80000d58
0x80000d58: 02 07 04 63 beq	a4, zero, 0x80000d80
è¯»å–åœ°å€ 0x80000d80
0x80000d80: 00 07 9e 63 bne	a5, zero, 0x80000d9c
è¯»å–åœ°å€ 0x80000d9c
0x80000d9c: 00 80 05 13 addi	a0, zero, 8
è¯»å–åœ°å€ 0x80000da0
0x80000da0: 00 81 05 93 addi	a1, sp, 8
è¯»å–åœ°å€ 0x80000da4
0x80000da4: 31 00 00 ef jal	ra, 0x800010b4
è¯»å–åœ°å€ 0x800010b4
0x800010b4: 80 01 17 b7 lui	a5, 524305
è¯»å–åœ°å€ 0x800010b8
0x800010b8: 00 25 15 13 slli	a0, a0, 2
è¯»å–åœ°å€ 0x800010bc
0x800010bc: 9f 87 87 93 addi	a5, a5, -1544
è¯»å–åœ°å€ 0x800010c0
0x800010c0: 00 a7 87 b3 add	a5, a5, a0
è¯»å–åœ°å€ 0x800010c4
è¯»å–åœ°å€ 0x80010a18
0x800010c4: 00 07 a7 83 lw	a5, 0(a5)
è¯»å–åœ°å€ 0x800010c8
0x800010c8: 00 05 85 13 addi	a0, a1, 0
è¯»å–åœ°å€ 0x800010cc
0x800010cc: 00 07 80 67 jalr	zero, 0(a5)
è¯»å–åœ°å€ 0x80001134
0x80001134: a0 00 07 b7 lui	a5, 655360
è¯»å–åœ°å€ 0x80001138
read device name = keyboard 	 addr = 0xa0000060 
0x80001138: 06 07 a7 83 lw	a5, 96(a5)
è¯»å–åœ°å€ 0x8000113c
0x8000113c: 00 00 87 37 lui	a4, 8
è¯»å–åœ°å€ 0x80001140
å†™å…¥åœ°å€ 0x8009cfac
0x80001140: 00 f5 22 23 sw	a5, 4(a0)
è¯»å–åœ°å€ 0x80001144
0x80001144: 00 e7 f6 b3 and	a3, a5, a4
è¯»å–åœ°å€ 0x80001148
0x80001148: 00 06 8c 63 beq	a3, zero, 0x80001160
è¯»å–åœ°å€ 0x80001160
å†™å…¥åœ°å€ 0x8009cfa8
0x80001160: 00 05 00 23 sb	zero, 0(a0)
è¯»å–åœ°å€ 0x80001164
0x80001164: 00 00 80 67 jalr	zero, 0(ra)
è¯»å–åœ°å€ 0x80000da8
è¯»å–åœ°å€ 0x8009cfac
0x80000da8: 00 c1 26 03 lw	a2, 12(sp)
è¯»å–åœ°å€ 0x80000dac
è¯»å–åœ°å€ 0x8009cfa8
0x80000dac: 00 81 47 03 lbu	a4, 8(sp)
è¯»å–åœ°å€ 0x80000db0
0x80000db0: 18 09 05 13 addi	a0, s2, 384
è¯»å–åœ°å€ 0x80000db4
0x80000db4: 00 26 17 93 slli	a5, a2, 2
è¯»å–åœ°å€ 0x80000db8
0x80000db8: 00 f4 07 b3 add	a5, s0, a5
è¯»å–åœ°å€ 0x80000dbc
0x80000dbc: fc 06 16 e3 bne	a2, zero, 0x80000d88
è¯»å–åœ°å€ 0x80000dc0
è¯»å–åœ°å€ 0x80094e28
0x80000dc0: 00 0a c7 83 lbu	a5, 0(s5)
è¯»å–åœ°å€ 0x80000dc4
0x80000dc4: f9 1f f0 6f jal	zero, 0x80000d54
è¯»å–åœ°å€ 0x80000d54
è¯»å–åœ°å€ 0x80094e29
0x80000d54: 00 09 c7 03 lbu	a4, 0(s3)
è¯»å–åœ°å€ 0x80000d58
0x80000d58: 02 07 04 63 beq	a4, zero, 0x80000d80
è¯»å–åœ°å€ 0x80000d80
0x80000d80: 00 07 9e 63 bne	a5, zero, 0x80000d9c
è¯»å–åœ°å€ 0x80000d9c
0x80000d9c: 00 80 05 13 addi	a0, zero, 8
è¯»å–åœ°å€ 0x80000da0
0x80000da0: 00 81 05 93 addi	a1, sp, 8
è¯»å–åœ°å€ 0x80000da4
0x80000da4: 31 00 00 ef jal	ra, 0x800010b4
è¯»å–åœ°å€ 0x800010b4
0x800010b4: 80 01 17 b7 lui	a5, 524305
è¯»å–åœ°å€ 0x800010b8
0x800010b8: 00 25 15 13 slli	a0, a0, 2
è¯»å–åœ°å€ 0x800010bc
0x800010bc: 9f 87 87 93 addi	a5, a5, -1544
è¯»å–åœ°å€ 0x800010c0
0x800010c0: 00 a7 87 b3 add	a5, a5, a0
è¯»å–åœ°å€ 0x800010c4
è¯»å–åœ°å€ 0x80010a18
0x800010c4: 00 07 a7 83 lw	a5, 0(a5)
è¯»å–åœ°å€ 0x800010c8
0x800010c8: 00 05 85 13 addi	a0, a1, 0
è¯»å–åœ°å€ 0x800010cc
0x800010cc: 00 07 80 67 jalr	zero, 0(a5)
è¯»å–åœ°å€ 0x80001134
0x80001134: a0 00 07 b7 lui	a5, 655360
è¯»å–åœ°å€ 0x80001138
read device name = keyboard 	 addr = 0xa0000060 
0x80001138: 06 07 a7 83 lw	a5, 96(a5)
è¯»å–åœ°å€ 0x8000113c
0x8000113c: 00 00 87 37 lui	a4, 8
è¯»å–åœ°å€ 0x80001140
å†™å…¥åœ°å€ 0x8009cfac
0x80001140: 00 f5 22 23 sw	a5, 4(a0)
è¯»å–åœ°å€ 0x80001144
0x80001144: 00 e7 f6 b3 and	a3, a5, a4
è¯»å–åœ°å€ 0x80001148
0x80001148: 00 06 8c 63 beq	a3, zero, 0x80001160
è¯»å–åœ°å€ 0x80001160
å†™å…¥åœ°å€ 0x8009cfa8
0x80001160: 00 05 00 23 sb	zero, 0(a0)
è¯»å–åœ°å€ 0x80001164
0x80001164: 00 00 80 67 jalr	zero, 0(ra)
è¯»å–åœ°å€ 0x80000da8
è¯»å–åœ°å€ 0x8009cfac
0x80000da8: 00 c1 26 03 lw	a2, 12(sp)
è¯»å–åœ°å€ 0x80000dac
è¯»å–åœ°å€ 0x8009cfa8
0x80000dac: 00 81 47 03 lbu	a4, 8(sp)
è¯»å–åœ°å€ 0x80000db0
0x80000db0: 18 09 05 13 addi	a0, s2, 384
è¯»å–åœ°å€ 0x80000db4
0x80000db4: 00 26 17 93 slli	a5, a2, 2
è¯»å–åœ°å€ 0x80000db8
0x80000db8: 00 f4 07 b3 add	a5, s0, a5
è¯»å–åœ°å€ 0x80000dbc
0x80000dbc: fc 06 16 e3 bne	a2, zero, 0x80000d88
è¯»å–åœ°å€ 0x80000dc0
è¯»å–åœ°å€ 0x80094e28
0x80000dc0: 00 0a c7 83 lbu	a5, 0(s5)
è¯»å–åœ°å€ 0x80000dc4
0x80000dc4: f9 1f f0 6f jal	zero, 0x80000d54
è¯»å–åœ°å€ 0x80000d54
è¯»å–åœ°å€ 0x80094e29
0x80000d54: 00 09 c7 03 lbu	a4, 0(s3)
è¯»å–åœ°å€ 0x80000d58
0x80000d58: 02 07 04 63 beq	a4, zero, 0x80000d80
è¯»å–åœ°å€ 0x80000d80
0x80000d80: 00 07 9e 63 bne	a5, zero, 0x80000d9c
è¯»å–åœ°å€ 0x80000d9c
0x80000d9c: 00 80 05 13 addi	a0, zero, 8
è¯»å–åœ°å€ 0x80000da0
0x80000da0: 00 81 05 93 addi	a1, sp, 8
è¯»å–åœ°å€ 0x80000da4
0x80000da4: 31 00 00 ef jal	ra, 0x800010b4
è¯»å–åœ°å€ 0x800010b4
0x800010b4: 80 01 17 b7 lui	a5, 524305
è¯»å–åœ°å€ 0x800010b8
0x800010b8: 00 25 15 13 slli	a0, a0, 2
è¯»å–åœ°å€ 0x800010bc
0x800010bc: 9f 87 87 93 addi	a5, a5, -1544
è¯»å–åœ°å€ 0x800010c0
0x800010c0: 00 a7 87 b3 add	a5, a5, a0
è¯»å–åœ°å€ 0x800010c4
è¯»å–åœ°å€ 0x80010a18
0x800010c4: 00 07 a7 83 lw	a5, 0(a5)
è¯»å–åœ°å€ 0x800010c8
0x800010c8: 00 05 85 13 addi	a0, a1, 0
è¯»å–åœ°å€ 0x800010cc
0x800010cc: 00 07 80 67 jalr	zero, 0(a5)
è¯»å–åœ°å€ 0x80001134
0x80001134: a0 00 07 b7 lui	a5, 655360
è¯»å–åœ°å€ 0x80001138
read device name = keyboard 	 addr = 0xa0000060 
0x80001138: 06 07 a7 83 lw	a5, 96(a5)
è¯»å–åœ°å€ 0x8000113c
0x8000113c: 00 00 87 37 lui	a4, 8
è¯»å–åœ°å€ 0x80001140
å†™å…¥åœ°å€ 0x8009cfac
0x80001140: 00 f5 22 23 sw	a5, 4(a0)
è¯»å–åœ°å€ 0x80001144
0x80001144: 00 e7 f6 b3 and	a3, a5, a4
è¯»å–åœ°å€ 0x80001148
0x80001148: 00 06 8c 63 beq	a3, zero, 0x80001160
è¯»å–åœ°å€ 0x80001160
å†™å…¥åœ°å€ 0x8009cfa8
0x80001160: 00 05 00 23 sb	zero, 0(a0)
è¯»å–åœ°å€ 0x80001164
0x80001164: 00 00 80 67 jalr	zero, 0(ra)
è¯»å–åœ°å€ 0x80000da8
è¯»å–åœ°å€ 0x8009cfac
0x80000da8: 00 c1 26 03 lw	a2, 12(sp)
è¯»å–åœ°å€ 0x80000dac
è¯»å–åœ°å€ 0x8009cfa8
0x80000dac: 00 81 47 03 lbu	a4, 8(sp)
è¯»å–åœ°å€ 0x80000db0
0x80000db0: 18 09 05 13 addi	a0, s2, 384
è¯»å–åœ°å€ 0x80000db4
0x80000db4: 00 26 17 93 slli	a5, a2, 2
è¯»å–åœ°å€ 0x80000db8
0x80000db8: 00 f4 07 b3 add	a5, s0, a5
è¯»å–åœ°å€ 0x80000dbc
0x80000dbc: fc 06 16 e3 bne	a2, zero, 0x80000d88
è¯»å–åœ°å€ 0x80000dc0
è¯»å–åœ°å€ 0x80094e28
0x80000dc0: 00 0a c7 83 lbu	a5, 0(s5)
è¯»å–åœ°å€ 0x80000dc4
0x80000dc4: f9 1f f0 6f jal	zero, 0x80000d54
è¯»å–åœ°å€ 0x80000d54
è¯»å–åœ°å€ 0x80094e29
0x80000d54: 00 09 c7 03 lbu	a4, 0(s3)
è¯»å–åœ°å€ 0x80000d58
0x80000d58: 02 07 04 63 beq	a4, zero, 0x80000d80
è¯»å–åœ°å€ 0x80000d80
0x80000d80: 00 07 9e 63 bne	a5, zero, 0x80000d9c
è¯»å–åœ°å€ 0x80000d9c
0x80000d9c: 00 80 05 13 addi	a0, zero, 8
è¯»å–åœ°å€ 0x80000da0
0x80000da0: 00 81 05 93 addi	a1, sp, 8
è¯»å–åœ°å€ 0x80000da4
0x80000da4: 31 00 00 ef jal	ra, 0x800010b4
è¯»å–åœ°å€ 0x800010b4
0x800010b4: 80 01 17 b7 lui	a5, 524305
è¯»å–åœ°å€ 0x800010b8
0x800010b8: 00 25 15 13 slli	a0, a0, 2
è¯»å–åœ°å€ 0x800010bc
0x800010bc: 9f 87 87 93 addi	a5, a5, -1544
è¯»å–åœ°å€ 0x800010c0
0x800010c0: 00 a7 87 b3 add	a5, a5, a0
è¯»å–åœ°å€ 0x800010c4
è¯»å–åœ°å€ 0x80010a18
0x800010c4: 00 07 a7 83 lw	a5, 0(a5)
è¯»å–åœ°å€ 0x800010c8
0x800010c8: 00 05 85 13 addi	a0, a1, 0
è¯»å–åœ°å€ 0x800010cc
0x800010cc: 00 07 80 67 jalr	zero, 0(a5)
è¯»å–åœ°å€ 0x80001134
0x80001134: a0 00 07 b7 lui	a5, 655360
è¯»å–åœ°å€ 0x80001138
read device name = keyboard 	 addr = 0xa0000060 
0x80001138: 06 07 a7 83 lw	a5, 96(a5)
è¯»å–åœ°å€ 0x8000113c
0x8000113c: 00 00 87 37 lui	a4, 8
è¯»å–åœ°å€ 0x80001140
å†™å…¥åœ°å€ 0x8009cfac
0x80001140: 00 f5 22 23 sw	a5, 4(a0)
è¯»å–åœ°å€ 0x80001144
0x80001144: 00 e7 f6 b3 and	a3, a5, a4
è¯»å–åœ°å€ 0x80001148
0x80001148: 00 06 8c 63 beq	a3, zero, 0x80001160
è¯»å–åœ°å€ 0x80001160
å†™å…¥åœ°å€ 0x8009cfa8
0x80001160: 00 05 00 23 sb	zero, 0(a0)
è¯»å–åœ°å€ 0x80001164
0x80001164: 00 00 80 67 jalr	zero, 0(ra)
è¯»å–åœ°å€ 0x80000da8
è¯»å–åœ°å€ 0x8009cfac
0x80000da8: 00 c1 26 03 lw	a2, 12(sp)
è¯»å–åœ°å€ 0x80000dac
è¯»å–åœ°å€ 0x8009cfa8
0x80000dac: 00 81 47 03 lbu	a4, 8(sp)
è¯»å–åœ°å€ 0x80000db0
0x80000db0: 18 09 05 13 addi	a0, s2, 384
è¯»å–åœ°å€ 0x80000db4
0x80000db4: 00 26 17 93 slli	a5, a2, 2
è¯»å–åœ°å€ 0x80000db8
0x80000db8: 00 f4 07 b3 add	a5, s0, a5
è¯»å–åœ°å€ 0x80000dbc
0x80000dbc: fc 06 16 e3 bne	a2, zero, 0x80000d88
è¯»å–åœ°å€ 0x80000dc0
è¯»å–åœ°å€ 0x80094e28
0x80000dc0: 00 0a c7 83 lbu	a5, 0(s5)
è¯»å–åœ°å€ 0x80000dc4
0x80000dc4: f9 1f f0 6f jal	zero, 0x80000d54
è¯»å–åœ°å€ 0x80000d54
è¯»å–åœ°å€ 0x80094e29
0x80000d54: 00 09 c7 03 lbu	a4, 0(s3)
è¯»å–åœ°å€ 0x80000d58
0x80000d58: 02 07 04 63 beq	a4, zero, 0x80000d80
è¯»å–åœ°å€ 0x80000d80
0x80000d80: 00 07 9e 63 bne	a5, zero, 0x80000d9c
è¯»å–åœ°å€ 0x80000d9c
0x80000d9c: 00 80 05 13 addi	a0, zero, 8
è¯»å–åœ°å€ 0x80000da0
0x80000da0: 00 81 05 93 addi	a1, sp, 8
è¯»å–åœ°å€ 0x80000da4
0x80000da4: 31 00 00 ef jal	ra, 0x800010b4
è¯»å–åœ°å€ 0x800010b4
0x800010b4: 80 01 17 b7 lui	a5, 524305
è¯»å–åœ°å€ 0x800010b8
0x800010b8: 00 25 15 13 slli	a0, a0, 2
è¯»å–åœ°å€ 0x800010bc
0x800010bc: 9f 87 87 93 addi	a5, a5, -1544
è¯»å–åœ°å€ 0x800010c0
0x800010c0: 00 a7 87 b3 add	a5, a5, a0
è¯»å–åœ°å€ 0x800010c4
è¯»å–åœ°å€ 0x80010a18
0x800010c4: 00 07 a7 83 lw	a5, 0(a5)
è¯»å–åœ°å€ 0x800010c8
0x800010c8: 00 05 85 13 addi	a0, a1, 0
è¯»å–åœ°å€ 0x800010cc
0x800010cc: 00 07 80 67 jalr	zero, 0(a5)
è¯»å–åœ°å€ 0x80001134
0x80001134: a0 00 07 b7 lui	a5, 655360
è¯»å–åœ°å€ 0x80001138
read device name = keyboard 	 addr = 0xa0000060 
0x80001138: 06 07 a7 83 lw	a5, 96(a5)
è¯»å–åœ°å€ 0x8000113c
0x8000113c: 00 00 87 37 lui	a4, 8
è¯»å–åœ°å€ 0x80001140
å†™å…¥åœ°å€ 0x8009cfac
0x80001140: 00 f5 22 23 sw	a5, 4(a0)
è¯»å–åœ°å€ 0x80001144
0x80001144: 00 e7 f6 b3 and	a3, a5, a4
è¯»å–åœ°å€ 0x80001148
0x80001148: 00 06 8c 63 beq	a3, zero, 0x80001160
è¯»å–åœ°å€ 0x80001160
å†™å…¥åœ°å€ 0x8009cfa8
0x80001160: 00 05 00 23 sb	zero, 0(a0)
è¯»å–åœ°å€ 0x80001164
0x80001164: 00 00 80 67 jalr	zero, 0(ra)
è¯»å–åœ°å€ 0x80000da8
è¯»å–åœ°å€ 0x8009cfac
0x80000da8: 00 c1 26 03 lw	a2, 12(sp)
è¯»å–åœ°å€ 0x80000dac
è¯»å–åœ°å€ 0x8009cfa8
0x80000dac: 00 81 47 03 lbu	a4, 8(sp)
è¯»å–åœ°å€ 0x80000db0
0x80000db0: 18 09 05 13 addi	a0, s2, 384
è¯»å–åœ°å€ 0x80000db4
0x80000db4: 00 26 17 93 slli	a5, a2, 2
è¯»å–åœ°å€ 0x80000db8
0x80000db8: 00 f4 07 b3 add	a5, s0, a5
è¯»å–åœ°å€ 0x80000dbc
0x80000dbc: fc 06 16 e3 bne	a2, zero, 0x80000d88
è¯»å–åœ°å€ 0x80000dc0
è¯»å–åœ°å€ 0x80094e28
0x80000dc0: 00 0a c7 83 lbu	a5, 0(s5)
è¯»å–åœ°å€ 0x80000dc4
0x80000dc4: f9 1f f0 6f jal	zero, 0x80000d54
è¯»å–åœ°å€ 0x80000d54
è¯»å–åœ°å€ 0x80094e29
0x80000d54: 00 09 c7 03 lbu	a4, 0(s3)
è¯»å–åœ°å€ 0x80000d58
0x80000d58: 02 07 04 63 beq	a4, zero, 0x80000d80
è¯»å–åœ°å€ 0x80000d80
0x80000d80: 00 07 9e 63 bne	a5, zero, 0x80000d9c
è¯»å–åœ°å€ 0x80000d9c
0x80000d9c: 00 80 05 13 addi	a0, zero, 8
è¯»å–åœ°å€ 0x80000da0
0x80000da0: 00 81 05 93 addi	a1, sp, 8
è¯»å–åœ°å€ 0x80000da4
0x80000da4: 31 00 00 ef jal	ra, 0x800010b4
è¯»å–åœ°å€ 0x800010b4
0x800010b4: 80 01 17 b7 lui	a5, 524305
è¯»å–åœ°å€ 0x800010b8
0x800010b8: 00 25 15 13 slli	a0, a0, 2
è¯»å–åœ°å€ 0x800010bc
0x800010bc: 9f 87 87 93 addi	a5, a5, -1544
è¯»å–åœ°å€ 0x800010c0
0x800010c0: 00 a7 87 b3 add	a5, a5, a0
è¯»å–åœ°å€ 0x800010c4
è¯»å–åœ°å€ 0x80010a18
0x800010c4: 00 07 a7 83 lw	a5, 0(a5)
è¯»å–åœ°å€ 0x800010c8
0x800010c8: 00 05 85 13 addi	a0, a1, 0
è¯»å–åœ°å€ 0x800010cc
0x800010cc: 00 07 80 67 jalr	zero, 0(a5)
è¯»å–åœ°å€ 0x80001134
0x80001134: a0 00 07 b7 lui	a5, 655360
è¯»å–åœ°å€ 0x80001138
read device name = keyboard 	 addr = 0xa0000060 
0x80001138: 06 07 a7 83 lw	a5, 96(a5)
è¯»å–åœ°å€ 0x8000113c
0x8000113c: 00 00 87 37 lui	a4, 8
è¯»å–åœ°å€ 0x80001140
å†™å…¥åœ°å€ 0x8009cfac
0x80001140: 00 f5 22 23 sw	a5, 4(a0)
è¯»å–åœ°å€ 0x80001144
0x80001144: 00 e7 f6 b3 and	a3, a5, a4
è¯»å–åœ°å€ 0x80001148
0x80001148: 00 06 8c 63 beq	a3, zero, 0x80001160
è¯»å–åœ°å€ 0x80001160
å†™å…¥åœ°å€ 0x8009cfa8
0x80001160: 00 05 00 23 sb	zero, 0(a0)
è¯»å–åœ°å€ 0x80001164
0x80001164: 00 00 80 67 jalr	zero, 0(ra)
è¯»å–åœ°å€ 0x80000da8
è¯»å–åœ°å€ 0x8009cfac
0x80000da8: 00 c1 26 03 lw	a2, 12(sp)
è¯»å–åœ°å€ 0x80000dac
è¯»å–åœ°å€ 0x8009cfa8
0x80000dac: 00 81 47 03 lbu	a4, 8(sp)
è¯»å–åœ°å€ 0x80000db0
0x80000db0: 18 09 05 13 addi	a0, s2, 384
è¯»å–åœ°å€ 0x80000db4
0x80000db4: 00 26 17 93 slli	a5, a2, 2
è¯»å–åœ°å€ 0x80000db8
0x80000db8: 00 f4 07 b3 add	a5, s0, a5
è¯»å–åœ°å€ 0x80000dbc
0x80000dbc: fc 06 16 e3 bne	a2, zero, 0x80000d88
è¯»å–åœ°å€ 0x80000dc0
è¯»å–åœ°å€ 0x80094e28
0x80000dc0: 00 0a c7 83 lbu	a5, 0(s5)
è¯»å–åœ°å€ 0x80000dc4
0x80000dc4: f9 1f f0 6f jal	zero, 0x80000d54
è¯»å–åœ°å€ 0x80000d54
è¯»å–åœ°å€ 0x80094e29
0x80000d54: 00 09 c7 03 lbu	a4, 0(s3)
è¯»å–åœ°å€ 0x80000d58
0x80000d58: 02 07 04 63 beq	a4, zero, 0x80000d80
è¯»å–åœ°å€ 0x80000d80
0x80000d80: 00 07 9e 63 bne	a5, zero, 0x80000d9c
è¯»å–åœ°å€ 0x80000d9c
0x80000d9c: 00 80 05 13 addi	a0, zero, 8
è¯»å–åœ°å€ 0x80000da0
0x80000da0: 00 81 05 93 addi	a1, sp, 8
è¯»å–åœ°å€ 0x80000da4
0x80000da4: 31 00 00 ef jal	ra, 0x800010b4
è¯»å–åœ°å€ 0x800010b4
0x800010b4: 80 01 17 b7 lui	a5, 524305
è¯»å–åœ°å€ 0x800010b8
0x800010b8: 00 25 15 13 slli	a0, a0, 2
è¯»å–åœ°å€ 0x800010bc
0x800010bc: 9f 87 87 93 addi	a5, a5, -1544
è¯»å–åœ°å€ 0x800010c0
0x800010c0: 00 a7 87 b3 add	a5, a5, a0
è¯»å–åœ°å€ 0x800010c4
è¯»å–åœ°å€ 0x80010a18
0x800010c4: 00 07 a7 83 lw	a5, 0(a5)
è¯»å–åœ°å€ 0x800010c8
0x800010c8: 00 05 85 13 addi	a0, a1, 0
è¯»å–åœ°å€ 0x800010cc
0x800010cc: 00 07 80 67 jalr	zero, 0(a5)
è¯»å–åœ°å€ 0x80001134
0x80001134: a0 00 07 b7 lui	a5, 655360
è¯»å–åœ°å€ 0x80001138
read device name = keyboard 	 addr = 0xa0000060 
0x80001138: 06 07 a7 83 lw	a5, 96(a5)
è¯»å–åœ°å€ 0x8000113c
0x8000113c: 00 00 87 37 lui	a4, 8
è¯»å–åœ°å€ 0x80001140
å†™å…¥åœ°å€ 0x8009cfac
0x80001140: 00 f5 22 23 sw	a5, 4(a0)
è¯»å–åœ°å€ 0x80001144
0x80001144: 00 e7 f6 b3 and	a3, a5, a4
è¯»å–åœ°å€ 0x80001148
0x80001148: 00 06 8c 63 beq	a3, zero, 0x80001160
è¯»å–åœ°å€ 0x80001160
å†™å…¥åœ°å€ 0x8009cfa8
0x80001160: 00 05 00 23 sb	zero, 0(a0)
è¯»å–åœ°å€ 0x80001164
0x80001164: 00 00 80 67 jalr	zero, 0(ra)
è¯»å–åœ°å€ 0x80000da8
è¯»å–åœ°å€ 0x8009cfac
0x80000da8: 00 c1 26 03 lw	a2, 12(sp)
è¯»å–åœ°å€ 0x80000dac
è¯»å–åœ°å€ 0x8009cfa8
0x80000dac: 00 81 47 03 lbu	a4, 8(sp)
è¯»å–åœ°å€ 0x80000db0
0x80000db0: 18 09 05 13 addi	a0, s2, 384
è¯»å–åœ°å€ 0x80000db4
0x80000db4: 00 26 17 93 slli	a5, a2, 2
è¯»å–åœ°å€ 0x80000db8
0x80000db8: 00 f4 07 b3 add	a5, s0, a5
è¯»å–åœ°å€ 0x80000dbc
0x80000dbc: fc 06 16 e3 bne	a2, zero, 0x80000d88
è¯»å–åœ°å€ 0x80000dc0
è¯»å–åœ°å€ 0x80094e28
0x80000dc0: 00 0a c7 83 lbu	a5, 0(s5)
è¯»å–åœ°å€ 0x80000dc4
0x80000dc4: f9 1f f0 6f jal	zero, 0x80000d54
è¯»å–åœ°å€ 0x80000d54
è¯»å–åœ°å€ 0x80094e29
0x80000d54: 00 09 c7 03 lbu	a4, 0(s3)
è¯»å–åœ°å€ 0x80000d58
0x80000d58: 02 07 04 63 beq	a4, zero, 0x80000d80
è¯»å–åœ°å€ 0x80000d80
0x80000d80: 00 07 9e 63 bne	a5, zero, 0x80000d9c
è¯»å–åœ°å€ 0x80000d9c
0x80000d9c: 00 80 05 13 addi	a0, zero, 8
è¯»å–åœ°å€ 0x80000da0
0x80000da0: 00 81 05 93 addi	a1, sp, 8
è¯»å–åœ°å€ 0x80000da4
0x80000da4: 31 00 00 ef jal	ra, 0x800010b4
è¯»å–åœ°å€ 0x800010b4
0x800010b4: 80 01 17 b7 lui	a5, 524305
è¯»å–åœ°å€ 0x800010b8
0x800010b8: 00 25 15 13 slli	a0, a0, 2
è¯»å–åœ°å€ 0x800010bc
0x800010bc: 9f 87 87 93 addi	a5, a5, -1544
è¯»å–åœ°å€ 0x800010c0
0x800010c0: 00 a7 87 b3 add	a5, a5, a0
è¯»å–åœ°å€ 0x800010c4
è¯»å–åœ°å€ 0x80010a18
0x800010c4: 00 07 a7 83 lw	a5, 0(a5)
è¯»å–åœ°å€ 0x800010c8
0x800010c8: 00 05 85 13 addi	a0, a1, 0
è¯»å–åœ°å€ 0x800010cc
0x800010cc: 00 07 80 67 jalr	zero, 0(a5)
è¯»å–åœ°å€ 0x80001134
0x80001134: a0 00 07 b7 lui	a5, 655360
è¯»å–åœ°å€ 0x80001138
read device name = keyboard 	 addr = 0xa0000060 
0x80001138: 06 07 a7 83 lw	a5, 96(a5)
è¯»å–åœ°å€ 0x8000113c
0x8000113c: 00 00 87 37 lui	a4, 8
è¯»å–åœ°å€ 0x80001140
å†™å…¥åœ°å€ 0x8009cfac
0x80001140: 00 f5 22 23 sw	a5, 4(a0)
è¯»å–åœ°å€ 0x80001144
0x80001144: 00 e7 f6 b3 and	a3, a5, a4
è¯»å–åœ°å€ 0x80001148
0x80001148: 00 06 8c 63 beq	a3, zero, 0x80001160
è¯»å–åœ°å€ 0x80001160
å†™å…¥åœ°å€ 0x8009cfa8
0x80001160: 00 05 00 23 sb	zero, 0(a0)
è¯»å–åœ°å€ 0x80001164
0x80001164: 00 00 80 67 jalr	zero, 0(ra)
è¯»å–åœ°å€ 0x80000da8
è¯»å–åœ°å€ 0x8009cfac
0x80000da8: 00 c1 26 03 lw	a2, 12(sp)
è¯»å–åœ°å€ 0x80000dac
è¯»å–åœ°å€ 0x8009cfa8
0x80000dac: 00 81 47 03 lbu	a4, 8(sp)
è¯»å–åœ°å€ 0x80000db0
0x80000db0: 18 09 05 13 addi	a0, s2, 384
è¯»å–åœ°å€ 0x80000db4
0x80000db4: 00 26 17 93 slli	a5, a2, 2
è¯»å–åœ°å€ 0x80000db8
0x80000db8: 00 f4 07 b3 add	a5, s0, a5
è¯»å–åœ°å€ 0x80000dbc
0x80000dbc: fc 06 16 e3 bne	a2, zero, 0x80000d88
è¯»å–åœ°å€ 0x80000dc0
è¯»å–åœ°å€ 0x80094e28
0x80000dc0: 00 0a c7 83 lbu	a5, 0(s5)
è¯»å–åœ°å€ 0x80000dc4
0x80000dc4: f9 1f f0 6f jal	zero, 0x80000d54
è¯»å–åœ°å€ 0x80000d54
è¯»å–åœ°å€ 0x80094e29
0x80000d54: 00 09 c7 03 lbu	a4, 0(s3)
è¯»å–åœ°å€ 0x80000d58
0x80000d58: 02 07 04 63 beq	a4, zero, 0x80000d80
è¯»å–åœ°å€ 0x80000d80
0x80000d80: 00 07 9e 63 bne	a5, zero, 0x80000d9c
è¯»å–åœ°å€ 0x80000d9c
0x80000d9c: 00 80 05 13 addi	a0, zero, 8
è¯»å–åœ°å€ 0x80000da0
0x80000da0: 00 81 05 93 addi	a1, sp, 8
è¯»å–åœ°å€ 0x80000da4
0x80000da4: 31 00 00 ef jal	ra, 0x800010b4
è¯»å–åœ°å€ 0x800010b4
0x800010b4: 80 01 17 b7 lui	a5, 524305
è¯»å–åœ°å€ 0x800010b8
0x800010b8: 00 25 15 13 slli	a0, a0, 2
è¯»å–åœ°å€ 0x800010bc
0x800010bc: 9f 87 87 93 addi	a5, a5, -1544
è¯»å–åœ°å€ 0x800010c0
0x800010c0: 00 a7 87 b3 add	a5, a5, a0
è¯»å–åœ°å€ 0x800010c4
è¯»å–åœ°å€ 0x80010a18
0x800010c4: 00 07 a7 83 lw	a5, 0(a5)
è¯»å–åœ°å€ 0x800010c8
0x800010c8: 00 05 85 13 addi	a0, a1, 0
è¯»å–åœ°å€ 0x800010cc
0x800010cc: 00 07 80 67 jalr	zero, 0(a5)
è¯»å–åœ°å€ 0x80001134
0x80001134: a0 00 07 b7 lui	a5, 655360
è¯»å–åœ°å€ 0x80001138
read device name = keyboard 	 addr = 0xa0000060 
0x80001138: 06 07 a7 83 lw	a5, 96(a5)
è¯»å–åœ°å€ 0x8000113c
0x8000113c: 00 00 87 37 lui	a4, 8
è¯»å–åœ°å€ 0x80001140
å†™å…¥åœ°å€ 0x8009cfac
0x80001140: 00 f5 22 23 sw	a5, 4(a0)
è¯»å–åœ°å€ 0x80001144
0x80001144: 00 e7 f6 b3 and	a3, a5, a4
è¯»å–åœ°å€ 0x80001148
0x80001148: 00 06 8c 63 beq	a3, zero, 0x80001160
è¯»å–åœ°å€ 0x80001160
å†™å…¥åœ°å€ 0x8009cfa8
0x80001160: 00 05 00 23 sb	zero, 0(a0)
è¯»å–åœ°å€ 0x80001164
0x80001164: 00 00 80 67 jalr	zero, 0(ra)
è¯»å–åœ°å€ 0x80000da8
è¯»å–åœ°å€ 0x8009cfac
0x80000da8: 00 c1 26 03 lw	a2, 12(sp)
è¯»å–åœ°å€ 0x80000dac
è¯»å–åœ°å€ 0x8009cfa8
0x80000dac: 00 81 47 03 lbu	a4, 8(sp)
è¯»å–åœ°å€ 0x80000db0
0x80000db0: 18 09 05 13 addi	a0, s2, 384
è¯»å–åœ°å€ 0x80000db4
0x80000db4: 00 26 17 93 slli	a5, a2, 2
è¯»å–åœ°å€ 0x80000db8
0x80000db8: 00 f4 07 b3 add	a5, s0, a5
è¯»å–åœ°å€ 0x80000dbc
0x80000dbc: fc 06 16 e3 bne	a2, zero, 0x80000d88
è¯»å–åœ°å€ 0x80000dc0
è¯»å–åœ°å€ 0x80094e28
0x80000dc0: 00 0a c7 83 lbu	a5, 0(s5)
è¯»å–åœ°å€ 0x80000dc4
0x80000dc4: f9 1f f0 6f jal	zero, 0x80000d54
è¯»å–åœ°å€ 0x80000d54
è¯»å–åœ°å€ 0x80094e29
0x80000d54: 00 09 c7 03 lbu	a4, 0(s3)
è¯»å–åœ°å€ 0x80000d58
0x80000d58: 02 07 04 63 beq	a4, zero, 0x80000d80
è¯»å–åœ°å€ 0x80000d80
0x80000d80: 00 07 9e 63 bne	a5, zero, 0x80000d9c
è¯»å–åœ°å€ 0x80000d9c
0x80000d9c: 00 80 05 13 addi	a0, zero, 8
è¯»å–åœ°å€ 0x80000da0
0x80000da0: 00 81 05 93 addi	a1, sp, 8
è¯»å–åœ°å€ 0x80000da4
0x80000da4: 31 00 00 ef jal	ra, 0x800010b4
è¯»å–åœ°å€ 0x800010b4
0x800010b4: 80 01 17 b7 lui	a5, 524305
è¯»å–åœ°å€ 0x800010b8
0x800010b8: 00 25 15 13 slli	a0, a0, 2
è¯»å–åœ°å€ 0x800010bc
0x800010bc: 9f 87 87 93 addi	a5, a5, -1544
è¯»å–åœ°å€ 0x800010c0
0x800010c0: 00 a7 87 b3 add	a5, a5, a0
è¯»å–åœ°å€ 0x800010c4
è¯»å–åœ°å€ 0x80010a18
0x800010c4: 00 07 a7 83 lw	a5, 0(a5)
è¯»å–åœ°å€ 0x800010c8
0x800010c8: 00 05 85 13 addi	a0, a1, 0
è¯»å–åœ°å€ 0x800010cc
0x800010cc: 00 07 80 67 jalr	zero, 0(a5)
è¯»å–åœ°å€ 0x80001134
0x80001134: a0 00 07 b7 lui	a5, 655360
è¯»å–åœ°å€ 0x80001138
read device name = keyboard 	 addr = 0xa0000060 
0x80001138: 06 07 a7 83 lw	a5, 96(a5)
è¯»å–åœ°å€ 0x8000113c
0x8000113c: 00 00 87 37 lui	a4, 8
è¯»å–åœ°å€ 0x80001140
å†™å…¥åœ°å€ 0x8009cfac
0x80001140: 00 f5 22 23 sw	a5, 4(a0)
è¯»å–åœ°å€ 0x80001144
0x80001144: 00 e7 f6 b3 and	a3, a5, a4
è¯»å–åœ°å€ 0x80001148
0x80001148: 00 06 8c 63 beq	a3, zero, 0x80001160
è¯»å–åœ°å€ 0x80001160
å†™å…¥åœ°å€ 0x8009cfa8
0x80001160: 00 05 00 23 sb	zero, 0(a0)
è¯»å–åœ°å€ 0x80001164
0x80001164: 00 00 80 67 jalr	zero, 0(ra)
è¯»å–åœ°å€ 0x80000da8
è¯»å–åœ°å€ 0x8009cfac
0x80000da8: 00 c1 26 03 lw	a2, 12(sp)
è¯»å–åœ°å€ 0x80000dac
è¯»å–åœ°å€ 0x8009cfa8
0x80000dac: 00 81 47 03 lbu	a4, 8(sp)
è¯»å–åœ°å€ 0x80000db0
0x80000db0: 18 09 05 13 addi	a0, s2, 384
è¯»å–åœ°å€ 0x80000db4
0x80000db4: 00 26 17 93 slli	a5, a2, 2
è¯»å–åœ°å€ 0x80000db8
0x80000db8: 00 f4 07 b3 add	a5, s0, a5
è¯»å–åœ°å€ 0x80000dbc
0x80000dbc: fc 06 16 e3 bne	a2, zero, 0x80000d88
è¯»å–åœ°å€ 0x80000dc0
è¯»å–åœ°å€ 0x80094e28
0x80000dc0: 00 0a c7 83 lbu	a5, 0(s5)
è¯»å–åœ°å€ 0x80000dc4
0x80000dc4: f9 1f f0 6f jal	zero, 0x80000d54
è¯»å–åœ°å€ 0x80000d54
è¯»å–åœ°å€ 0x80094e29
0x80000d54: 00 09 c7 03 lbu	a4, 0(s3)
è¯»å–åœ°å€ 0x80000d58
0x80000d58: 02 07 04 63 beq	a4, zero, 0x80000d80
è¯»å–åœ°å€ 0x80000d80
0x80000d80: 00 07 9e 63 bne	a5, zero, 0x80000d9c
è¯»å–åœ°å€ 0x80000d9c
0x80000d9c: 00 80 05 13 addi	a0, zero, 8
è¯»å–åœ°å€ 0x80000da0
0x80000da0: 00 81 05 93 addi	a1, sp, 8
è¯»å–åœ°å€ 0x80000da4
0x80000da4: 31 00 00 ef jal	ra, 0x800010b4
è¯»å–åœ°å€ 0x800010b4
0x800010b4: 80 01 17 b7 lui	a5, 524305
è¯»å–åœ°å€ 0x800010b8
0x800010b8: 00 25 15 13 slli	a0, a0, 2
è¯»å–åœ°å€ 0x800010bc
0x800010bc: 9f 87 87 93 addi	a5, a5, -1544
è¯»å–åœ°å€ 0x800010c0
0x800010c0: 00 a7 87 b3 add	a5, a5, a0
è¯»å–åœ°å€ 0x800010c4
è¯»å–åœ°å€ 0x80010a18
0x800010c4: 00 07 a7 83 lw	a5, 0(a5)
è¯»å–åœ°å€ 0x800010c8
0x800010c8: 00 05 85 13 addi	a0, a1, 0
è¯»å–åœ°å€ 0x800010cc
0x800010cc: 00 07 80 67 jalr	zero, 0(a5)
è¯»å–åœ°å€ 0x80001134
0x80001134: a0 00 07 b7 lui	a5, 655360
è¯»å–åœ°å€ 0x80001138
read device name = keyboard 	 addr = 0xa0000060 
0x80001138: 06 07 a7 83 lw	a5, 96(a5)
è¯»å–åœ°å€ 0x8000113c
0x8000113c: 00 00 87 37 lui	a4, 8
è¯»å–åœ°å€ 0x80001140
å†™å…¥åœ°å€ 0x8009cfac
0x80001140: 00 f5 22 23 sw	a5, 4(a0)
è¯»å–åœ°å€ 0x80001144
0x80001144: 00 e7 f6 b3 and	a3, a5, a4
è¯»å–åœ°å€ 0x80001148
0x80001148: 00 06 8c 63 beq	a3, zero, 0x80001160
è¯»å–åœ°å€ 0x80001160
å†™å…¥åœ°å€ 0x8009cfa8
0x80001160: 00 05 00 23 sb	zero, 0(a0)
è¯»å–åœ°å€ 0x80001164
0x80001164: 00 00 80 67 jalr	zero, 0(ra)
è¯»å–åœ°å€ 0x80000da8
è¯»å–åœ°å€ 0x8009cfac
0x80000da8: 00 c1 26 03 lw	a2, 12(sp)
è¯»å–åœ°å€ 0x80000dac
è¯»å–åœ°å€ 0x8009cfa8
0x80000dac: 00 81 47 03 lbu	a4, 8(sp)
è¯»å–åœ°å€ 0x80000db0
0x80000db0: 18 09 05 13 addi	a0, s2, 384
è¯»å–åœ°å€ 0x80000db4
0x80000db4: 00 26 17 93 slli	a5, a2, 2
è¯»å–åœ°å€ 0x80000db8
0x80000db8: 00 f4 07 b3 add	a5, s0, a5
è¯»å–åœ°å€ 0x80000dbc
0x80000dbc: fc 06 16 e3 bne	a2, zero, 0x80000d88
è¯»å–åœ°å€ 0x80000dc0
è¯»å–åœ°å€ 0x80094e28
0x80000dc0: 00 0a c7 83 lbu	a5, 0(s5)
è¯»å–åœ°å€ 0x80000dc4
0x80000dc4: f9 1f f0 6f jal	zero, 0x80000d54
è¯»å–åœ°å€ 0x80000d54
è¯»å–åœ°å€ 0x80094e29
0x80000d54: 00 09 c7 03 lbu	a4, 0(s3)
è¯»å–åœ°å€ 0x80000d58
0x80000d58: 02 07 04 63 beq	a4, zero, 0x80000d80
è¯»å–åœ°å€ 0x80000d80
0x80000d80: 00 07 9e 63 bne	a5, zero, 0x80000d9c
è¯»å–åœ°å€ 0x80000d9c
0x80000d9c: 00 80 05 13 addi	a0, zero, 8
è¯»å–åœ°å€ 0x80000da0
0x80000da0: 00 81 05 93 addi	a1, sp, 8
è¯»å–åœ°å€ 0x80000da4
0x80000da4: 31 00 00 ef jal	ra, 0x800010b4
è¯»å–åœ°å€ 0x800010b4
0x800010b4: 80 01 17 b7 lui	a5, 524305
è¯»å–åœ°å€ 0x800010b8
0x800010b8: 00 25 15 13 slli	a0, a0, 2
è¯»å–åœ°å€ 0x800010bc
0x800010bc: 9f 87 87 93 addi	a5, a5, -1544
è¯»å–åœ°å€ 0x800010c0
0x800010c0: 00 a7 87 b3 add	a5, a5, a0
è¯»å–åœ°å€ 0x800010c4
è¯»å–åœ°å€ 0x80010a18
0x800010c4: 00 07 a7 83 lw	a5, 0(a5)
è¯»å–åœ°å€ 0x800010c8
0x800010c8: 00 05 85 13 addi	a0, a1, 0
è¯»å–åœ°å€ 0x800010cc
0x800010cc: 00 07 80 67 jalr	zero, 0(a5)
è¯»å–åœ°å€ 0x80001134
0x80001134: a0 00 07 b7 lui	a5, 655360
è¯»å–åœ°å€ 0x80001138
read device name = keyboard 	 addr = 0xa0000060 
0x80001138: 06 07 a7 83 lw	a5, 96(a5)
è¯»å–åœ°å€ 0x8000113c
0x8000113c: 00 00 87 37 lui	a4, 8
è¯»å–åœ°å€ 0x80001140
å†™å…¥åœ°å€ 0x8009cfac
0x80001140: 00 f5 22 23 sw	a5, 4(a0)
è¯»å–åœ°å€ 0x80001144
0x80001144: 00 e7 f6 b3 and	a3, a5, a4
è¯»å–åœ°å€ 0x80001148
0x80001148: 00 06 8c 63 beq	a3, zero, 0x80001160
è¯»å–åœ°å€ 0x80001160
å†™å…¥åœ°å€ 0x8009cfa8
0x80001160: 00 05 00 23 sb	zero, 0(a0)
è¯»å–åœ°å€ 0x80001164
0x80001164: 00 00 80 67 jalr	zero, 0(ra)
è¯»å–åœ°å€ 0x80000da8
è¯»å–åœ°å€ 0x8009cfac
0x80000da8: 00 c1 26 03 lw	a2, 12(sp)
è¯»å–åœ°å€ 0x80000dac
è¯»å–åœ°å€ 0x8009cfa8
0x80000dac: 00 81 47 03 lbu	a4, 8(sp)
è¯»å–åœ°å€ 0x80000db0
0x80000db0: 18 09 05 13 addi	a0, s2, 384
è¯»å–åœ°å€ 0x80000db4
0x80000db4: 00 26 17 93 slli	a5, a2, 2
è¯»å–åœ°å€ 0x80000db8
0x80000db8: 00 f4 07 b3 add	a5, s0, a5
è¯»å–åœ°å€ 0x80000dbc
0x80000dbc: fc 06 16 e3 bne	a2, zero, 0x80000d88
è¯»å–åœ°å€ 0x80000dc0
è¯»å–åœ°å€ 0x80094e28
0x80000dc0: 00 0a c7 83 lbu	a5, 0(s5)
è¯»å–åœ°å€ 0x80000dc4
0x80000dc4: f9 1f f0 6f jal	zero, 0x80000d54
è¯»å–åœ°å€ 0x80000d54
è¯»å–åœ°å€ 0x80094e29
0x80000d54: 00 09 c7 03 lbu	a4, 0(s3)
è¯»å–åœ°å€ 0x80000d58
0x80000d58: 02 07 04 63 beq	a4, zero, 0x80000d80
è¯»å–åœ°å€ 0x80000d80
0x80000d80: 00 07 9e 63 bne	a5, zero, 0x80000d9c
è¯»å–åœ°å€ 0x80000d9c
0x80000d9c: 00 80 05 13 addi	a0, zero, 8
è¯»å–åœ°å€ 0x80000da0
0x80000da0: 00 81 05 93 addi	a1, sp, 8
è¯»å–åœ°å€ 0x80000da4
0x80000da4: 31 00 00 ef jal	ra, 0x800010b4
è¯»å–åœ°å€ 0x800010b4
0x800010b4: 80 01 17 b7 lui	a5, 524305
è¯»å–åœ°å€ 0x800010b8
0x800010b8: 00 25 15 13 slli	a0, a0, 2
è¯»å–åœ°å€ 0x800010bc
0x800010bc: 9f 87 87 93 addi	a5, a5, -1544
è¯»å–åœ°å€ 0x800010c0
0x800010c0: 00 a7 87 b3 add	a5, a5, a0
è¯»å–åœ°å€ 0x800010c4
è¯»å–åœ°å€ 0x80010a18
0x800010c4: 00 07 a7 83 lw	a5, 0(a5)
è¯»å–åœ°å€ 0x800010c8
0x800010c8: 00 05 85 13 addi	a0, a1, 0
è¯»å–åœ°å€ 0x800010cc
0x800010cc: 00 07 80 67 jalr	zero, 0(a5)
è¯»å–åœ°å€ 0x80001134
0x80001134: a0 00 07 b7 lui	a5, 655360
è¯»å–åœ°å€ 0x80001138
read device name = keyboard 	 addr = 0xa0000060 
0x80001138: 06 07 a7 83 lw	a5, 96(a5)
è¯»å–åœ°å€ 0x8000113c
0x8000113c: 00 00 87 37 lui	a4, 8
è¯»å–åœ°å€ 0x80001140
å†™å…¥åœ°å€ 0x8009cfac
0x80001140: 00 f5 22 23 sw	a5, 4(a0)
è¯»å–åœ°å€ 0x80001144
0x80001144: 00 e7 f6 b3 and	a3, a5, a4
è¯»å–åœ°å€ 0x80001148
0x80001148: 00 06 8c 63 beq	a3, zero, 0x80001160
è¯»å–åœ°å€ 0x80001160
å†™å…¥åœ°å€ 0x8009cfa8
0x80001160: 00 05 00 23 sb	zero, 0(a0)
è¯»å–åœ°å€ 0x80001164
0x80001164: 00 00 80 67 jalr	zero, 0(ra)
è¯»å–åœ°å€ 0x80000da8
è¯»å–åœ°å€ 0x8009cfac
0x80000da8: 00 c1 26 03 lw	a2, 12(sp)
è¯»å–åœ°å€ 0x80000dac
è¯»å–åœ°å€ 0x8009cfa8
0x80000dac: 00 81 47 03 lbu	a4, 8(sp)
è¯»å–åœ°å€ 0x80000db0
0x80000db0: 18 09 05 13 addi	a0, s2, 384
è¯»å–åœ°å€ 0x80000db4
0x80000db4: 00 26 17 93 slli	a5, a2, 2
è¯»å–åœ°å€ 0x80000db8
0x80000db8: 00 f4 07 b3 add	a5, s0, a5
è¯»å–åœ°å€ 0x80000dbc
0x80000dbc: fc 06 16 e3 bne	a2, zero, 0x80000d88
è¯»å–åœ°å€ 0x80000dc0
è¯»å–åœ°å€ 0x80094e28
0x80000dc0: 00 0a c7 83 lbu	a5, 0(s5)
è¯»å–åœ°å€ 0x80000dc4
0x80000dc4: f9 1f f0 6f jal	zero, 0x80000d54
è¯»å–åœ°å€ 0x80000d54
è¯»å–åœ°å€ 0x80094e29
0x80000d54: 00 09 c7 03 lbu	a4, 0(s3)
è¯»å–åœ°å€ 0x80000d58
0x80000d58: 02 07 04 63 beq	a4, zero, 0x80000d80
è¯»å–åœ°å€ 0x80000d80
0x80000d80: 00 07 9e 63 bne	a5, zero, 0x80000d9c
è¯»å–åœ°å€ 0x80000d9c
0x80000d9c: 00 80 05 13 addi	a0, zero, 8
è¯»å–åœ°å€ 0x80000da0
0x80000da0: 00 81 05 93 addi	a1, sp, 8
è¯»å–åœ°å€ 0x80000da4
0x80000da4: 31 00 00 ef jal	ra, 0x800010b4
è¯»å–åœ°å€ 0x800010b4
0x800010b4: 80 01 17 b7 lui	a5, 524305
è¯»å–åœ°å€ 0x800010b8
0x800010b8: 00 25 15 13 slli	a0, a0, 2
è¯»å–åœ°å€ 0x800010bc
0x800010bc: 9f 87 87 93 addi	a5, a5, -1544
è¯»å–åœ°å€ 0x800010c0
0x800010c0: 00 a7 87 b3 add	a5, a5, a0
è¯»å–åœ°å€ 0x800010c4
è¯»å–åœ°å€ 0x80010a18
0x800010c4: 00 07 a7 83 lw	a5, 0(a5)
è¯»å–åœ°å€ 0x800010c8
0x800010c8: 00 05 85 13 addi	a0, a1, 0
è¯»å–åœ°å€ 0x800010cc
0x800010cc: 00 07 80 67 jalr	zero, 0(a5)
è¯»å–åœ°å€ 0x80001134
0x80001134: a0 00 07 b7 lui	a5, 655360
è¯»å–åœ°å€ 0x80001138
read device name = keyboard 	 addr = 0xa0000060 
0x80001138: 06 07 a7 83 lw	a5, 96(a5)
è¯»å–åœ°å€ 0x8000113c
0x8000113c: 00 00 87 37 lui	a4, 8
è¯»å–åœ°å€ 0x80001140
å†™å…¥åœ°å€ 0x8009cfac
0x80001140: 00 f5 22 23 sw	a5, 4(a0)
è¯»å–åœ°å€ 0x80001144
0x80001144: 00 e7 f6 b3 and	a3, a5, a4
è¯»å–åœ°å€ 0x80001148
0x80001148: 00 06 8c 63 beq	a3, zero, 0x80001160
è¯»å–åœ°å€ 0x80001160
å†™å…¥åœ°å€ 0x8009cfa8
0x80001160: 00 05 00 23 sb	zero, 0(a0)
è¯»å–åœ°å€ 0x80001164
0x80001164: 00 00 80 67 jalr	zero, 0(ra)
è¯»å–åœ°å€ 0x80000da8
è¯»å–åœ°å€ 0x8009cfac
0x80000da8: 00 c1 26 03 lw	a2, 12(sp)
è¯»å–åœ°å€ 0x80000dac
è¯»å–åœ°å€ 0x8009cfa8
0x80000dac: 00 81 47 03 lbu	a4, 8(sp)
è¯»å–åœ°å€ 0x80000db0
0x80000db0: 18 09 05 13 addi	a0, s2, 384
è¯»å–åœ°å€ 0x80000db4
0x80000db4: 00 26 17 93 slli	a5, a2, 2
è¯»å–åœ°å€ 0x80000db8
0x80000db8: 00 f4 07 b3 add	a5, s0, a5
è¯»å–åœ°å€ 0x80000dbc
0x80000dbc: fc 06 16 e3 bne	a2, zero, 0x80000d88
è¯»å–åœ°å€ 0x80000dc0
è¯»å–åœ°å€ 0x80094e28
0x80000dc0: 00 0a c7 83 lbu	a5, 0(s5)
è¯»å–åœ°å€ 0x80000dc4
0x80000dc4: f9 1f f0 6f jal	zero, 0x80000d54
è¯»å–åœ°å€ 0x80000d54
è¯»å–åœ°å€ 0x80094e29
0x80000d54: 00 09 c7 03 lbu	a4, 0(s3)
è¯»å–åœ°å€ 0x80000d58
0x80000d58: 02 07 04 63 beq	a4, zero, 0x80000d80
è¯»å–åœ°å€ 0x80000d80
0x80000d80: 00 07 9e 63 bne	a5, zero, 0x80000d9c
è¯»å–åœ°å€ 0x80000d9c
0x80000d9c: 00 80 05 13 addi	a0, zero, 8
è¯»å–åœ°å€ 0x80000da0
0x80000da0: 00 81 05 93 addi	a1, sp, 8
è¯»å–åœ°å€ 0x80000da4
0x80000da4: 31 00 00 ef jal	ra, 0x800010b4
è¯»å–åœ°å€ 0x800010b4
0x800010b4: 80 01 17 b7 lui	a5, 524305
è¯»å–åœ°å€ 0x800010b8
0x800010b8: 00 25 15 13 slli	a0, a0, 2
è¯»å–åœ°å€ 0x800010bc
0x800010bc: 9f 87 87 93 addi	a5, a5, -1544
è¯»å–åœ°å€ 0x800010c0
0x800010c0: 00 a7 87 b3 add	a5, a5, a0
è¯»å–åœ°å€ 0x800010c4
è¯»å–åœ°å€ 0x80010a18
0x800010c4: 00 07 a7 83 lw	a5, 0(a5)
è¯»å–åœ°å€ 0x800010c8
0x800010c8: 00 05 85 13 addi	a0, a1, 0
è¯»å–åœ°å€ 0x800010cc
0x800010cc: 00 07 80 67 jalr	zero, 0(a5)
è¯»å–åœ°å€ 0x80001134
0x80001134: a0 00 07 b7 lui	a5, 655360
è¯»å–åœ°å€ 0x80001138
read device name = keyboard 	 addr = 0xa0000060 
0x80001138: 06 07 a7 83 lw	a5, 96(a5)
è¯»å–åœ°å€ 0x8000113c
0x8000113c: 00 00 87 37 lui	a4, 8
è¯»å–åœ°å€ 0x80001140
å†™å…¥åœ°å€ 0x8009cfac
0x80001140: 00 f5 22 23 sw	a5, 4(a0)
è¯»å–åœ°å€ 0x80001144
0x80001144: 00 e7 f6 b3 and	a3, a5, a4
è¯»å–åœ°å€ 0x80001148
0x80001148: 00 06 8c 63 beq	a3, zero, 0x80001160
è¯»å–åœ°å€ 0x80001160
å†™å…¥åœ°å€ 0x8009cfa8
0x80001160: 00 05 00 23 sb	zero, 0(a0)
è¯»å–åœ°å€ 0x80001164
0x80001164: 00 00 80 67 jalr	zero, 0(ra)
è¯»å–åœ°å€ 0x80000da8
è¯»å–åœ°å€ 0x8009cfac
0x80000da8: 00 c1 26 03 lw	a2, 12(sp)
è¯»å–åœ°å€ 0x80000dac
è¯»å–åœ°å€ 0x8009cfa8
0x80000dac: 00 81 47 03 lbu	a4, 8(sp)
è¯»å–åœ°å€ 0x80000db0
0x80000db0: 18 09 05 13 addi	a0, s2, 384
è¯»å–åœ°å€ 0x80000db4
0x80000db4: 00 26 17 93 slli	a5, a2, 2
è¯»å–åœ°å€ 0x80000db8
0x80000db8: 00 f4 07 b3 add	a5, s0, a5
è¯»å–åœ°å€ 0x80000dbc
0x80000dbc: fc 06 16 e3 bne	a2, zero, 0x80000d88
è¯»å–åœ°å€ 0x80000dc0
è¯»å–åœ°å€ 0x80094e28
0x80000dc0: 00 0a c7 83 lbu	a5, 0(s5)
è¯»å–åœ°å€ 0x80000dc4
0x80000dc4: f9 1f f0 6f jal	zero, 0x80000d54
è¯»å–åœ°å€ 0x80000d54
è¯»å–åœ°å€ 0x80094e29
0x80000d54: 00 09 c7 03 lbu	a4, 0(s3)
è¯»å–åœ°å€ 0x80000d58
0x80000d58: 02 07 04 63 beq	a4, zero, 0x80000d80
è¯»å–åœ°å€ 0x80000d80
0x80000d80: 00 07 9e 63 bne	a5, zero, 0x80000d9c
è¯»å–åœ°å€ 0x80000d9c
0x80000d9c: 00 80 05 13 addi	a0, zero, 8
è¯»å–åœ°å€ 0x80000da0
0x80000da0: 00 81 05 93 addi	a1, sp, 8
è¯»å–åœ°å€ 0x80000da4
0x80000da4: 31 00 00 ef jal	ra, 0x800010b4
è¯»å–åœ°å€ 0x800010b4
0x800010b4: 80 01 17 b7 lui	a5, 524305
è¯»å–åœ°å€ 0x800010b8
0x800010b8: 00 25 15 13 slli	a0, a0, 2
è¯»å–åœ°å€ 0x800010bc
0x800010bc: 9f 87 87 93 addi	a5, a5, -1544
è¯»å–åœ°å€ 0x800010c0
0x800010c0: 00 a7 87 b3 add	a5, a5, a0
è¯»å–åœ°å€ 0x800010c4
è¯»å–åœ°å€ 0x80010a18
0x800010c4: 00 07 a7 83 lw	a5, 0(a5)
è¯»å–åœ°å€ 0x800010c8
0x800010c8: 00 05 85 13 addi	a0, a1, 0
è¯»å–åœ°å€ 0x800010cc
0x800010cc: 00 07 80 67 jalr	zero, 0(a5)
è¯»å–åœ°å€ 0x80001134
0x80001134: a0 00 07 b7 lui	a5, 655360
è¯»å–åœ°å€ 0x80001138
read device name = keyboard 	 addr = 0xa0000060 
0x80001138: 06 07 a7 83 lw	a5, 96(a5)
è¯»å–åœ°å€ 0x8000113c
0x8000113c: 00 00 87 37 lui	a4, 8
è¯»å–åœ°å€ 0x80001140
å†™å…¥åœ°å€ 0x8009cfac
0x80001140: 00 f5 22 23 sw	a5, 4(a0)
è¯»å–åœ°å€ 0x80001144
0x80001144: 00 e7 f6 b3 and	a3, a5, a4
è¯»å–åœ°å€ 0x80001148
0x80001148: 00 06 8c 63 beq	a3, zero, 0x80001160
è¯»å–åœ°å€ 0x80001160
å†™å…¥åœ°å€ 0x8009cfa8
0x80001160: 00 05 00 23 sb	zero, 0(a0)
è¯»å–åœ°å€ 0x80001164
0x80001164: 00 00 80 67 jalr	zero, 0(ra)
è¯»å–åœ°å€ 0x80000da8
è¯»å–åœ°å€ 0x8009cfac
0x80000da8: 00 c1 26 03 lw	a2, 12(sp)
è¯»å–åœ°å€ 0x80000dac
è¯»å–åœ°å€ 0x8009cfa8
0x80000dac: 00 81 47 03 lbu	a4, 8(sp)
è¯»å–åœ°å€ 0x80000db0
0x80000db0: 18 09 05 13 addi	a0, s2, 384
è¯»å–åœ°å€ 0x80000db4
0x80000db4: 00 26 17 93 slli	a5, a2, 2
è¯»å–åœ°å€ 0x80000db8
0x80000db8: 00 f4 07 b3 add	a5, s0, a5
è¯»å–åœ°å€ 0x80000dbc
0x80000dbc: fc 06 16 e3 bne	a2, zero, 0x80000d88
è¯»å–åœ°å€ 0x80000dc0
è¯»å–åœ°å€ 0x80094e28
0x80000dc0: 00 0a c7 83 lbu	a5, 0(s5)
è¯»å–åœ°å€ 0x80000dc4
0x80000dc4: f9 1f f0 6f jal	zero, 0x80000d54
è¯»å–åœ°å€ 0x80000d54
è¯»å–åœ°å€ 0x80094e29
0x80000d54: 00 09 c7 03 lbu	a4, 0(s3)
è¯»å–åœ°å€ 0x80000d58
0x80000d58: 02 07 04 63 beq	a4, zero, 0x80000d80
è¯»å–åœ°å€ 0x80000d80
0x80000d80: 00 07 9e 63 bne	a5, zero, 0x80000d9c
è¯»å–åœ°å€ 0x80000d9c
0x80000d9c: 00 80 05 13 addi	a0, zero, 8
è¯»å–åœ°å€ 0x80000da0
0x80000da0: 00 81 05 93 addi	a1, sp, 8
è¯»å–åœ°å€ 0x80000da4
0x80000da4: 31 00 00 ef jal	ra, 0x800010b4
è¯»å–åœ°å€ 0x800010b4
0x800010b4: 80 01 17 b7 lui	a5, 524305
è¯»å–åœ°å€ 0x800010b8
0x800010b8: 00 25 15 13 slli	a0, a0, 2
è¯»å–åœ°å€ 0x800010bc
0x800010bc: 9f 87 87 93 addi	a5, a5, -1544
è¯»å–åœ°å€ 0x800010c0
0x800010c0: 00 a7 87 b3 add	a5, a5, a0
è¯»å–åœ°å€ 0x800010c4
è¯»å–åœ°å€ 0x80010a18
0x800010c4: 00 07 a7 83 lw	a5, 0(a5)
è¯»å–åœ°å€ 0x800010c8
0x800010c8: 00 05 85 13 addi	a0, a1, 0
è¯»å–åœ°å€ 0x800010cc
0x800010cc: 00 07 80 67 jalr	zero, 0(a5)
è¯»å–åœ°å€ 0x80001134
0x80001134: a0 00 07 b7 lui	a5, 655360
è¯»å–åœ°å€ 0x80001138
read device name = keyboard 	 addr = 0xa0000060 
0x80001138: 06 07 a7 83 lw	a5, 96(a5)
è¯»å–åœ°å€ 0x8000113c
0x8000113c: 00 00 87 37 lui	a4, 8
è¯»å–åœ°å€ 0x80001140
å†™å…¥åœ°å€ 0x8009cfac
0x80001140: 00 f5 22 23 sw	a5, 4(a0)
è¯»å–åœ°å€ 0x80001144
0x80001144: 00 e7 f6 b3 and	a3, a5, a4
è¯»å–åœ°å€ 0x80001148
0x80001148: 00 06 8c 63 beq	a3, zero, 0x80001160
è¯»å–åœ°å€ 0x80001160
å†™å…¥åœ°å€ 0x8009cfa8
0x80001160: 00 05 00 23 sb	zero, 0(a0)
è¯»å–åœ°å€ 0x80001164
0x80001164: 00 00 80 67 jalr	zero, 0(ra)
è¯»å–åœ°å€ 0x80000da8
è¯»å–åœ°å€ 0x8009cfac
0x80000da8: 00 c1 26 03 lw	a2, 12(sp)
è¯»å–åœ°å€ 0x80000dac
è¯»å–åœ°å€ 0x8009cfa8
0x80000dac: 00 81 47 03 lbu	a4, 8(sp)
è¯»å–åœ°å€ 0x80000db0
0x80000db0: 18 09 05 13 addi	a0, s2, 384
è¯»å–åœ°å€ 0x80000db4
0x80000db4: 00 26 17 93 slli	a5, a2, 2
è¯»å–åœ°å€ 0x80000db8
0x80000db8: 00 f4 07 b3 add	a5, s0, a5
è¯»å–åœ°å€ 0x80000dbc
0x80000dbc: fc 06 16 e3 bne	a2, zero, 0x80000d88
è¯»å–åœ°å€ 0x80000dc0
è¯»å–åœ°å€ 0x80094e28
0x80000dc0: 00 0a c7 83 lbu	a5, 0(s5)
è¯»å–åœ°å€ 0x80000dc4
0x80000dc4: f9 1f f0 6f jal	zero, 0x80000d54
è¯»å–åœ°å€ 0x80000d54
è¯»å–åœ°å€ 0x80094e29
0x80000d54: 00 09 c7 03 lbu	a4, 0(s3)
è¯»å–åœ°å€ 0x80000d58
0x80000d58: 02 07 04 63 beq	a4, zero, 0x80000d80
è¯»å–åœ°å€ 0x80000d80
0x80000d80: 00 07 9e 63 bne	a5, zero, 0x80000d9c
è¯»å–åœ°å€ 0x80000d9c
0x80000d9c: 00 80 05 13 addi	a0, zero, 8
è¯»å–åœ°å€ 0x80000da0
0x80000da0: 00 81 05 93 addi	a1, sp, 8
è¯»å–åœ°å€ 0x80000da4
0x80000da4: 31 00 00 ef jal	ra, 0x800010b4
è¯»å–åœ°å€ 0x800010b4
0x800010b4: 80 01 17 b7 lui	a5, 524305
è¯»å–åœ°å€ 0x800010b8
0x800010b8: 00 25 15 13 slli	a0, a0, 2
è¯»å–åœ°å€ 0x800010bc
0x800010bc: 9f 87 87 93 addi	a5, a5, -1544
è¯»å–åœ°å€ 0x800010c0
0x800010c0: 00 a7 87 b3 add	a5, a5, a0
è¯»å–åœ°å€ 0x800010c4
è¯»å–åœ°å€ 0x80010a18
0x800010c4: 00 07 a7 83 lw	a5, 0(a5)
è¯»å–åœ°å€ 0x800010c8
0x800010c8: 00 05 85 13 addi	a0, a1, 0
è¯»å–åœ°å€ 0x800010cc
0x800010cc: 00 07 80 67 jalr	zero, 0(a5)
è¯»å–åœ°å€ 0x80001134
0x80001134: a0 00 07 b7 lui	a5, 655360
è¯»å–åœ°å€ 0x80001138
read device name = keyboard 	 addr = 0xa0000060 
0x80001138: 06 07 a7 83 lw	a5, 96(a5)
è¯»å–åœ°å€ 0x8000113c
0x8000113c: 00 00 87 37 lui	a4, 8
è¯»å–åœ°å€ 0x80001140
å†™å…¥åœ°å€ 0x8009cfac
0x80001140: 00 f5 22 23 sw	a5, 4(a0)
è¯»å–åœ°å€ 0x80001144
0x80001144: 00 e7 f6 b3 and	a3, a5, a4
è¯»å–åœ°å€ 0x80001148
0x80001148: 00 06 8c 63 beq	a3, zero, 0x80001160
è¯»å–åœ°å€ 0x80001160
å†™å…¥åœ°å€ 0x8009cfa8
0x80001160: 00 05 00 23 sb	zero, 0(a0)
è¯»å–åœ°å€ 0x80001164
0x80001164: 00 00 80 67 jalr	zero, 0(ra)
è¯»å–åœ°å€ 0x80000da8
è¯»å–åœ°å€ 0x8009cfac
0x80000da8: 00 c1 26 03 lw	a2, 12(sp)
è¯»å–åœ°å€ 0x80000dac
è¯»å–åœ°å€ 0x8009cfa8
0x80000dac: 00 81 47 03 lbu	a4, 8(sp)
è¯»å–åœ°å€ 0x80000db0
0x80000db0: 18 09 05 13 addi	a0, s2, 384
è¯»å–åœ°å€ 0x80000db4
0x80000db4: 00 26 17 93 slli	a5, a2, 2
è¯»å–åœ°å€ 0x80000db8
0x80000db8: 00 f4 07 b3 add	a5, s0, a5
è¯»å–åœ°å€ 0x80000dbc
0x80000dbc: fc 06 16 e3 bne	a2, zero, 0x80000d88
è¯»å–åœ°å€ 0x80000dc0
è¯»å–åœ°å€ 0x80094e28
0x80000dc0: 00 0a c7 83 lbu	a5, 0(s5)
è¯»å–åœ°å€ 0x80000dc4
0x80000dc4: f9 1f f0 6f jal	zero, 0x80000d54
è¯»å–åœ°å€ 0x80000d54
è¯»å–åœ°å€ 0x80094e29
0x80000d54: 00 09 c7 03 lbu	a4, 0(s3)
è¯»å–åœ°å€ 0x80000d58
0x80000d58: 02 07 04 63 beq	a4, zero, 0x80000d80
è¯»å–åœ°å€ 0x80000d80
0x80000d80: 00 07 9e 63 bne	a5, zero, 0x80000d9c
è¯»å–åœ°å€ 0x80000d9c
0x80000d9c: 00 80 05 13 addi	a0, zero, 8
è¯»å–åœ°å€ 0x80000da0
0x80000da0: 00 81 05 93 addi	a1, sp, 8
è¯»å–åœ°å€ 0x80000da4
0x80000da4: 31 00 00 ef jal	ra, 0x800010b4
è¯»å–åœ°å€ 0x800010b4
0x800010b4: 80 01 17 b7 lui	a5, 524305
è¯»å–åœ°å€ 0x800010b8
0x800010b8: 00 25 15 13 slli	a0, a0, 2
è¯»å–åœ°å€ 0x800010bc
0x800010bc: 9f 87 87 93 addi	a5, a5, -1544
è¯»å–åœ°å€ 0x800010c0
0x800010c0: 00 a7 87 b3 add	a5, a5, a0
è¯»å–åœ°å€ 0x800010c4
è¯»å–åœ°å€ 0x80010a18
0x800010c4: 00 07 a7 83 lw	a5, 0(a5)
è¯»å–åœ°å€ 0x800010c8
0x800010c8: 00 05 85 13 addi	a0, a1, 0
è¯»å–åœ°å€ 0x800010cc
0x800010cc: 00 07 80 67 jalr	zero, 0(a5)
è¯»å–åœ°å€ 0x80001134
0x80001134: a0 00 07 b7 lui	a5, 655360
è¯»å–åœ°å€ 0x80001138
read device name = keyboard 	 addr = 0xa0000060 
0x80001138: 06 07 a7 83 lw	a5, 96(a5)
è¯»å–åœ°å€ 0x8000113c
0x8000113c: 00 00 87 37 lui	a4, 8
è¯»å–åœ°å€ 0x80001140
å†™å…¥åœ°å€ 0x8009cfac
0x80001140: 00 f5 22 23 sw	a5, 4(a0)
è¯»å–åœ°å€ 0x80001144
0x80001144: 00 e7 f6 b3 and	a3, a5, a4
è¯»å–åœ°å€ 0x80001148
0x80001148: 00 06 8c 63 beq	a3, zero, 0x80001160
è¯»å–åœ°å€ 0x80001160
å†™å…¥åœ°å€ 0x8009cfa8
0x80001160: 00 05 00 23 sb	zero, 0(a0)
è¯»å–åœ°å€ 0x80001164
0x80001164: 00 00 80 67 jalr	zero, 0(ra)
è¯»å–åœ°å€ 0x80000da8
è¯»å–åœ°å€ 0x8009cfac
0x80000da8: 00 c1 26 03 lw	a2, 12(sp)
è¯»å–åœ°å€ 0x80000dac
è¯»å–åœ°å€ 0x8009cfa8
0x80000dac: 00 81 47 03 lbu	a4, 8(sp)
è¯»å–åœ°å€ 0x80000db0
0x80000db0: 18 09 05 13 addi	a0, s2, 384
è¯»å–åœ°å€ 0x80000db4
0x80000db4: 00 26 17 93 slli	a5, a2, 2
è¯»å–åœ°å€ 0x80000db8
0x80000db8: 00 f4 07 b3 add	a5, s0, a5
è¯»å–åœ°å€ 0x80000dbc
0x80000dbc: fc 06 16 e3 bne	a2, zero, 0x80000d88
è¯»å–åœ°å€ 0x80000dc0
è¯»å–åœ°å€ 0x80094e28
0x80000dc0: 00 0a c7 83 lbu	a5, 0(s5)
è¯»å–åœ°å€ 0x80000dc4
0x80000dc4: f9 1f f0 6f jal	zero, 0x80000d54
è¯»å–åœ°å€ 0x80000d54
è¯»å–åœ°å€ 0x80094e29
0x80000d54: 00 09 c7 03 lbu	a4, 0(s3)
è¯»å–åœ°å€ 0x80000d58
0x80000d58: 02 07 04 63 beq	a4, zero, 0x80000d80
è¯»å–åœ°å€ 0x80000d80
0x80000d80: 00 07 9e 63 bne	a5, zero, 0x80000d9c
è¯»å–åœ°å€ 0x80000d9c
0x80000d9c: 00 80 05 13 addi	a0, zero, 8
è¯»å–åœ°å€ 0x80000da0
0x80000da0: 00 81 05 93 addi	a1, sp, 8
è¯»å–åœ°å€ 0x80000da4
0x80000da4: 31 00 00 ef jal	ra, 0x800010b4
è¯»å–åœ°å€ 0x800010b4
0x800010b4: 80 01 17 b7 lui	a5, 524305
è¯»å–åœ°å€ 0x800010b8
0x800010b8: 00 25 15 13 slli	a0, a0, 2
è¯»å–åœ°å€ 0x800010bc
0x800010bc: 9f 87 87 93 addi	a5, a5, -1544
è¯»å–åœ°å€ 0x800010c0
0x800010c0: 00 a7 87 b3 add	a5, a5, a0
è¯»å–åœ°å€ 0x800010c4
è¯»å–åœ°å€ 0x80010a18
0x800010c4: 00 07 a7 83 lw	a5, 0(a5)
è¯»å–åœ°å€ 0x800010c8
0x800010c8: 00 05 85 13 addi	a0, a1, 0
è¯»å–åœ°å€ 0x800010cc
0x800010cc: 00 07 80 67 jalr	zero, 0(a5)
è¯»å–åœ°å€ 0x80001134
0x80001134: a0 00 07 b7 lui	a5, 655360
è¯»å–åœ°å€ 0x80001138
read device name = keyboard 	 addr = 0xa0000060 
0x80001138: 06 07 a7 83 lw	a5, 96(a5)
è¯»å–åœ°å€ 0x8000113c
0x8000113c: 00 00 87 37 lui	a4, 8
è¯»å–åœ°å€ 0x80001140
å†™å…¥åœ°å€ 0x8009cfac
0x80001140: 00 f5 22 23 sw	a5, 4(a0)
è¯»å–åœ°å€ 0x80001144
0x80001144: 00 e7 f6 b3 and	a3, a5, a4
è¯»å–åœ°å€ 0x80001148
0x80001148: 00 06 8c 63 beq	a3, zero, 0x80001160
è¯»å–åœ°å€ 0x80001160
å†™å…¥åœ°å€ 0x8009cfa8
0x80001160: 00 05 00 23 sb	zero, 0(a0)
è¯»å–åœ°å€ 0x80001164
0x80001164: 00 00 80 67 jalr	zero, 0(ra)
è¯»å–åœ°å€ 0x80000da8
è¯»å–åœ°å€ 0x8009cfac
0x80000da8: 00 c1 26 03 lw	a2, 12(sp)
è¯»å–åœ°å€ 0x80000dac
è¯»å–åœ°å€ 0x8009cfa8
0x80000dac: 00 81 47 03 lbu	a4, 8(sp)
è¯»å–åœ°å€ 0x80000db0
0x80000db0: 18 09 05 13 addi	a0, s2, 384
è¯»å–åœ°å€ 0x80000db4
0x80000db4: 00 26 17 93 slli	a5, a2, 2
è¯»å–åœ°å€ 0x80000db8
0x80000db8: 00 f4 07 b3 add	a5, s0, a5
è¯»å–åœ°å€ 0x80000dbc
0x80000dbc: fc 06 16 e3 bne	a2, zero, 0x80000d88
è¯»å–åœ°å€ 0x80000dc0
è¯»å–åœ°å€ 0x80094e28
0x80000dc0: 00 0a c7 83 lbu	a5, 0(s5)
è¯»å–åœ°å€ 0x80000dc4
0x80000dc4: f9 1f f0 6f jal	zero, 0x80000d54
è¯»å–åœ°å€ 0x80000d54
è¯»å–åœ°å€ 0x80094e29
0x80000d54: 00 09 c7 03 lbu	a4, 0(s3)
è¯»å–åœ°å€ 0x80000d58
0x80000d58: 02 07 04 63 beq	a4, zero, 0x80000d80
è¯»å–åœ°å€ 0x80000d80
0x80000d80: 00 07 9e 63 bne	a5, zero, 0x80000d9c
è¯»å–åœ°å€ 0x80000d9c
0x80000d9c: 00 80 05 13 addi	a0, zero, 8
è¯»å–åœ°å€ 0x80000da0
0x80000da0: 00 81 05 93 addi	a1, sp, 8
è¯»å–åœ°å€ 0x80000da4
0x80000da4: 31 00 00 ef jal	ra, 0x800010b4
è¯»å–åœ°å€ 0x800010b4
0x800010b4: 80 01 17 b7 lui	a5, 524305
è¯»å–åœ°å€ 0x800010b8
0x800010b8: 00 25 15 13 slli	a0, a0, 2
è¯»å–åœ°å€ 0x800010bc
0x800010bc: 9f 87 87 93 addi	a5, a5, -1544
è¯»å–åœ°å€ 0x800010c0
0x800010c0: 00 a7 87 b3 add	a5, a5, a0
è¯»å–åœ°å€ 0x800010c4
è¯»å–åœ°å€ 0x80010a18
0x800010c4: 00 07 a7 83 lw	a5, 0(a5)
è¯»å–åœ°å€ 0x800010c8
0x800010c8: 00 05 85 13 addi	a0, a1, 0
è¯»å–åœ°å€ 0x800010cc
0x800010cc: 00 07 80 67 jalr	zero, 0(a5)
è¯»å–åœ°å€ 0x80001134
0x80001134: a0 00 07 b7 lui	a5, 655360
è¯»å–åœ°å€ 0x80001138
read device name = keyboard 	 addr = 0xa0000060 
0x80001138: 06 07 a7 83 lw	a5, 96(a5)
è¯»å–åœ°å€ 0x8000113c
0x8000113c: 00 00 87 37 lui	a4, 8
è¯»å–åœ°å€ 0x80001140
å†™å…¥åœ°å€ 0x8009cfac
0x80001140: 00 f5 22 23 sw	a5, 4(a0)
è¯»å–åœ°å€ 0x80001144
0x80001144: 00 e7 f6 b3 and	a3, a5, a4
è¯»å–åœ°å€ 0x80001148
0x80001148: 00 06 8c 63 beq	a3, zero, 0x80001160
è¯»å–åœ°å€ 0x80001160
å†™å…¥åœ°å€ 0x8009cfa8
0x80001160: 00 05 00 23 sb	zero, 0(a0)
è¯»å–åœ°å€ 0x80001164
0x80001164: 00 00 80 67 jalr	zero, 0(ra)
è¯»å–åœ°å€ 0x80000da8
è¯»å–åœ°å€ 0x8009cfac
0x80000da8: 00 c1 26 03 lw	a2, 12(sp)
è¯»å–åœ°å€ 0x80000dac
è¯»å–åœ°å€ 0x8009cfa8
0x80000dac: 00 81 47 03 lbu	a4, 8(sp)
è¯»å–åœ°å€ 0x80000db0
0x80000db0: 18 09 05 13 addi	a0, s2, 384
è¯»å–åœ°å€ 0x80000db4
0x80000db4: 00 26 17 93 slli	a5, a2, 2
è¯»å–åœ°å€ 0x80000db8
0x80000db8: 00 f4 07 b3 add	a5, s0, a5
è¯»å–åœ°å€ 0x80000dbc
0x80000dbc: fc 06 16 e3 bne	a2, zero, 0x80000d88
è¯»å–åœ°å€ 0x80000dc0
è¯»å–åœ°å€ 0x80094e28
0x80000dc0: 00 0a c7 83 lbu	a5, 0(s5)
è¯»å–åœ°å€ 0x80000dc4
0x80000dc4: f9 1f f0 6f jal	zero, 0x80000d54
è¯»å–åœ°å€ 0x80000d54
è¯»å–åœ°å€ 0x80094e29
0x80000d54: 00 09 c7 03 lbu	a4, 0(s3)
è¯»å–åœ°å€ 0x80000d58
0x80000d58: 02 07 04 63 beq	a4, zero, 0x80000d80
è¯»å–åœ°å€ 0x80000d80
0x80000d80: 00 07 9e 63 bne	a5, zero, 0x80000d9c
è¯»å–åœ°å€ 0x80000d9c
0x80000d9c: 00 80 05 13 addi	a0, zero, 8
è¯»å–åœ°å€ 0x80000da0
0x80000da0: 00 81 05 93 addi	a1, sp, 8
è¯»å–åœ°å€ 0x80000da4
0x80000da4: 31 00 00 ef jal	ra, 0x800010b4
è¯»å–åœ°å€ 0x800010b4
0x800010b4: 80 01 17 b7 lui	a5, 524305
è¯»å–åœ°å€ 0x800010b8
0x800010b8: 00 25 15 13 slli	a0, a0, 2
è¯»å–åœ°å€ 0x800010bc
0x800010bc: 9f 87 87 93 addi	a5, a5, -1544
è¯»å–åœ°å€ 0x800010c0
0x800010c0: 00 a7 87 b3 add	a5, a5, a0
è¯»å–åœ°å€ 0x800010c4
è¯»å–åœ°å€ 0x80010a18
0x800010c4: 00 07 a7 83 lw	a5, 0(a5)
è¯»å–åœ°å€ 0x800010c8
0x800010c8: 00 05 85 13 addi	a0, a1, 0
è¯»å–åœ°å€ 0x800010cc
0x800010cc: 00 07 80 67 jalr	zero, 0(a5)
è¯»å–åœ°å€ 0x80001134
0x80001134: a0 00 07 b7 lui	a5, 655360
è¯»å–åœ°å€ 0x80001138
read device name = keyboard 	 addr = 0xa0000060 
0x80001138: 06 07 a7 83 lw	a5, 96(a5)
è¯»å–åœ°å€ 0x8000113c
0x8000113c: 00 00 87 37 lui	a4, 8
è¯»å–åœ°å€ 0x80001140
å†™å…¥åœ°å€ 0x8009cfac
0x80001140: 00 f5 22 23 sw	a5, 4(a0)
è¯»å–åœ°å€ 0x80001144
0x80001144: 00 e7 f6 b3 and	a3, a5, a4
è¯»å–åœ°å€ 0x80001148
0x80001148: 00 06 8c 63 beq	a3, zero, 0x80001160
è¯»å–åœ°å€ 0x80001160
å†™å…¥åœ°å€ 0x8009cfa8
0x80001160: 00 05 00 23 sb	zero, 0(a0)
è¯»å–åœ°å€ 0x80001164
0x80001164: 00 00 80 67 jalr	zero, 0(ra)
è¯»å–åœ°å€ 0x80000da8
è¯»å–åœ°å€ 0x8009cfac
0x80000da8: 00 c1 26 03 lw	a2, 12(sp)
è¯»å–åœ°å€ 0x80000dac
è¯»å–åœ°å€ 0x8009cfa8
0x80000dac: 00 81 47 03 lbu	a4, 8(sp)
è¯»å–åœ°å€ 0x80000db0
0x80000db0: 18 09 05 13 addi	a0, s2, 384
è¯»å–åœ°å€ 0x80000db4
0x80000db4: 00 26 17 93 slli	a5, a2, 2
è¯»å–åœ°å€ 0x80000db8
0x80000db8: 00 f4 07 b3 add	a5, s0, a5
è¯»å–åœ°å€ 0x80000dbc
0x80000dbc: fc 06 16 e3 bne	a2, zero, 0x80000d88
è¯»å–åœ°å€ 0x80000dc0
è¯»å–åœ°å€ 0x80094e28
0x80000dc0: 00 0a c7 83 lbu	a5, 0(s5)
è¯»å–åœ°å€ 0x80000dc4
0x80000dc4: f9 1f f0 6f jal	zero, 0x80000d54
è¯»å–åœ°å€ 0x80000d54
è¯»å–åœ°å€ 0x80094e29
0x80000d54: 00 09 c7 03 lbu	a4, 0(s3)
è¯»å–åœ°å€ 0x80000d58
0x80000d58: 02 07 04 63 beq	a4, zero, 0x80000d80
è¯»å–åœ°å€ 0x80000d80
0x80000d80: 00 07 9e 63 bne	a5, zero, 0x80000d9c
è¯»å–åœ°å€ 0x80000d9c
0x80000d9c: 00 80 05 13 addi	a0, zero, 8
è¯»å–åœ°å€ 0x80000da0
0x80000da0: 00 81 05 93 addi	a1, sp, 8
è¯»å–åœ°å€ 0x80000da4
0x80000da4: 31 00 00 ef jal	ra, 0x800010b4
è¯»å–åœ°å€ 0x800010b4
0x800010b4: 80 01 17 b7 lui	a5, 524305
è¯»å–åœ°å€ 0x800010b8
0x800010b8: 00 25 15 13 slli	a0, a0, 2
è¯»å–åœ°å€ 0x800010bc
0x800010bc: 9f 87 87 93 addi	a5, a5, -1544
è¯»å–åœ°å€ 0x800010c0
0x800010c0: 00 a7 87 b3 add	a5, a5, a0
è¯»å–åœ°å€ 0x800010c4
è¯»å–åœ°å€ 0x80010a18
0x800010c4: 00 07 a7 83 lw	a5, 0(a5)
è¯»å–åœ°å€ 0x800010c8
0x800010c8: 00 05 85 13 addi	a0, a1, 0
è¯»å–åœ°å€ 0x800010cc
0x800010cc: 00 07 80 67 jalr	zero, 0(a5)
è¯»å–åœ°å€ 0x80001134
0x80001134: a0 00 07 b7 lui	a5, 655360
è¯»å–åœ°å€ 0x80001138
read device name = keyboard 	 addr = 0xa0000060 
0x80001138: 06 07 a7 83 lw	a5, 96(a5)
è¯»å–åœ°å€ 0x8000113c
0x8000113c: 00 00 87 37 lui	a4, 8
è¯»å–åœ°å€ 0x80001140
å†™å…¥åœ°å€ 0x8009cfac
0x80001140: 00 f5 22 23 sw	a5, 4(a0)
è¯»å–åœ°å€ 0x80001144
0x80001144: 00 e7 f6 b3 and	a3, a5, a4
è¯»å–åœ°å€ 0x80001148
0x80001148: 00 06 8c 63 beq	a3, zero, 0x80001160
è¯»å–åœ°å€ 0x80001160
å†™å…¥åœ°å€ 0x8009cfa8
0x80001160: 00 05 00 23 sb	zero, 0(a0)
è¯»å–åœ°å€ 0x80001164
0x80001164: 00 00 80 67 jalr	zero, 0(ra)
è¯»å–åœ°å€ 0x80000da8
è¯»å–åœ°å€ 0x8009cfac
0x80000da8: 00 c1 26 03 lw	a2, 12(sp)
è¯»å–åœ°å€ 0x80000dac
è¯»å–åœ°å€ 0x8009cfa8
0x80000dac: 00 81 47 03 lbu	a4, 8(sp)
è¯»å–åœ°å€ 0x80000db0
0x80000db0: 18 09 05 13 addi	a0, s2, 384
è¯»å–åœ°å€ 0x80000db4
0x80000db4: 00 26 17 93 slli	a5, a2, 2
è¯»å–åœ°å€ 0x80000db8
0x80000db8: 00 f4 07 b3 add	a5, s0, a5
è¯»å–åœ°å€ 0x80000dbc
0x80000dbc: fc 06 16 e3 bne	a2, zero, 0x80000d88
è¯»å–åœ°å€ 0x80000dc0
è¯»å–åœ°å€ 0x80094e28
0x80000dc0: 00 0a c7 83 lbu	a5, 0(s5)
è¯»å–åœ°å€ 0x80000dc4
0x80000dc4: f9 1f f0 6f jal	zero, 0x80000d54
è¯»å–åœ°å€ 0x80000d54
è¯»å–åœ°å€ 0x80094e29
0x80000d54: 00 09 c7 03 lbu	a4, 0(s3)
è¯»å–åœ°å€ 0x80000d58
0x80000d58: 02 07 04 63 beq	a4, zero, 0x80000d80
è¯»å–åœ°å€ 0x80000d80
0x80000d80: 00 07 9e 63 bne	a5, zero, 0x80000d9c
è¯»å–åœ°å€ 0x80000d9c
0x80000d9c: 00 80 05 13 addi	a0, zero, 8
è¯»å–åœ°å€ 0x80000da0
0x80000da0: 00 81 05 93 addi	a1, sp, 8
è¯»å–åœ°å€ 0x80000da4
0x80000da4: 31 00 00 ef jal	ra, 0x800010b4
è¯»å–åœ°å€ 0x800010b4
0x800010b4: 80 01 17 b7 lui	a5, 524305
è¯»å–åœ°å€ 0x800010b8
0x800010b8: 00 25 15 13 slli	a0, a0, 2
è¯»å–åœ°å€ 0x800010bc
0x800010bc: 9f 87 87 93 addi	a5, a5, -1544
è¯»å–åœ°å€ 0x800010c0
0x800010c0: 00 a7 87 b3 add	a5, a5, a0
è¯»å–åœ°å€ 0x800010c4
è¯»å–åœ°å€ 0x80010a18
0x800010c4: 00 07 a7 83 lw	a5, 0(a5)
è¯»å–åœ°å€ 0x800010c8
0x800010c8: 00 05 85 13 addi	a0, a1, 0
è¯»å–åœ°å€ 0x800010cc
0x800010cc: 00 07 80 67 jalr	zero, 0(a5)
è¯»å–åœ°å€ 0x80001134
0x80001134: a0 00 07 b7 lui	a5, 655360
è¯»å–åœ°å€ 0x80001138
read device name = keyboard 	 addr = 0xa0000060 
0x80001138: 06 07 a7 83 lw	a5, 96(a5)
è¯»å–åœ°å€ 0x8000113c
0x8000113c: 00 00 87 37 lui	a4, 8
è¯»å–åœ°å€ 0x80001140
å†™å…¥åœ°å€ 0x8009cfac
0x80001140: 00 f5 22 23 sw	a5, 4(a0)
è¯»å–åœ°å€ 0x80001144
0x80001144: 00 e7 f6 b3 and	a3, a5, a4
è¯»å–åœ°å€ 0x80001148
0x80001148: 00 06 8c 63 beq	a3, zero, 0x80001160
è¯»å–åœ°å€ 0x80001160
å†™å…¥åœ°å€ 0x8009cfa8
0x80001160: 00 05 00 23 sb	zero, 0(a0)
è¯»å–åœ°å€ 0x80001164
0x80001164: 00 00 80 67 jalr	zero, 0(ra)
è¯»å–åœ°å€ 0x80000da8
è¯»å–åœ°å€ 0x8009cfac
0x80000da8: 00 c1 26 03 lw	a2, 12(sp)
è¯»å–åœ°å€ 0x80000dac
è¯»å–åœ°å€ 0x8009cfa8
0x80000dac: 00 81 47 03 lbu	a4, 8(sp)
è¯»å–åœ°å€ 0x80000db0
0x80000db0: 18 09 05 13 addi	a0, s2, 384
è¯»å–åœ°å€ 0x80000db4
0x80000db4: 00 26 17 93 slli	a5, a2, 2
è¯»å–åœ°å€ 0x80000db8
0x80000db8: 00 f4 07 b3 add	a5, s0, a5
è¯»å–åœ°å€ 0x80000dbc
0x80000dbc: fc 06 16 e3 bne	a2, zero, 0x80000d88
è¯»å–åœ°å€ 0x80000dc0
è¯»å–åœ°å€ 0x80094e28
0x80000dc0: 00 0a c7 83 lbu	a5, 0(s5)
è¯»å–åœ°å€ 0x80000dc4
0x80000dc4: f9 1f f0 6f jal	zero, 0x80000d54
è¯»å–åœ°å€ 0x80000d54
è¯»å–åœ°å€ 0x80094e29
0x80000d54: 00 09 c7 03 lbu	a4, 0(s3)
è¯»å–åœ°å€ 0x80000d58
0x80000d58: 02 07 04 63 beq	a4, zero, 0x80000d80
è¯»å–åœ°å€ 0x80000d80
0x80000d80: 00 07 9e 63 bne	a5, zero, 0x80000d9c
è¯»å–åœ°å€ 0x80000d9c
0x80000d9c: 00 80 05 13 addi	a0, zero, 8
è¯»å–åœ°å€ 0x80000da0
0x80000da0: 00 81 05 93 addi	a1, sp, 8
è¯»å–åœ°å€ 0x80000da4
0x80000da4: 31 00 00 ef jal	ra, 0x800010b4
è¯»å–åœ°å€ 0x800010b4
0x800010b4: 80 01 17 b7 lui	a5, 524305
è¯»å–åœ°å€ 0x800010b8
0x800010b8: 00 25 15 13 slli	a0, a0, 2
è¯»å–åœ°å€ 0x800010bc
0x800010bc: 9f 87 87 93 addi	a5, a5, -1544
è¯»å–åœ°å€ 0x800010c0
0x800010c0: 00 a7 87 b3 add	a5, a5, a0
è¯»å–åœ°å€ 0x800010c4
è¯»å–åœ°å€ 0x80010a18
0x800010c4: 00 07 a7 83 lw	a5, 0(a5)
è¯»å–åœ°å€ 0x800010c8
0x800010c8: 00 05 85 13 addi	a0, a1, 0
è¯»å–åœ°å€ 0x800010cc
0x800010cc: 00 07 80 67 jalr	zero, 0(a5)
è¯»å–åœ°å€ 0x80001134
0x80001134: a0 00 07 b7 lui	a5, 655360
è¯»å–åœ°å€ 0x80001138
read device name = keyboard 	 addr = 0xa0000060 
0x80001138: 06 07 a7 83 lw	a5, 96(a5)
è¯»å–åœ°å€ 0x8000113c
0x8000113c: 00 00 87 37 lui	a4, 8
è¯»å–åœ°å€ 0x80001140
å†™å…¥åœ°å€ 0x8009cfac
0x80001140: 00 f5 22 23 sw	a5, 4(a0)
è¯»å–åœ°å€ 0x80001144
0x80001144: 00 e7 f6 b3 and	a3, a5, a4
è¯»å–åœ°å€ 0x80001148
0x80001148: 00 06 8c 63 beq	a3, zero, 0x80001160
è¯»å–åœ°å€ 0x80001160
å†™å…¥åœ°å€ 0x8009cfa8
0x80001160: 00 05 00 23 sb	zero, 0(a0)
è¯»å–åœ°å€ 0x80001164
0x80001164: 00 00 80 67 jalr	zero, 0(ra)
è¯»å–åœ°å€ 0x80000da8
è¯»å–åœ°å€ 0x8009cfac
0x80000da8: 00 c1 26 03 lw	a2, 12(sp)
è¯»å–åœ°å€ 0x80000dac
è¯»å–åœ°å€ 0x8009cfa8
0x80000dac: 00 81 47 03 lbu	a4, 8(sp)
è¯»å–åœ°å€ 0x80000db0
0x80000db0: 18 09 05 13 addi	a0, s2, 384
è¯»å–åœ°å€ 0x80000db4
0x80000db4: 00 26 17 93 slli	a5, a2, 2
è¯»å–åœ°å€ 0x80000db8
0x80000db8: 00 f4 07 b3 add	a5, s0, a5
è¯»å–åœ°å€ 0x80000dbc
0x80000dbc: fc 06 16 e3 bne	a2, zero, 0x80000d88
è¯»å–åœ°å€ 0x80000dc0
è¯»å–åœ°å€ 0x80094e28
0x80000dc0: 00 0a c7 83 lbu	a5, 0(s5)
è¯»å–åœ°å€ 0x80000dc4
0x80000dc4: f9 1f f0 6f jal	zero, 0x80000d54
è¯»å–åœ°å€ 0x80000d54
è¯»å–åœ°å€ 0x80094e29
0x80000d54: 00 09 c7 03 lbu	a4, 0(s3)
è¯»å–åœ°å€ 0x80000d58
0x80000d58: 02 07 04 63 beq	a4, zero, 0x80000d80
è¯»å–åœ°å€ 0x80000d80
0x80000d80: 00 07 9e 63 bne	a5, zero, 0x80000d9c
è¯»å–åœ°å€ 0x80000d9c
0x80000d9c: 00 80 05 13 addi	a0, zero, 8
è¯»å–åœ°å€ 0x80000da0
0x80000da0: 00 81 05 93 addi	a1, sp, 8
è¯»å–åœ°å€ 0x80000da4
0x80000da4: 31 00 00 ef jal	ra, 0x800010b4
è¯»å–åœ°å€ 0x800010b4
0x800010b4: 80 01 17 b7 lui	a5, 524305
è¯»å–åœ°å€ 0x800010b8
0x800010b8: 00 25 15 13 slli	a0, a0, 2
è¯»å–åœ°å€ 0x800010bc
0x800010bc: 9f 87 87 93 addi	a5, a5, -1544
è¯»å–åœ°å€ 0x800010c0
0x800010c0: 00 a7 87 b3 add	a5, a5, a0
è¯»å–åœ°å€ 0x800010c4
è¯»å–åœ°å€ 0x80010a18
0x800010c4: 00 07 a7 83 lw	a5, 0(a5)
è¯»å–åœ°å€ 0x800010c8
0x800010c8: 00 05 85 13 addi	a0, a1, 0
è¯»å–åœ°å€ 0x800010cc
0x800010cc: 00 07 80 67 jalr	zero, 0(a5)
è¯»å–åœ°å€ 0x80001134
0x80001134: a0 00 07 b7 lui	a5, 655360
è¯»å–åœ°å€ 0x80001138
read device name = keyboard 	 addr = 0xa0000060 
0x80001138: 06 07 a7 83 lw	a5, 96(a5)
è¯»å–åœ°å€ 0x8000113c
0x8000113c: 00 00 87 37 lui	a4, 8
è¯»å–åœ°å€ 0x80001140
å†™å…¥åœ°å€ 0x8009cfac
0x80001140: 00 f5 22 23 sw	a5, 4(a0)
è¯»å–åœ°å€ 0x80001144
0x80001144: 00 e7 f6 b3 and	a3, a5, a4
è¯»å–åœ°å€ 0x80001148
0x80001148: 00 06 8c 63 beq	a3, zero, 0x80001160
è¯»å–åœ°å€ 0x80001160
å†™å…¥åœ°å€ 0x8009cfa8
0x80001160: 00 05 00 23 sb	zero, 0(a0)
è¯»å–åœ°å€ 0x80001164
0x80001164: 00 00 80 67 jalr	zero, 0(ra)
è¯»å–åœ°å€ 0x80000da8
è¯»å–åœ°å€ 0x8009cfac
0x80000da8: 00 c1 26 03 lw	a2, 12(sp)
è¯»å–åœ°å€ 0x80000dac
è¯»å–åœ°å€ 0x8009cfa8
0x80000dac: 00 81 47 03 lbu	a4, 8(sp)
è¯»å–åœ°å€ 0x80000db0
0x80000db0: 18 09 05 13 addi	a0, s2, 384
è¯»å–åœ°å€ 0x80000db4
0x80000db4: 00 26 17 93 slli	a5, a2, 2
è¯»å–åœ°å€ 0x80000db8
0x80000db8: 00 f4 07 b3 add	a5, s0, a5
è¯»å–åœ°å€ 0x80000dbc
0x80000dbc: fc 06 16 e3 bne	a2, zero, 0x80000d88
è¯»å–åœ°å€ 0x80000dc0
è¯»å–åœ°å€ 0x80094e28
0x80000dc0: 00 0a c7 83 lbu	a5, 0(s5)
è¯»å–åœ°å€ 0x80000dc4
0x80000dc4: f9 1f f0 6f jal	zero, 0x80000d54
è¯»å–åœ°å€ 0x80000d54
è¯»å–åœ°å€ 0x80094e29
0x80000d54: 00 09 c7 03 lbu	a4, 0(s3)
è¯»å–åœ°å€ 0x80000d58
0x80000d58: 02 07 04 63 beq	a4, zero, 0x80000d80
è¯»å–åœ°å€ 0x80000d80
0x80000d80: 00 07 9e 63 bne	a5, zero, 0x80000d9c
è¯»å–åœ°å€ 0x80000d9c
0x80000d9c: 00 80 05 13 addi	a0, zero, 8
è¯»å–åœ°å€ 0x80000da0
0x80000da0: 00 81 05 93 addi	a1, sp, 8
è¯»å–åœ°å€ 0x80000da4
0x80000da4: 31 00 00 ef jal	ra, 0x800010b4
è¯»å–åœ°å€ 0x800010b4
0x800010b4: 80 01 17 b7 lui	a5, 524305
è¯»å–åœ°å€ 0x800010b8
0x800010b8: 00 25 15 13 slli	a0, a0, 2
è¯»å–åœ°å€ 0x800010bc
0x800010bc: 9f 87 87 93 addi	a5, a5, -1544
è¯»å–åœ°å€ 0x800010c0
0x800010c0: 00 a7 87 b3 add	a5, a5, a0
è¯»å–åœ°å€ 0x800010c4
è¯»å–åœ°å€ 0x80010a18
0x800010c4: 00 07 a7 83 lw	a5, 0(a5)
è¯»å–åœ°å€ 0x800010c8
0x800010c8: 00 05 85 13 addi	a0, a1, 0
è¯»å–åœ°å€ 0x800010cc
0x800010cc: 00 07 80 67 jalr	zero, 0(a5)
è¯»å–åœ°å€ 0x80001134
0x80001134: a0 00 07 b7 lui	a5, 655360
è¯»å–åœ°å€ 0x80001138
read device name = keyboard 	 addr = 0xa0000060 
0x80001138: 06 07 a7 83 lw	a5, 96(a5)
è¯»å–åœ°å€ 0x8000113c
0x8000113c: 00 00 87 37 lui	a4, 8
è¯»å–åœ°å€ 0x80001140
å†™å…¥åœ°å€ 0x8009cfac
0x80001140: 00 f5 22 23 sw	a5, 4(a0)
è¯»å–åœ°å€ 0x80001144
0x80001144: 00 e7 f6 b3 and	a3, a5, a4
è¯»å–åœ°å€ 0x80001148
0x80001148: 00 06 8c 63 beq	a3, zero, 0x80001160
è¯»å–åœ°å€ 0x80001160
å†™å…¥åœ°å€ 0x8009cfa8
0x80001160: 00 05 00 23 sb	zero, 0(a0)
è¯»å–åœ°å€ 0x80001164
0x80001164: 00 00 80 67 jalr	zero, 0(ra)
è¯»å–åœ°å€ 0x80000da8
è¯»å–åœ°å€ 0x8009cfac
0x80000da8: 00 c1 26 03 lw	a2, 12(sp)
è¯»å–åœ°å€ 0x80000dac
è¯»å–åœ°å€ 0x8009cfa8
0x80000dac: 00 81 47 03 lbu	a4, 8(sp)
è¯»å–åœ°å€ 0x80000db0
0x80000db0: 18 09 05 13 addi	a0, s2, 384
è¯»å–åœ°å€ 0x80000db4
0x80000db4: 00 26 17 93 slli	a5, a2, 2
è¯»å–åœ°å€ 0x80000db8
0x80000db8: 00 f4 07 b3 add	a5, s0, a5
è¯»å–åœ°å€ 0x80000dbc
0x80000dbc: fc 06 16 e3 bne	a2, zero, 0x80000d88
è¯»å–åœ°å€ 0x80000dc0
è¯»å–åœ°å€ 0x80094e28
0x80000dc0: 00 0a c7 83 lbu	a5, 0(s5)
è¯»å–åœ°å€ 0x80000dc4
0x80000dc4: f9 1f f0 6f jal	zero, 0x80000d54
è¯»å–åœ°å€ 0x80000d54
è¯»å–åœ°å€ 0x80094e29
0x80000d54: 00 09 c7 03 lbu	a4, 0(s3)
è¯»å–åœ°å€ 0x80000d58
0x80000d58: 02 07 04 63 beq	a4, zero, 0x80000d80
è¯»å–åœ°å€ 0x80000d80
0x80000d80: 00 07 9e 63 bne	a5, zero, 0x80000d9c
è¯»å–åœ°å€ 0x80000d9c
0x80000d9c: 00 80 05 13 addi	a0, zero, 8
è¯»å–åœ°å€ 0x80000da0
0x80000da0: 00 81 05 93 addi	a1, sp, 8
è¯»å–åœ°å€ 0x80000da4
0x80000da4: 31 00 00 ef jal	ra, 0x800010b4
è¯»å–åœ°å€ 0x800010b4
0x800010b4: 80 01 17 b7 lui	a5, 524305
è¯»å–åœ°å€ 0x800010b8
0x800010b8: 00 25 15 13 slli	a0, a0, 2
è¯»å–åœ°å€ 0x800010bc
0x800010bc: 9f 87 87 93 addi	a5, a5, -1544
è¯»å–åœ°å€ 0x800010c0
0x800010c0: 00 a7 87 b3 add	a5, a5, a0
è¯»å–åœ°å€ 0x800010c4
è¯»å–åœ°å€ 0x80010a18
0x800010c4: 00 07 a7 83 lw	a5, 0(a5)
è¯»å–åœ°å€ 0x800010c8
0x800010c8: 00 05 85 13 addi	a0, a1, 0
è¯»å–åœ°å€ 0x800010cc
0x800010cc: 00 07 80 67 jalr	zero, 0(a5)
è¯»å–åœ°å€ 0x80001134
0x80001134: a0 00 07 b7 lui	a5, 655360
è¯»å–åœ°å€ 0x80001138
read device name = keyboard 	 addr = 0xa0000060 
0x80001138: 06 07 a7 83 lw	a5, 96(a5)
è¯»å–åœ°å€ 0x8000113c
0x8000113c: 00 00 87 37 lui	a4, 8
è¯»å–åœ°å€ 0x80001140
å†™å…¥åœ°å€ 0x8009cfac
0x80001140: 00 f5 22 23 sw	a5, 4(a0)
è¯»å–åœ°å€ 0x80001144
0x80001144: 00 e7 f6 b3 and	a3, a5, a4
è¯»å–åœ°å€ 0x80001148
0x80001148: 00 06 8c 63 beq	a3, zero, 0x80001160
è¯»å–åœ°å€ 0x80001160
å†™å…¥åœ°å€ 0x8009cfa8
0x80001160: 00 05 00 23 sb	zero, 0(a0)
è¯»å–åœ°å€ 0x80001164
0x80001164: 00 00 80 67 jalr	zero, 0(ra)
è¯»å–åœ°å€ 0x80000da8
è¯»å–åœ°å€ 0x8009cfac
0x80000da8: 00 c1 26 03 lw	a2, 12(sp)
è¯»å–åœ°å€ 0x80000dac
è¯»å–åœ°å€ 0x8009cfa8
0x80000dac: 00 81 47 03 lbu	a4, 8(sp)
è¯»å–åœ°å€ 0x80000db0
0x80000db0: 18 09 05 13 addi	a0, s2, 384
è¯»å–åœ°å€ 0x80000db4
0x80000db4: 00 26 17 93 slli	a5, a2, 2
è¯»å–åœ°å€ 0x80000db8
0x80000db8: 00 f4 07 b3 add	a5, s0, a5
è¯»å–åœ°å€ 0x80000dbc
0x80000dbc: fc 06 16 e3 bne	a2, zero, 0x80000d88
è¯»å–åœ°å€ 0x80000dc0
è¯»å–åœ°å€ 0x80094e28
0x80000dc0: 00 0a c7 83 lbu	a5, 0(s5)
è¯»å–åœ°å€ 0x80000dc4
0x80000dc4: f9 1f f0 6f jal	zero, 0x80000d54
è¯»å–åœ°å€ 0x80000d54
è¯»å–åœ°å€ 0x80094e29
0x80000d54: 00 09 c7 03 lbu	a4, 0(s3)
è¯»å–åœ°å€ 0x80000d58
0x80000d58: 02 07 04 63 beq	a4, zero, 0x80000d80
è¯»å–åœ°å€ 0x80000d80
0x80000d80: 00 07 9e 63 bne	a5, zero, 0x80000d9c
è¯»å–åœ°å€ 0x80000d9c
0x80000d9c: 00 80 05 13 addi	a0, zero, 8
è¯»å–åœ°å€ 0x80000da0
0x80000da0: 00 81 05 93 addi	a1, sp, 8
è¯»å–åœ°å€ 0x80000da4
0x80000da4: 31 00 00 ef jal	ra, 0x800010b4
è¯»å–åœ°å€ 0x800010b4
0x800010b4: 80 01 17 b7 lui	a5, 524305
è¯»å–åœ°å€ 0x800010b8
0x800010b8: 00 25 15 13 slli	a0, a0, 2
è¯»å–åœ°å€ 0x800010bc
0x800010bc: 9f 87 87 93 addi	a5, a5, -1544
è¯»å–åœ°å€ 0x800010c0
0x800010c0: 00 a7 87 b3 add	a5, a5, a0
è¯»å–åœ°å€ 0x800010c4
è¯»å–åœ°å€ 0x80010a18
0x800010c4: 00 07 a7 83 lw	a5, 0(a5)
è¯»å–åœ°å€ 0x800010c8
0x800010c8: 00 05 85 13 addi	a0, a1, 0
è¯»å–åœ°å€ 0x800010cc
0x800010cc: 00 07 80 67 jalr	zero, 0(a5)
è¯»å–åœ°å€ 0x80001134
0x80001134: a0 00 07 b7 lui	a5, 655360
è¯»å–åœ°å€ 0x80001138
read device name = keyboard 	 addr = 0xa0000060 
0x80001138: 06 07 a7 83 lw	a5, 96(a5)
è¯»å–åœ°å€ 0x8000113c
0x8000113c: 00 00 87 37 lui	a4, 8
è¯»å–åœ°å€ 0x80001140
å†™å…¥åœ°å€ 0x8009cfac
0x80001140: 00 f5 22 23 sw	a5, 4(a0)
è¯»å–åœ°å€ 0x80001144
0x80001144: 00 e7 f6 b3 and	a3, a5, a4
è¯»å–åœ°å€ 0x80001148
0x80001148: 00 06 8c 63 beq	a3, zero, 0x80001160
è¯»å–åœ°å€ 0x80001160
å†™å…¥åœ°å€ 0x8009cfa8
0x80001160: 00 05 00 23 sb	zero, 0(a0)
è¯»å–åœ°å€ 0x80001164
0x80001164: 00 00 80 67 jalr	zero, 0(ra)
è¯»å–åœ°å€ 0x80000da8
è¯»å–åœ°å€ 0x8009cfac
0x80000da8: 00 c1 26 03 lw	a2, 12(sp)
è¯»å–åœ°å€ 0x80000dac
è¯»å–åœ°å€ 0x8009cfa8
0x80000dac: 00 81 47 03 lbu	a4, 8(sp)
è¯»å–åœ°å€ 0x80000db0
0x80000db0: 18 09 05 13 addi	a0, s2, 384
è¯»å–åœ°å€ 0x80000db4
0x80000db4: 00 26 17 93 slli	a5, a2, 2
è¯»å–åœ°å€ 0x80000db8
0x80000db8: 00 f4 07 b3 add	a5, s0, a5
è¯»å–åœ°å€ 0x80000dbc
0x80000dbc: fc 06 16 e3 bne	a2, zero, 0x80000d88
è¯»å–åœ°å€ 0x80000dc0
è¯»å–åœ°å€ 0x80094e28
0x80000dc0: 00 0a c7 83 lbu	a5, 0(s5)
è¯»å–åœ°å€ 0x80000dc4
0x80000dc4: f9 1f f0 6f jal	zero, 0x80000d54
è¯»å–åœ°å€ 0x80000d54
è¯»å–åœ°å€ 0x80094e29
0x80000d54: 00 09 c7 03 lbu	a4, 0(s3)
è¯»å–åœ°å€ 0x80000d58
0x80000d58: 02 07 04 63 beq	a4, zero, 0x80000d80
è¯»å–åœ°å€ 0x80000d80
0x80000d80: 00 07 9e 63 bne	a5, zero, 0x80000d9c
è¯»å–åœ°å€ 0x80000d9c
0x80000d9c: 00 80 05 13 addi	a0, zero, 8
è¯»å–åœ°å€ 0x80000da0
0x80000da0: 00 81 05 93 addi	a1, sp, 8
è¯»å–åœ°å€ 0x80000da4
0x80000da4: 31 00 00 ef jal	ra, 0x800010b4
è¯»å–åœ°å€ 0x800010b4
0x800010b4: 80 01 17 b7 lui	a5, 524305
è¯»å–åœ°å€ 0x800010b8
0x800010b8: 00 25 15 13 slli	a0, a0, 2
è¯»å–åœ°å€ 0x800010bc
0x800010bc: 9f 87 87 93 addi	a5, a5, -1544
è¯»å–åœ°å€ 0x800010c0
0x800010c0: 00 a7 87 b3 add	a5, a5, a0
è¯»å–åœ°å€ 0x800010c4
è¯»å–åœ°å€ 0x80010a18
0x800010c4: 00 07 a7 83 lw	a5, 0(a5)
è¯»å–åœ°å€ 0x800010c8
0x800010c8: 00 05 85 13 addi	a0, a1, 0
è¯»å–åœ°å€ 0x800010cc
0x800010cc: 00 07 80 67 jalr	zero, 0(a5)
è¯»å–åœ°å€ 0x80001134
0x80001134: a0 00 07 b7 lui	a5, 655360
è¯»å–åœ°å€ 0x80001138
read device name = keyboard 	 addr = 0xa0000060 
0x80001138: 06 07 a7 83 lw	a5, 96(a5)
è¯»å–åœ°å€ 0x8000113c
0x8000113c: 00 00 87 37 lui	a4, 8
è¯»å–åœ°å€ 0x80001140
å†™å…¥åœ°å€ 0x8009cfac
0x80001140: 00 f5 22 23 sw	a5, 4(a0)
è¯»å–åœ°å€ 0x80001144
0x80001144: 00 e7 f6 b3 and	a3, a5, a4
è¯»å–åœ°å€ 0x80001148
0x80001148: 00 06 8c 63 beq	a3, zero, 0x80001160
è¯»å–åœ°å€ 0x80001160
å†™å…¥åœ°å€ 0x8009cfa8
0x80001160: 00 05 00 23 sb	zero, 0(a0)
è¯»å–åœ°å€ 0x80001164
0x80001164: 00 00 80 67 jalr	zero, 0(ra)
è¯»å–åœ°å€ 0x80000da8
è¯»å–åœ°å€ 0x8009cfac
0x80000da8: 00 c1 26 03 lw	a2, 12(sp)
è¯»å–åœ°å€ 0x80000dac
è¯»å–åœ°å€ 0x8009cfa8
0x80000dac: 00 81 47 03 lbu	a4, 8(sp)
è¯»å–åœ°å€ 0x80000db0
0x80000db0: 18 09 05 13 addi	a0, s2, 384
è¯»å–åœ°å€ 0x80000db4
0x80000db4: 00 26 17 93 slli	a5, a2, 2
è¯»å–åœ°å€ 0x80000db8
0x80000db8: 00 f4 07 b3 add	a5, s0, a5
è¯»å–åœ°å€ 0x80000dbc
0x80000dbc: fc 06 16 e3 bne	a2, zero, 0x80000d88
è¯»å–åœ°å€ 0x80000dc0
è¯»å–åœ°å€ 0x80094e28
0x80000dc0: 00 0a c7 83 lbu	a5, 0(s5)
è¯»å–åœ°å€ 0x80000dc4
0x80000dc4: f9 1f f0 6f jal	zero, 0x80000d54
è¯»å–åœ°å€ 0x80000d54
è¯»å–åœ°å€ 0x80094e29
0x80000d54: 00 09 c7 03 lbu	a4, 0(s3)
è¯»å–åœ°å€ 0x80000d58
0x80000d58: 02 07 04 63 beq	a4, zero, 0x80000d80
è¯»å–åœ°å€ 0x80000d80
0x80000d80: 00 07 9e 63 bne	a5, zero, 0x80000d9c
è¯»å–åœ°å€ 0x80000d9c
0x80000d9c: 00 80 05 13 addi	a0, zero, 8
è¯»å–åœ°å€ 0x80000da0
0x80000da0: 00 81 05 93 addi	a1, sp, 8
è¯»å–åœ°å€ 0x80000da4
0x80000da4: 31 00 00 ef jal	ra, 0x800010b4
è¯»å–åœ°å€ 0x800010b4
0x800010b4: 80 01 17 b7 lui	a5, 524305
è¯»å–åœ°å€ 0x800010b8
0x800010b8: 00 25 15 13 slli	a0, a0, 2
è¯»å–åœ°å€ 0x800010bc
0x800010bc: 9f 87 87 93 addi	a5, a5, -1544
è¯»å–åœ°å€ 0x800010c0
0x800010c0: 00 a7 87 b3 add	a5, a5, a0
è¯»å–åœ°å€ 0x800010c4
è¯»å–åœ°å€ 0x80010a18
0x800010c4: 00 07 a7 83 lw	a5, 0(a5)
è¯»å–åœ°å€ 0x800010c8
0x800010c8: 00 05 85 13 addi	a0, a1, 0
è¯»å–åœ°å€ 0x800010cc
0x800010cc: 00 07 80 67 jalr	zero, 0(a5)
è¯»å–åœ°å€ 0x80001134
0x80001134: a0 00 07 b7 lui	a5, 655360
è¯»å–åœ°å€ 0x80001138
read device name = keyboard 	 addr = 0xa0000060 
0x80001138: 06 07 a7 83 lw	a5, 96(a5)
è¯»å–åœ°å€ 0x8000113c
0x8000113c: 00 00 87 37 lui	a4, 8
è¯»å–åœ°å€ 0x80001140
å†™å…¥åœ°å€ 0x8009cfac
0x80001140: 00 f5 22 23 sw	a5, 4(a0)
è¯»å–åœ°å€ 0x80001144
0x80001144: 00 e7 f6 b3 and	a3, a5, a4
è¯»å–åœ°å€ 0x80001148
0x80001148: 00 06 8c 63 beq	a3, zero, 0x80001160
è¯»å–åœ°å€ 0x80001160
å†™å…¥åœ°å€ 0x8009cfa8
0x80001160: 00 05 00 23 sb	zero, 0(a0)
è¯»å–åœ°å€ 0x80001164
0x80001164: 00 00 80 67 jalr	zero, 0(ra)
è¯»å–åœ°å€ 0x80000da8
è¯»å–åœ°å€ 0x8009cfac
0x80000da8: 00 c1 26 03 lw	a2, 12(sp)
è¯»å–åœ°å€ 0x80000dac
è¯»å–åœ°å€ 0x8009cfa8
0x80000dac: 00 81 47 03 lbu	a4, 8(sp)
è¯»å–åœ°å€ 0x80000db0
0x80000db0: 18 09 05 13 addi	a0, s2, 384
è¯»å–åœ°å€ 0x80000db4
0x80000db4: 00 26 17 93 slli	a5, a2, 2
è¯»å–åœ°å€ 0x80000db8
0x80000db8: 00 f4 07 b3 add	a5, s0, a5
è¯»å–åœ°å€ 0x80000dbc
0x80000dbc: fc 06 16 e3 bne	a2, zero, 0x80000d88
è¯»å–åœ°å€ 0x80000dc0
è¯»å–åœ°å€ 0x80094e28
0x80000dc0: 00 0a c7 83 lbu	a5, 0(s5)
è¯»å–åœ°å€ 0x80000dc4
0x80000dc4: f9 1f f0 6f jal	zero, 0x80000d54
è¯»å–åœ°å€ 0x80000d54
è¯»å–åœ°å€ 0x80094e29
0x80000d54: 00 09 c7 03 lbu	a4, 0(s3)
è¯»å–åœ°å€ 0x80000d58
0x80000d58: 02 07 04 63 beq	a4, zero, 0x80000d80
è¯»å–åœ°å€ 0x80000d80
0x80000d80: 00 07 9e 63 bne	a5, zero, 0x80000d9c
è¯»å–åœ°å€ 0x80000d9c
0x80000d9c: 00 80 05 13 addi	a0, zero, 8
è¯»å–åœ°å€ 0x80000da0
0x80000da0: 00 81 05 93 addi	a1, sp, 8
è¯»å–åœ°å€ 0x80000da4
0x80000da4: 31 00 00 ef jal	ra, 0x800010b4
è¯»å–åœ°å€ 0x800010b4
0x800010b4: 80 01 17 b7 lui	a5, 524305
è¯»å–åœ°å€ 0x800010b8
0x800010b8: 00 25 15 13 slli	a0, a0, 2
è¯»å–åœ°å€ 0x800010bc
0x800010bc: 9f 87 87 93 addi	a5, a5, -1544
è¯»å–åœ°å€ 0x800010c0
0x800010c0: 00 a7 87 b3 add	a5, a5, a0
è¯»å–åœ°å€ 0x800010c4
è¯»å–åœ°å€ 0x80010a18
0x800010c4: 00 07 a7 83 lw	a5, 0(a5)
è¯»å–åœ°å€ 0x800010c8
0x800010c8: 00 05 85 13 addi	a0, a1, 0
è¯»å–åœ°å€ 0x800010cc
0x800010cc: 00 07 80 67 jalr	zero, 0(a5)
è¯»å–åœ°å€ 0x80001134
0x80001134: a0 00 07 b7 lui	a5, 655360
è¯»å–åœ°å€ 0x80001138
read device name = keyboard 	 addr = 0xa0000060 
0x80001138: 06 07 a7 83 lw	a5, 96(a5)
è¯»å–åœ°å€ 0x8000113c
0x8000113c: 00 00 87 37 lui	a4, 8
è¯»å–åœ°å€ 0x80001140
å†™å…¥åœ°å€ 0x8009cfac
0x80001140: 00 f5 22 23 sw	a5, 4(a0)
è¯»å–åœ°å€ 0x80001144
0x80001144: 00 e7 f6 b3 and	a3, a5, a4
è¯»å–åœ°å€ 0x80001148
0x80001148: 00 06 8c 63 beq	a3, zero, 0x80001160
è¯»å–åœ°å€ 0x80001160
å†™å…¥åœ°å€ 0x8009cfa8
0x80001160: 00 05 00 23 sb	zero, 0(a0)
è¯»å–åœ°å€ 0x80001164
0x80001164: 00 00 80 67 jalr	zero, 0(ra)
è¯»å–åœ°å€ 0x80000da8
è¯»å–åœ°å€ 0x8009cfac
0x80000da8: 00 c1 26 03 lw	a2, 12(sp)
è¯»å–åœ°å€ 0x80000dac
è¯»å–åœ°å€ 0x8009cfa8
0x80000dac: 00 81 47 03 lbu	a4, 8(sp)
è¯»å–åœ°å€ 0x80000db0
0x80000db0: 18 09 05 13 addi	a0, s2, 384
è¯»å–åœ°å€ 0x80000db4
0x80000db4: 00 26 17 93 slli	a5, a2, 2
è¯»å–åœ°å€ 0x80000db8
0x80000db8: 00 f4 07 b3 add	a5, s0, a5
è¯»å–åœ°å€ 0x80000dbc
0x80000dbc: fc 06 16 e3 bne	a2, zero, 0x80000d88
è¯»å–åœ°å€ 0x80000dc0
è¯»å–åœ°å€ 0x80094e28
0x80000dc0: 00 0a c7 83 lbu	a5, 0(s5)
è¯»å–åœ°å€ 0x80000dc4
0x80000dc4: f9 1f f0 6f jal	zero, 0x80000d54
è¯»å–åœ°å€ 0x80000d54
è¯»å–åœ°å€ 0x80094e29
0x80000d54: 00 09 c7 03 lbu	a4, 0(s3)
è¯»å–åœ°å€ 0x80000d58
0x80000d58: 02 07 04 63 beq	a4, zero, 0x80000d80
è¯»å–åœ°å€ 0x80000d80
0x80000d80: 00 07 9e 63 bne	a5, zero, 0x80000d9c
è¯»å–åœ°å€ 0x80000d9c
0x80000d9c: 00 80 05 13 addi	a0, zero, 8
è¯»å–åœ°å€ 0x80000da0
0x80000da0: 00 81 05 93 addi	a1, sp, 8
è¯»å–åœ°å€ 0x80000da4
0x80000da4: 31 00 00 ef jal	ra, 0x800010b4
è¯»å–åœ°å€ 0x800010b4
0x800010b4: 80 01 17 b7 lui	a5, 524305
è¯»å–åœ°å€ 0x800010b8
0x800010b8: 00 25 15 13 slli	a0, a0, 2
è¯»å–åœ°å€ 0x800010bc
0x800010bc: 9f 87 87 93 addi	a5, a5, -1544
è¯»å–åœ°å€ 0x800010c0
0x800010c0: 00 a7 87 b3 add	a5, a5, a0
è¯»å–åœ°å€ 0x800010c4
è¯»å–åœ°å€ 0x80010a18
0x800010c4: 00 07 a7 83 lw	a5, 0(a5)
è¯»å–åœ°å€ 0x800010c8
0x800010c8: 00 05 85 13 addi	a0, a1, 0
è¯»å–åœ°å€ 0x800010cc
0x800010cc: 00 07 80 67 jalr	zero, 0(a5)
è¯»å–åœ°å€ 0x80001134
0x80001134: a0 00 07 b7 lui	a5, 655360
è¯»å–åœ°å€ 0x80001138
read device name = keyboard 	 addr = 0xa0000060 
0x80001138: 06 07 a7 83 lw	a5, 96(a5)
è¯»å–åœ°å€ 0x8000113c
0x8000113c: 00 00 87 37 lui	a4, 8
è¯»å–åœ°å€ 0x80001140
å†™å…¥åœ°å€ 0x8009cfac
0x80001140: 00 f5 22 23 sw	a5, 4(a0)
è¯»å–åœ°å€ 0x80001144
0x80001144: 00 e7 f6 b3 and	a3, a5, a4
è¯»å–åœ°å€ 0x80001148
0x80001148: 00 06 8c 63 beq	a3, zero, 0x80001160
è¯»å–åœ°å€ 0x80001160
å†™å…¥åœ°å€ 0x8009cfa8
0x80001160: 00 05 00 23 sb	zero, 0(a0)
è¯»å–åœ°å€ 0x80001164
0x80001164: 00 00 80 67 jalr	zero, 0(ra)
è¯»å–åœ°å€ 0x80000da8
è¯»å–åœ°å€ 0x8009cfac
0x80000da8: 00 c1 26 03 lw	a2, 12(sp)
è¯»å–åœ°å€ 0x80000dac
è¯»å–åœ°å€ 0x8009cfa8
0x80000dac: 00 81 47 03 lbu	a4, 8(sp)
è¯»å–åœ°å€ 0x80000db0
0x80000db0: 18 09 05 13 addi	a0, s2, 384
è¯»å–åœ°å€ 0x80000db4
0x80000db4: 00 26 17 93 slli	a5, a2, 2
è¯»å–åœ°å€ 0x80000db8
0x80000db8: 00 f4 07 b3 add	a5, s0, a5
è¯»å–åœ°å€ 0x80000dbc
0x80000dbc: fc 06 16 e3 bne	a2, zero, 0x80000d88
è¯»å–åœ°å€ 0x80000dc0
è¯»å–åœ°å€ 0x80094e28
0x80000dc0: 00 0a c7 83 lbu	a5, 0(s5)
è¯»å–åœ°å€ 0x80000dc4
0x80000dc4: f9 1f f0 6f jal	zero, 0x80000d54
è¯»å–åœ°å€ 0x80000d54
è¯»å–åœ°å€ 0x80094e29
0x80000d54: 00 09 c7 03 lbu	a4, 0(s3)
è¯»å–åœ°å€ 0x80000d58
0x80000d58: 02 07 04 63 beq	a4, zero, 0x80000d80
è¯»å–åœ°å€ 0x80000d80
0x80000d80: 00 07 9e 63 bne	a5, zero, 0x80000d9c
è¯»å–åœ°å€ 0x80000d9c
0x80000d9c: 00 80 05 13 addi	a0, zero, 8
è¯»å–åœ°å€ 0x80000da0
0x80000da0: 00 81 05 93 addi	a1, sp, 8
è¯»å–åœ°å€ 0x80000da4
0x80000da4: 31 00 00 ef jal	ra, 0x800010b4
è¯»å–åœ°å€ 0x800010b4
0x800010b4: 80 01 17 b7 lui	a5, 524305
è¯»å–åœ°å€ 0x800010b8
0x800010b8: 00 25 15 13 slli	a0, a0, 2
è¯»å–åœ°å€ 0x800010bc
0x800010bc: 9f 87 87 93 addi	a5, a5, -1544
è¯»å–åœ°å€ 0x800010c0
0x800010c0: 00 a7 87 b3 add	a5, a5, a0
è¯»å–åœ°å€ 0x800010c4
è¯»å–åœ°å€ 0x80010a18
0x800010c4: 00 07 a7 83 lw	a5, 0(a5)
è¯»å–åœ°å€ 0x800010c8
0x800010c8: 00 05 85 13 addi	a0, a1, 0
è¯»å–åœ°å€ 0x800010cc
0x800010cc: 00 07 80 67 jalr	zero, 0(a5)
è¯»å–åœ°å€ 0x80001134
0x80001134: a0 00 07 b7 lui	a5, 655360
è¯»å–åœ°å€ 0x80001138
read device name = keyboard 	 addr = 0xa0000060 
0x80001138: 06 07 a7 83 lw	a5, 96(a5)
è¯»å–åœ°å€ 0x8000113c
0x8000113c: 00 00 87 37 lui	a4, 8
è¯»å–åœ°å€ 0x80001140
å†™å…¥åœ°å€ 0x8009cfac
0x80001140: 00 f5 22 23 sw	a5, 4(a0)
è¯»å–åœ°å€ 0x80001144
0x80001144: 00 e7 f6 b3 and	a3, a5, a4
è¯»å–åœ°å€ 0x80001148
0x80001148: 00 06 8c 63 beq	a3, zero, 0x80001160
è¯»å–åœ°å€ 0x80001160
å†™å…¥åœ°å€ 0x8009cfa8
0x80001160: 00 05 00 23 sb	zero, 0(a0)
è¯»å–åœ°å€ 0x80001164
0x80001164: 00 00 80 67 jalr	zero, 0(ra)
è¯»å–åœ°å€ 0x80000da8
è¯»å–åœ°å€ 0x8009cfac
0x80000da8: 00 c1 26 03 lw	a2, 12(sp)
è¯»å–åœ°å€ 0x80000dac
è¯»å–åœ°å€ 0x8009cfa8
0x80000dac: 00 81 47 03 lbu	a4, 8(sp)
è¯»å–åœ°å€ 0x80000db0
0x80000db0: 18 09 05 13 addi	a0, s2, 384
è¯»å–åœ°å€ 0x80000db4
0x80000db4: 00 26 17 93 slli	a5, a2, 2
è¯»å–åœ°å€ 0x80000db8
0x80000db8: 00 f4 07 b3 add	a5, s0, a5
è¯»å–åœ°å€ 0x80000dbc
0x80000dbc: fc 06 16 e3 bne	a2, zero, 0x80000d88
è¯»å–åœ°å€ 0x80000dc0
è¯»å–åœ°å€ 0x80094e28
0x80000dc0: 00 0a c7 83 lbu	a5, 0(s5)
è¯»å–åœ°å€ 0x80000dc4
0x80000dc4: f9 1f f0 6f jal	zero, 0x80000d54
è¯»å–åœ°å€ 0x80000d54
è¯»å–åœ°å€ 0x80094e29
0x80000d54: 00 09 c7 03 lbu	a4, 0(s3)
è¯»å–åœ°å€ 0x80000d58
0x80000d58: 02 07 04 63 beq	a4, zero, 0x80000d80
è¯»å–åœ°å€ 0x80000d80
0x80000d80: 00 07 9e 63 bne	a5, zero, 0x80000d9c
è¯»å–åœ°å€ 0x80000d9c
0x80000d9c: 00 80 05 13 addi	a0, zero, 8
è¯»å–åœ°å€ 0x80000da0
0x80000da0: 00 81 05 93 addi	a1, sp, 8
è¯»å–åœ°å€ 0x80000da4
0x80000da4: 31 00 00 ef jal	ra, 0x800010b4
è¯»å–åœ°å€ 0x800010b4
0x800010b4: 80 01 17 b7 lui	a5, 524305
è¯»å–åœ°å€ 0x800010b8
0x800010b8: 00 25 15 13 slli	a0, a0, 2
è¯»å–åœ°å€ 0x800010bc
0x800010bc: 9f 87 87 93 addi	a5, a5, -1544
è¯»å–åœ°å€ 0x800010c0
0x800010c0: 00 a7 87 b3 add	a5, a5, a0
è¯»å–åœ°å€ 0x800010c4
è¯»å–åœ°å€ 0x80010a18
0x800010c4: 00 07 a7 83 lw	a5, 0(a5)
è¯»å–åœ°å€ 0x800010c8
0x800010c8: 00 05 85 13 addi	a0, a1, 0
è¯»å–åœ°å€ 0x800010cc
0x800010cc: 00 07 80 67 jalr	zero, 0(a5)
è¯»å–åœ°å€ 0x80001134
0x80001134: a0 00 07 b7 lui	a5, 655360
è¯»å–åœ°å€ 0x80001138
read device name = keyboard 	 addr = 0xa0000060 
0x80001138: 06 07 a7 83 lw	a5, 96(a5)
è¯»å–åœ°å€ 0x8000113c
0x8000113c: 00 00 87 37 lui	a4, 8
è¯»å–åœ°å€ 0x80001140
å†™å…¥åœ°å€ 0x8009cfac
0x80001140: 00 f5 22 23 sw	a5, 4(a0)
è¯»å–åœ°å€ 0x80001144
0x80001144: 00 e7 f6 b3 and	a3, a5, a4
è¯»å–åœ°å€ 0x80001148
0x80001148: 00 06 8c 63 beq	a3, zero, 0x80001160
è¯»å–åœ°å€ 0x80001160
å†™å…¥åœ°å€ 0x8009cfa8
0x80001160: 00 05 00 23 sb	zero, 0(a0)
è¯»å–åœ°å€ 0x80001164
0x80001164: 00 00 80 67 jalr	zero, 0(ra)
è¯»å–åœ°å€ 0x80000da8
è¯»å–åœ°å€ 0x8009cfac
0x80000da8: 00 c1 26 03 lw	a2, 12(sp)
è¯»å–åœ°å€ 0x80000dac
è¯»å–åœ°å€ 0x8009cfa8
0x80000dac: 00 81 47 03 lbu	a4, 8(sp)
è¯»å–åœ°å€ 0x80000db0
0x80000db0: 18 09 05 13 addi	a0, s2, 384
è¯»å–åœ°å€ 0x80000db4
0x80000db4: 00 26 17 93 slli	a5, a2, 2
è¯»å–åœ°å€ 0x80000db8
0x80000db8: 00 f4 07 b3 add	a5, s0, a5
è¯»å–åœ°å€ 0x80000dbc
0x80000dbc: fc 06 16 e3 bne	a2, zero, 0x80000d88
è¯»å–åœ°å€ 0x80000dc0
è¯»å–åœ°å€ 0x80094e28
0x80000dc0: 00 0a c7 83 lbu	a5, 0(s5)
è¯»å–åœ°å€ 0x80000dc4
0x80000dc4: f9 1f f0 6f jal	zero, 0x80000d54
è¯»å–åœ°å€ 0x80000d54
è¯»å–åœ°å€ 0x80094e29
0x80000d54: 00 09 c7 03 lbu	a4, 0(s3)
è¯»å–åœ°å€ 0x80000d58
0x80000d58: 02 07 04 63 beq	a4, zero, 0x80000d80
è¯»å–åœ°å€ 0x80000d80
0x80000d80: 00 07 9e 63 bne	a5, zero, 0x80000d9c
è¯»å–åœ°å€ 0x80000d9c
0x80000d9c: 00 80 05 13 addi	a0, zero, 8
è¯»å–åœ°å€ 0x80000da0
0x80000da0: 00 81 05 93 addi	a1, sp, 8
è¯»å–åœ°å€ 0x80000da4
0x80000da4: 31 00 00 ef jal	ra, 0x800010b4
è¯»å–åœ°å€ 0x800010b4
0x800010b4: 80 01 17 b7 lui	a5, 524305
è¯»å–åœ°å€ 0x800010b8
0x800010b8: 00 25 15 13 slli	a0, a0, 2
è¯»å–åœ°å€ 0x800010bc
0x800010bc: 9f 87 87 93 addi	a5, a5, -1544
è¯»å–åœ°å€ 0x800010c0
0x800010c0: 00 a7 87 b3 add	a5, a5, a0
è¯»å–åœ°å€ 0x800010c4
è¯»å–åœ°å€ 0x80010a18
0x800010c4: 00 07 a7 83 lw	a5, 0(a5)
è¯»å–åœ°å€ 0x800010c8
0x800010c8: 00 05 85 13 addi	a0, a1, 0
è¯»å–åœ°å€ 0x800010cc
0x800010cc: 00 07 80 67 jalr	zero, 0(a5)
è¯»å–åœ°å€ 0x80001134
0x80001134: a0 00 07 b7 lui	a5, 655360
è¯»å–åœ°å€ 0x80001138
read device name = keyboard 	 addr = 0xa0000060 
0x80001138: 06 07 a7 83 lw	a5, 96(a5)
è¯»å–åœ°å€ 0x8000113c
0x8000113c: 00 00 87 37 lui	a4, 8
è¯»å–åœ°å€ 0x80001140
å†™å…¥åœ°å€ 0x8009cfac
0x80001140: 00 f5 22 23 sw	a5, 4(a0)
è¯»å–åœ°å€ 0x80001144
